ARM GAS  /var/folders/km/q6jdms0143g2bddz5bhvdfd00000gn/T//ccliCe7a.s 			page 1


   1              		.cpu cortex-m4
   2              		.eabi_attribute 27, 1
   3              		.eabi_attribute 28, 1
   4              		.eabi_attribute 20, 1
   5              		.eabi_attribute 21, 1
   6              		.eabi_attribute 23, 3
   7              		.eabi_attribute 24, 1
   8              		.eabi_attribute 25, 1
   9              		.eabi_attribute 26, 1
  10              		.eabi_attribute 30, 2
  11              		.eabi_attribute 34, 1
  12              		.eabi_attribute 18, 4
  13              		.file	"chcond.c"
  14              		.text
  15              	.Ltext0:
  16              		.cfi_sections	.debug_frame
  17              		.section	.text.chCondObjectInit,"ax",%progbits
  18              		.align	1
  19              		.p2align 4,,15
  20              		.global	chCondObjectInit
  21              		.syntax unified
  22              		.thumb
  23              		.thumb_func
  24              		.fpu fpv4-sp-d16
  25              		.type	chCondObjectInit, %function
  26              	chCondObjectInit:
  27              	.LFB219:
  28              		.file 1 "../../lib/ChibiOS/os/rt/src/chcond.c"
  29              		.loc 1 75 0
  30              		.cfi_startproc
  31              		@ args = 0, pretend = 0, frame = 0
  32              		@ frame_needed = 0, uses_anonymous_args = 0
  33              	.LVL0:
  34 0000 10B5     		push	{r4, lr}
  35              		.cfi_def_cfa_offset 8
  36              		.cfi_offset 4, -8
  37              		.cfi_offset 14, -4
  38              		.loc 1 77 0
  39 0002 0446     		mov	r4, r0
  40 0004 10B1     		cbz	r0, .L5
  41              	.LVL1:
  42              	.LBB63:
  43              	.LBB64:
  44              		.file 2 "../../lib/ChibiOS/os/rt/include/chschd.h"
  45              		.loc 2 605 0
  46 0006 C4E90044 		strd	r4, r4, [r4]
  47              	.LVL2:
  48              	.LBE64:
  49              	.LBE63:
  50              		.loc 1 80 0
  51 000a 10BD     		pop	{r4, pc}
  52              	.L5:
  53              		.loc 1 77 0 discriminator 2
  54 000c 0248     		ldr	r0, .L6
  55              	.LVL3:
  56 000e FFF7FEFF 		bl	chSysHalt
  57              	.LVL4:
ARM GAS  /var/folders/km/q6jdms0143g2bddz5bhvdfd00000gn/T//ccliCe7a.s 			page 2


  58              	.LBB66:
  59              	.LBB65:
  60              		.loc 2 605 0 discriminator 2
  61 0012 C4E90044 		strd	r4, r4, [r4]
  62              	.LVL5:
  63              	.LBE65:
  64              	.LBE66:
  65              		.loc 1 80 0 discriminator 2
  66 0016 10BD     		pop	{r4, pc}
  67              	.LVL6:
  68              	.L7:
  69              		.align	2
  70              	.L6:
  71 0018 00000000 		.word	.LANCHOR0
  72              		.cfi_endproc
  73              	.LFE219:
  74              		.size	chCondObjectInit, .-chCondObjectInit
  75              		.section	.text.chCondSignal,"ax",%progbits
  76              		.align	1
  77              		.p2align 4,,15
  78              		.global	chCondSignal
  79              		.syntax unified
  80              		.thumb
  81              		.thumb_func
  82              		.fpu fpv4-sp-d16
  83              		.type	chCondSignal, %function
  84              	chCondSignal:
  85              	.LFB220:
  86              		.loc 1 89 0
  87              		.cfi_startproc
  88              		@ args = 0, pretend = 0, frame = 0
  89              		@ frame_needed = 0, uses_anonymous_args = 0
  90              	.LVL7:
  91 0000 10B5     		push	{r4, lr}
  92              		.cfi_def_cfa_offset 8
  93              		.cfi_offset 4, -8
  94              		.cfi_offset 14, -4
  95              		.loc 1 91 0
  96 0002 0446     		mov	r4, r0
  97 0004 38B3     		cbz	r0, .L13
  98              	.LVL8:
  99              	.L9:
 100              	.LBB81:
 101              	.LBB82:
 102              	.LBB83:
 103              	.LBB84:
 104              	.LBB85:
 105              		.file 3 "../../lib/ChibiOS/os/ext/CMSIS/include/core_cmFunc.h"
 106              		.loc 3 546 0
 107 0006 2023     		movs	r3, #32
 108              		.syntax unified
 109              	@ 546 "../../lib/ChibiOS/os/ext/CMSIS/include/core_cmFunc.h" 1
 110 0008 83F31188 		MSR basepri, r3
 111              	@ 0 "" 2
 112              	.LVL9:
 113              		.thumb
 114              		.syntax unified
ARM GAS  /var/folders/km/q6jdms0143g2bddz5bhvdfd00000gn/T//ccliCe7a.s 			page 3


 115              	.LBE85:
 116              	.LBE84:
 117              	.LBE83:
 118              		.file 4 "../../lib/ChibiOS/os/rt/include/chsys.h"
 119              		.loc 4 349 0
 120 000c FFF7FEFF 		bl	_stats_start_measure_crit_thd
 121              	.LVL10:
 122              		.loc 4 350 0
 123 0010 FFF7FEFF 		bl	_dbg_check_lock
 124              	.LVL11:
 125              	.LBE82:
 126              	.LBE81:
 127              	.LBB86:
 128              	.LBB87:
 129              		.loc 2 631 0
 130 0014 2068     		ldr	r0, [r4]
 131              	.LVL12:
 132              	.LBE87:
 133              	.LBE86:
 134              		.loc 1 94 0
 135 0016 8442     		cmp	r4, r0
 136 0018 05D0     		beq	.L10
 137              	.LVL13:
 138              	.LBB88:
 139              	.LBB89:
 140              		.loc 2 674 0
 141 001a 0368     		ldr	r3, [r0]
 142 001c 2360     		str	r3, [r4]
 143              	.LBE89:
 144              	.LBE88:
 145              		.loc 1 95 0
 146 001e 0021     		movs	r1, #0
 147              	.LBB91:
 148              	.LBB90:
 149              		.loc 2 675 0
 150 0020 5C60     		str	r4, [r3, #4]
 151              	.LVL14:
 152              	.LBE90:
 153              	.LBE91:
 154              		.loc 1 95 0
 155 0022 FFF7FEFF 		bl	chSchWakeupS
 156              	.LVL15:
 157              	.L10:
 158              	.LBB92:
 159              	.LBB93:
 160              		.loc 4 360 0
 161 0026 FFF7FEFF 		bl	_dbg_check_unlock
 162              	.LVL16:
 163              		.loc 4 361 0
 164 002a FFF7FEFF 		bl	_stats_stop_measure_crit_thd
 165              	.LVL17:
 166              		.loc 4 367 0
 167 002e 0C4B     		ldr	r3, .L15
 168 0030 1A68     		ldr	r2, [r3]
 169 0032 9A42     		cmp	r2, r3
 170 0034 04D0     		beq	.L11
 171 0036 9969     		ldr	r1, [r3, #24]
ARM GAS  /var/folders/km/q6jdms0143g2bddz5bhvdfd00000gn/T//ccliCe7a.s 			page 4


 172 0038 9368     		ldr	r3, [r2, #8]
 173 003a 8A68     		ldr	r2, [r1, #8]
 174 003c 9A42     		cmp	r2, r3
 175 003e 03D3     		bcc	.L14
 176              	.L11:
 177              	.LVL18:
 178              	.LBB94:
 179              	.LBB95:
 180              	.LBB96:
 181              		.loc 3 546 0
 182 0040 0023     		movs	r3, #0
 183              		.syntax unified
 184              	@ 546 "../../lib/ChibiOS/os/ext/CMSIS/include/core_cmFunc.h" 1
 185 0042 83F31188 		MSR basepri, r3
 186              	@ 0 "" 2
 187              	.LVL19:
 188              		.thumb
 189              		.syntax unified
 190              	.LBE96:
 191              	.LBE95:
 192              	.LBE94:
 193              	.LBE93:
 194              	.LBE92:
 195              		.loc 1 98 0
 196 0046 10BD     		pop	{r4, pc}
 197              	.LVL20:
 198              	.L14:
 199              	.LBB101:
 200              	.LBB100:
 201              		.loc 4 367 0
 202 0048 0648     		ldr	r0, .L15+4
 203 004a FFF7FEFF 		bl	chSysHalt
 204              	.LVL21:
 205              	.LBB99:
 206              	.LBB98:
 207              	.LBB97:
 208              		.loc 3 546 0
 209 004e 0023     		movs	r3, #0
 210              		.syntax unified
 211              	@ 546 "../../lib/ChibiOS/os/ext/CMSIS/include/core_cmFunc.h" 1
 212 0050 83F31188 		MSR basepri, r3
 213              	@ 0 "" 2
 214              	.LVL22:
 215              		.thumb
 216              		.syntax unified
 217              	.LBE97:
 218              	.LBE98:
 219              	.LBE99:
 220              	.LBE100:
 221              	.LBE101:
 222              		.loc 1 98 0
 223 0054 10BD     		pop	{r4, pc}
 224              	.LVL23:
 225              	.L13:
 226              		.loc 1 91 0 discriminator 2
 227 0056 0448     		ldr	r0, .L15+8
 228              	.LVL24:
ARM GAS  /var/folders/km/q6jdms0143g2bddz5bhvdfd00000gn/T//ccliCe7a.s 			page 5


 229 0058 FFF7FEFF 		bl	chSysHalt
 230              	.LVL25:
 231 005c D3E7     		b	.L9
 232              	.L16:
 233 005e 00BF     		.align	2
 234              	.L15:
 235 0060 00000000 		.word	ch
 236 0064 00000000 		.word	.LANCHOR2
 237 0068 00000000 		.word	.LANCHOR1
 238              		.cfi_endproc
 239              	.LFE220:
 240              		.size	chCondSignal, .-chCondSignal
 241              		.section	.text.chCondSignalI,"ax",%progbits
 242              		.align	1
 243              		.p2align 4,,15
 244              		.global	chCondSignalI
 245              		.syntax unified
 246              		.thumb
 247              		.thumb_func
 248              		.fpu fpv4-sp-d16
 249              		.type	chCondSignalI, %function
 250              	chCondSignalI:
 251              	.LFB221:
 252              		.loc 1 111 0
 253              		.cfi_startproc
 254              		@ args = 0, pretend = 0, frame = 0
 255              		@ frame_needed = 0, uses_anonymous_args = 0
 256              	.LVL26:
 257 0000 10B5     		push	{r4, lr}
 258              		.cfi_def_cfa_offset 8
 259              		.cfi_offset 4, -8
 260              		.cfi_offset 14, -4
 261              		.loc 1 111 0
 262 0002 0446     		mov	r4, r0
 263              		.loc 1 113 0
 264 0004 FFF7FEFF 		bl	chDbgCheckClassI
 265              	.LVL27:
 266              		.loc 1 114 0
 267 0008 6CB1     		cbz	r4, .L21
 268              	.L18:
 269              	.LVL28:
 270              	.LBB102:
 271              	.LBB103:
 272              		.loc 2 631 0
 273 000a 2368     		ldr	r3, [r4]
 274              	.LVL29:
 275              	.LBE103:
 276              	.LBE102:
 277              		.loc 1 116 0
 278 000c 9C42     		cmp	r4, r3
 279 000e 09D0     		beq	.L17
 280              	.LVL30:
 281              	.LBB104:
 282              	.LBB105:
 283              	.LBB106:
 284              		.loc 2 674 0
 285 0010 1A68     		ldr	r2, [r3]
ARM GAS  /var/folders/km/q6jdms0143g2bddz5bhvdfd00000gn/T//ccliCe7a.s 			page 6


 286 0012 2260     		str	r2, [r4]
 287              	.LBE106:
 288              	.LBE105:
 289              		.loc 1 118 0
 290 0014 0021     		movs	r1, #0
 291              	.LBB108:
 292              	.LBB107:
 293              		.loc 2 675 0
 294 0016 5460     		str	r4, [r2, #4]
 295              	.LVL31:
 296              	.LBE107:
 297              	.LBE108:
 298              		.loc 1 119 0
 299 0018 1846     		mov	r0, r3
 300              		.loc 1 118 0
 301 001a 9962     		str	r1, [r3, #40]
 302              	.LBE104:
 303              		.loc 1 121 0
 304 001c BDE81040 		pop	{r4, lr}
 305              		.cfi_remember_state
 306              		.cfi_restore 14
 307              		.cfi_restore 4
 308              		.cfi_def_cfa_offset 0
 309              	.LVL32:
 310              	.LBB109:
 311              		.loc 1 119 0
 312 0020 FFF7FEBF 		b	chSchReadyI
 313              	.LVL33:
 314              	.L17:
 315              		.cfi_restore_state
 316              	.LBE109:
 317              		.loc 1 121 0
 318 0024 10BD     		pop	{r4, pc}
 319              	.LVL34:
 320              	.L21:
 321              		.loc 1 114 0 discriminator 2
 322 0026 0248     		ldr	r0, .L22
 323 0028 FFF7FEFF 		bl	chSysHalt
 324              	.LVL35:
 325 002c EDE7     		b	.L18
 326              	.L23:
 327 002e 00BF     		.align	2
 328              	.L22:
 329 0030 00000000 		.word	.LANCHOR3
 330              		.cfi_endproc
 331              	.LFE221:
 332              		.size	chCondSignalI, .-chCondSignalI
 333              		.section	.text.chCondBroadcastI,"ax",%progbits
 334              		.align	1
 335              		.p2align 4,,15
 336              		.global	chCondBroadcastI
 337              		.syntax unified
 338              		.thumb
 339              		.thumb_func
 340              		.fpu fpv4-sp-d16
 341              		.type	chCondBroadcastI, %function
 342              	chCondBroadcastI:
ARM GAS  /var/folders/km/q6jdms0143g2bddz5bhvdfd00000gn/T//ccliCe7a.s 			page 7


 343              	.LFB223:
 344              		.loc 1 149 0
 345              		.cfi_startproc
 346              		@ args = 0, pretend = 0, frame = 0
 347              		@ frame_needed = 0, uses_anonymous_args = 0
 348              	.LVL36:
 349 0000 38B5     		push	{r3, r4, r5, lr}
 350              		.cfi_def_cfa_offset 16
 351              		.cfi_offset 3, -16
 352              		.cfi_offset 4, -12
 353              		.cfi_offset 5, -8
 354              		.cfi_offset 14, -4
 355              		.loc 1 149 0
 356 0002 0446     		mov	r4, r0
 357              		.loc 1 151 0
 358 0004 FFF7FEFF 		bl	chDbgCheckClassI
 359              	.LVL37:
 360              		.loc 1 152 0
 361 0008 7CB1     		cbz	r4, .L30
 362              	.L25:
 363              	.LVL38:
 364              	.LBB110:
 365              	.LBB111:
 366              		.loc 2 631 0
 367 000a 2368     		ldr	r3, [r4]
 368              	.LVL39:
 369              	.LBE111:
 370              	.LBE110:
 371              		.loc 1 157 0
 372 000c A342     		cmp	r3, r4
 373 000e 0BD0     		beq	.L24
 374              		.loc 1 158 0
 375 0010 6FF00105 		mvn	r5, #1
 376              	.L27:
 377              	.LVL40:
 378              	.LBB113:
 379              	.LBB114:
 380              		.loc 2 674 0
 381 0014 1A68     		ldr	r2, [r3]
 382 0016 2260     		str	r2, [r4]
 383              	.LBE114:
 384              	.LBE113:
 385              		.loc 1 158 0
 386 0018 1846     		mov	r0, r3
 387              	.LBB116:
 388              	.LBB115:
 389              		.loc 2 675 0
 390 001a 5460     		str	r4, [r2, #4]
 391              	.LVL41:
 392              	.LBE115:
 393              	.LBE116:
 394              		.loc 1 158 0
 395 001c FFF7FEFF 		bl	chSchReadyI
 396              	.LVL42:
 397              	.LBB117:
 398              	.LBB112:
 399              		.loc 2 631 0
ARM GAS  /var/folders/km/q6jdms0143g2bddz5bhvdfd00000gn/T//ccliCe7a.s 			page 8


 400 0020 2368     		ldr	r3, [r4]
 401              	.LBE112:
 402              	.LBE117:
 403              		.loc 1 158 0
 404 0022 8562     		str	r5, [r0, #40]
 405              		.loc 1 157 0
 406 0024 A342     		cmp	r3, r4
 407 0026 F5D1     		bne	.L27
 408              	.L24:
 409              		.loc 1 160 0
 410 0028 38BD     		pop	{r3, r4, r5, pc}
 411              	.LVL43:
 412              	.L30:
 413              		.loc 1 152 0 discriminator 2
 414 002a 0248     		ldr	r0, .L31
 415 002c FFF7FEFF 		bl	chSysHalt
 416              	.LVL44:
 417 0030 EBE7     		b	.L25
 418              	.L32:
 419 0032 00BF     		.align	2
 420              	.L31:
 421 0034 00000000 		.word	.LANCHOR4
 422              		.cfi_endproc
 423              	.LFE223:
 424              		.size	chCondBroadcastI, .-chCondBroadcastI
 425              		.section	.text.chCondBroadcast,"ax",%progbits
 426              		.align	1
 427              		.p2align 4,,15
 428              		.global	chCondBroadcast
 429              		.syntax unified
 430              		.thumb
 431              		.thumb_func
 432              		.fpu fpv4-sp-d16
 433              		.type	chCondBroadcast, %function
 434              	chCondBroadcast:
 435              	.LFB222:
 436              		.loc 1 130 0
 437              		.cfi_startproc
 438              		@ args = 0, pretend = 0, frame = 0
 439              		@ frame_needed = 0, uses_anonymous_args = 0
 440              	.LVL45:
 441 0000 10B5     		push	{r4, lr}
 442              		.cfi_def_cfa_offset 8
 443              		.cfi_offset 4, -8
 444              		.cfi_offset 14, -4
 445              	.LBB128:
 446              	.LBB129:
 447              	.LBB130:
 448              	.LBB131:
 449              	.LBB132:
 450              		.loc 3 546 0
 451 0002 2023     		movs	r3, #32
 452              	.LBE132:
 453              	.LBE131:
 454              	.LBE130:
 455              	.LBE129:
 456              	.LBE128:
ARM GAS  /var/folders/km/q6jdms0143g2bddz5bhvdfd00000gn/T//ccliCe7a.s 			page 9


 457              		.loc 1 130 0
 458 0004 0446     		mov	r4, r0
 459              	.LBB137:
 460              	.LBB136:
 461              	.LBB135:
 462              	.LBB134:
 463              	.LBB133:
 464              		.loc 3 546 0
 465              		.syntax unified
 466              	@ 546 "../../lib/ChibiOS/os/ext/CMSIS/include/core_cmFunc.h" 1
 467 0006 83F31188 		MSR basepri, r3
 468              	@ 0 "" 2
 469              	.LVL46:
 470              		.thumb
 471              		.syntax unified
 472              	.LBE133:
 473              	.LBE134:
 474              	.LBE135:
 475              		.loc 4 349 0
 476 000a FFF7FEFF 		bl	_stats_start_measure_crit_thd
 477              	.LVL47:
 478              		.loc 4 350 0
 479 000e FFF7FEFF 		bl	_dbg_check_lock
 480              	.LVL48:
 481              	.LBE136:
 482              	.LBE137:
 483              		.loc 1 133 0
 484 0012 2046     		mov	r0, r4
 485 0014 FFF7FEFF 		bl	chCondBroadcastI
 486              	.LVL49:
 487              		.loc 1 134 0
 488 0018 FFF7FEFF 		bl	chSchRescheduleS
 489              	.LVL50:
 490              	.LBB138:
 491              	.LBB139:
 492              		.loc 4 360 0
 493 001c FFF7FEFF 		bl	_dbg_check_unlock
 494              	.LVL51:
 495              		.loc 4 361 0
 496 0020 FFF7FEFF 		bl	_stats_stop_measure_crit_thd
 497              	.LVL52:
 498              		.loc 4 367 0
 499 0024 094B     		ldr	r3, .L37
 500 0026 1A68     		ldr	r2, [r3]
 501 0028 9A42     		cmp	r2, r3
 502 002a 04D0     		beq	.L34
 503 002c 9969     		ldr	r1, [r3, #24]
 504 002e 9368     		ldr	r3, [r2, #8]
 505 0030 8A68     		ldr	r2, [r1, #8]
 506 0032 9A42     		cmp	r2, r3
 507 0034 03D3     		bcc	.L36
 508              	.L34:
 509              	.LVL53:
 510              	.LBB140:
 511              	.LBB141:
 512              	.LBB142:
 513              		.loc 3 546 0
ARM GAS  /var/folders/km/q6jdms0143g2bddz5bhvdfd00000gn/T//ccliCe7a.s 			page 10


 514 0036 0023     		movs	r3, #0
 515              		.syntax unified
 516              	@ 546 "../../lib/ChibiOS/os/ext/CMSIS/include/core_cmFunc.h" 1
 517 0038 83F31188 		MSR basepri, r3
 518              	@ 0 "" 2
 519              	.LVL54:
 520              		.thumb
 521              		.syntax unified
 522              	.LBE142:
 523              	.LBE141:
 524              	.LBE140:
 525              	.LBE139:
 526              	.LBE138:
 527              		.loc 1 136 0
 528 003c 10BD     		pop	{r4, pc}
 529              	.LVL55:
 530              	.L36:
 531              	.LBB147:
 532              	.LBB146:
 533              		.loc 4 367 0
 534 003e 0448     		ldr	r0, .L37+4
 535 0040 FFF7FEFF 		bl	chSysHalt
 536              	.LVL56:
 537              	.LBB145:
 538              	.LBB144:
 539              	.LBB143:
 540              		.loc 3 546 0
 541 0044 0023     		movs	r3, #0
 542              		.syntax unified
 543              	@ 546 "../../lib/ChibiOS/os/ext/CMSIS/include/core_cmFunc.h" 1
 544 0046 83F31188 		MSR basepri, r3
 545              	@ 0 "" 2
 546              	.LVL57:
 547              		.thumb
 548              		.syntax unified
 549              	.LBE143:
 550              	.LBE144:
 551              	.LBE145:
 552              	.LBE146:
 553              	.LBE147:
 554              		.loc 1 136 0
 555 004a 10BD     		pop	{r4, pc}
 556              	.LVL58:
 557              	.L38:
 558              		.align	2
 559              	.L37:
 560 004c 00000000 		.word	ch
 561 0050 00000000 		.word	.LANCHOR2
 562              		.cfi_endproc
 563              	.LFE222:
 564              		.size	chCondBroadcast, .-chCondBroadcast
 565              		.section	.text.chCondWaitS,"ax",%progbits
 566              		.align	1
 567              		.p2align 4,,15
 568              		.global	chCondWaitS
 569              		.syntax unified
 570              		.thumb
ARM GAS  /var/folders/km/q6jdms0143g2bddz5bhvdfd00000gn/T//ccliCe7a.s 			page 11


 571              		.thumb_func
 572              		.fpu fpv4-sp-d16
 573              		.type	chCondWaitS, %function
 574              	chCondWaitS:
 575              	.LFB225:
 576              		.loc 1 205 0
 577              		.cfi_startproc
 578              		@ args = 0, pretend = 0, frame = 0
 579              		@ frame_needed = 0, uses_anonymous_args = 0
 580              	.LVL59:
 581 0000 F8B5     		push	{r3, r4, r5, r6, r7, lr}
 582              		.cfi_def_cfa_offset 24
 583              		.cfi_offset 3, -24
 584              		.cfi_offset 4, -20
 585              		.cfi_offset 5, -16
 586              		.cfi_offset 6, -12
 587              		.cfi_offset 7, -8
 588              		.cfi_offset 14, -4
 589              		.loc 1 206 0
 590 0002 184E     		ldr	r6, .L50
 591              		.loc 1 205 0
 592 0004 0546     		mov	r5, r0
 593              		.loc 1 206 0
 594 0006 B469     		ldr	r4, [r6, #24]
 595              	.LVL60:
 596              		.loc 1 210 0
 597 0008 FFF7FEFF 		bl	chDbgCheckClassS
 598              	.LVL61:
 599              		.loc 1 211 0
 600 000c 2DB3     		cbz	r5, .L46
 601              	.L40:
 602              		.loc 1 212 0 discriminator 1
 603 000e 236C     		ldr	r3, [r4, #64]
 604 0010 FBB1     		cbz	r3, .L47
 605              	.L41:
 606              	.LBB148:
 607              	.LBB149:
 608              		.file 5 "../../lib/ChibiOS/os/rt/include/chmtx.h"
 609              		.loc 5 146 0
 610 0012 B369     		ldr	r3, [r6, #24]
 611 0014 1F6C     		ldr	r7, [r3, #64]
 612              	.LBE149:
 613              	.LBE148:
 614              		.loc 1 216 0
 615 0016 3846     		mov	r0, r7
 616 0018 FFF7FEFF 		bl	chMtxUnlockS
 617              	.LVL62:
 618              		.loc 1 221 0
 619 001c 2E46     		mov	r6, r5
 620              	.LVL63:
 621              		.loc 1 220 0
 622 001e A562     		str	r5, [r4, #40]
 623              		.loc 1 221 0
 624 0020 2B46     		mov	r3, r5
 625 0022 03E0     		b	.L43
 626              	.LVL64:
 627              	.L49:
ARM GAS  /var/folders/km/q6jdms0143g2bddz5bhvdfd00000gn/T//ccliCe7a.s 			page 12


 628              	.LBB150:
 629              	.LBB151:
 630              		.loc 2 656 0
 631 0024 9968     		ldr	r1, [r3, #8]
 632 0026 A268     		ldr	r2, [r4, #8]
 633 0028 9142     		cmp	r1, r2
 634 002a 10D3     		bcc	.L48
 635              	.LVL65:
 636              	.L43:
 637              		.loc 2 655 0
 638 002c 1B68     		ldr	r3, [r3]
 639              	.LVL66:
 640              		.loc 2 656 0
 641 002e 9D42     		cmp	r5, r3
 642 0030 F8D1     		bne	.L49
 643              	.L42:
 644              		.loc 2 658 0
 645 0032 7368     		ldr	r3, [r6, #4]
 646              	.LVL67:
 647              	.LBE151:
 648              	.LBE150:
 649              		.loc 1 222 0
 650 0034 0720     		movs	r0, #7
 651              	.LBB154:
 652              	.LBB152:
 653              		.loc 2 658 0
 654 0036 C4E90063 		strd	r6, r3, [r4]
 655              		.loc 2 659 0
 656 003a 1C60     		str	r4, [r3]
 657              		.loc 2 660 0
 658 003c 7460     		str	r4, [r6, #4]
 659              	.LVL68:
 660              	.LBE152:
 661              	.LBE154:
 662              		.loc 1 222 0
 663 003e FFF7FEFF 		bl	chSchGoSleepS
 664              	.LVL69:
 665              		.loc 1 223 0
 666 0042 A46A     		ldr	r4, [r4, #40]
 667              	.LVL70:
 668              		.loc 1 224 0
 669 0044 3846     		mov	r0, r7
 670 0046 FFF7FEFF 		bl	chMtxLockS
 671              	.LVL71:
 672              		.loc 1 227 0
 673 004a 2046     		mov	r0, r4
 674 004c F8BD     		pop	{r3, r4, r5, r6, r7, pc}
 675              	.LVL72:
 676              	.L48:
 677              	.LBB155:
 678              	.LBB153:
 679              		.loc 2 655 0
 680 004e 1E46     		mov	r6, r3
 681 0050 EFE7     		b	.L42
 682              	.LVL73:
 683              	.L47:
 684              	.LBE153:
ARM GAS  /var/folders/km/q6jdms0143g2bddz5bhvdfd00000gn/T//ccliCe7a.s 			page 13


 685              	.LBE155:
 686              		.loc 1 212 0 discriminator 2
 687 0052 0548     		ldr	r0, .L50+4
 688 0054 FFF7FEFF 		bl	chSysHalt
 689              	.LVL74:
 690 0058 DBE7     		b	.L41
 691              	.L46:
 692              		.loc 1 211 0 discriminator 2
 693 005a 0348     		ldr	r0, .L50+4
 694 005c FFF7FEFF 		bl	chSysHalt
 695              	.LVL75:
 696 0060 D5E7     		b	.L40
 697              	.L51:
 698 0062 00BF     		.align	2
 699              	.L50:
 700 0064 00000000 		.word	ch
 701 0068 00000000 		.word	.LANCHOR5
 702              		.cfi_endproc
 703              	.LFE225:
 704              		.size	chCondWaitS, .-chCondWaitS
 705              		.section	.text.chCondWait,"ax",%progbits
 706              		.align	1
 707              		.p2align 4,,15
 708              		.global	chCondWait
 709              		.syntax unified
 710              		.thumb
 711              		.thumb_func
 712              		.fpu fpv4-sp-d16
 713              		.type	chCondWait, %function
 714              	chCondWait:
 715              	.LFB224:
 716              		.loc 1 179 0
 717              		.cfi_startproc
 718              		@ args = 0, pretend = 0, frame = 0
 719              		@ frame_needed = 0, uses_anonymous_args = 0
 720              	.LVL76:
 721 0000 10B5     		push	{r4, lr}
 722              		.cfi_def_cfa_offset 8
 723              		.cfi_offset 4, -8
 724              		.cfi_offset 14, -4
 725              	.LBB166:
 726              	.LBB167:
 727              	.LBB168:
 728              	.LBB169:
 729              	.LBB170:
 730              		.loc 3 546 0
 731 0002 2023     		movs	r3, #32
 732              	.LBE170:
 733              	.LBE169:
 734              	.LBE168:
 735              	.LBE167:
 736              	.LBE166:
 737              		.loc 1 179 0
 738 0004 0446     		mov	r4, r0
 739              	.LBB175:
 740              	.LBB174:
 741              	.LBB173:
ARM GAS  /var/folders/km/q6jdms0143g2bddz5bhvdfd00000gn/T//ccliCe7a.s 			page 14


 742              	.LBB172:
 743              	.LBB171:
 744              		.loc 3 546 0
 745              		.syntax unified
 746              	@ 546 "../../lib/ChibiOS/os/ext/CMSIS/include/core_cmFunc.h" 1
 747 0006 83F31188 		MSR basepri, r3
 748              	@ 0 "" 2
 749              	.LVL77:
 750              		.thumb
 751              		.syntax unified
 752              	.LBE171:
 753              	.LBE172:
 754              	.LBE173:
 755              		.loc 4 349 0
 756 000a FFF7FEFF 		bl	_stats_start_measure_crit_thd
 757              	.LVL78:
 758              		.loc 4 350 0
 759 000e FFF7FEFF 		bl	_dbg_check_lock
 760              	.LVL79:
 761              	.LBE174:
 762              	.LBE175:
 763              		.loc 1 183 0
 764 0012 2046     		mov	r0, r4
 765 0014 FFF7FEFF 		bl	chCondWaitS
 766              	.LVL80:
 767 0018 0446     		mov	r4, r0
 768              	.LVL81:
 769              	.LBB176:
 770              	.LBB177:
 771              		.loc 4 360 0
 772 001a FFF7FEFF 		bl	_dbg_check_unlock
 773              	.LVL82:
 774              		.loc 4 361 0
 775 001e FFF7FEFF 		bl	_stats_stop_measure_crit_thd
 776              	.LVL83:
 777              		.loc 4 367 0
 778 0022 0B4B     		ldr	r3, .L56
 779 0024 1A68     		ldr	r2, [r3]
 780 0026 9A42     		cmp	r2, r3
 781 0028 04D0     		beq	.L53
 782 002a 9969     		ldr	r1, [r3, #24]
 783 002c 9368     		ldr	r3, [r2, #8]
 784 002e 8A68     		ldr	r2, [r1, #8]
 785 0030 9A42     		cmp	r2, r3
 786 0032 04D3     		bcc	.L55
 787              	.L53:
 788              	.LVL84:
 789              	.LBB178:
 790              	.LBB179:
 791              	.LBB180:
 792              		.loc 3 546 0
 793 0034 0023     		movs	r3, #0
 794              		.syntax unified
 795              	@ 546 "../../lib/ChibiOS/os/ext/CMSIS/include/core_cmFunc.h" 1
 796 0036 83F31188 		MSR basepri, r3
 797              	@ 0 "" 2
 798              	.LVL85:
ARM GAS  /var/folders/km/q6jdms0143g2bddz5bhvdfd00000gn/T//ccliCe7a.s 			page 15


 799              		.thumb
 800              		.syntax unified
 801              	.LBE180:
 802              	.LBE179:
 803              	.LBE178:
 804              	.LBE177:
 805              	.LBE176:
 806              		.loc 1 186 0
 807 003a 2046     		mov	r0, r4
 808 003c 10BD     		pop	{r4, pc}
 809              	.LVL86:
 810              	.L55:
 811              	.LBB185:
 812              	.LBB184:
 813              		.loc 4 367 0
 814 003e 0548     		ldr	r0, .L56+4
 815 0040 FFF7FEFF 		bl	chSysHalt
 816              	.LVL87:
 817              	.LBB183:
 818              	.LBB182:
 819              	.LBB181:
 820              		.loc 3 546 0
 821 0044 0023     		movs	r3, #0
 822              		.syntax unified
 823              	@ 546 "../../lib/ChibiOS/os/ext/CMSIS/include/core_cmFunc.h" 1
 824 0046 83F31188 		MSR basepri, r3
 825              	@ 0 "" 2
 826              	.LVL88:
 827              		.thumb
 828              		.syntax unified
 829              	.LBE181:
 830              	.LBE182:
 831              	.LBE183:
 832              	.LBE184:
 833              	.LBE185:
 834              		.loc 1 186 0
 835 004a 2046     		mov	r0, r4
 836 004c 10BD     		pop	{r4, pc}
 837              	.LVL89:
 838              	.L57:
 839 004e 00BF     		.align	2
 840              	.L56:
 841 0050 00000000 		.word	ch
 842 0054 00000000 		.word	.LANCHOR2
 843              		.cfi_endproc
 844              	.LFE224:
 845              		.size	chCondWait, .-chCondWait
 846              		.section	.text.chCondWaitTimeoutS,"ax",%progbits
 847              		.align	1
 848              		.p2align 4,,15
 849              		.global	chCondWaitTimeoutS
 850              		.syntax unified
 851              		.thumb
 852              		.thumb_func
 853              		.fpu fpv4-sp-d16
 854              		.type	chCondWaitTimeoutS, %function
 855              	chCondWaitTimeoutS:
ARM GAS  /var/folders/km/q6jdms0143g2bddz5bhvdfd00000gn/T//ccliCe7a.s 			page 16


 856              	.LFB227:
 857              		.loc 1 296 0
 858              		.cfi_startproc
 859              		@ args = 0, pretend = 0, frame = 0
 860              		@ frame_needed = 0, uses_anonymous_args = 0
 861              	.LVL90:
 862 0000 2DE9F041 		push	{r4, r5, r6, r7, r8, lr}
 863              		.cfi_def_cfa_offset 24
 864              		.cfi_offset 4, -24
 865              		.cfi_offset 5, -20
 866              		.cfi_offset 6, -16
 867              		.cfi_offset 7, -12
 868              		.cfi_offset 8, -8
 869              		.cfi_offset 14, -4
 870              		.loc 1 296 0
 871 0004 0546     		mov	r5, r0
 872 0006 8846     		mov	r8, r1
 873              		.loc 1 300 0
 874 0008 FFF7FEFF 		bl	chDbgCheckClassS
 875              	.LVL91:
 876              		.loc 1 301 0
 877 000c 3DB3     		cbz	r5, .L59
 878              		.loc 1 301 0 is_stmt 0 discriminator 3
 879 000e B8F1000F 		cmp	r8, #0
 880 0012 24D0     		beq	.L59
 881              		.loc 1 302 0 is_stmt 1 discriminator 1
 882 0014 1A4C     		ldr	r4, .L76
 883 0016 A369     		ldr	r3, [r4, #24]
 884 0018 1F6C     		ldr	r7, [r3, #64]
 885 001a 47B3     		cbz	r7, .L73
 886              	.L61:
 887              		.loc 1 306 0
 888 001c 3846     		mov	r0, r7
 889 001e FFF7FEFF 		bl	chMtxUnlockS
 890              	.LVL92:
 891              		.loc 1 310 0
 892 0022 A469     		ldr	r4, [r4, #24]
 893              		.loc 1 311 0
 894 0024 2E46     		mov	r6, r5
 895              	.LVL93:
 896              		.loc 1 310 0
 897 0026 A562     		str	r5, [r4, #40]
 898              		.loc 1 311 0
 899 0028 2B46     		mov	r3, r5
 900 002a 03E0     		b	.L63
 901              	.LVL94:
 902              	.L75:
 903              	.LBB186:
 904              	.LBB187:
 905              		.loc 2 656 0
 906 002c 9968     		ldr	r1, [r3, #8]
 907 002e A268     		ldr	r2, [r4, #8]
 908 0030 9142     		cmp	r1, r2
 909 0032 22D3     		bcc	.L74
 910              	.LVL95:
 911              	.L63:
 912              		.loc 2 655 0
ARM GAS  /var/folders/km/q6jdms0143g2bddz5bhvdfd00000gn/T//ccliCe7a.s 			page 17


 913 0034 1B68     		ldr	r3, [r3]
 914              	.LVL96:
 915              		.loc 2 656 0
 916 0036 9D42     		cmp	r5, r3
 917 0038 F8D1     		bne	.L75
 918              	.L62:
 919              		.loc 2 658 0
 920 003a 7368     		ldr	r3, [r6, #4]
 921              	.LVL97:
 922 003c 6360     		str	r3, [r4, #4]
 923              		.loc 2 657 0
 924 003e 2660     		str	r6, [r4]
 925              	.LBE187:
 926              	.LBE186:
 927              		.loc 1 312 0
 928 0040 4146     		mov	r1, r8
 929              	.LBB191:
 930              	.LBB188:
 931              		.loc 2 659 0
 932 0042 1C60     		str	r4, [r3]
 933              	.LBE188:
 934              	.LBE191:
 935              		.loc 1 312 0
 936 0044 0720     		movs	r0, #7
 937              	.LBB192:
 938              	.LBB189:
 939              		.loc 2 660 0
 940 0046 7460     		str	r4, [r6, #4]
 941              	.LVL98:
 942              	.LBE189:
 943              	.LBE192:
 944              		.loc 1 312 0
 945 0048 FFF7FEFF 		bl	chSchGoSleepTimeoutS
 946              	.LVL99:
 947              		.loc 1 313 0
 948 004c 431C     		adds	r3, r0, #1
 949              		.loc 1 312 0
 950 004e 0446     		mov	r4, r0
 951              	.LVL100:
 952              		.loc 1 313 0
 953 0050 02D0     		beq	.L58
 954              		.loc 1 314 0
 955 0052 3846     		mov	r0, r7
 956              	.LVL101:
 957 0054 FFF7FEFF 		bl	chMtxLockS
 958              	.LVL102:
 959              	.L58:
 960              		.loc 1 318 0
 961 0058 2046     		mov	r0, r4
 962 005a BDE8F081 		pop	{r4, r5, r6, r7, r8, pc}
 963              	.LVL103:
 964              	.L59:
 965              		.loc 1 302 0 discriminator 4
 966 005e 084C     		ldr	r4, .L76
 967              		.loc 1 301 0 discriminator 4
 968 0060 0848     		ldr	r0, .L76+4
 969 0062 FFF7FEFF 		bl	chSysHalt
ARM GAS  /var/folders/km/q6jdms0143g2bddz5bhvdfd00000gn/T//ccliCe7a.s 			page 18


 970              	.LVL104:
 971              		.loc 1 302 0 discriminator 4
 972 0066 A369     		ldr	r3, [r4, #24]
 973 0068 1F6C     		ldr	r7, [r3, #64]
 974 006a 002F     		cmp	r7, #0
 975 006c D6D1     		bne	.L61
 976              	.L73:
 977              		.loc 1 302 0 is_stmt 0 discriminator 2
 978 006e 0548     		ldr	r0, .L76+4
 979 0070 FFF7FEFF 		bl	chSysHalt
 980              	.LVL105:
 981 0074 A369     		ldr	r3, [r4, #24]
 982 0076 1F6C     		ldr	r7, [r3, #64]
 983 0078 D0E7     		b	.L61
 984              	.LVL106:
 985              	.L74:
 986              	.LBB193:
 987              	.LBB190:
 988              		.loc 2 655 0 is_stmt 1
 989 007a 1E46     		mov	r6, r3
 990 007c DDE7     		b	.L62
 991              	.L77:
 992 007e 00BF     		.align	2
 993              	.L76:
 994 0080 00000000 		.word	ch
 995 0084 00000000 		.word	.LANCHOR6
 996              	.LBE190:
 997              	.LBE193:
 998              		.cfi_endproc
 999              	.LFE227:
 1000              		.size	chCondWaitTimeoutS, .-chCondWaitTimeoutS
 1001              		.section	.text.chCondWaitTimeout,"ax",%progbits
 1002              		.align	1
 1003              		.p2align 4,,15
 1004              		.global	chCondWaitTimeout
 1005              		.syntax unified
 1006              		.thumb
 1007              		.thumb_func
 1008              		.fpu fpv4-sp-d16
 1009              		.type	chCondWaitTimeout, %function
 1010              	chCondWaitTimeout:
 1011              	.LFB226:
 1012              		.loc 1 258 0
 1013              		.cfi_startproc
 1014              		@ args = 0, pretend = 0, frame = 0
 1015              		@ frame_needed = 0, uses_anonymous_args = 0
 1016              	.LVL107:
 1017 0000 38B5     		push	{r3, r4, r5, lr}
 1018              		.cfi_def_cfa_offset 16
 1019              		.cfi_offset 3, -16
 1020              		.cfi_offset 4, -12
 1021              		.cfi_offset 5, -8
 1022              		.cfi_offset 14, -4
 1023              		.loc 1 258 0
 1024 0002 0446     		mov	r4, r0
 1025 0004 0D46     		mov	r5, r1
 1026              	.LBB204:
ARM GAS  /var/folders/km/q6jdms0143g2bddz5bhvdfd00000gn/T//ccliCe7a.s 			page 19


 1027              	.LBB205:
 1028              	.LBB206:
 1029              	.LBB207:
 1030              	.LBB208:
 1031              		.loc 3 546 0
 1032 0006 2023     		movs	r3, #32
 1033              		.syntax unified
 1034              	@ 546 "../../lib/ChibiOS/os/ext/CMSIS/include/core_cmFunc.h" 1
 1035 0008 83F31188 		MSR basepri, r3
 1036              	@ 0 "" 2
 1037              	.LVL108:
 1038              		.thumb
 1039              		.syntax unified
 1040              	.LBE208:
 1041              	.LBE207:
 1042              	.LBE206:
 1043              		.loc 4 349 0
 1044 000c FFF7FEFF 		bl	_stats_start_measure_crit_thd
 1045              	.LVL109:
 1046              		.loc 4 350 0
 1047 0010 FFF7FEFF 		bl	_dbg_check_lock
 1048              	.LVL110:
 1049              	.LBE205:
 1050              	.LBE204:
 1051              		.loc 1 262 0
 1052 0014 2946     		mov	r1, r5
 1053 0016 2046     		mov	r0, r4
 1054 0018 FFF7FEFF 		bl	chCondWaitTimeoutS
 1055              	.LVL111:
 1056 001c 0446     		mov	r4, r0
 1057              	.LVL112:
 1058              	.LBB209:
 1059              	.LBB210:
 1060              		.loc 4 360 0
 1061 001e FFF7FEFF 		bl	_dbg_check_unlock
 1062              	.LVL113:
 1063              		.loc 4 361 0
 1064 0022 FFF7FEFF 		bl	_stats_stop_measure_crit_thd
 1065              	.LVL114:
 1066              		.loc 4 367 0
 1067 0026 0B4B     		ldr	r3, .L82
 1068 0028 1A68     		ldr	r2, [r3]
 1069 002a 9A42     		cmp	r2, r3
 1070 002c 04D0     		beq	.L79
 1071 002e 9969     		ldr	r1, [r3, #24]
 1072 0030 9368     		ldr	r3, [r2, #8]
 1073 0032 8A68     		ldr	r2, [r1, #8]
 1074 0034 9A42     		cmp	r2, r3
 1075 0036 04D3     		bcc	.L81
 1076              	.L79:
 1077              	.LVL115:
 1078              	.LBB211:
 1079              	.LBB212:
 1080              	.LBB213:
 1081              		.loc 3 546 0
 1082 0038 0023     		movs	r3, #0
 1083              		.syntax unified
ARM GAS  /var/folders/km/q6jdms0143g2bddz5bhvdfd00000gn/T//ccliCe7a.s 			page 20


 1084              	@ 546 "../../lib/ChibiOS/os/ext/CMSIS/include/core_cmFunc.h" 1
 1085 003a 83F31188 		MSR basepri, r3
 1086              	@ 0 "" 2
 1087              	.LVL116:
 1088              		.thumb
 1089              		.syntax unified
 1090              	.LBE213:
 1091              	.LBE212:
 1092              	.LBE211:
 1093              	.LBE210:
 1094              	.LBE209:
 1095              		.loc 1 266 0
 1096 003e 2046     		mov	r0, r4
 1097 0040 38BD     		pop	{r3, r4, r5, pc}
 1098              	.LVL117:
 1099              	.L81:
 1100              	.LBB218:
 1101              	.LBB217:
 1102              		.loc 4 367 0
 1103 0042 0548     		ldr	r0, .L82+4
 1104 0044 FFF7FEFF 		bl	chSysHalt
 1105              	.LVL118:
 1106              	.LBB216:
 1107              	.LBB215:
 1108              	.LBB214:
 1109              		.loc 3 546 0
 1110 0048 0023     		movs	r3, #0
 1111              		.syntax unified
 1112              	@ 546 "../../lib/ChibiOS/os/ext/CMSIS/include/core_cmFunc.h" 1
 1113 004a 83F31188 		MSR basepri, r3
 1114              	@ 0 "" 2
 1115              	.LVL119:
 1116              		.thumb
 1117              		.syntax unified
 1118              	.LBE214:
 1119              	.LBE215:
 1120              	.LBE216:
 1121              	.LBE217:
 1122              	.LBE218:
 1123              		.loc 1 266 0
 1124 004e 2046     		mov	r0, r4
 1125 0050 38BD     		pop	{r3, r4, r5, pc}
 1126              	.LVL120:
 1127              	.L83:
 1128 0052 00BF     		.align	2
 1129              	.L82:
 1130 0054 00000000 		.word	ch
 1131 0058 00000000 		.word	.LANCHOR2
 1132              		.cfi_endproc
 1133              	.LFE226:
 1134              		.size	chCondWaitTimeout, .-chCondWaitTimeout
 1135              		.section	.rodata.__func__.7153,"a",%progbits
 1136              		.align	2
 1137              		.set	.LANCHOR2,. + 0
 1138              		.type	__func__.7153, %object
 1139              		.size	__func__.7153, 12
 1140              	__func__.7153:
ARM GAS  /var/folders/km/q6jdms0143g2bddz5bhvdfd00000gn/T//ccliCe7a.s 			page 21


 1141 0000 63685379 		.ascii	"chSysUnlock\000"
 1141      73556E6C 
 1141      6F636B00 
 1142              		.section	.rodata.__func__.7849,"a",%progbits
 1143              		.align	2
 1144              		.set	.LANCHOR0,. + 0
 1145              		.type	__func__.7849, %object
 1146              		.size	__func__.7849, 17
 1147              	__func__.7849:
 1148 0000 6368436F 		.ascii	"chCondObjectInit\000"
 1148      6E644F62 
 1148      6A656374 
 1148      496E6974 
 1148      00
 1149              		.section	.rodata.__func__.7853,"a",%progbits
 1150              		.align	2
 1151              		.set	.LANCHOR1,. + 0
 1152              		.type	__func__.7853, %object
 1153              		.size	__func__.7853, 13
 1154              	__func__.7853:
 1155 0000 6368436F 		.ascii	"chCondSignal\000"
 1155      6E645369 
 1155      676E616C 
 1155      00
 1156              		.section	.rodata.__func__.7857,"a",%progbits
 1157              		.align	2
 1158              		.set	.LANCHOR3,. + 0
 1159              		.type	__func__.7857, %object
 1160              		.size	__func__.7857, 14
 1161              	__func__.7857:
 1162 0000 6368436F 		.ascii	"chCondSignalI\000"
 1162      6E645369 
 1162      676E616C 
 1162      4900
 1163              		.section	.rodata.__func__.7865,"a",%progbits
 1164              		.align	2
 1165              		.set	.LANCHOR4,. + 0
 1166              		.type	__func__.7865, %object
 1167              		.size	__func__.7865, 17
 1168              	__func__.7865:
 1169 0000 6368436F 		.ascii	"chCondBroadcastI\000"
 1169      6E644272 
 1169      6F616463 
 1169      61737449 
 1169      00
 1170              		.section	.rodata.__func__.7879,"a",%progbits
 1171              		.align	2
 1172              		.set	.LANCHOR5,. + 0
 1173              		.type	__func__.7879, %object
 1174              		.size	__func__.7879, 12
 1175              	__func__.7879:
 1176 0000 6368436F 		.ascii	"chCondWaitS\000"
 1176      6E645761 
 1176      69745300 
 1177              		.section	.rodata.__func__.7891,"a",%progbits
 1178              		.align	2
 1179              		.set	.LANCHOR6,. + 0
ARM GAS  /var/folders/km/q6jdms0143g2bddz5bhvdfd00000gn/T//ccliCe7a.s 			page 22


 1180              		.type	__func__.7891, %object
 1181              		.size	__func__.7891, 19
 1182              	__func__.7891:
 1183 0000 6368436F 		.ascii	"chCondWaitTimeoutS\000"
 1183      6E645761 
 1183      69745469 
 1183      6D656F75 
 1183      745300
 1184              		.text
 1185              	.Letext0:
 1186              		.file 6 "/Applications/Eclipse_e-puck2.app/Contents/Eclipse_e-puck2/Tools/gcc-arm-none-eabi-7-2017
 1187              		.file 7 "/Applications/Eclipse_e-puck2.app/Contents/Eclipse_e-puck2/Tools/gcc-arm-none-eabi-7-2017
 1188              		.file 8 "../../lib/ChibiOS/os/rt/ports/ARMCMx/compilers/GCC/chtypes.h"
 1189              		.file 9 "../../lib/ChibiOS/os/rt/include/chsystypes.h"
 1190              		.file 10 "../../lib/ChibiOS/os/ext/CMSIS/include/core_cm4.h"
 1191              		.file 11 "../../lib/ChibiOS/os/ext/CMSIS/ST/system_stm32f4xx.h"
 1192              		.file 12 "../../lib/ChibiOS/os/rt/ports/ARMCMx/chcore.h"
 1193              		.file 13 "../../lib/ChibiOS/os/rt/ports/ARMCMx/chcore_v7m.h"
 1194              		.file 14 "../../lib/ChibiOS/os/rt/include/chdebug.h"
 1195              		.file 15 "../../lib/ChibiOS/os/rt/include/chtm.h"
 1196              		.file 16 "../../lib/ChibiOS/os/rt/include/chstats.h"
 1197              		.file 17 "../../lib/ChibiOS/os/rt/include/chsem.h"
 1198              		.file 18 "../../lib/ChibiOS/os/rt/include/chregistry.h"
 1199              		.file 19 "../../lib/ChibiOS/os/rt/include/chcond.h"
 1200              		.file 20 "../../lib/ChibiOS/os/rt/include/chthreads.h"