ARM GAS  /var/folders/km/q6jdms0143g2bddz5bhvdfd00000gn/T//ccVOWgQN.s 			page 1


   1              		.cpu cortex-m4
   2              		.eabi_attribute 27, 1
   3              		.eabi_attribute 28, 1
   4              		.eabi_attribute 20, 1
   5              		.eabi_attribute 21, 1
   6              		.eabi_attribute 23, 3
   7              		.eabi_attribute 24, 1
   8              		.eabi_attribute 25, 1
   9              		.eabi_attribute 26, 1
  10              		.eabi_attribute 30, 2
  11              		.eabi_attribute 34, 1
  12              		.eabi_attribute 18, 4
  13              		.file	"chheap.c"
  14              		.text
  15              	.Ltext0:
  16              		.cfi_sections	.debug_frame
  17              		.section	.text._heap_init,"ax",%progbits
  18              		.align	1
  19              		.p2align 4,,15
  20              		.global	_heap_init
  21              		.syntax unified
  22              		.thumb
  23              		.thumb_func
  24              		.fpu fpv4-sp-d16
  25              		.type	_heap_init, %function
  26              	_heap_init:
  27              	.LFB219:
  28              		.file 1 "../../lib/ChibiOS/os/rt/src/chheap.c"
  29              		.loc 1 91 0
  30              		.cfi_startproc
  31              		@ args = 0, pretend = 0, frame = 0
  32              		@ frame_needed = 0, uses_anonymous_args = 0
  33              		@ link register save eliminated.
  34              		.loc 1 93 0
  35 0000 044B     		ldr	r3, .L3
  36 0002 054A     		ldr	r2, .L3+4
  37 0004 1A60     		str	r2, [r3]
  38              		.loc 1 97 0
  39 0006 03F11000 		add	r0, r3, #16
  40              		.loc 1 94 0
  41 000a 0022     		movs	r2, #0
  42              		.loc 1 95 0
  43 000c C3E90222 		strd	r2, r2, [r3, #8]
  44              		.loc 1 97 0
  45 0010 FFF7FEBF 		b	chMtxObjectInit
  46              	.LVL0:
  47              	.L4:
  48              		.align	2
  49              	.L3:
  50 0014 00000000 		.word	.LANCHOR0
  51 0018 00000000 		.word	chCoreAlloc
  52              		.cfi_endproc
  53              	.LFE219:
  54              		.size	_heap_init, .-_heap_init
  55              		.section	.text.chHeapObjectInit,"ax",%progbits
  56              		.align	1
  57              		.p2align 4,,15
ARM GAS  /var/folders/km/q6jdms0143g2bddz5bhvdfd00000gn/T//ccVOWgQN.s 			page 2


  58              		.global	chHeapObjectInit
  59              		.syntax unified
  60              		.thumb
  61              		.thumb_func
  62              		.fpu fpv4-sp-d16
  63              		.type	chHeapObjectInit, %function
  64              	chHeapObjectInit:
  65              	.LFB220:
  66              		.loc 1 114 0
  67              		.cfi_startproc
  68              		@ args = 0, pretend = 0, frame = 0
  69              		@ frame_needed = 0, uses_anonymous_args = 0
  70              	.LVL1:
  71              		.loc 1 117 0
  72 0000 41EA0203 		orr	r3, r1, r2
  73 0004 5B07     		lsls	r3, r3, #29
  74              		.loc 1 114 0
  75 0006 70B5     		push	{r4, r5, r6, lr}
  76              		.cfi_def_cfa_offset 16
  77              		.cfi_offset 4, -16
  78              		.cfi_offset 5, -12
  79              		.cfi_offset 6, -8
  80              		.cfi_offset 14, -4
  81              		.loc 1 114 0
  82 0008 0C46     		mov	r4, r1
  83              	.LVL2:
  84 000a 1546     		mov	r5, r2
  85 000c 0646     		mov	r6, r0
  86              		.loc 1 117 0
  87 000e 02D0     		beq	.L6
  88              		.loc 1 117 0 is_stmt 0 discriminator 4
  89 0010 0748     		ldr	r0, .L11
  90              	.LVL3:
  91 0012 FFF7FEFF 		bl	chSysHalt
  92              	.LVL4:
  93              	.L6:
  94              		.loc 1 119 0 is_stmt 1
  95 0016 0023     		movs	r3, #0
  96              		.loc 1 123 0
  97 0018 083D     		subs	r5, r5, #8
  98              	.LVL5:
  99              		.loc 1 120 0
 100 001a B460     		str	r4, [r6, #8]
 101              		.loc 1 119 0
 102 001c 3360     		str	r3, [r6]
 103              		.loc 1 121 0
 104 001e F360     		str	r3, [r6, #12]
 105              		.loc 1 125 0
 106 0020 06F11000 		add	r0, r6, #16
 107              		.loc 1 122 0
 108 0024 C4E90035 		strd	r3, r5, [r4]
 109              		.loc 1 129 0
 110 0028 BDE87040 		pop	{r4, r5, r6, lr}
 111              		.cfi_restore 14
 112              		.cfi_restore 6
 113              		.cfi_restore 5
 114              		.cfi_restore 4
ARM GAS  /var/folders/km/q6jdms0143g2bddz5bhvdfd00000gn/T//ccVOWgQN.s 			page 3


 115              		.cfi_def_cfa_offset 0
 116              	.LVL6:
 117              		.loc 1 125 0
 118 002c FFF7FEBF 		b	chMtxObjectInit
 119              	.LVL7:
 120              	.L12:
 121              		.align	2
 122              	.L11:
 123 0030 00000000 		.word	.LANCHOR1
 124              		.cfi_endproc
 125              	.LFE220:
 126              		.size	chHeapObjectInit, .-chHeapObjectInit
 127              		.section	.text.chHeapAlloc,"ax",%progbits
 128              		.align	1
 129              		.p2align 4,,15
 130              		.global	chHeapAlloc
 131              		.syntax unified
 132              		.thumb
 133              		.thumb_func
 134              		.fpu fpv4-sp-d16
 135              		.type	chHeapAlloc, %function
 136              	chHeapAlloc:
 137              	.LFB221:
 138              		.loc 1 147 0
 139              		.cfi_startproc
 140              		@ args = 0, pretend = 0, frame = 0
 141              		@ frame_needed = 0, uses_anonymous_args = 0
 142              	.LVL8:
 143 0000 F8B5     		push	{r3, r4, r5, r6, r7, lr}
 144              		.cfi_def_cfa_offset 24
 145              		.cfi_offset 3, -24
 146              		.cfi_offset 4, -20
 147              		.cfi_offset 5, -16
 148              		.cfi_offset 6, -12
 149              		.cfi_offset 7, -8
 150              		.cfi_offset 14, -4
 151              		.loc 1 151 0
 152 0002 204E     		ldr	r6, .L29
 153 0004 0028     		cmp	r0, #0
 154 0006 18BF     		it	ne
 155 0008 0646     		movne	r6, r0
 156              	.LVL9:
 157              		.loc 1 157 0
 158 000a 06F11007 		add	r7, r6, #16
 159              		.loc 1 154 0
 160 000e 0731     		adds	r1, r1, #7
 161              	.LVL10:
 162              		.loc 1 157 0
 163 0010 3846     		mov	r0, r7
 164              		.loc 1 154 0
 165 0012 21F00705 		bic	r5, r1, #7
 166              	.LVL11:
 167              		.loc 1 155 0
 168 0016 06F10804 		add	r4, r6, #8
 169              	.LVL12:
 170              		.loc 1 157 0
 171 001a FFF7FEFF 		bl	chMtxLock
ARM GAS  /var/folders/km/q6jdms0143g2bddz5bhvdfd00000gn/T//ccVOWgQN.s 			page 4


 172              	.LVL13:
 173              		.loc 1 158 0
 174 001e 03E0     		b	.L15
 175              	.LVL14:
 176              	.L19:
 177              		.loc 1 160 0
 178 0020 4368     		ldr	r3, [r0, #4]
 179 0022 AB42     		cmp	r3, r5
 180 0024 12D2     		bcs	.L28
 181 0026 0446     		mov	r4, r0
 182              	.LVL15:
 183              	.L15:
 184              		.loc 1 158 0
 185 0028 2068     		ldr	r0, [r4]
 186              	.LVL16:
 187 002a 0028     		cmp	r0, #0
 188 002c F8D1     		bne	.L19
 189              		.loc 1 186 0
 190 002e 3846     		mov	r0, r7
 191              	.LVL17:
 192 0030 FFF7FEFF 		bl	chMtxUnlock
 193              	.LVL18:
 194              		.loc 1 190 0
 195 0034 3368     		ldr	r3, [r6]
 196 0036 13B3     		cbz	r3, .L21
 197              		.loc 1 191 0
 198 0038 05F10800 		add	r0, r5, #8
 199 003c 9847     		blx	r3
 200              	.LVL19:
 201              		.loc 1 192 0
 202 003e F0B1     		cbz	r0, .L21
 203              		.loc 1 194 0
 204 0040 C0E90065 		strd	r6, r5, [r0]
 205              		.loc 1 195 0
 206 0044 00F10804 		add	r4, r0, #8
 207              	.LVL20:
 208              	.L13:
 209              		.loc 1 204 0
 210 0048 2046     		mov	r0, r4
 211 004a F8BD     		pop	{r3, r4, r5, r6, r7, pc}
 212              	.LVL21:
 213              	.L28:
 214              		.loc 1 161 0
 215 004c 05F10802 		add	r2, r5, #8
 216 0050 9342     		cmp	r3, r2
 217 0052 0168     		ldr	r1, [r0]
 218 0054 08D2     		bcs	.L16
 219              		.loc 1 165 0
 220 0056 2160     		str	r1, [r4]
 221              	.L17:
 222              		.loc 1 177 0
 223 0058 0446     		mov	r4, r0
 224              	.LVL22:
 225              		.loc 1 178 0
 226 005a 3846     		mov	r0, r7
 227              	.LVL23:
 228              		.loc 1 177 0
ARM GAS  /var/folders/km/q6jdms0143g2bddz5bhvdfd00000gn/T//ccVOWgQN.s 			page 5


 229 005c 44F8086B 		str	r6, [r4], #8
 230              	.LVL24:
 231              		.loc 1 178 0
 232 0060 FFF7FEFF 		bl	chMtxUnlock
 233              	.LVL25:
 234              		.loc 1 204 0
 235 0064 2046     		mov	r0, r4
 236 0066 F8BD     		pop	{r3, r4, r5, r6, r7, pc}
 237              	.LVL26:
 238              	.L16:
 239              		.loc 1 170 0
 240 0068 00EB020C 		add	ip, r0, r2
 241              	.LVL27:
 242              		.loc 1 173 0
 243 006c 5B1B     		subs	r3, r3, r5
 244 006e 083B     		subs	r3, r3, #8
 245              		.loc 1 172 0
 246 0070 8150     		str	r1, [r0, r2]
 247              		.loc 1 173 0
 248 0072 CCF80430 		str	r3, [ip, #4]
 249              		.loc 1 174 0
 250 0076 C4F800C0 		str	ip, [r4]
 251              		.loc 1 175 0
 252 007a 4560     		str	r5, [r0, #4]
 253 007c ECE7     		b	.L17
 254              	.LVL28:
 255              	.L21:
 256              		.loc 1 203 0
 257 007e 0024     		movs	r4, #0
 258              	.LVL29:
 259 0080 E2E7     		b	.L13
 260              	.L30:
 261 0082 00BF     		.align	2
 262              	.L29:
 263 0084 00000000 		.word	.LANCHOR0
 264              		.cfi_endproc
 265              	.LFE221:
 266              		.size	chHeapAlloc, .-chHeapAlloc
 267              		.section	.text.chHeapFree,"ax",%progbits
 268              		.align	1
 269              		.p2align 4,,15
 270              		.global	chHeapFree
 271              		.syntax unified
 272              		.thumb
 273              		.thumb_func
 274              		.fpu fpv4-sp-d16
 275              		.type	chHeapFree, %function
 276              	chHeapFree:
 277              	.LFB222:
 278              		.loc 1 213 0
 279              		.cfi_startproc
 280              		@ args = 0, pretend = 0, frame = 0
 281              		@ frame_needed = 0, uses_anonymous_args = 0
 282              	.LVL30:
 283 0000 2DE9F843 		push	{r3, r4, r5, r6, r7, r8, r9, lr}
 284              		.cfi_def_cfa_offset 32
 285              		.cfi_offset 3, -32
ARM GAS  /var/folders/km/q6jdms0143g2bddz5bhvdfd00000gn/T//ccVOWgQN.s 			page 6


 286              		.cfi_offset 4, -28
 287              		.cfi_offset 5, -24
 288              		.cfi_offset 6, -20
 289              		.cfi_offset 7, -16
 290              		.cfi_offset 8, -12
 291              		.cfi_offset 9, -8
 292              		.cfi_offset 14, -4
 293              		.loc 1 217 0
 294 0004 8146     		mov	r9, r0
 295 0006 0028     		cmp	r0, #0
 296 0008 51D0     		beq	.L44
 297              	.LVL31:
 298              	.L32:
 299              		.loc 1 222 0
 300 000a 59F8083C 		ldr	r3, [r9, #-8]
 301              		.loc 1 227 0
 302 000e 2A4F     		ldr	r7, .L48
 303              		.loc 1 225 0
 304 0010 03F11006 		add	r6, r3, #16
 305 0014 3046     		mov	r0, r6
 306              		.loc 1 223 0
 307 0016 03F10808 		add	r8, r3, #8
 308              		.loc 1 225 0
 309 001a FFF7FEFF 		bl	chMtxLock
 310              	.LVL32:
 311              		.loc 1 223 0
 312 001e 4446     		mov	r4, r8
 313              		.loc 1 220 0
 314 0020 A9F10805 		sub	r5, r9, #8
 315              	.LVL33:
 316              	.L33:
 317              		.loc 1 227 0 discriminator 1
 318 0024 AC42     		cmp	r4, r5
 319 0026 04D8     		bhi	.L34
 320              		.loc 1 227 0 is_stmt 0 discriminator 2
 321 0028 6368     		ldr	r3, [r4, #4]
 322 002a 0833     		adds	r3, r3, #8
 323 002c 2344     		add	r3, r3, r4
 324 002e 9D42     		cmp	r5, r3
 325 0030 1FD3     		bcc	.L45
 326              	.L34:
 327              		.loc 1 229 0 is_stmt 1
 328 0032 4445     		cmp	r4, r8
 329 0034 2368     		ldr	r3, [r4]
 330 0036 01D0     		beq	.L35
 331              		.loc 1 229 0 is_stmt 0 discriminator 2
 332 0038 AC42     		cmp	r4, r5
 333 003a 02D2     		bcs	.L36
 334              	.L35:
 335              		.loc 1 229 0 discriminator 3
 336 003c 1BB1     		cbz	r3, .L37
 337              		.loc 1 230 0 is_stmt 1
 338 003e 9D42     		cmp	r5, r3
 339 0040 01D3     		bcc	.L37
 340              	.L36:
 341              		.loc 1 213 0 discriminator 1
 342 0042 1C46     		mov	r4, r3
ARM GAS  /var/folders/km/q6jdms0143g2bddz5bhvdfd00000gn/T//ccVOWgQN.s 			page 7


 343              	.LVL34:
 344 0044 EEE7     		b	.L33
 345              	.LVL35:
 346              	.L37:
 347              		.loc 1 232 0
 348 0046 49F8083C 		str	r3, [r9, #-8]
 349              		.loc 1 235 0
 350 004a 59F8043C 		ldr	r3, [r9, #-4]
 351              		.loc 1 233 0
 352 004e 2560     		str	r5, [r4]
 353              		.loc 1 235 0
 354 0050 59F8081C 		ldr	r1, [r9, #-8]
 355 0054 09EB0302 		add	r2, r9, r3
 356 0058 8A42     		cmp	r2, r1
 357 005a 0ED0     		beq	.L46
 358              		.loc 1 240 0
 359 005c 6268     		ldr	r2, [r4, #4]
 360 005e 02F10803 		add	r3, r2, #8
 361 0062 2344     		add	r3, r3, r4
 362 0064 9D42     		cmp	r5, r3
 363 0066 17D0     		beq	.L47
 364              	.L39:
 365              		.loc 1 249 0
 366 0068 3046     		mov	r0, r6
 367              		.loc 1 252 0
 368 006a BDE8F843 		pop	{r3, r4, r5, r6, r7, r8, r9, lr}
 369              		.cfi_remember_state
 370              		.cfi_restore 14
 371              		.cfi_restore 9
 372              		.cfi_restore 8
 373              		.cfi_restore 7
 374              		.cfi_restore 6
 375              		.cfi_restore 5
 376              		.cfi_restore 4
 377              		.cfi_restore 3
 378              		.cfi_def_cfa_offset 0
 379              	.LVL36:
 380              		.loc 1 249 0
 381 006e FFF7FEBF 		b	chMtxUnlock
 382              	.LVL37:
 383              	.L45:
 384              		.cfi_restore_state
 385              		.loc 1 227 0 discriminator 3
 386 0072 3846     		mov	r0, r7
 387 0074 FFF7FEFF 		bl	chSysHalt
 388              	.LVL38:
 389 0078 DBE7     		b	.L34
 390              	.L46:
 391              		.loc 1 237 0
 392 007a 5268     		ldr	r2, [r2, #4]
 393              		.loc 1 238 0
 394 007c 59F80310 		ldr	r1, [r9, r3]
 395 0080 49F8081C 		str	r1, [r9, #-8]
 396              		.loc 1 237 0
 397 0084 0833     		adds	r3, r3, #8
 398 0086 1344     		add	r3, r3, r2
 399 0088 49F8043C 		str	r3, [r9, #-4]
ARM GAS  /var/folders/km/q6jdms0143g2bddz5bhvdfd00000gn/T//ccVOWgQN.s 			page 8


 400              		.loc 1 240 0
 401 008c 6268     		ldr	r2, [r4, #4]
 402 008e 02F10803 		add	r3, r2, #8
 403 0092 2344     		add	r3, r3, r4
 404 0094 9D42     		cmp	r5, r3
 405 0096 E7D1     		bne	.L39
 406              	.L47:
 407              		.loc 1 243 0
 408 0098 59E90213 		ldrd	r1, r3, [r9, #-8]
 409              		.loc 1 242 0
 410 009c 0833     		adds	r3, r3, #8
 411 009e 1A44     		add	r2, r2, r3
 412              		.loc 1 243 0
 413 00a0 2160     		str	r1, [r4]
 414              		.loc 1 242 0
 415 00a2 6260     		str	r2, [r4, #4]
 416              		.loc 1 249 0
 417 00a4 3046     		mov	r0, r6
 418              		.loc 1 252 0
 419 00a6 BDE8F843 		pop	{r3, r4, r5, r6, r7, r8, r9, lr}
 420              		.cfi_remember_state
 421              		.cfi_restore 14
 422              		.cfi_restore 9
 423              		.cfi_restore 8
 424              		.cfi_restore 7
 425              		.cfi_restore 6
 426              		.cfi_restore 5
 427              		.cfi_restore 4
 428              		.cfi_restore 3
 429              		.cfi_def_cfa_offset 0
 430              	.LVL39:
 431              		.loc 1 249 0
 432 00aa FFF7FEBF 		b	chMtxUnlock
 433              	.LVL40:
 434              	.L44:
 435              		.cfi_restore_state
 436              		.loc 1 217 0 discriminator 2
 437 00ae 0248     		ldr	r0, .L48
 438              	.LVL41:
 439 00b0 FFF7FEFF 		bl	chSysHalt
 440              	.LVL42:
 441 00b4 A9E7     		b	.L32
 442              	.L49:
 443 00b6 00BF     		.align	2
 444              	.L48:
 445 00b8 00000000 		.word	.LANCHOR2
 446              		.cfi_endproc
 447              	.LFE222:
 448              		.size	chHeapFree, .-chHeapFree
 449              		.section	.text.chHeapStatus,"ax",%progbits
 450              		.align	1
 451              		.p2align 4,,15
 452              		.global	chHeapStatus
 453              		.syntax unified
 454              		.thumb
 455              		.thumb_func
 456              		.fpu fpv4-sp-d16
ARM GAS  /var/folders/km/q6jdms0143g2bddz5bhvdfd00000gn/T//ccVOWgQN.s 			page 9


 457              		.type	chHeapStatus, %function
 458              	chHeapStatus:
 459              	.LFB223:
 460              		.loc 1 267 0
 461              		.cfi_startproc
 462              		@ args = 0, pretend = 0, frame = 0
 463              		@ frame_needed = 0, uses_anonymous_args = 0
 464              	.LVL43:
 465 0000 70B5     		push	{r4, r5, r6, lr}
 466              		.cfi_def_cfa_offset 16
 467              		.cfi_offset 4, -16
 468              		.cfi_offset 5, -12
 469              		.cfi_offset 6, -8
 470              		.cfi_offset 14, -4
 471              		.loc 1 272 0
 472 0002 0F4C     		ldr	r4, .L61
 473 0004 0028     		cmp	r0, #0
 474 0006 18BF     		it	ne
 475 0008 0446     		movne	r4, r0
 476              	.LVL44:
 477              		.loc 1 275 0
 478 000a 04F11005 		add	r5, r4, #16
 479 000e 2846     		mov	r0, r5
 480              		.loc 1 267 0
 481 0010 0E46     		mov	r6, r1
 482              		.loc 1 275 0
 483 0012 FFF7FEFF 		bl	chMtxLock
 484              	.LVL45:
 485              		.loc 1 279 0
 486 0016 A368     		ldr	r3, [r4, #8]
 487 0018 73B1     		cbz	r3, .L55
 488              		.loc 1 276 0
 489 001a 0022     		movs	r2, #0
 490              		.loc 1 277 0
 491 001c 1446     		mov	r4, r2
 492              	.LVL46:
 493              	.L53:
 494              		.loc 1 279 0
 495 001e D3E90030 		ldrd	r3, r0, [r3]
 496              		.loc 1 281 0
 497 0022 0134     		adds	r4, r4, #1
 498              	.LVL47:
 499              		.loc 1 280 0
 500 0024 0244     		add	r2, r2, r0
 501              	.LVL48:
 502              		.loc 1 279 0
 503 0026 002B     		cmp	r3, #0
 504 0028 F9D1     		bne	.L53
 505              	.LVL49:
 506              	.L52:
 507              		.loc 1 284 0
 508 002a 06B1     		cbz	r6, .L54
 509              		.loc 1 285 0
 510 002c 3260     		str	r2, [r6]
 511              	.L54:
 512              		.loc 1 287 0
 513 002e 2846     		mov	r0, r5
ARM GAS  /var/folders/km/q6jdms0143g2bddz5bhvdfd00000gn/T//ccVOWgQN.s 			page 10


 514 0030 FFF7FEFF 		bl	chMtxUnlock
 515              	.LVL50:
 516              		.loc 1 290 0
 517 0034 2046     		mov	r0, r4
 518 0036 70BD     		pop	{r4, r5, r6, pc}
 519              	.LVL51:
 520              	.L55:
 521              		.loc 1 276 0
 522 0038 1A46     		mov	r2, r3
 523              		.loc 1 277 0
 524 003a 1C46     		mov	r4, r3
 525              	.LVL52:
 526 003c F5E7     		b	.L52
 527              	.L62:
 528 003e 00BF     		.align	2
 529              	.L61:
 530 0040 00000000 		.word	.LANCHOR0
 531              		.cfi_endproc
 532              	.LFE223:
 533              		.size	chHeapStatus, .-chHeapStatus
 534              		.section	.bss.default_heap,"aw",%nobits
 535              		.align	3
 536              		.set	.LANCHOR0,. + 0
 537              		.type	default_heap, %object
 538              		.size	default_heap, 40
 539              	default_heap:
 540 0000 00000000 		.space	40
 540      00000000 
 540      00000000 
 540      00000000 
 540      00000000 
 541              		.section	.rodata.__func__.7856,"a",%progbits
 542              		.align	2
 543              		.set	.LANCHOR1,. + 0
 544              		.type	__func__.7856, %object
 545              		.size	__func__.7856, 17
 546              	__func__.7856:
 547 0000 63684865 		.ascii	"chHeapObjectInit\000"
 547      61704F62 
 547      6A656374 
 547      496E6974 
 547      00
 548              		.section	.rodata.__func__.7873,"a",%progbits
 549              		.align	2
 550              		.set	.LANCHOR2,. + 0
 551              		.type	__func__.7873, %object
 552              		.size	__func__.7873, 11
 553              	__func__.7873:
 554 0000 63684865 		.ascii	"chHeapFree\000"
 554      61704672 
 554      656500
 555              		.text
 556              	.Letext0:
 557              		.file 2 "/Applications/Eclipse_e-puck2.app/Contents/Eclipse_e-puck2/Tools/gcc-arm-none-eabi-7-2017
 558              		.file 3 "/Applications/Eclipse_e-puck2.app/Contents/Eclipse_e-puck2/Tools/gcc-arm-none-eabi-7-2017
 559              		.file 4 "/Applications/Eclipse_e-puck2.app/Contents/Eclipse_e-puck2/Tools/gcc-arm-none-eabi-7-2017
 560              		.file 5 "../../lib/ChibiOS/os/rt/ports/ARMCMx/compilers/GCC/chtypes.h"
ARM GAS  /var/folders/km/q6jdms0143g2bddz5bhvdfd00000gn/T//ccVOWgQN.s 			page 11


 561              		.file 6 "../../lib/ChibiOS/os/rt/include/chsystypes.h"
 562              		.file 7 "../../lib/ChibiOS/os/rt/include/chschd.h"
 563              		.file 8 "../../lib/ChibiOS/os/ext/CMSIS/include/core_cm4.h"
 564              		.file 9 "../../lib/ChibiOS/os/ext/CMSIS/ST/system_stm32f4xx.h"
 565              		.file 10 "../../lib/ChibiOS/os/rt/ports/ARMCMx/chcore.h"
 566              		.file 11 "../../lib/ChibiOS/os/rt/ports/ARMCMx/chcore_v7m.h"
 567              		.file 12 "../../lib/ChibiOS/os/rt/include/chdebug.h"
 568              		.file 13 "../../lib/ChibiOS/os/rt/include/chtm.h"
 569              		.file 14 "../../lib/ChibiOS/os/rt/include/chstats.h"
 570              		.file 15 "../../lib/ChibiOS/os/rt/include/chsem.h"
 571              		.file 16 "../../lib/ChibiOS/os/rt/include/chmtx.h"
 572              		.file 17 "../../lib/ChibiOS/os/rt/include/chregistry.h"
 573              		.file 18 "../../lib/ChibiOS/os/rt/include/chmemcore.h"
 574              		.file 19 "../../lib/ChibiOS/os/rt/include/chheap.h"
 575              		.file 20 "../../lib/ChibiOS/os/rt/include/chsys.h"
 576              		.section	.debug_info,"",%progbits
 577              	.Ldebug_info0:
 578 0000 BB0D0000 		.4byte	0xdbb
 579 0004 0400     		.2byte	0x4
 580 0006 00000000 		.4byte	.Ldebug_abbrev0
 581 000a 04       		.byte	0x4
 582 000b 01       		.uleb128 0x1
 583 000c AF020000 		.4byte	.LASF180
 584 0010 0C       		.byte	0xc
 585 0011 DB050000 		.4byte	.LASF181
 586 0015 49040000 		.4byte	.LASF182
 587 0019 00000000 		.4byte	.Ldebug_ranges0+0
 588 001d 00000000 		.4byte	0
 589 0021 00000000 		.4byte	.Ldebug_line0
 590 0025 02       		.uleb128 0x2
 591 0026 04       		.byte	0x4
 592 0027 05       		.byte	0x5
 593 0028 696E7400 		.ascii	"int\000"
 594 002c 03       		.uleb128 0x3
 595 002d 24000000 		.4byte	.LASF4
 596 0031 02       		.byte	0x2
 597 0032 D8       		.byte	0xd8
 598 0033 37000000 		.4byte	0x37
 599 0037 04       		.uleb128 0x4
 600 0038 04       		.byte	0x4
 601 0039 07       		.byte	0x7
 602 003a 66020000 		.4byte	.LASF0
 603 003e 04       		.uleb128 0x4
 604 003f 08       		.byte	0x8
 605 0040 05       		.byte	0x5
 606 0041 2F020000 		.4byte	.LASF1
 607 0045 04       		.uleb128 0x4
 608 0046 08       		.byte	0x8
 609 0047 04       		.byte	0x4
 610 0048 41050000 		.4byte	.LASF2
 611 004c 04       		.uleb128 0x4
 612 004d 01       		.byte	0x1
 613 004e 06       		.byte	0x6
 614 004f 43010000 		.4byte	.LASF3
 615 0053 03       		.uleb128 0x3
 616 0054 4D000000 		.4byte	.LASF5
 617 0058 03       		.byte	0x3
ARM GAS  /var/folders/km/q6jdms0143g2bddz5bhvdfd00000gn/T//ccVOWgQN.s 			page 12


 618 0059 2B       		.byte	0x2b
 619 005a 5E000000 		.4byte	0x5e
 620 005e 04       		.uleb128 0x4
 621 005f 01       		.byte	0x1
 622 0060 08       		.byte	0x8
 623 0061 5D060000 		.4byte	.LASF6
 624 0065 04       		.uleb128 0x4
 625 0066 02       		.byte	0x2
 626 0067 05       		.byte	0x5
 627 0068 81060000 		.4byte	.LASF7
 628 006c 03       		.uleb128 0x3
 629 006d 8E070000 		.4byte	.LASF8
 630 0071 03       		.byte	0x3
 631 0072 39       		.byte	0x39
 632 0073 77000000 		.4byte	0x77
 633 0077 04       		.uleb128 0x4
 634 0078 02       		.byte	0x2
 635 0079 07       		.byte	0x7
 636 007a E8030000 		.4byte	.LASF9
 637 007e 03       		.uleb128 0x3
 638 007f DE040000 		.4byte	.LASF10
 639 0083 03       		.byte	0x3
 640 0084 4D       		.byte	0x4d
 641 0085 89000000 		.4byte	0x89
 642 0089 04       		.uleb128 0x4
 643 008a 04       		.byte	0x4
 644 008b 05       		.byte	0x5
 645 008c AE010000 		.4byte	.LASF11
 646 0090 03       		.uleb128 0x3
 647 0091 CC070000 		.4byte	.LASF12
 648 0095 03       		.byte	0x3
 649 0096 4F       		.byte	0x4f
 650 0097 9B000000 		.4byte	0x9b
 651 009b 04       		.uleb128 0x4
 652 009c 04       		.byte	0x4
 653 009d 07       		.byte	0x7
 654 009e 5D070000 		.4byte	.LASF13
 655 00a2 03       		.uleb128 0x3
 656 00a3 C5050000 		.4byte	.LASF14
 657 00a7 03       		.byte	0x3
 658 00a8 69       		.byte	0x69
 659 00a9 AD000000 		.4byte	0xad
 660 00ad 04       		.uleb128 0x4
 661 00ae 08       		.byte	0x8
 662 00af 07       		.byte	0x7
 663 00b0 9C000000 		.4byte	.LASF15
 664 00b4 03       		.uleb128 0x3
 665 00b5 54080000 		.4byte	.LASF16
 666 00b9 04       		.byte	0x4
 667 00ba 18       		.byte	0x18
 668 00bb 53000000 		.4byte	0x53
 669 00bf 03       		.uleb128 0x3
 670 00c0 7B020000 		.4byte	.LASF17
 671 00c4 04       		.byte	0x4
 672 00c5 24       		.byte	0x24
 673 00c6 6C000000 		.4byte	0x6c
 674 00ca 03       		.uleb128 0x3
ARM GAS  /var/folders/km/q6jdms0143g2bddz5bhvdfd00000gn/T//ccVOWgQN.s 			page 13


 675 00cb 55060000 		.4byte	.LASF18
 676 00cf 04       		.byte	0x4
 677 00d0 2C       		.byte	0x2c
 678 00d1 7E000000 		.4byte	0x7e
 679 00d5 05       		.uleb128 0x5
 680 00d6 CA000000 		.4byte	0xca
 681 00da 03       		.uleb128 0x3
 682 00db 23070000 		.4byte	.LASF19
 683 00df 04       		.byte	0x4
 684 00e0 30       		.byte	0x30
 685 00e1 90000000 		.4byte	0x90
 686 00e5 03       		.uleb128 0x3
 687 00e6 37000000 		.4byte	.LASF20
 688 00ea 04       		.byte	0x4
 689 00eb 3C       		.byte	0x3c
 690 00ec A2000000 		.4byte	0xa2
 691 00f0 03       		.uleb128 0x3
 692 00f1 22050000 		.4byte	.LASF21
 693 00f5 05       		.byte	0x5
 694 00f6 45       		.byte	0x45
 695 00f7 DA000000 		.4byte	0xda
 696 00fb 03       		.uleb128 0x3
 697 00fc 12010000 		.4byte	.LASF22
 698 0100 05       		.byte	0x5
 699 0101 46       		.byte	0x46
 700 0102 E5000000 		.4byte	0xe5
 701 0106 03       		.uleb128 0x3
 702 0107 B2060000 		.4byte	.LASF23
 703 010b 05       		.byte	0x5
 704 010c 48       		.byte	0x48
 705 010d B4000000 		.4byte	0xb4
 706 0111 03       		.uleb128 0x3
 707 0112 B7010000 		.4byte	.LASF24
 708 0116 05       		.byte	0x5
 709 0117 49       		.byte	0x49
 710 0118 B4000000 		.4byte	0xb4
 711 011c 03       		.uleb128 0x3
 712 011d 00060000 		.4byte	.LASF25
 713 0121 05       		.byte	0x5
 714 0122 4A       		.byte	0x4a
 715 0123 B4000000 		.4byte	0xb4
 716 0127 03       		.uleb128 0x3
 717 0128 94010000 		.4byte	.LASF26
 718 012c 05       		.byte	0x5
 719 012d 4B       		.byte	0x4b
 720 012e B4000000 		.4byte	0xb4
 721 0132 03       		.uleb128 0x3
 722 0133 34060000 		.4byte	.LASF27
 723 0137 05       		.byte	0x5
 724 0138 4C       		.byte	0x4c
 725 0139 DA000000 		.4byte	0xda
 726 013d 03       		.uleb128 0x3
 727 013e 1F040000 		.4byte	.LASF28
 728 0142 05       		.byte	0x5
 729 0143 4D       		.byte	0x4d
 730 0144 CA000000 		.4byte	0xca
 731 0148 03       		.uleb128 0x3
ARM GAS  /var/folders/km/q6jdms0143g2bddz5bhvdfd00000gn/T//ccVOWgQN.s 			page 14


 732 0149 D2040000 		.4byte	.LASF29
 733 014d 05       		.byte	0x5
 734 014e 4F       		.byte	0x4f
 735 014f DA000000 		.4byte	0xda
 736 0153 03       		.uleb128 0x3
 737 0154 55020000 		.4byte	.LASF30
 738 0158 05       		.byte	0x5
 739 0159 51       		.byte	0x51
 740 015a CA000000 		.4byte	0xca
 741 015e 03       		.uleb128 0x3
 742 015f 2A040000 		.4byte	.LASF31
 743 0163 05       		.byte	0x5
 744 0164 52       		.byte	0x52
 745 0165 DA000000 		.4byte	0xda
 746 0169 03       		.uleb128 0x3
 747 016a AE070000 		.4byte	.LASF32
 748 016e 06       		.byte	0x6
 749 016f 33       		.byte	0x33
 750 0170 DA000000 		.4byte	0xda
 751 0174 05       		.uleb128 0x5
 752 0175 69010000 		.4byte	0x169
 753 0179 03       		.uleb128 0x3
 754 017a 99070000 		.4byte	.LASF33
 755 017e 06       		.byte	0x6
 756 017f 3F       		.byte	0x3f
 757 0180 84010000 		.4byte	0x184
 758 0184 06       		.uleb128 0x6
 759 0185 0A040000 		.4byte	.LASF57
 760 0189 68       		.byte	0x68
 761 018a 07       		.byte	0x7
 762 018b C2       		.byte	0xc2
 763 018c A2020000 		.4byte	0x2a2
 764 0190 07       		.uleb128 0x7
 765 0191 AB060000 		.4byte	.LASF34
 766 0195 07       		.byte	0x7
 767 0196 C3       		.byte	0xc3
 768 0197 AD020000 		.4byte	0x2ad
 769 019b 00       		.byte	0
 770 019c 07       		.uleb128 0x7
 771 019d 2D060000 		.4byte	.LASF35
 772 01a1 07       		.byte	0x7
 773 01a2 C5       		.byte	0xc5
 774 01a3 AD020000 		.4byte	0x2ad
 775 01a7 04       		.byte	0x4
 776 01a8 07       		.uleb128 0x7
 777 01a9 1B010000 		.4byte	.LASF36
 778 01ad 07       		.byte	0x7
 779 01ae C7       		.byte	0xc7
 780 01af 32010000 		.4byte	0x132
 781 01b3 08       		.byte	0x8
 782 01b4 07       		.uleb128 0x7
 783 01b5 93050000 		.4byte	.LASF37
 784 01b9 07       		.byte	0x7
 785 01ba C8       		.byte	0xc8
 786 01bb 26050000 		.4byte	0x526
 787 01bf 0C       		.byte	0xc
 788 01c0 07       		.uleb128 0x7
ARM GAS  /var/folders/km/q6jdms0143g2bddz5bhvdfd00000gn/T//ccVOWgQN.s 			page 15


 789 01c1 DE010000 		.4byte	.LASF38
 790 01c5 07       		.byte	0x7
 791 01c6 CA       		.byte	0xca
 792 01c7 AD020000 		.4byte	0x2ad
 793 01cb 10       		.byte	0x10
 794 01cc 07       		.uleb128 0x7
 795 01cd 85050000 		.4byte	.LASF39
 796 01d1 07       		.byte	0x7
 797 01d2 CB       		.byte	0xcb
 798 01d3 AD020000 		.4byte	0x2ad
 799 01d7 14       		.byte	0x14
 800 01d8 07       		.uleb128 0x7
 801 01d9 87080000 		.4byte	.LASF40
 802 01dd 07       		.byte	0x7
 803 01de D2       		.byte	0xd2
 804 01df 9C080000 		.4byte	0x89c
 805 01e3 18       		.byte	0x18
 806 01e4 07       		.uleb128 0x7
 807 01e5 5B020000 		.4byte	.LASF41
 808 01e9 07       		.byte	0x7
 809 01ea D8       		.byte	0xd8
 810 01eb B3080000 		.4byte	0x8b3
 811 01ef 1C       		.byte	0x1c
 812 01f0 07       		.uleb128 0x7
 813 01f1 8B060000 		.4byte	.LASF42
 814 01f5 07       		.byte	0x7
 815 01f6 DD       		.byte	0xdd
 816 01f7 11010000 		.4byte	0x111
 817 01fb 20       		.byte	0x20
 818 01fc 07       		.uleb128 0x7
 819 01fd C9060000 		.4byte	.LASF43
 820 0201 07       		.byte	0x7
 821 0202 E1       		.byte	0xe1
 822 0203 06010000 		.4byte	0x106
 823 0207 21       		.byte	0x21
 824 0208 07       		.uleb128 0x7
 825 0209 36080000 		.4byte	.LASF44
 826 020d 07       		.byte	0x7
 827 020e E6       		.byte	0xe6
 828 020f 1C010000 		.4byte	0x11c
 829 0213 22       		.byte	0x22
 830 0214 07       		.uleb128 0x7
 831 0215 93060000 		.4byte	.LASF45
 832 0219 07       		.byte	0x7
 833 021a EC       		.byte	0xec
 834 021b 27010000 		.4byte	0x127
 835 021f 23       		.byte	0x23
 836 0220 07       		.uleb128 0x7
 837 0221 94020000 		.4byte	.LASF46
 838 0225 07       		.byte	0x7
 839 0226 F3       		.byte	0xf3
 840 0227 74010000 		.4byte	0x174
 841 022b 24       		.byte	0x24
 842 022c 08       		.uleb128 0x8
 843 022d 705F7500 		.ascii	"p_u\000"
 844 0231 07       		.byte	0x7
 845 0232 3101     		.2byte	0x131
ARM GAS  /var/folders/km/q6jdms0143g2bddz5bhvdfd00000gn/T//ccVOWgQN.s 			page 16


 846 0234 CB070000 		.4byte	0x7cb
 847 0238 28       		.byte	0x28
 848 0239 09       		.uleb128 0x9
 849 023a 18050000 		.4byte	.LASF47
 850 023e 07       		.byte	0x7
 851 023f 3601     		.2byte	0x136
 852 0241 B3020000 		.4byte	0x2b3
 853 0245 2C       		.byte	0x2c
 854 0246 09       		.uleb128 0x9
 855 0247 C8030000 		.4byte	.LASF48
 856 024b 07       		.byte	0x7
 857 024c 3C01     		.2byte	0x13c
 858 024e D7020000 		.4byte	0x2d7
 859 0252 30       		.byte	0x30
 860 0253 09       		.uleb128 0x9
 861 0254 88070000 		.4byte	.LASF49
 862 0258 07       		.byte	0x7
 863 0259 4001     		.2byte	0x140
 864 025b 3D010000 		.4byte	0x13d
 865 025f 38       		.byte	0x38
 866 0260 09       		.uleb128 0x9
 867 0261 18070000 		.4byte	.LASF50
 868 0265 07       		.byte	0x7
 869 0266 4601     		.2byte	0x146
 870 0268 48010000 		.4byte	0x148
 871 026c 3C       		.byte	0x3c
 872 026d 09       		.uleb128 0x9
 873 026e 77060000 		.4byte	.LASF51
 874 0272 07       		.byte	0x7
 875 0273 4D01     		.2byte	0x14d
 876 0275 96080000 		.4byte	0x896
 877 0279 40       		.byte	0x40
 878 027a 09       		.uleb128 0x9
 879 027b B8070000 		.4byte	.LASF52
 880 027f 07       		.byte	0x7
 881 0280 5101     		.2byte	0x151
 882 0282 32010000 		.4byte	0x132
 883 0286 44       		.byte	0x44
 884 0287 09       		.uleb128 0x9
 885 0288 72010000 		.4byte	.LASF53
 886 028c 07       		.byte	0x7
 887 028d 5801     		.2byte	0x158
 888 028f 8A030000 		.4byte	0x38a
 889 0293 48       		.byte	0x48
 890 0294 09       		.uleb128 0x9
 891 0295 DA060000 		.4byte	.LASF54
 892 0299 07       		.byte	0x7
 893 029a 5E01     		.2byte	0x15e
 894 029c 7C070000 		.4byte	0x77c
 895 02a0 50       		.byte	0x50
 896 02a1 00       		.byte	0
 897 02a2 03       		.uleb128 0x3
 898 02a3 67080000 		.4byte	.LASF55
 899 02a7 06       		.byte	0x6
 900 02a8 44       		.byte	0x44
 901 02a9 AD020000 		.4byte	0x2ad
 902 02ad 0A       		.uleb128 0xa
ARM GAS  /var/folders/km/q6jdms0143g2bddz5bhvdfd00000gn/T//ccVOWgQN.s 			page 17


 903 02ae 04       		.byte	0x4
 904 02af 79010000 		.4byte	0x179
 905 02b3 03       		.uleb128 0x3
 906 02b4 00000000 		.4byte	.LASF56
 907 02b8 06       		.byte	0x6
 908 02b9 49       		.byte	0x49
 909 02ba BE020000 		.4byte	0x2be
 910 02be 06       		.uleb128 0x6
 911 02bf 40070000 		.4byte	.LASF58
 912 02c3 04       		.byte	0x4
 913 02c4 07       		.byte	0x7
 914 02c5 B0       		.byte	0xb0
 915 02c6 D7020000 		.4byte	0x2d7
 916 02ca 07       		.uleb128 0x7
 917 02cb AB060000 		.4byte	.LASF34
 918 02cf 07       		.byte	0x7
 919 02d0 B1       		.byte	0xb1
 920 02d1 AD020000 		.4byte	0x2ad
 921 02d5 00       		.byte	0
 922 02d6 00       		.byte	0
 923 02d7 03       		.uleb128 0x3
 924 02d8 E2060000 		.4byte	.LASF59
 925 02dc 06       		.byte	0x6
 926 02dd 50       		.byte	0x50
 927 02de E2020000 		.4byte	0x2e2
 928 02e2 06       		.uleb128 0x6
 929 02e3 63000000 		.4byte	.LASF60
 930 02e7 08       		.byte	0x8
 931 02e8 07       		.byte	0x7
 932 02e9 B7       		.byte	0xb7
 933 02ea 07030000 		.4byte	0x307
 934 02ee 07       		.uleb128 0x7
 935 02ef AB060000 		.4byte	.LASF34
 936 02f3 07       		.byte	0x7
 937 02f4 B8       		.byte	0xb8
 938 02f5 AD020000 		.4byte	0x2ad
 939 02f9 00       		.byte	0
 940 02fa 07       		.uleb128 0x7
 941 02fb 2D060000 		.4byte	.LASF35
 942 02ff 07       		.byte	0x7
 943 0300 B9       		.byte	0xb9
 944 0301 AD020000 		.4byte	0x2ad
 945 0305 04       		.byte	0x4
 946 0306 00       		.byte	0
 947 0307 03       		.uleb128 0x3
 948 0308 0F000000 		.4byte	.LASF61
 949 030c 06       		.byte	0x6
 950 030d 57       		.byte	0x57
 951 030e 12030000 		.4byte	0x312
 952 0312 0B       		.uleb128 0xb
 953 0313 C4040000 		.4byte	.LASF62
 954 0317 1C       		.byte	0x1c
 955 0318 07       		.byte	0x7
 956 0319 9001     		.2byte	0x190
 957 031b 6E030000 		.4byte	0x36e
 958 031f 09       		.uleb128 0x9
 959 0320 38070000 		.4byte	.LASF63
ARM GAS  /var/folders/km/q6jdms0143g2bddz5bhvdfd00000gn/T//ccVOWgQN.s 			page 18


 960 0324 07       		.byte	0x7
 961 0325 9101     		.2byte	0x191
 962 0327 D7020000 		.4byte	0x2d7
 963 032b 00       		.byte	0
 964 032c 09       		.uleb128 0x9
 965 032d 9D060000 		.4byte	.LASF64
 966 0331 07       		.byte	0x7
 967 0332 9201     		.2byte	0x192
 968 0334 32010000 		.4byte	0x132
 969 0338 08       		.byte	0x8
 970 0339 09       		.uleb128 0x9
 971 033a 8D050000 		.4byte	.LASF65
 972 033e 07       		.byte	0x7
 973 033f 9401     		.2byte	0x194
 974 0341 26050000 		.4byte	0x526
 975 0345 0C       		.byte	0xc
 976 0346 09       		.uleb128 0x9
 977 0347 F6010000 		.4byte	.LASF66
 978 034b 07       		.byte	0x7
 979 034c 9701     		.2byte	0x197
 980 034e AD020000 		.4byte	0x2ad
 981 0352 10       		.byte	0x10
 982 0353 09       		.uleb128 0x9
 983 0354 BD050000 		.4byte	.LASF67
 984 0358 07       		.byte	0x7
 985 0359 9801     		.2byte	0x198
 986 035b AD020000 		.4byte	0x2ad
 987 035f 14       		.byte	0x14
 988 0360 09       		.uleb128 0x9
 989 0361 B3050000 		.4byte	.LASF68
 990 0365 07       		.byte	0x7
 991 0366 9B01     		.2byte	0x19b
 992 0368 AD020000 		.4byte	0x2ad
 993 036c 18       		.byte	0x18
 994 036d 00       		.byte	0
 995 036e 03       		.uleb128 0x3
 996 036f C3070000 		.4byte	.LASF69
 997 0373 06       		.byte	0x6
 998 0374 5C       		.byte	0x5c
 999 0375 79030000 		.4byte	0x379
 1000 0379 0A       		.uleb128 0xa
 1001 037a 04       		.byte	0x4
 1002 037b 7F030000 		.4byte	0x37f
 1003 037f 0C       		.uleb128 0xc
 1004 0380 8A030000 		.4byte	0x38a
 1005 0384 0D       		.uleb128 0xd
 1006 0385 8A030000 		.4byte	0x38a
 1007 0389 00       		.byte	0
 1008 038a 0E       		.uleb128 0xe
 1009 038b 04       		.byte	0x4
 1010 038c 03       		.uleb128 0x3
 1011 038d 1D060000 		.4byte	.LASF70
 1012 0391 06       		.byte	0x6
 1013 0392 61       		.byte	0x61
 1014 0393 97030000 		.4byte	0x397
 1015 0397 0B       		.uleb128 0xb
 1016 0398 F0070000 		.4byte	.LASF71
ARM GAS  /var/folders/km/q6jdms0143g2bddz5bhvdfd00000gn/T//ccVOWgQN.s 			page 19


 1017 039c 14       		.byte	0x14
 1018 039d 07       		.byte	0x7
 1019 039e 6B01     		.2byte	0x16b
 1020 03a0 E6030000 		.4byte	0x3e6
 1021 03a4 09       		.uleb128 0x9
 1022 03a5 73020000 		.4byte	.LASF72
 1023 03a9 07       		.byte	0x7
 1024 03aa 6C01     		.2byte	0x16c
 1025 03ac B9080000 		.4byte	0x8b9
 1026 03b0 00       		.byte	0
 1027 03b1 09       		.uleb128 0x9
 1028 03b2 07020000 		.4byte	.LASF73
 1029 03b6 07       		.byte	0x7
 1030 03b7 6D01     		.2byte	0x16d
 1031 03b9 B9080000 		.4byte	0x8b9
 1032 03bd 04       		.byte	0x4
 1033 03be 09       		.uleb128 0x9
 1034 03bf 99050000 		.4byte	.LASF74
 1035 03c3 07       		.byte	0x7
 1036 03c4 6E01     		.2byte	0x16e
 1037 03c6 69010000 		.4byte	0x169
 1038 03ca 08       		.byte	0x8
 1039 03cb 09       		.uleb128 0x9
 1040 03cc EC080000 		.4byte	.LASF75
 1041 03d0 07       		.byte	0x7
 1042 03d1 6F01     		.2byte	0x16f
 1043 03d3 6E030000 		.4byte	0x36e
 1044 03d7 0C       		.byte	0xc
 1045 03d8 09       		.uleb128 0x9
 1046 03d9 0E080000 		.4byte	.LASF76
 1047 03dd 07       		.byte	0x7
 1048 03de 7101     		.2byte	0x171
 1049 03e0 8A030000 		.4byte	0x38a
 1050 03e4 10       		.byte	0x10
 1051 03e5 00       		.byte	0
 1052 03e6 03       		.uleb128 0x3
 1053 03e7 E3000000 		.4byte	.LASF77
 1054 03eb 06       		.byte	0x6
 1055 03ec 66       		.byte	0x66
 1056 03ed F1030000 		.4byte	0x3f1
 1057 03f1 0B       		.uleb128 0xb
 1058 03f2 2A050000 		.4byte	.LASF78
 1059 03f6 10       		.byte	0x10
 1060 03f7 07       		.byte	0x7
 1061 03f8 7B01     		.2byte	0x17b
 1062 03fa 33040000 		.4byte	0x433
 1063 03fe 09       		.uleb128 0x9
 1064 03ff 73020000 		.4byte	.LASF72
 1065 0403 07       		.byte	0x7
 1066 0404 7C01     		.2byte	0x17c
 1067 0406 B9080000 		.4byte	0x8b9
 1068 040a 00       		.byte	0
 1069 040b 09       		.uleb128 0x9
 1070 040c 07020000 		.4byte	.LASF73
 1071 0410 07       		.byte	0x7
 1072 0411 7E01     		.2byte	0x17e
 1073 0413 B9080000 		.4byte	0x8b9
ARM GAS  /var/folders/km/q6jdms0143g2bddz5bhvdfd00000gn/T//ccVOWgQN.s 			page 20


 1074 0417 04       		.byte	0x4
 1075 0418 09       		.uleb128 0x9
 1076 0419 99050000 		.4byte	.LASF74
 1077 041d 07       		.byte	0x7
 1078 041e 8001     		.2byte	0x180
 1079 0420 69010000 		.4byte	0x169
 1080 0424 08       		.byte	0x8
 1081 0425 09       		.uleb128 0x9
 1082 0426 93080000 		.4byte	.LASF79
 1083 042a 07       		.byte	0x7
 1084 042b 8201     		.2byte	0x182
 1085 042d 74010000 		.4byte	0x174
 1086 0431 0C       		.byte	0xc
 1087 0432 00       		.byte	0
 1088 0433 03       		.uleb128 0x3
 1089 0434 74000000 		.4byte	.LASF80
 1090 0438 06       		.byte	0x6
 1091 0439 6B       		.byte	0x6b
 1092 043a 3E040000 		.4byte	0x43e
 1093 043e 0F       		.uleb128 0xf
 1094 043f 19020000 		.4byte	.LASF81
 1095 0443 1404     		.2byte	0x414
 1096 0445 07       		.byte	0x7
 1097 0446 A201     		.2byte	0x1a2
 1098 0448 81040000 		.4byte	0x481
 1099 044c 09       		.uleb128 0x9
 1100 044d D7070000 		.4byte	.LASF82
 1101 0451 07       		.byte	0x7
 1102 0452 AA01     		.2byte	0x1aa
 1103 0454 A2080000 		.4byte	0x8a2
 1104 0458 00       		.byte	0
 1105 0459 09       		.uleb128 0x9
 1106 045a 3D080000 		.4byte	.LASF83
 1107 045e 07       		.byte	0x7
 1108 045f AF01     		.2byte	0x1af
 1109 0461 53010000 		.4byte	0x153
 1110 0465 04       		.byte	0x4
 1111 0466 09       		.uleb128 0x9
 1112 0467 3D020000 		.4byte	.LASF84
 1113 046b 07       		.byte	0x7
 1114 046c B301     		.2byte	0x1b3
 1115 046e 53010000 		.4byte	0x153
 1116 0472 08       		.byte	0x8
 1117 0473 09       		.uleb128 0x9
 1118 0474 9E080000 		.4byte	.LASF85
 1119 0478 07       		.byte	0x7
 1120 0479 B901     		.2byte	0x1b9
 1121 047b 0E070000 		.4byte	0x70e
 1122 047f 0C       		.byte	0xc
 1123 0480 00       		.byte	0
 1124 0481 03       		.uleb128 0x3
 1125 0482 31040000 		.4byte	.LASF86
 1126 0486 06       		.byte	0x6
 1127 0487 70       		.byte	0x70
 1128 0488 8C040000 		.4byte	0x48c
 1129 048c 0F       		.uleb128 0xf
 1130 048d A4010000 		.4byte	.LASF87
ARM GAS  /var/folders/km/q6jdms0143g2bddz5bhvdfd00000gn/T//ccVOWgQN.s 			page 21


 1131 0491 7006     		.2byte	0x670
 1132 0493 07       		.byte	0x7
 1133 0494 C201     		.2byte	0x1c2
 1134 0496 F9040000 		.4byte	0x4f9
 1135 049a 09       		.uleb128 0x9
 1136 049b 4E080000 		.4byte	.LASF88
 1137 049f 07       		.byte	0x7
 1138 04a0 C601     		.2byte	0x1c6
 1139 04a2 07030000 		.4byte	0x307
 1140 04a6 00       		.byte	0
 1141 04a7 09       		.uleb128 0x9
 1142 04a8 8D010000 		.4byte	.LASF89
 1143 04ac 07       		.byte	0x7
 1144 04ad CA01     		.2byte	0x1ca
 1145 04af E6030000 		.4byte	0x3e6
 1146 04b3 1C       		.byte	0x1c
 1147 04b4 08       		.uleb128 0x8
 1148 04b5 64626700 		.ascii	"dbg\000"
 1149 04b9 07       		.byte	0x7
 1150 04ba CE01     		.2byte	0x1ce
 1151 04bc 33040000 		.4byte	0x433
 1152 04c0 2C       		.byte	0x2c
 1153 04c1 10       		.uleb128 0x10
 1154 04c2 14040000 		.4byte	.LASF90
 1155 04c6 07       		.byte	0x7
 1156 04c7 D201     		.2byte	0x1d2
 1157 04c9 79010000 		.4byte	0x179
 1158 04cd 4004     		.2byte	0x440
 1159 04cf 11       		.uleb128 0x11
 1160 04d0 746D00   		.ascii	"tm\000"
 1161 04d3 07       		.byte	0x7
 1162 04d4 D701     		.2byte	0x1d7
 1163 04d6 2E070000 		.4byte	0x72e
 1164 04da A804     		.2byte	0x4a8
 1165 04dc 10       		.uleb128 0x10
 1166 04dd 40000000 		.4byte	.LASF91
 1167 04e1 07       		.byte	0x7
 1168 04e2 DD01     		.2byte	0x1dd
 1169 04e4 C0070000 		.4byte	0x7c0
 1170 04e8 B004     		.2byte	0x4b0
 1171 04ea 10       		.uleb128 0x10
 1172 04eb 46020000 		.4byte	.LASF92
 1173 04ef 07       		.byte	0x7
 1174 04f0 E301     		.2byte	0x1e3
 1175 04f2 BF080000 		.4byte	0x8bf
 1176 04f6 E804     		.2byte	0x4e8
 1177 04f8 00       		.byte	0
 1178 04f9 12       		.uleb128 0x12
 1179 04fa F9000000 		.4byte	.LASF93
 1180 04fe 08       		.byte	0x8
 1181 04ff A706     		.2byte	0x6a7
 1182 0501 D5000000 		.4byte	0xd5
 1183 0505 13       		.uleb128 0x13
 1184 0506 84020000 		.4byte	.LASF94
 1185 050a 09       		.byte	0x9
 1186 050b 4C       		.byte	0x4c
 1187 050c DA000000 		.4byte	0xda
ARM GAS  /var/folders/km/q6jdms0143g2bddz5bhvdfd00000gn/T//ccVOWgQN.s 			page 22


 1188 0510 03       		.uleb128 0x3
 1189 0511 FE010000 		.4byte	.LASF95
 1190 0515 0A       		.byte	0xa
 1191 0516 65       		.byte	0x65
 1192 0517 8A030000 		.4byte	0x38a
 1193 051b 03       		.uleb128 0x3
 1194 051c E8040000 		.4byte	.LASF96
 1195 0520 0A       		.byte	0xa
 1196 0521 6D       		.byte	0x6d
 1197 0522 E5000000 		.4byte	0xe5
 1198 0526 06       		.uleb128 0x6
 1199 0527 E8070000 		.4byte	.LASF97
 1200 052b 04       		.byte	0x4
 1201 052c 0A       		.byte	0xa
 1202 052d 89       		.byte	0x89
 1203 052e 3F050000 		.4byte	0x53f
 1204 0532 14       		.uleb128 0x14
 1205 0533 72313300 		.ascii	"r13\000"
 1206 0537 0A       		.byte	0xa
 1207 0538 8A       		.byte	0x8a
 1208 0539 80060000 		.4byte	0x680
 1209 053d 00       		.byte	0
 1210 053e 00       		.byte	0
 1211 053f 06       		.uleb128 0x6
 1212 0540 57000000 		.4byte	.LASF98
 1213 0544 64       		.byte	0x64
 1214 0545 0B       		.byte	0xb
 1215 0546 F4       		.byte	0xf4
 1216 0547 80060000 		.4byte	0x680
 1217 054b 14       		.uleb128 0x14
 1218 054c 73313600 		.ascii	"s16\000"
 1219 0550 0B       		.byte	0xb
 1220 0551 F6       		.byte	0xf6
 1221 0552 10050000 		.4byte	0x510
 1222 0556 00       		.byte	0
 1223 0557 14       		.uleb128 0x14
 1224 0558 73313700 		.ascii	"s17\000"
 1225 055c 0B       		.byte	0xb
 1226 055d F7       		.byte	0xf7
 1227 055e 10050000 		.4byte	0x510
 1228 0562 04       		.byte	0x4
 1229 0563 14       		.uleb128 0x14
 1230 0564 73313800 		.ascii	"s18\000"
 1231 0568 0B       		.byte	0xb
 1232 0569 F8       		.byte	0xf8
 1233 056a 10050000 		.4byte	0x510
 1234 056e 08       		.byte	0x8
 1235 056f 14       		.uleb128 0x14
 1236 0570 73313900 		.ascii	"s19\000"
 1237 0574 0B       		.byte	0xb
 1238 0575 F9       		.byte	0xf9
 1239 0576 10050000 		.4byte	0x510
 1240 057a 0C       		.byte	0xc
 1241 057b 14       		.uleb128 0x14
 1242 057c 73323000 		.ascii	"s20\000"
 1243 0580 0B       		.byte	0xb
 1244 0581 FA       		.byte	0xfa
ARM GAS  /var/folders/km/q6jdms0143g2bddz5bhvdfd00000gn/T//ccVOWgQN.s 			page 23


 1245 0582 10050000 		.4byte	0x510
 1246 0586 10       		.byte	0x10
 1247 0587 14       		.uleb128 0x14
 1248 0588 73323100 		.ascii	"s21\000"
 1249 058c 0B       		.byte	0xb
 1250 058d FB       		.byte	0xfb
 1251 058e 10050000 		.4byte	0x510
 1252 0592 14       		.byte	0x14
 1253 0593 14       		.uleb128 0x14
 1254 0594 73323200 		.ascii	"s22\000"
 1255 0598 0B       		.byte	0xb
 1256 0599 FC       		.byte	0xfc
 1257 059a 10050000 		.4byte	0x510
 1258 059e 18       		.byte	0x18
 1259 059f 14       		.uleb128 0x14
 1260 05a0 73323300 		.ascii	"s23\000"
 1261 05a4 0B       		.byte	0xb
 1262 05a5 FD       		.byte	0xfd
 1263 05a6 10050000 		.4byte	0x510
 1264 05aa 1C       		.byte	0x1c
 1265 05ab 14       		.uleb128 0x14
 1266 05ac 73323400 		.ascii	"s24\000"
 1267 05b0 0B       		.byte	0xb
 1268 05b1 FE       		.byte	0xfe
 1269 05b2 10050000 		.4byte	0x510
 1270 05b6 20       		.byte	0x20
 1271 05b7 14       		.uleb128 0x14
 1272 05b8 73323500 		.ascii	"s25\000"
 1273 05bc 0B       		.byte	0xb
 1274 05bd FF       		.byte	0xff
 1275 05be 10050000 		.4byte	0x510
 1276 05c2 24       		.byte	0x24
 1277 05c3 08       		.uleb128 0x8
 1278 05c4 73323600 		.ascii	"s26\000"
 1279 05c8 0B       		.byte	0xb
 1280 05c9 0001     		.2byte	0x100
 1281 05cb 10050000 		.4byte	0x510
 1282 05cf 28       		.byte	0x28
 1283 05d0 08       		.uleb128 0x8
 1284 05d1 73323700 		.ascii	"s27\000"
 1285 05d5 0B       		.byte	0xb
 1286 05d6 0101     		.2byte	0x101
 1287 05d8 10050000 		.4byte	0x510
 1288 05dc 2C       		.byte	0x2c
 1289 05dd 08       		.uleb128 0x8
 1290 05de 73323800 		.ascii	"s28\000"
 1291 05e2 0B       		.byte	0xb
 1292 05e3 0201     		.2byte	0x102
 1293 05e5 10050000 		.4byte	0x510
 1294 05e9 30       		.byte	0x30
 1295 05ea 08       		.uleb128 0x8
 1296 05eb 73323900 		.ascii	"s29\000"
 1297 05ef 0B       		.byte	0xb
 1298 05f0 0301     		.2byte	0x103
 1299 05f2 10050000 		.4byte	0x510
 1300 05f6 34       		.byte	0x34
 1301 05f7 08       		.uleb128 0x8
ARM GAS  /var/folders/km/q6jdms0143g2bddz5bhvdfd00000gn/T//ccVOWgQN.s 			page 24


 1302 05f8 73333000 		.ascii	"s30\000"
 1303 05fc 0B       		.byte	0xb
 1304 05fd 0401     		.2byte	0x104
 1305 05ff 10050000 		.4byte	0x510
 1306 0603 38       		.byte	0x38
 1307 0604 08       		.uleb128 0x8
 1308 0605 73333100 		.ascii	"s31\000"
 1309 0609 0B       		.byte	0xb
 1310 060a 0501     		.2byte	0x105
 1311 060c 10050000 		.4byte	0x510
 1312 0610 3C       		.byte	0x3c
 1313 0611 08       		.uleb128 0x8
 1314 0612 723400   		.ascii	"r4\000"
 1315 0615 0B       		.byte	0xb
 1316 0616 0701     		.2byte	0x107
 1317 0618 10050000 		.4byte	0x510
 1318 061c 40       		.byte	0x40
 1319 061d 08       		.uleb128 0x8
 1320 061e 723500   		.ascii	"r5\000"
 1321 0621 0B       		.byte	0xb
 1322 0622 0801     		.2byte	0x108
 1323 0624 10050000 		.4byte	0x510
 1324 0628 44       		.byte	0x44
 1325 0629 08       		.uleb128 0x8
 1326 062a 723600   		.ascii	"r6\000"
 1327 062d 0B       		.byte	0xb
 1328 062e 0901     		.2byte	0x109
 1329 0630 10050000 		.4byte	0x510
 1330 0634 48       		.byte	0x48
 1331 0635 08       		.uleb128 0x8
 1332 0636 723700   		.ascii	"r7\000"
 1333 0639 0B       		.byte	0xb
 1334 063a 0A01     		.2byte	0x10a
 1335 063c 10050000 		.4byte	0x510
 1336 0640 4C       		.byte	0x4c
 1337 0641 08       		.uleb128 0x8
 1338 0642 723800   		.ascii	"r8\000"
 1339 0645 0B       		.byte	0xb
 1340 0646 0B01     		.2byte	0x10b
 1341 0648 10050000 		.4byte	0x510
 1342 064c 50       		.byte	0x50
 1343 064d 08       		.uleb128 0x8
 1344 064e 723900   		.ascii	"r9\000"
 1345 0651 0B       		.byte	0xb
 1346 0652 0C01     		.2byte	0x10c
 1347 0654 10050000 		.4byte	0x510
 1348 0658 54       		.byte	0x54
 1349 0659 08       		.uleb128 0x8
 1350 065a 72313000 		.ascii	"r10\000"
 1351 065e 0B       		.byte	0xb
 1352 065f 0D01     		.2byte	0x10d
 1353 0661 10050000 		.4byte	0x510
 1354 0665 58       		.byte	0x58
 1355 0666 08       		.uleb128 0x8
 1356 0667 72313100 		.ascii	"r11\000"
 1357 066b 0B       		.byte	0xb
 1358 066c 0E01     		.2byte	0x10e
ARM GAS  /var/folders/km/q6jdms0143g2bddz5bhvdfd00000gn/T//ccVOWgQN.s 			page 25


 1359 066e 10050000 		.4byte	0x510
 1360 0672 5C       		.byte	0x5c
 1361 0673 08       		.uleb128 0x8
 1362 0674 6C7200   		.ascii	"lr\000"
 1363 0677 0B       		.byte	0xb
 1364 0678 0F01     		.2byte	0x10f
 1365 067a 10050000 		.4byte	0x510
 1366 067e 60       		.byte	0x60
 1367 067f 00       		.byte	0
 1368 0680 0A       		.uleb128 0xa
 1369 0681 04       		.byte	0x4
 1370 0682 3F050000 		.4byte	0x53f
 1371 0686 15       		.uleb128 0x15
 1372 0687 10       		.byte	0x10
 1373 0688 0C       		.byte	0xc
 1374 0689 51       		.byte	0x51
 1375 068a BF060000 		.4byte	0x6bf
 1376 068e 07       		.uleb128 0x7
 1377 068f 1C000000 		.4byte	.LASF99
 1378 0693 0C       		.byte	0xc
 1379 0694 55       		.byte	0x55
 1380 0695 69010000 		.4byte	0x169
 1381 0699 00       		.byte	0
 1382 069a 07       		.uleb128 0x7
 1383 069b CE010000 		.4byte	.LASF100
 1384 069f 0C       		.byte	0xc
 1385 06a0 59       		.byte	0x59
 1386 06a1 AD020000 		.4byte	0x2ad
 1387 06a5 04       		.byte	0x4
 1388 06a6 07       		.uleb128 0x7
 1389 06a7 D4080000 		.4byte	.LASF101
 1390 06ab 0C       		.byte	0xc
 1391 06ac 5D       		.byte	0x5d
 1392 06ad 8A030000 		.4byte	0x38a
 1393 06b1 08       		.byte	0x8
 1394 06b2 07       		.uleb128 0x7
 1395 06b3 45080000 		.4byte	.LASF102
 1396 06b7 0C       		.byte	0xc
 1397 06b8 61       		.byte	0x61
 1398 06b9 B4000000 		.4byte	0xb4
 1399 06bd 0C       		.byte	0xc
 1400 06be 00       		.byte	0
 1401 06bf 03       		.uleb128 0x3
 1402 06c0 60050000 		.4byte	.LASF103
 1403 06c4 0C       		.byte	0xc
 1404 06c5 62       		.byte	0x62
 1405 06c6 86060000 		.4byte	0x686
 1406 06ca 16       		.uleb128 0x16
 1407 06cb 0804     		.2byte	0x408
 1408 06cd 0C       		.byte	0xc
 1409 06ce 67       		.byte	0x67
 1410 06cf F8060000 		.4byte	0x6f8
 1411 06d3 07       		.uleb128 0x7
 1412 06d4 EE010000 		.4byte	.LASF104
 1413 06d8 0C       		.byte	0xc
 1414 06d9 6B       		.byte	0x6b
 1415 06da 37000000 		.4byte	0x37
ARM GAS  /var/folders/km/q6jdms0143g2bddz5bhvdfd00000gn/T//ccVOWgQN.s 			page 26


 1416 06de 00       		.byte	0
 1417 06df 07       		.uleb128 0x7
 1418 06e0 59050000 		.4byte	.LASF105
 1419 06e4 0C       		.byte	0xc
 1420 06e5 6F       		.byte	0x6f
 1421 06e6 F8060000 		.4byte	0x6f8
 1422 06ea 04       		.byte	0x4
 1423 06eb 07       		.uleb128 0x7
 1424 06ec 08060000 		.4byte	.LASF106
 1425 06f0 0C       		.byte	0xc
 1426 06f1 73       		.byte	0x73
 1427 06f2 FE060000 		.4byte	0x6fe
 1428 06f6 08       		.byte	0x8
 1429 06f7 00       		.byte	0
 1430 06f8 0A       		.uleb128 0xa
 1431 06f9 04       		.byte	0x4
 1432 06fa BF060000 		.4byte	0x6bf
 1433 06fe 17       		.uleb128 0x17
 1434 06ff BF060000 		.4byte	0x6bf
 1435 0703 0E070000 		.4byte	0x70e
 1436 0707 18       		.uleb128 0x18
 1437 0708 37000000 		.4byte	0x37
 1438 070c 3F       		.byte	0x3f
 1439 070d 00       		.byte	0
 1440 070e 03       		.uleb128 0x3
 1441 070f B3000000 		.4byte	.LASF107
 1442 0713 0C       		.byte	0xc
 1443 0714 74       		.byte	0x74
 1444 0715 CA060000 		.4byte	0x6ca
 1445 0719 15       		.uleb128 0x15
 1446 071a 04       		.byte	0x4
 1447 071b 0D       		.byte	0xd
 1448 071c 38       		.byte	0x38
 1449 071d 2E070000 		.4byte	0x72e
 1450 0721 07       		.uleb128 0x7
 1451 0722 E1070000 		.4byte	.LASF108
 1452 0726 0D       		.byte	0xd
 1453 0727 3C       		.byte	0x3c
 1454 0728 F0000000 		.4byte	0xf0
 1455 072c 00       		.byte	0
 1456 072d 00       		.byte	0
 1457 072e 03       		.uleb128 0x3
 1458 072f A2050000 		.4byte	.LASF109
 1459 0733 0D       		.byte	0xd
 1460 0734 3D       		.byte	0x3d
 1461 0735 19070000 		.4byte	0x719
 1462 0739 15       		.uleb128 0x15
 1463 073a 18       		.byte	0x18
 1464 073b 0D       		.byte	0xd
 1465 073c 48       		.byte	0x48
 1466 073d 7C070000 		.4byte	0x77c
 1467 0741 07       		.uleb128 0x7
 1468 0742 A2070000 		.4byte	.LASF110
 1469 0746 0D       		.byte	0xd
 1470 0747 49       		.byte	0x49
 1471 0748 F0000000 		.4byte	0xf0
 1472 074c 00       		.byte	0
ARM GAS  /var/folders/km/q6jdms0143g2bddz5bhvdfd00000gn/T//ccVOWgQN.s 			page 27


 1473 074d 07       		.uleb128 0x7
 1474 074e 83000000 		.4byte	.LASF111
 1475 0752 0D       		.byte	0xd
 1476 0753 4A       		.byte	0x4a
 1477 0754 F0000000 		.4byte	0xf0
 1478 0758 04       		.byte	0x4
 1479 0759 07       		.uleb128 0x7
 1480 075a 25040000 		.4byte	.LASF112
 1481 075e 0D       		.byte	0xd
 1482 075f 4B       		.byte	0x4b
 1483 0760 F0000000 		.4byte	0xf0
 1484 0764 08       		.byte	0x8
 1485 0765 14       		.uleb128 0x14
 1486 0766 6E00     		.ascii	"n\000"
 1487 0768 0D       		.byte	0xd
 1488 0769 4C       		.byte	0x4c
 1489 076a 5E010000 		.4byte	0x15e
 1490 076e 0C       		.byte	0xc
 1491 076f 07       		.uleb128 0x7
 1492 0770 D0050000 		.4byte	.LASF113
 1493 0774 0D       		.byte	0xd
 1494 0775 4D       		.byte	0x4d
 1495 0776 FB000000 		.4byte	0xfb
 1496 077a 10       		.byte	0x10
 1497 077b 00       		.byte	0
 1498 077c 03       		.uleb128 0x3
 1499 077d 89000000 		.4byte	.LASF114
 1500 0781 0D       		.byte	0xd
 1501 0782 4E       		.byte	0x4e
 1502 0783 39070000 		.4byte	0x739
 1503 0787 15       		.uleb128 0x15
 1504 0788 38       		.byte	0x38
 1505 0789 0E       		.byte	0xe
 1506 078a 38       		.byte	0x38
 1507 078b C0070000 		.4byte	0x7c0
 1508 078f 07       		.uleb128 0x7
 1509 0790 DC030000 		.4byte	.LASF115
 1510 0794 0E       		.byte	0xe
 1511 0795 39       		.byte	0x39
 1512 0796 5E010000 		.4byte	0x15e
 1513 079a 00       		.byte	0
 1514 079b 07       		.uleb128 0x7
 1515 079c 4C060000 		.4byte	.LASF116
 1516 07a0 0E       		.byte	0xe
 1517 07a1 3A       		.byte	0x3a
 1518 07a2 5E010000 		.4byte	0x15e
 1519 07a6 04       		.byte	0x4
 1520 07a7 07       		.uleb128 0x7
 1521 07a8 C1080000 		.4byte	.LASF117
 1522 07ac 0E       		.byte	0xe
 1523 07ad 3B       		.byte	0x3b
 1524 07ae 7C070000 		.4byte	0x77c
 1525 07b2 08       		.byte	0x8
 1526 07b3 07       		.uleb128 0x7
 1527 07b4 B9040000 		.4byte	.LASF118
 1528 07b8 0E       		.byte	0xe
 1529 07b9 3D       		.byte	0x3d
ARM GAS  /var/folders/km/q6jdms0143g2bddz5bhvdfd00000gn/T//ccVOWgQN.s 			page 28


 1530 07ba 7C070000 		.4byte	0x77c
 1531 07be 20       		.byte	0x20
 1532 07bf 00       		.byte	0
 1533 07c0 03       		.uleb128 0x3
 1534 07c1 FB030000 		.4byte	.LASF119
 1535 07c5 0E       		.byte	0xe
 1536 07c6 3F       		.byte	0x3f
 1537 07c7 87070000 		.4byte	0x787
 1538 07cb 19       		.uleb128 0x19
 1539 07cc 04       		.byte	0x4
 1540 07cd 07       		.byte	0x7
 1541 07ce FA       		.byte	0xfa
 1542 07cf 28080000 		.4byte	0x828
 1543 07d3 1A       		.uleb128 0x1a
 1544 07d4 30000000 		.4byte	.LASF120
 1545 07d8 07       		.byte	0x7
 1546 07d9 0101     		.2byte	0x101
 1547 07db 3D010000 		.4byte	0x13d
 1548 07df 1A       		.uleb128 0x1a
 1549 07e0 D3000000 		.4byte	.LASF121
 1550 07e4 07       		.byte	0x7
 1551 07e5 0801     		.2byte	0x108
 1552 07e7 3D010000 		.4byte	0x13d
 1553 07eb 1A       		.uleb128 0x1a
 1554 07ec 7A080000 		.4byte	.LASF122
 1555 07f0 07       		.byte	0x7
 1556 07f1 0F01     		.2byte	0x10f
 1557 07f3 8A030000 		.4byte	0x38a
 1558 07f7 1A       		.uleb128 0x1a
 1559 07f8 9E010000 		.4byte	.LASF123
 1560 07fc 07       		.byte	0x7
 1561 07fd 1601     		.2byte	0x116
 1562 07ff 28080000 		.4byte	0x828
 1563 0803 1A       		.uleb128 0x1a
 1564 0804 9B020000 		.4byte	.LASF124
 1565 0808 07       		.byte	0x7
 1566 0809 1E01     		.2byte	0x11e
 1567 080b 53080000 		.4byte	0x853
 1568 080f 1A       		.uleb128 0x1a
 1569 0810 81070000 		.4byte	.LASF125
 1570 0814 07       		.byte	0x7
 1571 0815 2701     		.2byte	0x127
 1572 0817 96080000 		.4byte	0x896
 1573 081b 1A       		.uleb128 0x1a
 1574 081c A4060000 		.4byte	.LASF126
 1575 0820 07       		.byte	0x7
 1576 0821 2F01     		.2byte	0x12f
 1577 0823 48010000 		.4byte	0x148
 1578 0827 00       		.byte	0
 1579 0828 0A       		.uleb128 0xa
 1580 0829 04       		.byte	0x4
 1581 082a A2020000 		.4byte	0x2a2
 1582 082e 06       		.uleb128 0x6
 1583 082f 0B070000 		.4byte	.LASF127
 1584 0833 0C       		.byte	0xc
 1585 0834 0F       		.byte	0xf
 1586 0835 34       		.byte	0x34
ARM GAS  /var/folders/km/q6jdms0143g2bddz5bhvdfd00000gn/T//ccVOWgQN.s 			page 29


 1587 0836 53080000 		.4byte	0x853
 1588 083a 07       		.uleb128 0x7
 1589 083b E6010000 		.4byte	.LASF128
 1590 083f 0F       		.byte	0xf
 1591 0840 35       		.byte	0x35
 1592 0841 D7020000 		.4byte	0x2d7
 1593 0845 00       		.byte	0
 1594 0846 07       		.uleb128 0x7
 1595 0847 E2030000 		.4byte	.LASF129
 1596 084b 0F       		.byte	0xf
 1597 084c 37       		.byte	0x37
 1598 084d 53010000 		.4byte	0x153
 1599 0851 08       		.byte	0x8
 1600 0852 00       		.byte	0
 1601 0853 0A       		.uleb128 0xa
 1602 0854 04       		.byte	0x4
 1603 0855 2E080000 		.4byte	0x82e
 1604 0859 06       		.uleb128 0x6
 1605 085a 2D080000 		.4byte	.LASF130
 1606 085e 14       		.byte	0x14
 1607 085f 10       		.byte	0x10
 1608 0860 39       		.byte	0x39
 1609 0861 96080000 		.4byte	0x896
 1610 0865 07       		.uleb128 0x7
 1611 0866 7A010000 		.4byte	.LASF131
 1612 086a 10       		.byte	0x10
 1613 086b 3A       		.byte	0x3a
 1614 086c D7020000 		.4byte	0x2d7
 1615 0870 00       		.byte	0
 1616 0871 07       		.uleb128 0x7
 1617 0872 CC080000 		.4byte	.LASF132
 1618 0876 10       		.byte	0x10
 1619 0877 3C       		.byte	0x3c
 1620 0878 AD020000 		.4byte	0x2ad
 1621 087c 08       		.byte	0x8
 1622 087d 07       		.uleb128 0x7
 1623 087e A7070000 		.4byte	.LASF133
 1624 0882 10       		.byte	0x10
 1625 0883 3E       		.byte	0x3e
 1626 0884 F1090000 		.4byte	0x9f1
 1627 0888 0C       		.byte	0xc
 1628 0889 07       		.uleb128 0x7
 1629 088a 29020000 		.4byte	.LASF134
 1630 088e 10       		.byte	0x10
 1631 088f 41       		.byte	0x41
 1632 0890 53010000 		.4byte	0x153
 1633 0894 10       		.byte	0x10
 1634 0895 00       		.byte	0
 1635 0896 0A       		.uleb128 0xa
 1636 0897 04       		.byte	0x4
 1637 0898 59080000 		.4byte	0x859
 1638 089c 0A       		.uleb128 0xa
 1639 089d 04       		.byte	0x4
 1640 089e AE080000 		.4byte	0x8ae
 1641 08a2 05       		.uleb128 0x5
 1642 08a3 9C080000 		.4byte	0x89c
 1643 08a7 04       		.uleb128 0x4
ARM GAS  /var/folders/km/q6jdms0143g2bddz5bhvdfd00000gn/T//ccVOWgQN.s 			page 30


 1644 08a8 01       		.byte	0x1
 1645 08a9 08       		.byte	0x8
 1646 08aa 7C070000 		.4byte	.LASF135
 1647 08ae 1B       		.uleb128 0x1b
 1648 08af A7080000 		.4byte	0x8a7
 1649 08b3 0A       		.uleb128 0xa
 1650 08b4 04       		.byte	0x4
 1651 08b5 1B050000 		.4byte	0x51b
 1652 08b9 0A       		.uleb128 0xa
 1653 08ba 04       		.byte	0x4
 1654 08bb 8C030000 		.4byte	0x38c
 1655 08bf 17       		.uleb128 0x17
 1656 08c0 1B050000 		.4byte	0x51b
 1657 08c4 CF080000 		.4byte	0x8cf
 1658 08c8 18       		.uleb128 0x18
 1659 08c9 37000000 		.4byte	0x37
 1660 08cd 30       		.byte	0x30
 1661 08ce 00       		.byte	0
 1662 08cf 1C       		.uleb128 0x1c
 1663 08d0 636800   		.ascii	"ch\000"
 1664 08d3 07       		.byte	0x7
 1665 08d4 0902     		.2byte	0x209
 1666 08d6 81040000 		.4byte	0x481
 1667 08da 15       		.uleb128 0x15
 1668 08db 16       		.byte	0x16
 1669 08dc 11       		.byte	0x11
 1670 08dd 34       		.byte	0x34
 1671 08de BB090000 		.4byte	0x9bb
 1672 08e2 07       		.uleb128 0x7
 1673 08e3 DE080000 		.4byte	.LASF136
 1674 08e7 11       		.byte	0x11
 1675 08e8 35       		.byte	0x35
 1676 08e9 BB090000 		.4byte	0x9bb
 1677 08ed 00       		.byte	0
 1678 08ee 07       		.uleb128 0x7
 1679 08ef 04050000 		.4byte	.LASF137
 1680 08f3 11       		.byte	0x11
 1681 08f4 36       		.byte	0x36
 1682 08f5 B4000000 		.4byte	0xb4
 1683 08f9 04       		.byte	0x4
 1684 08fa 07       		.uleb128 0x7
 1685 08fb 50070000 		.4byte	.LASF138
 1686 08ff 11       		.byte	0x11
 1687 0900 37       		.byte	0x37
 1688 0901 B4000000 		.4byte	0xb4
 1689 0905 05       		.byte	0x5
 1690 0906 07       		.uleb128 0x7
 1691 0907 B6080000 		.4byte	.LASF139
 1692 090b 11       		.byte	0x11
 1693 090c 38       		.byte	0x38
 1694 090d BF000000 		.4byte	0xbf
 1695 0911 06       		.byte	0x6
 1696 0912 07       		.uleb128 0x7
 1697 0913 12060000 		.4byte	.LASF140
 1698 0917 11       		.byte	0x11
 1699 0918 39       		.byte	0x39
 1700 0919 B4000000 		.4byte	0xb4
ARM GAS  /var/folders/km/q6jdms0143g2bddz5bhvdfd00000gn/T//ccVOWgQN.s 			page 31


 1701 091d 08       		.byte	0x8
 1702 091e 07       		.uleb128 0x7
 1703 091f 4D050000 		.4byte	.LASF141
 1704 0923 11       		.byte	0x11
 1705 0924 3A       		.byte	0x3a
 1706 0925 B4000000 		.4byte	0xb4
 1707 0929 09       		.byte	0x9
 1708 092a 07       		.uleb128 0x7
 1709 092b C5000000 		.4byte	.LASF142
 1710 092f 11       		.byte	0x11
 1711 0930 3B       		.byte	0x3b
 1712 0931 B4000000 		.4byte	0xb4
 1713 0935 0A       		.byte	0xa
 1714 0936 07       		.uleb128 0x7
 1715 0937 2C070000 		.4byte	.LASF143
 1716 093b 11       		.byte	0x11
 1717 093c 3C       		.byte	0x3c
 1718 093d B4000000 		.4byte	0xb4
 1719 0941 0B       		.byte	0xb
 1720 0942 07       		.uleb128 0x7
 1721 0943 22080000 		.4byte	.LASF144
 1722 0947 11       		.byte	0x11
 1723 0948 3D       		.byte	0x3d
 1724 0949 B4000000 		.4byte	0xb4
 1725 094d 0C       		.byte	0xc
 1726 094e 07       		.uleb128 0x7
 1727 094f FE060000 		.4byte	.LASF145
 1728 0953 11       		.byte	0x11
 1729 0954 3E       		.byte	0x3e
 1730 0955 B4000000 		.4byte	0xb4
 1731 0959 0D       		.byte	0xd
 1732 095a 07       		.uleb128 0x7
 1733 095b A2020000 		.4byte	.LASF146
 1734 095f 11       		.byte	0x11
 1735 0960 3F       		.byte	0x3f
 1736 0961 B4000000 		.4byte	0xb4
 1737 0965 0E       		.byte	0xe
 1738 0966 07       		.uleb128 0x7
 1739 0967 6F050000 		.4byte	.LASF147
 1740 096b 11       		.byte	0x11
 1741 096c 40       		.byte	0x40
 1742 096d B4000000 		.4byte	0xb4
 1743 0971 0F       		.byte	0xf
 1744 0972 07       		.uleb128 0x7
 1745 0973 55010000 		.4byte	.LASF148
 1746 0977 11       		.byte	0x11
 1747 0978 41       		.byte	0x41
 1748 0979 B4000000 		.4byte	0xb4
 1749 097d 10       		.byte	0x10
 1750 097e 07       		.uleb128 0x7
 1751 097f 22010000 		.4byte	.LASF149
 1752 0983 11       		.byte	0x11
 1753 0984 43       		.byte	0x43
 1754 0985 B4000000 		.4byte	0xb4
 1755 0989 11       		.byte	0x11
 1756 098a 07       		.uleb128 0x7
 1757 098b 65010000 		.4byte	.LASF150
ARM GAS  /var/folders/km/q6jdms0143g2bddz5bhvdfd00000gn/T//ccVOWgQN.s 			page 32


 1758 098f 11       		.byte	0x11
 1759 0990 44       		.byte	0x44
 1760 0991 B4000000 		.4byte	0xb4
 1761 0995 12       		.byte	0x12
 1762 0996 07       		.uleb128 0x7
 1763 0997 0C050000 		.4byte	.LASF151
 1764 099b 11       		.byte	0x11
 1765 099c 45       		.byte	0x45
 1766 099d B4000000 		.4byte	0xb4
 1767 09a1 13       		.byte	0x13
 1768 09a2 07       		.uleb128 0x7
 1769 09a3 BA060000 		.4byte	.LASF152
 1770 09a7 11       		.byte	0x11
 1771 09a8 46       		.byte	0x46
 1772 09a9 B4000000 		.4byte	0xb4
 1773 09ad 14       		.byte	0x14
 1774 09ae 07       		.uleb128 0x7
 1775 09af 3D040000 		.4byte	.LASF153
 1776 09b3 11       		.byte	0x11
 1777 09b4 48       		.byte	0x48
 1778 09b5 B4000000 		.4byte	0xb4
 1779 09b9 15       		.byte	0x15
 1780 09ba 00       		.byte	0
 1781 09bb 17       		.uleb128 0x17
 1782 09bc A7080000 		.4byte	0x8a7
 1783 09c0 CB090000 		.4byte	0x9cb
 1784 09c4 18       		.uleb128 0x18
 1785 09c5 37000000 		.4byte	0x37
 1786 09c9 03       		.byte	0x3
 1787 09ca 00       		.byte	0
 1788 09cb 03       		.uleb128 0x3
 1789 09cc D4010000 		.4byte	.LASF154
 1790 09d0 11       		.byte	0x11
 1791 09d1 49       		.byte	0x49
 1792 09d2 DA080000 		.4byte	0x8da
 1793 09d6 1B       		.uleb128 0x1b
 1794 09d7 CB090000 		.4byte	0x9cb
 1795 09db 13       		.uleb128 0x13
 1796 09dc D3030000 		.4byte	.LASF155
 1797 09e0 11       		.byte	0x11
 1798 09e1 6E       		.byte	0x6e
 1799 09e2 D6090000 		.4byte	0x9d6
 1800 09e6 03       		.uleb128 0x3
 1801 09e7 2F010000 		.4byte	.LASF156
 1802 09eb 10       		.byte	0x10
 1803 09ec 34       		.byte	0x34
 1804 09ed 59080000 		.4byte	0x859
 1805 09f1 0A       		.uleb128 0xa
 1806 09f2 04       		.byte	0x4
 1807 09f3 E6090000 		.4byte	0x9e6
 1808 09f7 03       		.uleb128 0x3
 1809 09f8 01080000 		.4byte	.LASF157
 1810 09fc 12       		.byte	0x12
 1811 09fd 36       		.byte	0x36
 1812 09fe 020A0000 		.4byte	0xa02
 1813 0a02 0A       		.uleb128 0xa
 1814 0a03 04       		.byte	0x4
ARM GAS  /var/folders/km/q6jdms0143g2bddz5bhvdfd00000gn/T//ccVOWgQN.s 			page 33


 1815 0a04 080A0000 		.4byte	0xa08
 1816 0a08 1D       		.uleb128 0x1d
 1817 0a09 8A030000 		.4byte	0x38a
 1818 0a0d 170A0000 		.4byte	0xa17
 1819 0a11 0D       		.uleb128 0xd
 1820 0a12 2C000000 		.4byte	0x2c
 1821 0a16 00       		.byte	0
 1822 0a17 03       		.uleb128 0x3
 1823 0a18 C0010000 		.4byte	.LASF158
 1824 0a1c 13       		.byte	0x13
 1825 0a1d 3C       		.byte	0x3c
 1826 0a1e 220A0000 		.4byte	0xa22
 1827 0a22 06       		.uleb128 0x6
 1828 0a23 F4080000 		.4byte	.LASF159
 1829 0a27 28       		.byte	0x28
 1830 0a28 13       		.byte	0x13
 1831 0a29 4F       		.byte	0x4f
 1832 0a2a 530A0000 		.4byte	0xa53
 1833 0a2e 07       		.uleb128 0x7
 1834 0a2f 5C080000 		.4byte	.LASF160
 1835 0a33 13       		.byte	0x13
 1836 0a34 50       		.byte	0x50
 1837 0a35 F7090000 		.4byte	0x9f7
 1838 0a39 00       		.byte	0
 1839 0a3a 07       		.uleb128 0x7
 1840 0a3b DC000000 		.4byte	.LASF161
 1841 0a3f 13       		.byte	0x13
 1842 0a40 52       		.byte	0x52
 1843 0a41 720A0000 		.4byte	0xa72
 1844 0a45 08       		.byte	0x8
 1845 0a46 07       		.uleb128 0x7
 1846 0a47 4F010000 		.4byte	.LASF162
 1847 0a4b 13       		.byte	0x13
 1848 0a4c 54       		.byte	0x54
 1849 0a4d E6090000 		.4byte	0x9e6
 1850 0a51 10       		.byte	0x10
 1851 0a52 00       		.byte	0
 1852 0a53 19       		.uleb128 0x19
 1853 0a54 04       		.byte	0x4
 1854 0a55 13       		.byte	0x13
 1855 0a56 44       		.byte	0x44
 1856 0a57 720A0000 		.4byte	0xa72
 1857 0a5b 1E       		.uleb128 0x1e
 1858 0a5c 2B000000 		.4byte	.LASF163
 1859 0a60 13       		.byte	0x13
 1860 0a61 45       		.byte	0x45
 1861 0a62 930A0000 		.4byte	0xa93
 1862 0a66 1E       		.uleb128 0x1e
 1863 0a67 58070000 		.4byte	.LASF164
 1864 0a6b 13       		.byte	0x13
 1865 0a6c 46       		.byte	0x46
 1866 0a6d 990A0000 		.4byte	0xa99
 1867 0a71 00       		.byte	0
 1868 0a72 1F       		.uleb128 0x1f
 1869 0a73 6B060000 		.4byte	.LASF183
 1870 0a77 08       		.byte	0x8
 1871 0a78 13       		.byte	0x13
ARM GAS  /var/folders/km/q6jdms0143g2bddz5bhvdfd00000gn/T//ccVOWgQN.s 			page 34


 1872 0a79 41       		.byte	0x41
 1873 0a7a 930A0000 		.4byte	0xa93
 1874 0a7e 1E       		.uleb128 0x1e
 1875 0a7f 0C010000 		.4byte	.LASF165
 1876 0a83 13       		.byte	0x13
 1877 0a84 42       		.byte	0x42
 1878 0a85 1B050000 		.4byte	0x51b
 1879 0a89 20       		.uleb128 0x20
 1880 0a8a 6800     		.ascii	"h\000"
 1881 0a8c 13       		.byte	0x13
 1882 0a8d 49       		.byte	0x49
 1883 0a8e 9F0A0000 		.4byte	0xa9f
 1884 0a92 00       		.byte	0
 1885 0a93 0A       		.uleb128 0xa
 1886 0a94 04       		.byte	0x4
 1887 0a95 720A0000 		.4byte	0xa72
 1888 0a99 0A       		.uleb128 0xa
 1889 0a9a 04       		.byte	0x4
 1890 0a9b 170A0000 		.4byte	0xa17
 1891 0a9f 15       		.uleb128 0x15
 1892 0aa0 08       		.byte	0x8
 1893 0aa1 13       		.byte	0x13
 1894 0aa2 43       		.byte	0x43
 1895 0aa3 BE0A0000 		.4byte	0xabe
 1896 0aa7 14       		.uleb128 0x14
 1897 0aa8 7500     		.ascii	"u\000"
 1898 0aaa 13       		.byte	0x13
 1899 0aab 47       		.byte	0x47
 1900 0aac 530A0000 		.4byte	0xa53
 1901 0ab0 00       		.byte	0
 1902 0ab1 07       		.uleb128 0x7
 1903 0ab2 8E080000 		.4byte	.LASF166
 1904 0ab6 13       		.byte	0x13
 1905 0ab7 48       		.byte	0x48
 1906 0ab8 2C000000 		.4byte	0x2c
 1907 0abc 04       		.byte	0x4
 1908 0abd 00       		.byte	0
 1909 0abe 21       		.uleb128 0x21
 1910 0abf 6F070000 		.4byte	.LASF169
 1911 0ac3 01       		.byte	0x1
 1912 0ac4 4C       		.byte	0x4c
 1913 0ac5 170A0000 		.4byte	0xa17
 1914 0ac9 05       		.uleb128 0x5
 1915 0aca 03       		.byte	0x3
 1916 0acb 00000000 		.4byte	default_heap
 1917 0acf 22       		.uleb128 0x22
 1918 0ad0 15080000 		.4byte	.LASF170
 1919 0ad4 01       		.byte	0x1
 1920 0ad5 0B01     		.2byte	0x10b
 1921 0ad7 2C000000 		.4byte	0x2c
 1922 0adb 00000000 		.4byte	.LFB223
 1923 0adf 44000000 		.4byte	.LFE223-.LFB223
 1924 0ae3 01       		.uleb128 0x1
 1925 0ae4 9C       		.byte	0x9c
 1926 0ae5 5A0B0000 		.4byte	0xb5a
 1927 0ae9 23       		.uleb128 0x23
 1928 0aea 06010000 		.4byte	.LASF167
ARM GAS  /var/folders/km/q6jdms0143g2bddz5bhvdfd00000gn/T//ccVOWgQN.s 			page 35


 1929 0aee 01       		.byte	0x1
 1930 0aef 0B01     		.2byte	0x10b
 1931 0af1 990A0000 		.4byte	0xa99
 1932 0af5 00000000 		.4byte	.LLST13
 1933 0af9 23       		.uleb128 0x23
 1934 0afa 81080000 		.4byte	.LASF168
 1935 0afe 01       		.byte	0x1
 1936 0aff 0B01     		.2byte	0x10b
 1937 0b01 5A0B0000 		.4byte	0xb5a
 1938 0b05 43000000 		.4byte	.LLST14
 1939 0b09 24       		.uleb128 0x24
 1940 0b0a 717000   		.ascii	"qp\000"
 1941 0b0d 01       		.byte	0x1
 1942 0b0e 0C01     		.2byte	0x10c
 1943 0b10 930A0000 		.4byte	0xa93
 1944 0b14 61000000 		.4byte	.LLST15
 1945 0b18 24       		.uleb128 0x24
 1946 0b19 6E00     		.ascii	"n\000"
 1947 0b1b 01       		.byte	0x1
 1948 0b1c 0D01     		.2byte	0x10d
 1949 0b1e 2C000000 		.4byte	0x2c
 1950 0b22 9D000000 		.4byte	.LLST16
 1951 0b26 24       		.uleb128 0x24
 1952 0b27 737A00   		.ascii	"sz\000"
 1953 0b2a 01       		.byte	0x1
 1954 0b2b 0D01     		.2byte	0x10d
 1955 0b2d 2C000000 		.4byte	0x2c
 1956 0b31 E0000000 		.4byte	.LLST17
 1957 0b35 25       		.uleb128 0x25
 1958 0b36 16000000 		.4byte	.LVL45
 1959 0b3a 910D0000 		.4byte	0xd91
 1960 0b3e 490B0000 		.4byte	0xb49
 1961 0b42 26       		.uleb128 0x26
 1962 0b43 01       		.uleb128 0x1
 1963 0b44 50       		.byte	0x50
 1964 0b45 02       		.uleb128 0x2
 1965 0b46 75       		.byte	0x75
 1966 0b47 00       		.sleb128 0
 1967 0b48 00       		.byte	0
 1968 0b49 27       		.uleb128 0x27
 1969 0b4a 34000000 		.4byte	.LVL50
 1970 0b4e 9C0D0000 		.4byte	0xd9c
 1971 0b52 26       		.uleb128 0x26
 1972 0b53 01       		.uleb128 0x1
 1973 0b54 50       		.byte	0x50
 1974 0b55 02       		.uleb128 0x2
 1975 0b56 75       		.byte	0x75
 1976 0b57 00       		.sleb128 0
 1977 0b58 00       		.byte	0
 1978 0b59 00       		.byte	0
 1979 0b5a 0A       		.uleb128 0xa
 1980 0b5b 04       		.byte	0x4
 1981 0b5c 2C000000 		.4byte	0x2c
 1982 0b60 28       		.uleb128 0x28
 1983 0b61 82010000 		.4byte	.LASF172
 1984 0b65 01       		.byte	0x1
 1985 0b66 D5       		.byte	0xd5
ARM GAS  /var/folders/km/q6jdms0143g2bddz5bhvdfd00000gn/T//ccVOWgQN.s 			page 36


 1986 0b67 00000000 		.4byte	.LFB222
 1987 0b6b BC000000 		.4byte	.LFE222-.LFB222
 1988 0b6f 01       		.uleb128 0x1
 1989 0b70 9C       		.byte	0x9c
 1990 0b71 0A0C0000 		.4byte	0xc0a
 1991 0b75 29       		.uleb128 0x29
 1992 0b76 7000     		.ascii	"p\000"
 1993 0b78 01       		.byte	0x1
 1994 0b79 D5       		.byte	0xd5
 1995 0b7a 8A030000 		.4byte	0x38a
 1996 0b7e 0B010000 		.4byte	.LLST9
 1997 0b82 2A       		.uleb128 0x2a
 1998 0b83 717000   		.ascii	"qp\000"
 1999 0b86 01       		.byte	0x1
 2000 0b87 D6       		.byte	0xd6
 2001 0b88 930A0000 		.4byte	0xa93
 2002 0b8c 66010000 		.4byte	.LLST10
 2003 0b90 2A       		.uleb128 0x2a
 2004 0b91 687000   		.ascii	"hp\000"
 2005 0b94 01       		.byte	0x1
 2006 0b95 D6       		.byte	0xd6
 2007 0b96 930A0000 		.4byte	0xa93
 2008 0b9a 8F010000 		.4byte	.LLST11
 2009 0b9e 2B       		.uleb128 0x2b
 2010 0b9f 06010000 		.4byte	.LASF167
 2011 0ba3 01       		.byte	0x1
 2012 0ba4 D7       		.byte	0xd7
 2013 0ba5 990A0000 		.4byte	0xa99
 2014 0ba9 CD010000 		.4byte	.LLST12
 2015 0bad 2C       		.uleb128 0x2c
 2016 0bae D1060000 		.4byte	.LASF174
 2017 0bb2 1A0C0000 		.4byte	0xc1a
 2018 0bb6 05       		.uleb128 0x5
 2019 0bb7 03       		.byte	0x3
 2020 0bb8 00000000 		.4byte	__func__.7873
 2021 0bbc 25       		.uleb128 0x25
 2022 0bbd 1E000000 		.4byte	.LVL32
 2023 0bc1 910D0000 		.4byte	0xd91
 2024 0bc5 D00B0000 		.4byte	0xbd0
 2025 0bc9 26       		.uleb128 0x26
 2026 0bca 01       		.uleb128 0x1
 2027 0bcb 50       		.byte	0x50
 2028 0bcc 02       		.uleb128 0x2
 2029 0bcd 76       		.byte	0x76
 2030 0bce 00       		.sleb128 0
 2031 0bcf 00       		.byte	0
 2032 0bd0 2D       		.uleb128 0x2d
 2033 0bd1 72000000 		.4byte	.LVL37
 2034 0bd5 9C0D0000 		.4byte	0xd9c
 2035 0bd9 25       		.uleb128 0x25
 2036 0bda 78000000 		.4byte	.LVL38
 2037 0bde A70D0000 		.4byte	0xda7
 2038 0be2 ED0B0000 		.4byte	0xbed
 2039 0be6 26       		.uleb128 0x26
 2040 0be7 01       		.uleb128 0x1
 2041 0be8 50       		.byte	0x50
 2042 0be9 02       		.uleb128 0x2
ARM GAS  /var/folders/km/q6jdms0143g2bddz5bhvdfd00000gn/T//ccVOWgQN.s 			page 37


 2043 0bea 77       		.byte	0x77
 2044 0beb 00       		.sleb128 0
 2045 0bec 00       		.byte	0
 2046 0bed 2D       		.uleb128 0x2d
 2047 0bee AE000000 		.4byte	.LVL40
 2048 0bf2 9C0D0000 		.4byte	0xd9c
 2049 0bf6 27       		.uleb128 0x27
 2050 0bf7 B4000000 		.4byte	.LVL42
 2051 0bfb A70D0000 		.4byte	0xda7
 2052 0bff 26       		.uleb128 0x26
 2053 0c00 01       		.uleb128 0x1
 2054 0c01 50       		.byte	0x50
 2055 0c02 05       		.uleb128 0x5
 2056 0c03 03       		.byte	0x3
 2057 0c04 00000000 		.4byte	.LANCHOR2
 2058 0c08 00       		.byte	0
 2059 0c09 00       		.byte	0
 2060 0c0a 17       		.uleb128 0x17
 2061 0c0b AE080000 		.4byte	0x8ae
 2062 0c0f 1A0C0000 		.4byte	0xc1a
 2063 0c13 18       		.uleb128 0x18
 2064 0c14 37000000 		.4byte	0x37
 2065 0c18 0A       		.byte	0xa
 2066 0c19 00       		.byte	0
 2067 0c1a 1B       		.uleb128 0x1b
 2068 0c1b 0A0C0000 		.4byte	0xc0a
 2069 0c1f 2E       		.uleb128 0x2e
 2070 0c20 F2060000 		.4byte	.LASF171
 2071 0c24 01       		.byte	0x1
 2072 0c25 93       		.byte	0x93
 2073 0c26 8A030000 		.4byte	0x38a
 2074 0c2a 00000000 		.4byte	.LFB221
 2075 0c2e 88000000 		.4byte	.LFE221-.LFB221
 2076 0c32 01       		.uleb128 0x1
 2077 0c33 9C       		.byte	0x9c
 2078 0c34 C90C0000 		.4byte	0xcc9
 2079 0c38 2F       		.uleb128 0x2f
 2080 0c39 06010000 		.4byte	.LASF167
 2081 0c3d 01       		.byte	0x1
 2082 0c3e 93       		.byte	0x93
 2083 0c3f 990A0000 		.4byte	0xa99
 2084 0c43 09020000 		.4byte	.LLST4
 2085 0c47 2F       		.uleb128 0x2f
 2086 0c48 8E080000 		.4byte	.LASF166
 2087 0c4c 01       		.byte	0x1
 2088 0c4d 93       		.byte	0x93
 2089 0c4e 2C000000 		.4byte	0x2c
 2090 0c52 27020000 		.4byte	.LLST5
 2091 0c56 2A       		.uleb128 0x2a
 2092 0c57 717000   		.ascii	"qp\000"
 2093 0c5a 01       		.byte	0x1
 2094 0c5b 94       		.byte	0x94
 2095 0c5c 930A0000 		.4byte	0xa93
 2096 0c60 52020000 		.4byte	.LLST6
 2097 0c64 2A       		.uleb128 0x2a
 2098 0c65 687000   		.ascii	"hp\000"
 2099 0c68 01       		.byte	0x1
ARM GAS  /var/folders/km/q6jdms0143g2bddz5bhvdfd00000gn/T//ccVOWgQN.s 			page 38


 2100 0c69 94       		.byte	0x94
 2101 0c6a 930A0000 		.4byte	0xa93
 2102 0c6e 7B020000 		.4byte	.LLST7
 2103 0c72 2A       		.uleb128 0x2a
 2104 0c73 667000   		.ascii	"fp\000"
 2105 0c76 01       		.byte	0x1
 2106 0c77 94       		.byte	0x94
 2107 0c78 930A0000 		.4byte	0xa93
 2108 0c7c DE020000 		.4byte	.LLST8
 2109 0c80 25       		.uleb128 0x25
 2110 0c81 1E000000 		.4byte	.LVL13
 2111 0c85 910D0000 		.4byte	0xd91
 2112 0c89 940C0000 		.4byte	0xc94
 2113 0c8d 26       		.uleb128 0x26
 2114 0c8e 01       		.uleb128 0x1
 2115 0c8f 50       		.byte	0x50
 2116 0c90 02       		.uleb128 0x2
 2117 0c91 77       		.byte	0x77
 2118 0c92 00       		.sleb128 0
 2119 0c93 00       		.byte	0
 2120 0c94 25       		.uleb128 0x25
 2121 0c95 34000000 		.4byte	.LVL18
 2122 0c99 9C0D0000 		.4byte	0xd9c
 2123 0c9d A80C0000 		.4byte	0xca8
 2124 0ca1 26       		.uleb128 0x26
 2125 0ca2 01       		.uleb128 0x1
 2126 0ca3 50       		.byte	0x50
 2127 0ca4 02       		.uleb128 0x2
 2128 0ca5 77       		.byte	0x77
 2129 0ca6 00       		.sleb128 0
 2130 0ca7 00       		.byte	0
 2131 0ca8 30       		.uleb128 0x30
 2132 0ca9 3E000000 		.4byte	.LVL19
 2133 0cad B80C0000 		.4byte	0xcb8
 2134 0cb1 26       		.uleb128 0x26
 2135 0cb2 01       		.uleb128 0x1
 2136 0cb3 50       		.byte	0x50
 2137 0cb4 02       		.uleb128 0x2
 2138 0cb5 75       		.byte	0x75
 2139 0cb6 08       		.sleb128 8
 2140 0cb7 00       		.byte	0
 2141 0cb8 27       		.uleb128 0x27
 2142 0cb9 64000000 		.4byte	.LVL25
 2143 0cbd 9C0D0000 		.4byte	0xd9c
 2144 0cc1 26       		.uleb128 0x26
 2145 0cc2 01       		.uleb128 0x1
 2146 0cc3 50       		.byte	0x50
 2147 0cc4 02       		.uleb128 0x2
 2148 0cc5 77       		.byte	0x77
 2149 0cc6 00       		.sleb128 0
 2150 0cc7 00       		.byte	0
 2151 0cc8 00       		.byte	0
 2152 0cc9 28       		.uleb128 0x28
 2153 0cca F3040000 		.4byte	.LASF173
 2154 0cce 01       		.byte	0x1
 2155 0ccf 72       		.byte	0x72
 2156 0cd0 00000000 		.4byte	.LFB220
ARM GAS  /var/folders/km/q6jdms0143g2bddz5bhvdfd00000gn/T//ccVOWgQN.s 			page 39


 2157 0cd4 34000000 		.4byte	.LFE220-.LFB220
 2158 0cd8 01       		.uleb128 0x1
 2159 0cd9 9C       		.byte	0x9c
 2160 0cda 530D0000 		.4byte	0xd53
 2161 0cde 2F       		.uleb128 0x2f
 2162 0cdf 06010000 		.4byte	.LASF167
 2163 0ce3 01       		.byte	0x1
 2164 0ce4 72       		.byte	0x72
 2165 0ce5 990A0000 		.4byte	0xa99
 2166 0ce9 F1020000 		.4byte	.LLST0
 2167 0ced 29       		.uleb128 0x29
 2168 0cee 62756600 		.ascii	"buf\000"
 2169 0cf2 01       		.byte	0x1
 2170 0cf3 72       		.byte	0x72
 2171 0cf4 8A030000 		.4byte	0x38a
 2172 0cf8 2A030000 		.4byte	.LLST1
 2173 0cfc 2F       		.uleb128 0x2f
 2174 0cfd 8E080000 		.4byte	.LASF166
 2175 0d01 01       		.byte	0x1
 2176 0d02 72       		.byte	0x72
 2177 0d03 2C000000 		.4byte	0x2c
 2178 0d07 56030000 		.4byte	.LLST2
 2179 0d0b 2A       		.uleb128 0x2a
 2180 0d0c 687000   		.ascii	"hp\000"
 2181 0d0f 01       		.byte	0x1
 2182 0d10 73       		.byte	0x73
 2183 0d11 930A0000 		.4byte	0xa93
 2184 0d15 A2030000 		.4byte	.LLST3
 2185 0d19 2C       		.uleb128 0x2c
 2186 0d1a D1060000 		.4byte	.LASF174
 2187 0d1e 630D0000 		.4byte	0xd63
 2188 0d22 05       		.uleb128 0x5
 2189 0d23 03       		.byte	0x3
 2190 0d24 00000000 		.4byte	__func__.7856
 2191 0d28 25       		.uleb128 0x25
 2192 0d29 16000000 		.4byte	.LVL4
 2193 0d2d A70D0000 		.4byte	0xda7
 2194 0d31 3F0D0000 		.4byte	0xd3f
 2195 0d35 26       		.uleb128 0x26
 2196 0d36 01       		.uleb128 0x1
 2197 0d37 50       		.byte	0x50
 2198 0d38 05       		.uleb128 0x5
 2199 0d39 03       		.byte	0x3
 2200 0d3a 00000000 		.4byte	.LANCHOR1
 2201 0d3e 00       		.byte	0
 2202 0d3f 31       		.uleb128 0x31
 2203 0d40 30000000 		.4byte	.LVL7
 2204 0d44 B30D0000 		.4byte	0xdb3
 2205 0d48 26       		.uleb128 0x26
 2206 0d49 01       		.uleb128 0x1
 2207 0d4a 50       		.byte	0x50
 2208 0d4b 05       		.uleb128 0x5
 2209 0d4c F3       		.byte	0xf3
 2210 0d4d 01       		.uleb128 0x1
 2211 0d4e 50       		.byte	0x50
 2212 0d4f 23       		.byte	0x23
 2213 0d50 10       		.uleb128 0x10
ARM GAS  /var/folders/km/q6jdms0143g2bddz5bhvdfd00000gn/T//ccVOWgQN.s 			page 40


 2214 0d51 00       		.byte	0
 2215 0d52 00       		.byte	0
 2216 0d53 17       		.uleb128 0x17
 2217 0d54 AE080000 		.4byte	0x8ae
 2218 0d58 630D0000 		.4byte	0xd63
 2219 0d5c 18       		.uleb128 0x18
 2220 0d5d 37000000 		.4byte	0x37
 2221 0d61 10       		.byte	0x10
 2222 0d62 00       		.byte	0
 2223 0d63 1B       		.uleb128 0x1b
 2224 0d64 530D0000 		.4byte	0xd53
 2225 0d68 28       		.uleb128 0x28
 2226 0d69 AB080000 		.4byte	.LASF175
 2227 0d6d 01       		.byte	0x1
 2228 0d6e 5B       		.byte	0x5b
 2229 0d6f 00000000 		.4byte	.LFB219
 2230 0d73 1C000000 		.4byte	.LFE219-.LFB219
 2231 0d77 01       		.uleb128 0x1
 2232 0d78 9C       		.byte	0x9c
 2233 0d79 910D0000 		.4byte	0xd91
 2234 0d7d 31       		.uleb128 0x31
 2235 0d7e 14000000 		.4byte	.LVL0
 2236 0d82 B30D0000 		.4byte	0xdb3
 2237 0d86 26       		.uleb128 0x26
 2238 0d87 01       		.uleb128 0x1
 2239 0d88 50       		.byte	0x50
 2240 0d89 05       		.uleb128 0x5
 2241 0d8a 03       		.byte	0x3
 2242 0d8b 10000000 		.4byte	.LANCHOR0+16
 2243 0d8f 00       		.byte	0
 2244 0d90 00       		.byte	0
 2245 0d91 32       		.uleb128 0x32
 2246 0d92 7B050000 		.4byte	.LASF176
 2247 0d96 7B050000 		.4byte	.LASF176
 2248 0d9a 10       		.byte	0x10
 2249 0d9b 68       		.byte	0x68
 2250 0d9c 32       		.uleb128 0x32
 2251 0d9d 37010000 		.4byte	.LASF177
 2252 0da1 37010000 		.4byte	.LASF177
 2253 0da5 10       		.byte	0x10
 2254 0da6 6C       		.byte	0x6c
 2255 0da7 33       		.uleb128 0x33
 2256 0da8 0F020000 		.4byte	.LASF178
 2257 0dac 0F020000 		.4byte	.LASF178
 2258 0db0 14       		.byte	0x14
 2259 0db1 1601     		.2byte	0x116
 2260 0db3 32       		.uleb128 0x32
 2261 0db4 3C060000 		.4byte	.LASF179
 2262 0db8 3C060000 		.4byte	.LASF179
 2263 0dbc 10       		.byte	0x10
 2264 0dbd 67       		.byte	0x67
 2265 0dbe 00       		.byte	0
 2266              		.section	.debug_abbrev,"",%progbits
 2267              	.Ldebug_abbrev0:
 2268 0000 01       		.uleb128 0x1
 2269 0001 11       		.uleb128 0x11
 2270 0002 01       		.byte	0x1
ARM GAS  /var/folders/km/q6jdms0143g2bddz5bhvdfd00000gn/T//ccVOWgQN.s 			page 41


 2271 0003 25       		.uleb128 0x25
 2272 0004 0E       		.uleb128 0xe
 2273 0005 13       		.uleb128 0x13
 2274 0006 0B       		.uleb128 0xb
 2275 0007 03       		.uleb128 0x3
 2276 0008 0E       		.uleb128 0xe
 2277 0009 1B       		.uleb128 0x1b
 2278 000a 0E       		.uleb128 0xe
 2279 000b 55       		.uleb128 0x55
 2280 000c 17       		.uleb128 0x17
 2281 000d 11       		.uleb128 0x11
 2282 000e 01       		.uleb128 0x1
 2283 000f 10       		.uleb128 0x10
 2284 0010 17       		.uleb128 0x17
 2285 0011 00       		.byte	0
 2286 0012 00       		.byte	0
 2287 0013 02       		.uleb128 0x2
 2288 0014 24       		.uleb128 0x24
 2289 0015 00       		.byte	0
 2290 0016 0B       		.uleb128 0xb
 2291 0017 0B       		.uleb128 0xb
 2292 0018 3E       		.uleb128 0x3e
 2293 0019 0B       		.uleb128 0xb
 2294 001a 03       		.uleb128 0x3
 2295 001b 08       		.uleb128 0x8
 2296 001c 00       		.byte	0
 2297 001d 00       		.byte	0
 2298 001e 03       		.uleb128 0x3
 2299 001f 16       		.uleb128 0x16
 2300 0020 00       		.byte	0
 2301 0021 03       		.uleb128 0x3
 2302 0022 0E       		.uleb128 0xe
 2303 0023 3A       		.uleb128 0x3a
 2304 0024 0B       		.uleb128 0xb
 2305 0025 3B       		.uleb128 0x3b
 2306 0026 0B       		.uleb128 0xb
 2307 0027 49       		.uleb128 0x49
 2308 0028 13       		.uleb128 0x13
 2309 0029 00       		.byte	0
 2310 002a 00       		.byte	0
 2311 002b 04       		.uleb128 0x4
 2312 002c 24       		.uleb128 0x24
 2313 002d 00       		.byte	0
 2314 002e 0B       		.uleb128 0xb
 2315 002f 0B       		.uleb128 0xb
 2316 0030 3E       		.uleb128 0x3e
 2317 0031 0B       		.uleb128 0xb
 2318 0032 03       		.uleb128 0x3
 2319 0033 0E       		.uleb128 0xe
 2320 0034 00       		.byte	0
 2321 0035 00       		.byte	0
 2322 0036 05       		.uleb128 0x5
 2323 0037 35       		.uleb128 0x35
 2324 0038 00       		.byte	0
 2325 0039 49       		.uleb128 0x49
 2326 003a 13       		.uleb128 0x13
 2327 003b 00       		.byte	0
ARM GAS  /var/folders/km/q6jdms0143g2bddz5bhvdfd00000gn/T//ccVOWgQN.s 			page 42


 2328 003c 00       		.byte	0
 2329 003d 06       		.uleb128 0x6
 2330 003e 13       		.uleb128 0x13
 2331 003f 01       		.byte	0x1
 2332 0040 03       		.uleb128 0x3
 2333 0041 0E       		.uleb128 0xe
 2334 0042 0B       		.uleb128 0xb
 2335 0043 0B       		.uleb128 0xb
 2336 0044 3A       		.uleb128 0x3a
 2337 0045 0B       		.uleb128 0xb
 2338 0046 3B       		.uleb128 0x3b
 2339 0047 0B       		.uleb128 0xb
 2340 0048 01       		.uleb128 0x1
 2341 0049 13       		.uleb128 0x13
 2342 004a 00       		.byte	0
 2343 004b 00       		.byte	0
 2344 004c 07       		.uleb128 0x7
 2345 004d 0D       		.uleb128 0xd
 2346 004e 00       		.byte	0
 2347 004f 03       		.uleb128 0x3
 2348 0050 0E       		.uleb128 0xe
 2349 0051 3A       		.uleb128 0x3a
 2350 0052 0B       		.uleb128 0xb
 2351 0053 3B       		.uleb128 0x3b
 2352 0054 0B       		.uleb128 0xb
 2353 0055 49       		.uleb128 0x49
 2354 0056 13       		.uleb128 0x13
 2355 0057 38       		.uleb128 0x38
 2356 0058 0B       		.uleb128 0xb
 2357 0059 00       		.byte	0
 2358 005a 00       		.byte	0
 2359 005b 08       		.uleb128 0x8
 2360 005c 0D       		.uleb128 0xd
 2361 005d 00       		.byte	0
 2362 005e 03       		.uleb128 0x3
 2363 005f 08       		.uleb128 0x8
 2364 0060 3A       		.uleb128 0x3a
 2365 0061 0B       		.uleb128 0xb
 2366 0062 3B       		.uleb128 0x3b
 2367 0063 05       		.uleb128 0x5
 2368 0064 49       		.uleb128 0x49
 2369 0065 13       		.uleb128 0x13
 2370 0066 38       		.uleb128 0x38
 2371 0067 0B       		.uleb128 0xb
 2372 0068 00       		.byte	0
 2373 0069 00       		.byte	0
 2374 006a 09       		.uleb128 0x9
 2375 006b 0D       		.uleb128 0xd
 2376 006c 00       		.byte	0
 2377 006d 03       		.uleb128 0x3
 2378 006e 0E       		.uleb128 0xe
 2379 006f 3A       		.uleb128 0x3a
 2380 0070 0B       		.uleb128 0xb
 2381 0071 3B       		.uleb128 0x3b
 2382 0072 05       		.uleb128 0x5
 2383 0073 49       		.uleb128 0x49
 2384 0074 13       		.uleb128 0x13
ARM GAS  /var/folders/km/q6jdms0143g2bddz5bhvdfd00000gn/T//ccVOWgQN.s 			page 43


 2385 0075 38       		.uleb128 0x38
 2386 0076 0B       		.uleb128 0xb
 2387 0077 00       		.byte	0
 2388 0078 00       		.byte	0
 2389 0079 0A       		.uleb128 0xa
 2390 007a 0F       		.uleb128 0xf
 2391 007b 00       		.byte	0
 2392 007c 0B       		.uleb128 0xb
 2393 007d 0B       		.uleb128 0xb
 2394 007e 49       		.uleb128 0x49
 2395 007f 13       		.uleb128 0x13
 2396 0080 00       		.byte	0
 2397 0081 00       		.byte	0
 2398 0082 0B       		.uleb128 0xb
 2399 0083 13       		.uleb128 0x13
 2400 0084 01       		.byte	0x1
 2401 0085 03       		.uleb128 0x3
 2402 0086 0E       		.uleb128 0xe
 2403 0087 0B       		.uleb128 0xb
 2404 0088 0B       		.uleb128 0xb
 2405 0089 3A       		.uleb128 0x3a
 2406 008a 0B       		.uleb128 0xb
 2407 008b 3B       		.uleb128 0x3b
 2408 008c 05       		.uleb128 0x5
 2409 008d 01       		.uleb128 0x1
 2410 008e 13       		.uleb128 0x13
 2411 008f 00       		.byte	0
 2412 0090 00       		.byte	0
 2413 0091 0C       		.uleb128 0xc
 2414 0092 15       		.uleb128 0x15
 2415 0093 01       		.byte	0x1
 2416 0094 27       		.uleb128 0x27
 2417 0095 19       		.uleb128 0x19
 2418 0096 01       		.uleb128 0x1
 2419 0097 13       		.uleb128 0x13
 2420 0098 00       		.byte	0
 2421 0099 00       		.byte	0
 2422 009a 0D       		.uleb128 0xd
 2423 009b 05       		.uleb128 0x5
 2424 009c 00       		.byte	0
 2425 009d 49       		.uleb128 0x49
 2426 009e 13       		.uleb128 0x13
 2427 009f 00       		.byte	0
 2428 00a0 00       		.byte	0
 2429 00a1 0E       		.uleb128 0xe
 2430 00a2 0F       		.uleb128 0xf
 2431 00a3 00       		.byte	0
 2432 00a4 0B       		.uleb128 0xb
 2433 00a5 0B       		.uleb128 0xb
 2434 00a6 00       		.byte	0
 2435 00a7 00       		.byte	0
 2436 00a8 0F       		.uleb128 0xf
 2437 00a9 13       		.uleb128 0x13
 2438 00aa 01       		.byte	0x1
 2439 00ab 03       		.uleb128 0x3
 2440 00ac 0E       		.uleb128 0xe
 2441 00ad 0B       		.uleb128 0xb
ARM GAS  /var/folders/km/q6jdms0143g2bddz5bhvdfd00000gn/T//ccVOWgQN.s 			page 44


 2442 00ae 05       		.uleb128 0x5
 2443 00af 3A       		.uleb128 0x3a
 2444 00b0 0B       		.uleb128 0xb
 2445 00b1 3B       		.uleb128 0x3b
 2446 00b2 05       		.uleb128 0x5
 2447 00b3 01       		.uleb128 0x1
 2448 00b4 13       		.uleb128 0x13
 2449 00b5 00       		.byte	0
 2450 00b6 00       		.byte	0
 2451 00b7 10       		.uleb128 0x10
 2452 00b8 0D       		.uleb128 0xd
 2453 00b9 00       		.byte	0
 2454 00ba 03       		.uleb128 0x3
 2455 00bb 0E       		.uleb128 0xe
 2456 00bc 3A       		.uleb128 0x3a
 2457 00bd 0B       		.uleb128 0xb
 2458 00be 3B       		.uleb128 0x3b
 2459 00bf 05       		.uleb128 0x5
 2460 00c0 49       		.uleb128 0x49
 2461 00c1 13       		.uleb128 0x13
 2462 00c2 38       		.uleb128 0x38
 2463 00c3 05       		.uleb128 0x5
 2464 00c4 00       		.byte	0
 2465 00c5 00       		.byte	0
 2466 00c6 11       		.uleb128 0x11
 2467 00c7 0D       		.uleb128 0xd
 2468 00c8 00       		.byte	0
 2469 00c9 03       		.uleb128 0x3
 2470 00ca 08       		.uleb128 0x8
 2471 00cb 3A       		.uleb128 0x3a
 2472 00cc 0B       		.uleb128 0xb
 2473 00cd 3B       		.uleb128 0x3b
 2474 00ce 05       		.uleb128 0x5
 2475 00cf 49       		.uleb128 0x49
 2476 00d0 13       		.uleb128 0x13
 2477 00d1 38       		.uleb128 0x38
 2478 00d2 05       		.uleb128 0x5
 2479 00d3 00       		.byte	0
 2480 00d4 00       		.byte	0
 2481 00d5 12       		.uleb128 0x12
 2482 00d6 34       		.uleb128 0x34
 2483 00d7 00       		.byte	0
 2484 00d8 03       		.uleb128 0x3
 2485 00d9 0E       		.uleb128 0xe
 2486 00da 3A       		.uleb128 0x3a
 2487 00db 0B       		.uleb128 0xb
 2488 00dc 3B       		.uleb128 0x3b
 2489 00dd 05       		.uleb128 0x5
 2490 00de 49       		.uleb128 0x49
 2491 00df 13       		.uleb128 0x13
 2492 00e0 3F       		.uleb128 0x3f
 2493 00e1 19       		.uleb128 0x19
 2494 00e2 3C       		.uleb128 0x3c
 2495 00e3 19       		.uleb128 0x19
 2496 00e4 00       		.byte	0
 2497 00e5 00       		.byte	0
 2498 00e6 13       		.uleb128 0x13
ARM GAS  /var/folders/km/q6jdms0143g2bddz5bhvdfd00000gn/T//ccVOWgQN.s 			page 45


 2499 00e7 34       		.uleb128 0x34
 2500 00e8 00       		.byte	0
 2501 00e9 03       		.uleb128 0x3
 2502 00ea 0E       		.uleb128 0xe
 2503 00eb 3A       		.uleb128 0x3a
 2504 00ec 0B       		.uleb128 0xb
 2505 00ed 3B       		.uleb128 0x3b
 2506 00ee 0B       		.uleb128 0xb
 2507 00ef 49       		.uleb128 0x49
 2508 00f0 13       		.uleb128 0x13
 2509 00f1 3F       		.uleb128 0x3f
 2510 00f2 19       		.uleb128 0x19
 2511 00f3 3C       		.uleb128 0x3c
 2512 00f4 19       		.uleb128 0x19
 2513 00f5 00       		.byte	0
 2514 00f6 00       		.byte	0
 2515 00f7 14       		.uleb128 0x14
 2516 00f8 0D       		.uleb128 0xd
 2517 00f9 00       		.byte	0
 2518 00fa 03       		.uleb128 0x3
 2519 00fb 08       		.uleb128 0x8
 2520 00fc 3A       		.uleb128 0x3a
 2521 00fd 0B       		.uleb128 0xb
 2522 00fe 3B       		.uleb128 0x3b
 2523 00ff 0B       		.uleb128 0xb
 2524 0100 49       		.uleb128 0x49
 2525 0101 13       		.uleb128 0x13
 2526 0102 38       		.uleb128 0x38
 2527 0103 0B       		.uleb128 0xb
 2528 0104 00       		.byte	0
 2529 0105 00       		.byte	0
 2530 0106 15       		.uleb128 0x15
 2531 0107 13       		.uleb128 0x13
 2532 0108 01       		.byte	0x1
 2533 0109 0B       		.uleb128 0xb
 2534 010a 0B       		.uleb128 0xb
 2535 010b 3A       		.uleb128 0x3a
 2536 010c 0B       		.uleb128 0xb
 2537 010d 3B       		.uleb128 0x3b
 2538 010e 0B       		.uleb128 0xb
 2539 010f 01       		.uleb128 0x1
 2540 0110 13       		.uleb128 0x13
 2541 0111 00       		.byte	0
 2542 0112 00       		.byte	0
 2543 0113 16       		.uleb128 0x16
 2544 0114 13       		.uleb128 0x13
 2545 0115 01       		.byte	0x1
 2546 0116 0B       		.uleb128 0xb
 2547 0117 05       		.uleb128 0x5
 2548 0118 3A       		.uleb128 0x3a
 2549 0119 0B       		.uleb128 0xb
 2550 011a 3B       		.uleb128 0x3b
 2551 011b 0B       		.uleb128 0xb
 2552 011c 01       		.uleb128 0x1
 2553 011d 13       		.uleb128 0x13
 2554 011e 00       		.byte	0
 2555 011f 00       		.byte	0
ARM GAS  /var/folders/km/q6jdms0143g2bddz5bhvdfd00000gn/T//ccVOWgQN.s 			page 46


 2556 0120 17       		.uleb128 0x17
 2557 0121 01       		.uleb128 0x1
 2558 0122 01       		.byte	0x1
 2559 0123 49       		.uleb128 0x49
 2560 0124 13       		.uleb128 0x13
 2561 0125 01       		.uleb128 0x1
 2562 0126 13       		.uleb128 0x13
 2563 0127 00       		.byte	0
 2564 0128 00       		.byte	0
 2565 0129 18       		.uleb128 0x18
 2566 012a 21       		.uleb128 0x21
 2567 012b 00       		.byte	0
 2568 012c 49       		.uleb128 0x49
 2569 012d 13       		.uleb128 0x13
 2570 012e 2F       		.uleb128 0x2f
 2571 012f 0B       		.uleb128 0xb
 2572 0130 00       		.byte	0
 2573 0131 00       		.byte	0
 2574 0132 19       		.uleb128 0x19
 2575 0133 17       		.uleb128 0x17
 2576 0134 01       		.byte	0x1
 2577 0135 0B       		.uleb128 0xb
 2578 0136 0B       		.uleb128 0xb
 2579 0137 3A       		.uleb128 0x3a
 2580 0138 0B       		.uleb128 0xb
 2581 0139 3B       		.uleb128 0x3b
 2582 013a 0B       		.uleb128 0xb
 2583 013b 01       		.uleb128 0x1
 2584 013c 13       		.uleb128 0x13
 2585 013d 00       		.byte	0
 2586 013e 00       		.byte	0
 2587 013f 1A       		.uleb128 0x1a
 2588 0140 0D       		.uleb128 0xd
 2589 0141 00       		.byte	0
 2590 0142 03       		.uleb128 0x3
 2591 0143 0E       		.uleb128 0xe
 2592 0144 3A       		.uleb128 0x3a
 2593 0145 0B       		.uleb128 0xb
 2594 0146 3B       		.uleb128 0x3b
 2595 0147 05       		.uleb128 0x5
 2596 0148 49       		.uleb128 0x49
 2597 0149 13       		.uleb128 0x13
 2598 014a 00       		.byte	0
 2599 014b 00       		.byte	0
 2600 014c 1B       		.uleb128 0x1b
 2601 014d 26       		.uleb128 0x26
 2602 014e 00       		.byte	0
 2603 014f 49       		.uleb128 0x49
 2604 0150 13       		.uleb128 0x13
 2605 0151 00       		.byte	0
 2606 0152 00       		.byte	0
 2607 0153 1C       		.uleb128 0x1c
 2608 0154 34       		.uleb128 0x34
 2609 0155 00       		.byte	0
 2610 0156 03       		.uleb128 0x3
 2611 0157 08       		.uleb128 0x8
 2612 0158 3A       		.uleb128 0x3a
ARM GAS  /var/folders/km/q6jdms0143g2bddz5bhvdfd00000gn/T//ccVOWgQN.s 			page 47


 2613 0159 0B       		.uleb128 0xb
 2614 015a 3B       		.uleb128 0x3b
 2615 015b 05       		.uleb128 0x5
 2616 015c 49       		.uleb128 0x49
 2617 015d 13       		.uleb128 0x13
 2618 015e 3F       		.uleb128 0x3f
 2619 015f 19       		.uleb128 0x19
 2620 0160 3C       		.uleb128 0x3c
 2621 0161 19       		.uleb128 0x19
 2622 0162 00       		.byte	0
 2623 0163 00       		.byte	0
 2624 0164 1D       		.uleb128 0x1d
 2625 0165 15       		.uleb128 0x15
 2626 0166 01       		.byte	0x1
 2627 0167 27       		.uleb128 0x27
 2628 0168 19       		.uleb128 0x19
 2629 0169 49       		.uleb128 0x49
 2630 016a 13       		.uleb128 0x13
 2631 016b 01       		.uleb128 0x1
 2632 016c 13       		.uleb128 0x13
 2633 016d 00       		.byte	0
 2634 016e 00       		.byte	0
 2635 016f 1E       		.uleb128 0x1e
 2636 0170 0D       		.uleb128 0xd
 2637 0171 00       		.byte	0
 2638 0172 03       		.uleb128 0x3
 2639 0173 0E       		.uleb128 0xe
 2640 0174 3A       		.uleb128 0x3a
 2641 0175 0B       		.uleb128 0xb
 2642 0176 3B       		.uleb128 0x3b
 2643 0177 0B       		.uleb128 0xb
 2644 0178 49       		.uleb128 0x49
 2645 0179 13       		.uleb128 0x13
 2646 017a 00       		.byte	0
 2647 017b 00       		.byte	0
 2648 017c 1F       		.uleb128 0x1f
 2649 017d 17       		.uleb128 0x17
 2650 017e 01       		.byte	0x1
 2651 017f 03       		.uleb128 0x3
 2652 0180 0E       		.uleb128 0xe
 2653 0181 0B       		.uleb128 0xb
 2654 0182 0B       		.uleb128 0xb
 2655 0183 3A       		.uleb128 0x3a
 2656 0184 0B       		.uleb128 0xb
 2657 0185 3B       		.uleb128 0x3b
 2658 0186 0B       		.uleb128 0xb
 2659 0187 01       		.uleb128 0x1
 2660 0188 13       		.uleb128 0x13
 2661 0189 00       		.byte	0
 2662 018a 00       		.byte	0
 2663 018b 20       		.uleb128 0x20
 2664 018c 0D       		.uleb128 0xd
 2665 018d 00       		.byte	0
 2666 018e 03       		.uleb128 0x3
 2667 018f 08       		.uleb128 0x8
 2668 0190 3A       		.uleb128 0x3a
 2669 0191 0B       		.uleb128 0xb
ARM GAS  /var/folders/km/q6jdms0143g2bddz5bhvdfd00000gn/T//ccVOWgQN.s 			page 48


 2670 0192 3B       		.uleb128 0x3b
 2671 0193 0B       		.uleb128 0xb
 2672 0194 49       		.uleb128 0x49
 2673 0195 13       		.uleb128 0x13
 2674 0196 00       		.byte	0
 2675 0197 00       		.byte	0
 2676 0198 21       		.uleb128 0x21
 2677 0199 34       		.uleb128 0x34
 2678 019a 00       		.byte	0
 2679 019b 03       		.uleb128 0x3
 2680 019c 0E       		.uleb128 0xe
 2681 019d 3A       		.uleb128 0x3a
 2682 019e 0B       		.uleb128 0xb
 2683 019f 3B       		.uleb128 0x3b
 2684 01a0 0B       		.uleb128 0xb
 2685 01a1 49       		.uleb128 0x49
 2686 01a2 13       		.uleb128 0x13
 2687 01a3 02       		.uleb128 0x2
 2688 01a4 18       		.uleb128 0x18
 2689 01a5 00       		.byte	0
 2690 01a6 00       		.byte	0
 2691 01a7 22       		.uleb128 0x22
 2692 01a8 2E       		.uleb128 0x2e
 2693 01a9 01       		.byte	0x1
 2694 01aa 3F       		.uleb128 0x3f
 2695 01ab 19       		.uleb128 0x19
 2696 01ac 03       		.uleb128 0x3
 2697 01ad 0E       		.uleb128 0xe
 2698 01ae 3A       		.uleb128 0x3a
 2699 01af 0B       		.uleb128 0xb
 2700 01b0 3B       		.uleb128 0x3b
 2701 01b1 05       		.uleb128 0x5
 2702 01b2 27       		.uleb128 0x27
 2703 01b3 19       		.uleb128 0x19
 2704 01b4 49       		.uleb128 0x49
 2705 01b5 13       		.uleb128 0x13
 2706 01b6 11       		.uleb128 0x11
 2707 01b7 01       		.uleb128 0x1
 2708 01b8 12       		.uleb128 0x12
 2709 01b9 06       		.uleb128 0x6
 2710 01ba 40       		.uleb128 0x40
 2711 01bb 18       		.uleb128 0x18
 2712 01bc 9742     		.uleb128 0x2117
 2713 01be 19       		.uleb128 0x19
 2714 01bf 01       		.uleb128 0x1
 2715 01c0 13       		.uleb128 0x13
 2716 01c1 00       		.byte	0
 2717 01c2 00       		.byte	0
 2718 01c3 23       		.uleb128 0x23
 2719 01c4 05       		.uleb128 0x5
 2720 01c5 00       		.byte	0
 2721 01c6 03       		.uleb128 0x3
 2722 01c7 0E       		.uleb128 0xe
 2723 01c8 3A       		.uleb128 0x3a
 2724 01c9 0B       		.uleb128 0xb
 2725 01ca 3B       		.uleb128 0x3b
 2726 01cb 05       		.uleb128 0x5
ARM GAS  /var/folders/km/q6jdms0143g2bddz5bhvdfd00000gn/T//ccVOWgQN.s 			page 49


 2727 01cc 49       		.uleb128 0x49
 2728 01cd 13       		.uleb128 0x13
 2729 01ce 02       		.uleb128 0x2
 2730 01cf 17       		.uleb128 0x17
 2731 01d0 00       		.byte	0
 2732 01d1 00       		.byte	0
 2733 01d2 24       		.uleb128 0x24
 2734 01d3 34       		.uleb128 0x34
 2735 01d4 00       		.byte	0
 2736 01d5 03       		.uleb128 0x3
 2737 01d6 08       		.uleb128 0x8
 2738 01d7 3A       		.uleb128 0x3a
 2739 01d8 0B       		.uleb128 0xb
 2740 01d9 3B       		.uleb128 0x3b
 2741 01da 05       		.uleb128 0x5
 2742 01db 49       		.uleb128 0x49
 2743 01dc 13       		.uleb128 0x13
 2744 01dd 02       		.uleb128 0x2
 2745 01de 17       		.uleb128 0x17
 2746 01df 00       		.byte	0
 2747 01e0 00       		.byte	0
 2748 01e1 25       		.uleb128 0x25
 2749 01e2 898201   		.uleb128 0x4109
 2750 01e5 01       		.byte	0x1
 2751 01e6 11       		.uleb128 0x11
 2752 01e7 01       		.uleb128 0x1
 2753 01e8 31       		.uleb128 0x31
 2754 01e9 13       		.uleb128 0x13
 2755 01ea 01       		.uleb128 0x1
 2756 01eb 13       		.uleb128 0x13
 2757 01ec 00       		.byte	0
 2758 01ed 00       		.byte	0
 2759 01ee 26       		.uleb128 0x26
 2760 01ef 8A8201   		.uleb128 0x410a
 2761 01f2 00       		.byte	0
 2762 01f3 02       		.uleb128 0x2
 2763 01f4 18       		.uleb128 0x18
 2764 01f5 9142     		.uleb128 0x2111
 2765 01f7 18       		.uleb128 0x18
 2766 01f8 00       		.byte	0
 2767 01f9 00       		.byte	0
 2768 01fa 27       		.uleb128 0x27
 2769 01fb 898201   		.uleb128 0x4109
 2770 01fe 01       		.byte	0x1
 2771 01ff 11       		.uleb128 0x11
 2772 0200 01       		.uleb128 0x1
 2773 0201 31       		.uleb128 0x31
 2774 0202 13       		.uleb128 0x13
 2775 0203 00       		.byte	0
 2776 0204 00       		.byte	0
 2777 0205 28       		.uleb128 0x28
 2778 0206 2E       		.uleb128 0x2e
 2779 0207 01       		.byte	0x1
 2780 0208 3F       		.uleb128 0x3f
 2781 0209 19       		.uleb128 0x19
 2782 020a 03       		.uleb128 0x3
 2783 020b 0E       		.uleb128 0xe
ARM GAS  /var/folders/km/q6jdms0143g2bddz5bhvdfd00000gn/T//ccVOWgQN.s 			page 50


 2784 020c 3A       		.uleb128 0x3a
 2785 020d 0B       		.uleb128 0xb
 2786 020e 3B       		.uleb128 0x3b
 2787 020f 0B       		.uleb128 0xb
 2788 0210 27       		.uleb128 0x27
 2789 0211 19       		.uleb128 0x19
 2790 0212 11       		.uleb128 0x11
 2791 0213 01       		.uleb128 0x1
 2792 0214 12       		.uleb128 0x12
 2793 0215 06       		.uleb128 0x6
 2794 0216 40       		.uleb128 0x40
 2795 0217 18       		.uleb128 0x18
 2796 0218 9742     		.uleb128 0x2117
 2797 021a 19       		.uleb128 0x19
 2798 021b 01       		.uleb128 0x1
 2799 021c 13       		.uleb128 0x13
 2800 021d 00       		.byte	0
 2801 021e 00       		.byte	0
 2802 021f 29       		.uleb128 0x29
 2803 0220 05       		.uleb128 0x5
 2804 0221 00       		.byte	0
 2805 0222 03       		.uleb128 0x3
 2806 0223 08       		.uleb128 0x8
 2807 0224 3A       		.uleb128 0x3a
 2808 0225 0B       		.uleb128 0xb
 2809 0226 3B       		.uleb128 0x3b
 2810 0227 0B       		.uleb128 0xb
 2811 0228 49       		.uleb128 0x49
 2812 0229 13       		.uleb128 0x13
 2813 022a 02       		.uleb128 0x2
 2814 022b 17       		.uleb128 0x17
 2815 022c 00       		.byte	0
 2816 022d 00       		.byte	0
 2817 022e 2A       		.uleb128 0x2a
 2818 022f 34       		.uleb128 0x34
 2819 0230 00       		.byte	0
 2820 0231 03       		.uleb128 0x3
 2821 0232 08       		.uleb128 0x8
 2822 0233 3A       		.uleb128 0x3a
 2823 0234 0B       		.uleb128 0xb
 2824 0235 3B       		.uleb128 0x3b
 2825 0236 0B       		.uleb128 0xb
 2826 0237 49       		.uleb128 0x49
 2827 0238 13       		.uleb128 0x13
 2828 0239 02       		.uleb128 0x2
 2829 023a 17       		.uleb128 0x17
 2830 023b 00       		.byte	0
 2831 023c 00       		.byte	0
 2832 023d 2B       		.uleb128 0x2b
 2833 023e 34       		.uleb128 0x34
 2834 023f 00       		.byte	0
 2835 0240 03       		.uleb128 0x3
 2836 0241 0E       		.uleb128 0xe
 2837 0242 3A       		.uleb128 0x3a
 2838 0243 0B       		.uleb128 0xb
 2839 0244 3B       		.uleb128 0x3b
 2840 0245 0B       		.uleb128 0xb
ARM GAS  /var/folders/km/q6jdms0143g2bddz5bhvdfd00000gn/T//ccVOWgQN.s 			page 51


 2841 0246 49       		.uleb128 0x49
 2842 0247 13       		.uleb128 0x13
 2843 0248 02       		.uleb128 0x2
 2844 0249 17       		.uleb128 0x17
 2845 024a 00       		.byte	0
 2846 024b 00       		.byte	0
 2847 024c 2C       		.uleb128 0x2c
 2848 024d 34       		.uleb128 0x34
 2849 024e 00       		.byte	0
 2850 024f 03       		.uleb128 0x3
 2851 0250 0E       		.uleb128 0xe
 2852 0251 49       		.uleb128 0x49
 2853 0252 13       		.uleb128 0x13
 2854 0253 34       		.uleb128 0x34
 2855 0254 19       		.uleb128 0x19
 2856 0255 02       		.uleb128 0x2
 2857 0256 18       		.uleb128 0x18
 2858 0257 00       		.byte	0
 2859 0258 00       		.byte	0
 2860 0259 2D       		.uleb128 0x2d
 2861 025a 898201   		.uleb128 0x4109
 2862 025d 00       		.byte	0
 2863 025e 11       		.uleb128 0x11
 2864 025f 01       		.uleb128 0x1
 2865 0260 9542     		.uleb128 0x2115
 2866 0262 19       		.uleb128 0x19
 2867 0263 31       		.uleb128 0x31
 2868 0264 13       		.uleb128 0x13
 2869 0265 00       		.byte	0
 2870 0266 00       		.byte	0
 2871 0267 2E       		.uleb128 0x2e
 2872 0268 2E       		.uleb128 0x2e
 2873 0269 01       		.byte	0x1
 2874 026a 3F       		.uleb128 0x3f
 2875 026b 19       		.uleb128 0x19
 2876 026c 03       		.uleb128 0x3
 2877 026d 0E       		.uleb128 0xe
 2878 026e 3A       		.uleb128 0x3a
 2879 026f 0B       		.uleb128 0xb
 2880 0270 3B       		.uleb128 0x3b
 2881 0271 0B       		.uleb128 0xb
 2882 0272 27       		.uleb128 0x27
 2883 0273 19       		.uleb128 0x19
 2884 0274 49       		.uleb128 0x49
 2885 0275 13       		.uleb128 0x13
 2886 0276 11       		.uleb128 0x11
 2887 0277 01       		.uleb128 0x1
 2888 0278 12       		.uleb128 0x12
 2889 0279 06       		.uleb128 0x6
 2890 027a 40       		.uleb128 0x40
 2891 027b 18       		.uleb128 0x18
 2892 027c 9742     		.uleb128 0x2117
 2893 027e 19       		.uleb128 0x19
 2894 027f 01       		.uleb128 0x1
 2895 0280 13       		.uleb128 0x13
 2896 0281 00       		.byte	0
 2897 0282 00       		.byte	0
ARM GAS  /var/folders/km/q6jdms0143g2bddz5bhvdfd00000gn/T//ccVOWgQN.s 			page 52


 2898 0283 2F       		.uleb128 0x2f
 2899 0284 05       		.uleb128 0x5
 2900 0285 00       		.byte	0
 2901 0286 03       		.uleb128 0x3
 2902 0287 0E       		.uleb128 0xe
 2903 0288 3A       		.uleb128 0x3a
 2904 0289 0B       		.uleb128 0xb
 2905 028a 3B       		.uleb128 0x3b
 2906 028b 0B       		.uleb128 0xb
 2907 028c 49       		.uleb128 0x49
 2908 028d 13       		.uleb128 0x13
 2909 028e 02       		.uleb128 0x2
 2910 028f 17       		.uleb128 0x17
 2911 0290 00       		.byte	0
 2912 0291 00       		.byte	0
 2913 0292 30       		.uleb128 0x30
 2914 0293 898201   		.uleb128 0x4109
 2915 0296 01       		.byte	0x1
 2916 0297 11       		.uleb128 0x11
 2917 0298 01       		.uleb128 0x1
 2918 0299 01       		.uleb128 0x1
 2919 029a 13       		.uleb128 0x13
 2920 029b 00       		.byte	0
 2921 029c 00       		.byte	0
 2922 029d 31       		.uleb128 0x31
 2923 029e 898201   		.uleb128 0x4109
 2924 02a1 01       		.byte	0x1
 2925 02a2 11       		.uleb128 0x11
 2926 02a3 01       		.uleb128 0x1
 2927 02a4 9542     		.uleb128 0x2115
 2928 02a6 19       		.uleb128 0x19
 2929 02a7 31       		.uleb128 0x31
 2930 02a8 13       		.uleb128 0x13
 2931 02a9 00       		.byte	0
 2932 02aa 00       		.byte	0
 2933 02ab 32       		.uleb128 0x32
 2934 02ac 2E       		.uleb128 0x2e
 2935 02ad 00       		.byte	0
 2936 02ae 3F       		.uleb128 0x3f
 2937 02af 19       		.uleb128 0x19
 2938 02b0 3C       		.uleb128 0x3c
 2939 02b1 19       		.uleb128 0x19
 2940 02b2 6E       		.uleb128 0x6e
 2941 02b3 0E       		.uleb128 0xe
 2942 02b4 03       		.uleb128 0x3
 2943 02b5 0E       		.uleb128 0xe
 2944 02b6 3A       		.uleb128 0x3a
 2945 02b7 0B       		.uleb128 0xb
 2946 02b8 3B       		.uleb128 0x3b
 2947 02b9 0B       		.uleb128 0xb
 2948 02ba 00       		.byte	0
 2949 02bb 00       		.byte	0
 2950 02bc 33       		.uleb128 0x33
 2951 02bd 2E       		.uleb128 0x2e
 2952 02be 00       		.byte	0
 2953 02bf 3F       		.uleb128 0x3f
 2954 02c0 19       		.uleb128 0x19
ARM GAS  /var/folders/km/q6jdms0143g2bddz5bhvdfd00000gn/T//ccVOWgQN.s 			page 53


 2955 02c1 3C       		.uleb128 0x3c
 2956 02c2 19       		.uleb128 0x19
 2957 02c3 6E       		.uleb128 0x6e
 2958 02c4 0E       		.uleb128 0xe
 2959 02c5 03       		.uleb128 0x3
 2960 02c6 0E       		.uleb128 0xe
 2961 02c7 3A       		.uleb128 0x3a
 2962 02c8 0B       		.uleb128 0xb
 2963 02c9 3B       		.uleb128 0x3b
 2964 02ca 05       		.uleb128 0x5
 2965 02cb 00       		.byte	0
 2966 02cc 00       		.byte	0
 2967 02cd 00       		.byte	0
 2968              		.section	.debug_loc,"",%progbits
 2969              	.Ldebug_loc0:
 2970              	.LLST13:
 2971 0000 00000000 		.4byte	.LVL43
 2972 0004 0A000000 		.4byte	.LVL44
 2973 0008 0100     		.2byte	0x1
 2974 000a 50       		.byte	0x50
 2975 000b 0A000000 		.4byte	.LVL44
 2976 000f 1E000000 		.4byte	.LVL46
 2977 0013 0100     		.2byte	0x1
 2978 0015 54       		.byte	0x54
 2979 0016 1E000000 		.4byte	.LVL46
 2980 001a 38000000 		.4byte	.LVL51
 2981 001e 0300     		.2byte	0x3
 2982 0020 75       		.byte	0x75
 2983 0021 70       		.sleb128 -16
 2984 0022 9F       		.byte	0x9f
 2985 0023 38000000 		.4byte	.LVL51
 2986 0027 3C000000 		.4byte	.LVL52
 2987 002b 0100     		.2byte	0x1
 2988 002d 54       		.byte	0x54
 2989 002e 3C000000 		.4byte	.LVL52
 2990 0032 44000000 		.4byte	.LFE223
 2991 0036 0300     		.2byte	0x3
 2992 0038 75       		.byte	0x75
 2993 0039 70       		.sleb128 -16
 2994 003a 9F       		.byte	0x9f
 2995 003b 00000000 		.4byte	0
 2996 003f 00000000 		.4byte	0
 2997              	.LLST14:
 2998 0043 00000000 		.4byte	.LVL43
 2999 0047 15000000 		.4byte	.LVL45-1
 3000 004b 0100     		.2byte	0x1
 3001 004d 51       		.byte	0x51
 3002 004e 15000000 		.4byte	.LVL45-1
 3003 0052 44000000 		.4byte	.LFE223
 3004 0056 0100     		.2byte	0x1
 3005 0058 56       		.byte	0x56
 3006 0059 00000000 		.4byte	0
 3007 005d 00000000 		.4byte	0
 3008              	.LLST15:
 3009 0061 16000000 		.4byte	.LVL45
 3010 0065 1E000000 		.4byte	.LVL46
 3011 0069 0300     		.2byte	0x3
ARM GAS  /var/folders/km/q6jdms0143g2bddz5bhvdfd00000gn/T//ccVOWgQN.s 			page 54


 3012 006b 74       		.byte	0x74
 3013 006c 08       		.sleb128 8
 3014 006d 9F       		.byte	0x9f
 3015 006e 1E000000 		.4byte	.LVL46
 3016 0072 26000000 		.4byte	.LVL48
 3017 0076 0300     		.2byte	0x3
 3018 0078 75       		.byte	0x75
 3019 0079 78       		.sleb128 -8
 3020 007a 9F       		.byte	0x9f
 3021 007b 38000000 		.4byte	.LVL51
 3022 007f 3C000000 		.4byte	.LVL52
 3023 0083 0300     		.2byte	0x3
 3024 0085 74       		.byte	0x74
 3025 0086 08       		.sleb128 8
 3026 0087 9F       		.byte	0x9f
 3027 0088 3C000000 		.4byte	.LVL52
 3028 008c 44000000 		.4byte	.LFE223
 3029 0090 0300     		.2byte	0x3
 3030 0092 75       		.byte	0x75
 3031 0093 78       		.sleb128 -8
 3032 0094 9F       		.byte	0x9f
 3033 0095 00000000 		.4byte	0
 3034 0099 00000000 		.4byte	0
 3035              	.LLST16:
 3036 009d 16000000 		.4byte	.LVL45
 3037 00a1 1E000000 		.4byte	.LVL46
 3038 00a5 0200     		.2byte	0x2
 3039 00a7 30       		.byte	0x30
 3040 00a8 9F       		.byte	0x9f
 3041 00a9 1E000000 		.4byte	.LVL46
 3042 00ad 24000000 		.4byte	.LVL47
 3043 00b1 0100     		.2byte	0x1
 3044 00b3 54       		.byte	0x54
 3045 00b4 24000000 		.4byte	.LVL47
 3046 00b8 26000000 		.4byte	.LVL48
 3047 00bc 0300     		.2byte	0x3
 3048 00be 74       		.byte	0x74
 3049 00bf 7F       		.sleb128 -1
 3050 00c0 9F       		.byte	0x9f
 3051 00c1 26000000 		.4byte	.LVL48
 3052 00c5 2A000000 		.4byte	.LVL49
 3053 00c9 0100     		.2byte	0x1
 3054 00cb 54       		.byte	0x54
 3055 00cc 38000000 		.4byte	.LVL51
 3056 00d0 44000000 		.4byte	.LFE223
 3057 00d4 0200     		.2byte	0x2
 3058 00d6 30       		.byte	0x30
 3059 00d7 9F       		.byte	0x9f
 3060 00d8 00000000 		.4byte	0
 3061 00dc 00000000 		.4byte	0
 3062              	.LLST17:
 3063 00e0 16000000 		.4byte	.LVL45
 3064 00e4 1E000000 		.4byte	.LVL46
 3065 00e8 0200     		.2byte	0x2
 3066 00ea 30       		.byte	0x30
 3067 00eb 9F       		.byte	0x9f
 3068 00ec 1E000000 		.4byte	.LVL46
ARM GAS  /var/folders/km/q6jdms0143g2bddz5bhvdfd00000gn/T//ccVOWgQN.s 			page 55


 3069 00f0 2A000000 		.4byte	.LVL49
 3070 00f4 0100     		.2byte	0x1
 3071 00f6 52       		.byte	0x52
 3072 00f7 38000000 		.4byte	.LVL51
 3073 00fb 44000000 		.4byte	.LFE223
 3074 00ff 0200     		.2byte	0x2
 3075 0101 30       		.byte	0x30
 3076 0102 9F       		.byte	0x9f
 3077 0103 00000000 		.4byte	0
 3078 0107 00000000 		.4byte	0
 3079              	.LLST9:
 3080 010b 00000000 		.4byte	.LVL30
 3081 010f 0A000000 		.4byte	.LVL31
 3082 0113 0100     		.2byte	0x1
 3083 0115 50       		.byte	0x50
 3084 0116 0A000000 		.4byte	.LVL31
 3085 011a 6E000000 		.4byte	.LVL36
 3086 011e 0100     		.2byte	0x1
 3087 0120 59       		.byte	0x59
 3088 0121 6E000000 		.4byte	.LVL36
 3089 0125 72000000 		.4byte	.LVL37
 3090 0129 0400     		.2byte	0x4
 3091 012b F3       		.byte	0xf3
 3092 012c 01       		.uleb128 0x1
 3093 012d 50       		.byte	0x50
 3094 012e 9F       		.byte	0x9f
 3095 012f 72000000 		.4byte	.LVL37
 3096 0133 AA000000 		.4byte	.LVL39
 3097 0137 0100     		.2byte	0x1
 3098 0139 59       		.byte	0x59
 3099 013a AA000000 		.4byte	.LVL39
 3100 013e AE000000 		.4byte	.LVL40
 3101 0142 0400     		.2byte	0x4
 3102 0144 F3       		.byte	0xf3
 3103 0145 01       		.uleb128 0x1
 3104 0146 50       		.byte	0x50
 3105 0147 9F       		.byte	0x9f
 3106 0148 AE000000 		.4byte	.LVL40
 3107 014c B0000000 		.4byte	.LVL41
 3108 0150 0100     		.2byte	0x1
 3109 0152 50       		.byte	0x50
 3110 0153 B0000000 		.4byte	.LVL41
 3111 0157 BC000000 		.4byte	.LFE222
 3112 015b 0100     		.2byte	0x1
 3113 015d 59       		.byte	0x59
 3114 015e 00000000 		.4byte	0
 3115 0162 00000000 		.4byte	0
 3116              	.LLST10:
 3117 0166 24000000 		.4byte	.LVL33
 3118 016a 44000000 		.4byte	.LVL34
 3119 016e 0100     		.2byte	0x1
 3120 0170 54       		.byte	0x54
 3121 0171 46000000 		.4byte	.LVL35
 3122 0175 6E000000 		.4byte	.LVL36
 3123 0179 0100     		.2byte	0x1
 3124 017b 54       		.byte	0x54
 3125 017c 72000000 		.4byte	.LVL37
ARM GAS  /var/folders/km/q6jdms0143g2bddz5bhvdfd00000gn/T//ccVOWgQN.s 			page 56


 3126 0180 AA000000 		.4byte	.LVL39
 3127 0184 0100     		.2byte	0x1
 3128 0186 54       		.byte	0x54
 3129 0187 00000000 		.4byte	0
 3130 018b 00000000 		.4byte	0
 3131              	.LLST11:
 3132 018f 24000000 		.4byte	.LVL33
 3133 0193 6E000000 		.4byte	.LVL36
 3134 0197 0100     		.2byte	0x1
 3135 0199 55       		.byte	0x55
 3136 019a 6E000000 		.4byte	.LVL36
 3137 019e 72000000 		.4byte	.LVL37
 3138 01a2 0600     		.2byte	0x6
 3139 01a4 F3       		.byte	0xf3
 3140 01a5 01       		.uleb128 0x1
 3141 01a6 50       		.byte	0x50
 3142 01a7 38       		.byte	0x38
 3143 01a8 1C       		.byte	0x1c
 3144 01a9 9F       		.byte	0x9f
 3145 01aa 72000000 		.4byte	.LVL37
 3146 01ae AA000000 		.4byte	.LVL39
 3147 01b2 0100     		.2byte	0x1
 3148 01b4 55       		.byte	0x55
 3149 01b5 AA000000 		.4byte	.LVL39
 3150 01b9 AE000000 		.4byte	.LVL40
 3151 01bd 0600     		.2byte	0x6
 3152 01bf F3       		.byte	0xf3
 3153 01c0 01       		.uleb128 0x1
 3154 01c1 50       		.byte	0x50
 3155 01c2 38       		.byte	0x38
 3156 01c3 1C       		.byte	0x1c
 3157 01c4 9F       		.byte	0x9f
 3158 01c5 00000000 		.4byte	0
 3159 01c9 00000000 		.4byte	0
 3160              	.LLST12:
 3161 01cd 24000000 		.4byte	.LVL33
 3162 01d1 6E000000 		.4byte	.LVL36
 3163 01d5 0300     		.2byte	0x3
 3164 01d7 78       		.byte	0x78
 3165 01d8 78       		.sleb128 -8
 3166 01d9 9F       		.byte	0x9f
 3167 01da 6E000000 		.4byte	.LVL36
 3168 01de 71000000 		.4byte	.LVL37-1
 3169 01e2 0300     		.2byte	0x3
 3170 01e4 70       		.byte	0x70
 3171 01e5 70       		.sleb128 -16
 3172 01e6 9F       		.byte	0x9f
 3173 01e7 72000000 		.4byte	.LVL37
 3174 01eb AA000000 		.4byte	.LVL39
 3175 01ef 0300     		.2byte	0x3
 3176 01f1 78       		.byte	0x78
 3177 01f2 78       		.sleb128 -8
 3178 01f3 9F       		.byte	0x9f
 3179 01f4 AA000000 		.4byte	.LVL39
 3180 01f8 AD000000 		.4byte	.LVL40-1
 3181 01fc 0300     		.2byte	0x3
 3182 01fe 70       		.byte	0x70
ARM GAS  /var/folders/km/q6jdms0143g2bddz5bhvdfd00000gn/T//ccVOWgQN.s 			page 57


 3183 01ff 70       		.sleb128 -16
 3184 0200 9F       		.byte	0x9f
 3185 0201 00000000 		.4byte	0
 3186 0205 00000000 		.4byte	0
 3187              	.LLST4:
 3188 0209 00000000 		.4byte	.LVL8
 3189 020d 0A000000 		.4byte	.LVL9
 3190 0211 0100     		.2byte	0x1
 3191 0213 50       		.byte	0x50
 3192 0214 0A000000 		.4byte	.LVL9
 3193 0218 88000000 		.4byte	.LFE221
 3194 021c 0100     		.2byte	0x1
 3195 021e 56       		.byte	0x56
 3196 021f 00000000 		.4byte	0
 3197 0223 00000000 		.4byte	0
 3198              	.LLST5:
 3199 0227 00000000 		.4byte	.LVL8
 3200 022b 10000000 		.4byte	.LVL10
 3201 022f 0100     		.2byte	0x1
 3202 0231 51       		.byte	0x51
 3203 0232 10000000 		.4byte	.LVL10
 3204 0236 16000000 		.4byte	.LVL11
 3205 023a 0300     		.2byte	0x3
 3206 023c 71       		.byte	0x71
 3207 023d 79       		.sleb128 -7
 3208 023e 9F       		.byte	0x9f
 3209 023f 16000000 		.4byte	.LVL11
 3210 0243 88000000 		.4byte	.LFE221
 3211 0247 0100     		.2byte	0x1
 3212 0249 55       		.byte	0x55
 3213 024a 00000000 		.4byte	0
 3214 024e 00000000 		.4byte	0
 3215              	.LLST6:
 3216 0252 1A000000 		.4byte	.LVL12
 3217 0256 48000000 		.4byte	.LVL20
 3218 025a 0100     		.2byte	0x1
 3219 025c 54       		.byte	0x54
 3220 025d 4C000000 		.4byte	.LVL21
 3221 0261 5A000000 		.4byte	.LVL22
 3222 0265 0100     		.2byte	0x1
 3223 0267 54       		.byte	0x54
 3224 0268 68000000 		.4byte	.LVL26
 3225 026c 80000000 		.4byte	.LVL29
 3226 0270 0100     		.2byte	0x1
 3227 0272 54       		.byte	0x54
 3228 0273 00000000 		.4byte	0
 3229 0277 00000000 		.4byte	0
 3230              	.LLST7:
 3231 027b 20000000 		.4byte	.LVL14
 3232 027f 28000000 		.4byte	.LVL15
 3233 0283 0100     		.2byte	0x1
 3234 0285 50       		.byte	0x50
 3235 0286 2A000000 		.4byte	.LVL16
 3236 028a 30000000 		.4byte	.LVL17
 3237 028e 0100     		.2byte	0x1
 3238 0290 50       		.byte	0x50
 3239 0291 30000000 		.4byte	.LVL17
ARM GAS  /var/folders/km/q6jdms0143g2bddz5bhvdfd00000gn/T//ccVOWgQN.s 			page 58


 3240 0295 33000000 		.4byte	.LVL18-1
 3241 0299 0200     		.2byte	0x2
 3242 029b 74       		.byte	0x74
 3243 029c 00       		.sleb128 0
 3244 029d 3E000000 		.4byte	.LVL19
 3245 02a1 48000000 		.4byte	.LVL20
 3246 02a5 0100     		.2byte	0x1
 3247 02a7 50       		.byte	0x50
 3248 02a8 4C000000 		.4byte	.LVL21
 3249 02ac 5C000000 		.4byte	.LVL23
 3250 02b0 0100     		.2byte	0x1
 3251 02b2 50       		.byte	0x50
 3252 02b3 5C000000 		.4byte	.LVL23
 3253 02b7 60000000 		.4byte	.LVL24
 3254 02bb 0100     		.2byte	0x1
 3255 02bd 54       		.byte	0x54
 3256 02be 60000000 		.4byte	.LVL24
 3257 02c2 68000000 		.4byte	.LVL26
 3258 02c6 0300     		.2byte	0x3
 3259 02c8 74       		.byte	0x74
 3260 02c9 78       		.sleb128 -8
 3261 02ca 9F       		.byte	0x9f
 3262 02cb 68000000 		.4byte	.LVL26
 3263 02cf 7E000000 		.4byte	.LVL28
 3264 02d3 0100     		.2byte	0x1
 3265 02d5 50       		.byte	0x50
 3266 02d6 00000000 		.4byte	0
 3267 02da 00000000 		.4byte	0
 3268              	.LLST8:
 3269 02de 6C000000 		.4byte	.LVL27
 3270 02e2 7E000000 		.4byte	.LVL28
 3271 02e6 0100     		.2byte	0x1
 3272 02e8 5C       		.byte	0x5c
 3273 02e9 00000000 		.4byte	0
 3274 02ed 00000000 		.4byte	0
 3275              	.LLST0:
 3276 02f1 00000000 		.4byte	.LVL1
 3277 02f5 12000000 		.4byte	.LVL3
 3278 02f9 0100     		.2byte	0x1
 3279 02fb 50       		.byte	0x50
 3280 02fc 12000000 		.4byte	.LVL3
 3281 0300 2C000000 		.4byte	.LVL6
 3282 0304 0100     		.2byte	0x1
 3283 0306 56       		.byte	0x56
 3284 0307 2C000000 		.4byte	.LVL6
 3285 030b 2F000000 		.4byte	.LVL7-1
 3286 030f 0300     		.2byte	0x3
 3287 0311 70       		.byte	0x70
 3288 0312 70       		.sleb128 -16
 3289 0313 9F       		.byte	0x9f
 3290 0314 2F000000 		.4byte	.LVL7-1
 3291 0318 34000000 		.4byte	.LFE220
 3292 031c 0400     		.2byte	0x4
 3293 031e F3       		.byte	0xf3
 3294 031f 01       		.uleb128 0x1
 3295 0320 50       		.byte	0x50
 3296 0321 9F       		.byte	0x9f
ARM GAS  /var/folders/km/q6jdms0143g2bddz5bhvdfd00000gn/T//ccVOWgQN.s 			page 59


 3297 0322 00000000 		.4byte	0
 3298 0326 00000000 		.4byte	0
 3299              	.LLST1:
 3300 032a 00000000 		.4byte	.LVL1
 3301 032e 15000000 		.4byte	.LVL4-1
 3302 0332 0100     		.2byte	0x1
 3303 0334 51       		.byte	0x51
 3304 0335 15000000 		.4byte	.LVL4-1
 3305 0339 2C000000 		.4byte	.LVL6
 3306 033d 0100     		.2byte	0x1
 3307 033f 54       		.byte	0x54
 3308 0340 2C000000 		.4byte	.LVL6
 3309 0344 34000000 		.4byte	.LFE220
 3310 0348 0400     		.2byte	0x4
 3311 034a F3       		.byte	0xf3
 3312 034b 01       		.uleb128 0x1
 3313 034c 51       		.byte	0x51
 3314 034d 9F       		.byte	0x9f
 3315 034e 00000000 		.4byte	0
 3316 0352 00000000 		.4byte	0
 3317              	.LLST2:
 3318 0356 00000000 		.4byte	.LVL1
 3319 035a 15000000 		.4byte	.LVL4-1
 3320 035e 0100     		.2byte	0x1
 3321 0360 52       		.byte	0x52
 3322 0361 15000000 		.4byte	.LVL4-1
 3323 0365 1A000000 		.4byte	.LVL5
 3324 0369 0100     		.2byte	0x1
 3325 036b 55       		.byte	0x55
 3326 036c 1A000000 		.4byte	.LVL5
 3327 0370 2C000000 		.4byte	.LVL6
 3328 0374 0300     		.2byte	0x3
 3329 0376 75       		.byte	0x75
 3330 0377 08       		.sleb128 8
 3331 0378 9F       		.byte	0x9f
 3332 0379 2C000000 		.4byte	.LVL6
 3333 037d 2F000000 		.4byte	.LVL7-1
 3334 0381 0900     		.2byte	0x9
 3335 0383 F3       		.byte	0xf3
 3336 0384 01       		.uleb128 0x1
 3337 0385 51       		.byte	0x51
 3338 0386 23       		.byte	0x23
 3339 0387 04       		.uleb128 0x4
 3340 0388 06       		.byte	0x6
 3341 0389 23       		.byte	0x23
 3342 038a 08       		.uleb128 0x8
 3343 038b 9F       		.byte	0x9f
 3344 038c 2F000000 		.4byte	.LVL7-1
 3345 0390 34000000 		.4byte	.LFE220
 3346 0394 0400     		.2byte	0x4
 3347 0396 F3       		.byte	0xf3
 3348 0397 01       		.uleb128 0x1
 3349 0398 52       		.byte	0x52
 3350 0399 9F       		.byte	0x9f
 3351 039a 00000000 		.4byte	0
 3352 039e 00000000 		.4byte	0
 3353              	.LLST3:
ARM GAS  /var/folders/km/q6jdms0143g2bddz5bhvdfd00000gn/T//ccVOWgQN.s 			page 60


 3354 03a2 0A000000 		.4byte	.LVL2
 3355 03a6 15000000 		.4byte	.LVL4-1
 3356 03aa 0100     		.2byte	0x1
 3357 03ac 51       		.byte	0x51
 3358 03ad 15000000 		.4byte	.LVL4-1
 3359 03b1 2C000000 		.4byte	.LVL6
 3360 03b5 0100     		.2byte	0x1
 3361 03b7 54       		.byte	0x54
 3362 03b8 2C000000 		.4byte	.LVL6
 3363 03bc 34000000 		.4byte	.LFE220
 3364 03c0 0400     		.2byte	0x4
 3365 03c2 F3       		.byte	0xf3
 3366 03c3 01       		.uleb128 0x1
 3367 03c4 51       		.byte	0x51
 3368 03c5 9F       		.byte	0x9f
 3369 03c6 00000000 		.4byte	0
 3370 03ca 00000000 		.4byte	0
 3371              		.section	.debug_aranges,"",%progbits
 3372 0000 3C000000 		.4byte	0x3c
 3373 0004 0200     		.2byte	0x2
 3374 0006 00000000 		.4byte	.Ldebug_info0
 3375 000a 04       		.byte	0x4
 3376 000b 00       		.byte	0
 3377 000c 0000     		.2byte	0
 3378 000e 0000     		.2byte	0
 3379 0010 00000000 		.4byte	.LFB219
 3380 0014 1C000000 		.4byte	.LFE219-.LFB219
 3381 0018 00000000 		.4byte	.LFB220
 3382 001c 34000000 		.4byte	.LFE220-.LFB220
 3383 0020 00000000 		.4byte	.LFB221
 3384 0024 88000000 		.4byte	.LFE221-.LFB221
 3385 0028 00000000 		.4byte	.LFB222
 3386 002c BC000000 		.4byte	.LFE222-.LFB222
 3387 0030 00000000 		.4byte	.LFB223
 3388 0034 44000000 		.4byte	.LFE223-.LFB223
 3389 0038 00000000 		.4byte	0
 3390 003c 00000000 		.4byte	0
 3391              		.section	.debug_ranges,"",%progbits
 3392              	.Ldebug_ranges0:
 3393 0000 00000000 		.4byte	.LFB219
 3394 0004 1C000000 		.4byte	.LFE219
 3395 0008 00000000 		.4byte	.LFB220
 3396 000c 34000000 		.4byte	.LFE220
 3397 0010 00000000 		.4byte	.LFB221
 3398 0014 88000000 		.4byte	.LFE221
 3399 0018 00000000 		.4byte	.LFB222
 3400 001c BC000000 		.4byte	.LFE222
 3401 0020 00000000 		.4byte	.LFB223
 3402 0024 44000000 		.4byte	.LFE223
 3403 0028 00000000 		.4byte	0
 3404 002c 00000000 		.4byte	0
 3405              		.section	.debug_line,"",%progbits
 3406              	.Ldebug_line0:
 3407 0000 88040000 		.section	.debug_str,"MS",%progbits,1
 3407      02008703 
 3407      00000201 
 3407      FB0E0D00 
ARM GAS  /var/folders/km/q6jdms0143g2bddz5bhvdfd00000gn/T//ccVOWgQN.s 			page 61


 3407      01010101 
 3408              	.LASF56:
 3409 0000 74687265 		.ascii	"threads_list_t\000"
 3409      6164735F 
 3409      6C697374 
 3409      5F7400
 3410              	.LASF61:
 3411 000f 72656164 		.ascii	"ready_list_t\000"
 3411      795F6C69 
 3411      73745F74 
 3411      00
 3412              	.LASF99:
 3413 001c 73655F74 		.ascii	"se_time\000"
 3413      696D6500 
 3414              	.LASF4:
 3415 0024 73697A65 		.ascii	"size_t\000"
 3415      5F7400
 3416              	.LASF163:
 3417 002b 6E657874 		.ascii	"next\000"
 3417      00
 3418              	.LASF120:
 3419 0030 7264796D 		.ascii	"rdymsg\000"
 3419      736700
 3420              	.LASF20:
 3421 0037 75696E74 		.ascii	"uint64_t\000"
 3421      36345F74 
 3421      00
 3422              	.LASF91:
 3423 0040 6B65726E 		.ascii	"kernel_stats\000"
 3423      656C5F73 
 3423      74617473 
 3423      00
 3424              	.LASF5:
 3425 004d 5F5F7569 		.ascii	"__uint8_t\000"
 3425      6E74385F 
 3425      7400
 3426              	.LASF98:
 3427 0057 706F7274 		.ascii	"port_intctx\000"
 3427      5F696E74 
 3427      63747800 
 3428              	.LASF60:
 3429 0063 63685F74 		.ascii	"ch_threads_queue\000"
 3429      68726561 
 3429      64735F71 
 3429      75657565 
 3429      00
 3430              	.LASF80:
 3431 0074 73797374 		.ascii	"system_debug_t\000"
 3431      656D5F64 
 3431      65627567 
 3431      5F7400
 3432              	.LASF111:
 3433 0083 776F7273 		.ascii	"worst\000"
 3433      7400
 3434              	.LASF114:
 3435 0089 74696D65 		.ascii	"time_measurement_t\000"
 3435      5F6D6561 
ARM GAS  /var/folders/km/q6jdms0143g2bddz5bhvdfd00000gn/T//ccVOWgQN.s 			page 62


 3435      73757265 
 3435      6D656E74 
 3435      5F7400
 3436              	.LASF15:
 3437 009c 6C6F6E67 		.ascii	"long long unsigned int\000"
 3437      206C6F6E 
 3437      6720756E 
 3437      7369676E 
 3437      65642069 
 3438              	.LASF107:
 3439 00b3 63685F74 		.ascii	"ch_trace_buffer_t\000"
 3439      72616365 
 3439      5F627566 
 3439      6665725F 
 3439      7400
 3440              	.LASF142:
 3441 00c5 63685F74 		.ascii	"ch_threadsize\000"
 3441      68726561 
 3441      6473697A 
 3441      6500
 3442              	.LASF121:
 3443 00d3 65786974 		.ascii	"exitcode\000"
 3443      636F6465 
 3443      00
 3444              	.LASF161:
 3445 00dc 685F6672 		.ascii	"h_free\000"
 3445      656500
 3446              	.LASF77:
 3447 00e3 76697274 		.ascii	"virtual_timers_list_t\000"
 3447      75616C5F 
 3447      74696D65 
 3447      72735F6C 
 3447      6973745F 
 3448              	.LASF93:
 3449 00f9 49544D5F 		.ascii	"ITM_RxBuffer\000"
 3449      52784275 
 3449      66666572 
 3449      00
 3450              	.LASF167:
 3451 0106 68656170 		.ascii	"heapp\000"
 3451      7000
 3452              	.LASF165:
 3453 010c 616C6967 		.ascii	"align\000"
 3453      6E00
 3454              	.LASF22:
 3455 0112 72747469 		.ascii	"rttime_t\000"
 3455      6D655F74 
 3455      00
 3456              	.LASF36:
 3457 011b 705F7072 		.ascii	"p_prio\000"
 3457      696F00
 3458              	.LASF149:
 3459 0122 63665F6F 		.ascii	"cf_off_state\000"
 3459      66665F73 
 3459      74617465 
 3459      00
 3460              	.LASF156:
ARM GAS  /var/folders/km/q6jdms0143g2bddz5bhvdfd00000gn/T//ccVOWgQN.s 			page 63


 3461 012f 6D757465 		.ascii	"mutex_t\000"
 3461      785F7400 
 3462              	.LASF177:
 3463 0137 63684D74 		.ascii	"chMtxUnlock\000"
 3463      78556E6C 
 3463      6F636B00 
 3464              	.LASF3:
 3465 0143 7369676E 		.ascii	"signed char\000"
 3465      65642063 
 3465      68617200 
 3466              	.LASF162:
 3467 014f 685F6D74 		.ascii	"h_mtx\000"
 3467      7800
 3468              	.LASF148:
 3469 0155 63665F6F 		.ascii	"cf_off_stklimit\000"
 3469      66665F73 
 3469      746B6C69 
 3469      6D697400 
 3470              	.LASF150:
 3471 0165 63665F6F 		.ascii	"cf_off_flags\000"
 3471      66665F66 
 3471      6C616773 
 3471      00
 3472              	.LASF53:
 3473 0172 705F6D70 		.ascii	"p_mpool\000"
 3473      6F6F6C00 
 3474              	.LASF131:
 3475 017a 6D5F7175 		.ascii	"m_queue\000"
 3475      65756500 
 3476              	.LASF172:
 3477 0182 63684865 		.ascii	"chHeapFree\000"
 3477      61704672 
 3477      656500
 3478              	.LASF89:
 3479 018d 76746C69 		.ascii	"vtlist\000"
 3479      737400
 3480              	.LASF26:
 3481 0194 74736C69 		.ascii	"tslices_t\000"
 3481      6365735F 
 3481      7400
 3482              	.LASF123:
 3483 019e 77747472 		.ascii	"wttrp\000"
 3483      7000
 3484              	.LASF87:
 3485 01a4 63685F73 		.ascii	"ch_system\000"
 3485      79737465 
 3485      6D00
 3486              	.LASF11:
 3487 01ae 6C6F6E67 		.ascii	"long int\000"
 3487      20696E74 
 3487      00
 3488              	.LASF24:
 3489 01b7 74737461 		.ascii	"tstate_t\000"
 3489      74655F74 
 3489      00
 3490              	.LASF158:
 3491 01c0 6D656D6F 		.ascii	"memory_heap_t\000"
ARM GAS  /var/folders/km/q6jdms0143g2bddz5bhvdfd00000gn/T//ccVOWgQN.s 			page 64


 3491      72795F68 
 3491      6561705F 
 3491      7400
 3492              	.LASF100:
 3493 01ce 73655F74 		.ascii	"se_tp\000"
 3493      7000
 3494              	.LASF154:
 3495 01d4 63686465 		.ascii	"chdebug_t\000"
 3495      6275675F 
 3495      7400
 3496              	.LASF38:
 3497 01de 705F6E65 		.ascii	"p_newer\000"
 3497      77657200 
 3498              	.LASF128:
 3499 01e6 735F7175 		.ascii	"s_queue\000"
 3499      65756500 
 3500              	.LASF104:
 3501 01ee 74625F73 		.ascii	"tb_size\000"
 3501      697A6500 
 3502              	.LASF66:
 3503 01f6 725F6E65 		.ascii	"r_newer\000"
 3503      77657200 
 3504              	.LASF95:
 3505 01fe 72656761 		.ascii	"regarm_t\000"
 3505      726D5F74 
 3505      00
 3506              	.LASF73:
 3507 0207 76745F70 		.ascii	"vt_prev\000"
 3507      72657600 
 3508              	.LASF178:
 3509 020f 63685379 		.ascii	"chSysHalt\000"
 3509      7348616C 
 3509      7400
 3510              	.LASF81:
 3511 0219 63685F73 		.ascii	"ch_system_debug\000"
 3511      79737465 
 3511      6D5F6465 
 3511      62756700 
 3512              	.LASF134:
 3513 0229 6D5F636E 		.ascii	"m_cnt\000"
 3513      7400
 3514              	.LASF1:
 3515 022f 6C6F6E67 		.ascii	"long long int\000"
 3515      206C6F6E 
 3515      6720696E 
 3515      7400
 3516              	.LASF84:
 3517 023d 6C6F636B 		.ascii	"lock_cnt\000"
 3517      5F636E74 
 3517      00
 3518              	.LASF92:
 3519 0246 69646C65 		.ascii	"idle_thread_wa\000"
 3519      5F746872 
 3519      6561645F 
 3519      776100
 3520              	.LASF30:
 3521 0255 636E745F 		.ascii	"cnt_t\000"
ARM GAS  /var/folders/km/q6jdms0143g2bddz5bhvdfd00000gn/T//ccVOWgQN.s 			page 65


 3521      7400
 3522              	.LASF41:
 3523 025b 705F7374 		.ascii	"p_stklimit\000"
 3523      6B6C696D 
 3523      697400
 3524              	.LASF0:
 3525 0266 756E7369 		.ascii	"unsigned int\000"
 3525      676E6564 
 3525      20696E74 
 3525      00
 3526              	.LASF72:
 3527 0273 76745F6E 		.ascii	"vt_next\000"
 3527      65787400 
 3528              	.LASF17:
 3529 027b 75696E74 		.ascii	"uint16_t\000"
 3529      31365F74 
 3529      00
 3530              	.LASF94:
 3531 0284 53797374 		.ascii	"SystemCoreClock\000"
 3531      656D436F 
 3531      7265436C 
 3531      6F636B00 
 3532              	.LASF46:
 3533 0294 705F7469 		.ascii	"p_time\000"
 3533      6D6500
 3534              	.LASF124:
 3535 029b 77747365 		.ascii	"wtsemp\000"
 3535      6D7000
 3536              	.LASF146:
 3537 02a2 63665F6F 		.ascii	"cf_off_older\000"
 3537      66665F6F 
 3537      6C646572 
 3537      00
 3538              	.LASF180:
 3539 02af 474E5520 		.ascii	"GNU C11 7.2.1 20170904 (release) [ARM/embedded-7-br"
 3539      43313120 
 3539      372E322E 
 3539      31203230 
 3539      31373039 
 3540 02e2 616E6368 		.ascii	"anch revision 255204] -mcpu=cortex-m4 -mfloat-abi=h"
 3540      20726576 
 3540      6973696F 
 3540      6E203235 
 3540      35323034 
 3541 0315 61726420 		.ascii	"ard -mfpu=fpv4-sp-d16 -mno-thumb-interwork -mthumb "
 3541      2D6D6670 
 3541      753D6670 
 3541      76342D73 
 3541      702D6431 
 3542 0348 2D676764 		.ascii	"-ggdb -O2 -fomit-frame-pointer -falign-functions=16"
 3542      62202D4F 
 3542      32202D66 
 3542      6F6D6974 
 3542      2D667261 
 3543 037b 202D6666 		.ascii	" -ffunction-sections -fdata-sections -fno-common -f"
 3543      756E6374 
 3543      696F6E2D 
ARM GAS  /var/folders/km/q6jdms0143g2bddz5bhvdfd00000gn/T//ccVOWgQN.s 			page 66


 3543      73656374 
 3543      696F6E73 
 3544 03ae 73696E67 		.ascii	"single-precision-constant\000"
 3544      6C652D70 
 3544      72656369 
 3544      73696F6E 
 3544      2D636F6E 
 3545              	.LASF48:
 3546 03c8 705F6D73 		.ascii	"p_msgqueue\000"
 3546      67717565 
 3546      756500
 3547              	.LASF155:
 3548 03d3 63685F64 		.ascii	"ch_debug\000"
 3548      65627567 
 3548      00
 3549              	.LASF115:
 3550 03dc 6E5F6972 		.ascii	"n_irq\000"
 3550      7100
 3551              	.LASF129:
 3552 03e2 735F636E 		.ascii	"s_cnt\000"
 3552      7400
 3553              	.LASF9:
 3554 03e8 73686F72 		.ascii	"short unsigned int\000"
 3554      7420756E 
 3554      7369676E 
 3554      65642069 
 3554      6E7400
 3555              	.LASF119:
 3556 03fb 6B65726E 		.ascii	"kernel_stats_t\000"
 3556      656C5F73 
 3556      74617473 
 3556      5F7400
 3557              	.LASF57:
 3558 040a 63685F74 		.ascii	"ch_thread\000"
 3558      68726561 
 3558      6400
 3559              	.LASF90:
 3560 0414 6D61696E 		.ascii	"mainthread\000"
 3560      74687265 
 3560      616400
 3561              	.LASF28:
 3562 041f 6D73675F 		.ascii	"msg_t\000"
 3562      7400
 3563              	.LASF112:
 3564 0425 6C617374 		.ascii	"last\000"
 3564      00
 3565              	.LASF31:
 3566 042a 75636E74 		.ascii	"ucnt_t\000"
 3566      5F7400
 3567              	.LASF86:
 3568 0431 63685F73 		.ascii	"ch_system_t\000"
 3568      79737465 
 3568      6D5F7400 
 3569              	.LASF153:
 3570 043d 63665F6F 		.ascii	"cf_off_time\000"
 3570      66665F74 
 3570      696D6500 
ARM GAS  /var/folders/km/q6jdms0143g2bddz5bhvdfd00000gn/T//ccVOWgQN.s 			page 67


 3571              	.LASF182:
 3572 0449 2F557365 		.ascii	"/Users/xavierdulex/Documents/EPFL/MT6/robotique_et_"
 3572      72732F78 
 3572      61766965 
 3572      7264756C 
 3572      65782F44 
 3573 047c 73797374 		.ascii	"systemes_ embarques/GitRobotique/TP3_Chibi/Chibi_co"
 3573      656D6573 
 3573      5F20656D 
 3573      62617271 
 3573      7565732F 
 3574 04af 72726563 		.ascii	"rrection/\000"
 3574      74696F6E 
 3574      2F00
 3575              	.LASF118:
 3576 04b9 6D5F6372 		.ascii	"m_crit_isr\000"
 3576      69745F69 
 3576      737200
 3577              	.LASF62:
 3578 04c4 63685F72 		.ascii	"ch_ready_list\000"
 3578      65616479 
 3578      5F6C6973 
 3578      7400
 3579              	.LASF29:
 3580 04d2 6576656E 		.ascii	"eventmask_t\000"
 3580      746D6173 
 3580      6B5F7400 
 3581              	.LASF10:
 3582 04de 5F5F696E 		.ascii	"__int32_t\000"
 3582      7433325F 
 3582      7400
 3583              	.LASF96:
 3584 04e8 73746B61 		.ascii	"stkalign_t\000"
 3584      6C69676E 
 3584      5F7400
 3585              	.LASF173:
 3586 04f3 63684865 		.ascii	"chHeapObjectInit\000"
 3586      61704F62 
 3586      6A656374 
 3586      496E6974 
 3586      00
 3587              	.LASF137:
 3588 0504 63685F7A 		.ascii	"ch_zero\000"
 3588      65726F00 
 3589              	.LASF151:
 3590 050c 63665F6F 		.ascii	"cf_off_refs\000"
 3590      66665F72 
 3590      65667300 
 3591              	.LASF47:
 3592 0518 705F7761 		.ascii	"p_waiting\000"
 3592      6974696E 
 3592      6700
 3593              	.LASF21:
 3594 0522 7274636E 		.ascii	"rtcnt_t\000"
 3594      745F7400 
 3595              	.LASF78:
 3596 052a 63685F76 		.ascii	"ch_virtual_timers_list\000"
ARM GAS  /var/folders/km/q6jdms0143g2bddz5bhvdfd00000gn/T//ccVOWgQN.s 			page 68


 3596      69727475 
 3596      616C5F74 
 3596      696D6572 
 3596      735F6C69 
 3597              	.LASF2:
 3598 0541 6C6F6E67 		.ascii	"long double\000"
 3598      20646F75 
 3598      626C6500 
 3599              	.LASF141:
 3600 054d 63685F74 		.ascii	"ch_timesize\000"
 3600      696D6573 
 3600      697A6500 
 3601              	.LASF105:
 3602 0559 74625F70 		.ascii	"tb_ptr\000"
 3602      747200
 3603              	.LASF103:
 3604 0560 63685F73 		.ascii	"ch_swc_event_t\000"
 3604      77635F65 
 3604      76656E74 
 3604      5F7400
 3605              	.LASF147:
 3606 056f 63665F6F 		.ascii	"cf_off_name\000"
 3606      66665F6E 
 3606      616D6500 
 3607              	.LASF176:
 3608 057b 63684D74 		.ascii	"chMtxLock\000"
 3608      784C6F63 
 3608      6B00
 3609              	.LASF39:
 3610 0585 705F6F6C 		.ascii	"p_older\000"
 3610      64657200 
 3611              	.LASF65:
 3612 058d 725F6374 		.ascii	"r_ctx\000"
 3612      7800
 3613              	.LASF37:
 3614 0593 705F6374 		.ascii	"p_ctx\000"
 3614      7800
 3615              	.LASF74:
 3616 0599 76745F64 		.ascii	"vt_delta\000"
 3616      656C7461 
 3616      00
 3617              	.LASF109:
 3618 05a2 746D5F63 		.ascii	"tm_calibration_t\000"
 3618      616C6962 
 3618      72617469 
 3618      6F6E5F74 
 3618      00
 3619              	.LASF68:
 3620 05b3 725F6375 		.ascii	"r_current\000"
 3620      7272656E 
 3620      7400
 3621              	.LASF67:
 3622 05bd 725F6F6C 		.ascii	"r_older\000"
 3622      64657200 
 3623              	.LASF14:
 3624 05c5 5F5F7569 		.ascii	"__uint64_t\000"
 3624      6E743634 
ARM GAS  /var/folders/km/q6jdms0143g2bddz5bhvdfd00000gn/T//ccVOWgQN.s 			page 69


 3624      5F7400
 3625              	.LASF113:
 3626 05d0 63756D75 		.ascii	"cumulative\000"
 3626      6C617469 
 3626      766500
 3627              	.LASF181:
 3628 05db 2E2E2F2E 		.ascii	"../../lib/ChibiOS/os/rt/src/chheap.c\000"
 3628      2E2F6C69 
 3628      622F4368 
 3628      6962694F 
 3628      532F6F73 
 3629              	.LASF25:
 3630 0600 74726566 		.ascii	"trefs_t\000"
 3630      735F7400 
 3631              	.LASF106:
 3632 0608 74625F62 		.ascii	"tb_buffer\000"
 3632      75666665 
 3632      7200
 3633              	.LASF140:
 3634 0612 63685F70 		.ascii	"ch_ptrsize\000"
 3634      74727369 
 3634      7A6500
 3635              	.LASF70:
 3636 061d 76697274 		.ascii	"virtual_timer_t\000"
 3636      75616C5F 
 3636      74696D65 
 3636      725F7400 
 3637              	.LASF35:
 3638 062d 705F7072 		.ascii	"p_prev\000"
 3638      657600
 3639              	.LASF27:
 3640 0634 74707269 		.ascii	"tprio_t\000"
 3640      6F5F7400 
 3641              	.LASF179:
 3642 063c 63684D74 		.ascii	"chMtxObjectInit\000"
 3642      784F626A 
 3642      65637449 
 3642      6E697400 
 3643              	.LASF116:
 3644 064c 6E5F6374 		.ascii	"n_ctxswc\000"
 3644      78737763 
 3644      00
 3645              	.LASF18:
 3646 0655 696E7433 		.ascii	"int32_t\000"
 3646      325F7400 
 3647              	.LASF6:
 3648 065d 756E7369 		.ascii	"unsigned char\000"
 3648      676E6564 
 3648      20636861 
 3648      7200
 3649              	.LASF183:
 3650 066b 68656170 		.ascii	"heap_header\000"
 3650      5F686561 
 3650      64657200 
 3651              	.LASF51:
 3652 0677 705F6D74 		.ascii	"p_mtxlist\000"
 3652      786C6973 
ARM GAS  /var/folders/km/q6jdms0143g2bddz5bhvdfd00000gn/T//ccVOWgQN.s 			page 70


 3652      7400
 3653              	.LASF7:
 3654 0681 73686F72 		.ascii	"short int\000"
 3654      7420696E 
 3654      7400
 3655              	.LASF42:
 3656 068b 705F7374 		.ascii	"p_state\000"
 3656      61746500 
 3657              	.LASF45:
 3658 0693 705F7072 		.ascii	"p_preempt\000"
 3658      65656D70 
 3658      7400
 3659              	.LASF64:
 3660 069d 725F7072 		.ascii	"r_prio\000"
 3660      696F00
 3661              	.LASF126:
 3662 06a4 65776D61 		.ascii	"ewmask\000"
 3662      736B00
 3663              	.LASF34:
 3664 06ab 705F6E65 		.ascii	"p_next\000"
 3664      787400
 3665              	.LASF23:
 3666 06b2 746D6F64 		.ascii	"tmode_t\000"
 3666      655F7400 
 3667              	.LASF152:
 3668 06ba 63665F6F 		.ascii	"cf_off_preempt\000"
 3668      66665F70 
 3668      7265656D 
 3668      707400
 3669              	.LASF43:
 3670 06c9 705F666C 		.ascii	"p_flags\000"
 3670      61677300 
 3671              	.LASF174:
 3672 06d1 5F5F6675 		.ascii	"__func__\000"
 3672      6E635F5F 
 3672      00
 3673              	.LASF54:
 3674 06da 705F7374 		.ascii	"p_stats\000"
 3674      61747300 
 3675              	.LASF59:
 3676 06e2 74687265 		.ascii	"threads_queue_t\000"
 3676      6164735F 
 3676      71756575 
 3676      655F7400 
 3677              	.LASF171:
 3678 06f2 63684865 		.ascii	"chHeapAlloc\000"
 3678      6170416C 
 3678      6C6F6300 
 3679              	.LASF145:
 3680 06fe 63665F6F 		.ascii	"cf_off_newer\000"
 3680      66665F6E 
 3680      65776572 
 3680      00
 3681              	.LASF127:
 3682 070b 63685F73 		.ascii	"ch_semaphore\000"
 3682      656D6170 
 3682      686F7265 
ARM GAS  /var/folders/km/q6jdms0143g2bddz5bhvdfd00000gn/T//ccVOWgQN.s 			page 71


 3682      00
 3683              	.LASF50:
 3684 0718 705F6570 		.ascii	"p_epending\000"
 3684      656E6469 
 3684      6E6700
 3685              	.LASF19:
 3686 0723 75696E74 		.ascii	"uint32_t\000"
 3686      33325F74 
 3686      00
 3687              	.LASF143:
 3688 072c 63665F6F 		.ascii	"cf_off_prio\000"
 3688      66665F70 
 3688      72696F00 
 3689              	.LASF63:
 3690 0738 725F7175 		.ascii	"r_queue\000"
 3690      65756500 
 3691              	.LASF58:
 3692 0740 63685F74 		.ascii	"ch_threads_list\000"
 3692      68726561 
 3692      64735F6C 
 3692      69737400 
 3693              	.LASF138:
 3694 0750 63685F73 		.ascii	"ch_size\000"
 3694      697A6500 
 3695              	.LASF164:
 3696 0758 68656170 		.ascii	"heap\000"
 3696      00
 3697              	.LASF13:
 3698 075d 6C6F6E67 		.ascii	"long unsigned int\000"
 3698      20756E73 
 3698      69676E65 
 3698      6420696E 
 3698      7400
 3699              	.LASF169:
 3700 076f 64656661 		.ascii	"default_heap\000"
 3700      756C745F 
 3700      68656170 
 3700      00
 3701              	.LASF135:
 3702 077c 63686172 		.ascii	"char\000"
 3702      00
 3703              	.LASF125:
 3704 0781 77746D74 		.ascii	"wtmtxp\000"
 3704      787000
 3705              	.LASF49:
 3706 0788 705F6D73 		.ascii	"p_msg\000"
 3706      6700
 3707              	.LASF8:
 3708 078e 5F5F7569 		.ascii	"__uint16_t\000"
 3708      6E743136 
 3708      5F7400
 3709              	.LASF33:
 3710 0799 74687265 		.ascii	"thread_t\000"
 3710      61645F74 
 3710      00
 3711              	.LASF110:
 3712 07a2 62657374 		.ascii	"best\000"
ARM GAS  /var/folders/km/q6jdms0143g2bddz5bhvdfd00000gn/T//ccVOWgQN.s 			page 72


 3712      00
 3713              	.LASF133:
 3714 07a7 6D5F6E65 		.ascii	"m_next\000"
 3714      787400
 3715              	.LASF32:
 3716 07ae 73797374 		.ascii	"systime_t\000"
 3716      696D655F 
 3716      7400
 3717              	.LASF52:
 3718 07b8 705F7265 		.ascii	"p_realprio\000"
 3718      616C7072 
 3718      696F00
 3719              	.LASF69:
 3720 07c3 76746675 		.ascii	"vtfunc_t\000"
 3720      6E635F74 
 3720      00
 3721              	.LASF12:
 3722 07cc 5F5F7569 		.ascii	"__uint32_t\000"
 3722      6E743332 
 3722      5F7400
 3723              	.LASF82:
 3724 07d7 70616E69 		.ascii	"panic_msg\000"
 3724      635F6D73 
 3724      6700
 3725              	.LASF108:
 3726 07e1 6F666673 		.ascii	"offset\000"
 3726      657400
 3727              	.LASF97:
 3728 07e8 636F6E74 		.ascii	"context\000"
 3728      65787400 
 3729              	.LASF71:
 3730 07f0 63685F76 		.ascii	"ch_virtual_timer\000"
 3730      69727475 
 3730      616C5F74 
 3730      696D6572 
 3730      00
 3731              	.LASF157:
 3732 0801 6D656D67 		.ascii	"memgetfunc_t\000"
 3732      65746675 
 3732      6E635F74 
 3732      00
 3733              	.LASF76:
 3734 080e 76745F70 		.ascii	"vt_par\000"
 3734      617200
 3735              	.LASF170:
 3736 0815 63684865 		.ascii	"chHeapStatus\000"
 3736      61705374 
 3736      61747573 
 3736      00
 3737              	.LASF144:
 3738 0822 63665F6F 		.ascii	"cf_off_ctx\000"
 3738      66665F63 
 3738      747800
 3739              	.LASF130:
 3740 082d 63685F6D 		.ascii	"ch_mutex\000"
 3740      75746578 
 3740      00
ARM GAS  /var/folders/km/q6jdms0143g2bddz5bhvdfd00000gn/T//ccVOWgQN.s 			page 73


 3741              	.LASF44:
 3742 0836 705F7265 		.ascii	"p_refs\000"
 3742      667300
 3743              	.LASF83:
 3744 083d 6973725F 		.ascii	"isr_cnt\000"
 3744      636E7400 
 3745              	.LASF102:
 3746 0845 73655F73 		.ascii	"se_state\000"
 3746      74617465 
 3746      00
 3747              	.LASF88:
 3748 084e 726C6973 		.ascii	"rlist\000"
 3748      7400
 3749              	.LASF16:
 3750 0854 75696E74 		.ascii	"uint8_t\000"
 3750      385F7400 
 3751              	.LASF160:
 3752 085c 685F7072 		.ascii	"h_provider\000"
 3752      6F766964 
 3752      657200
 3753              	.LASF55:
 3754 0867 74687265 		.ascii	"thread_reference_t\000"
 3754      61645F72 
 3754      65666572 
 3754      656E6365 
 3754      5F7400
 3755              	.LASF122:
 3756 087a 77746F62 		.ascii	"wtobjp\000"
 3756      6A7000
 3757              	.LASF168:
 3758 0881 73697A65 		.ascii	"sizep\000"
 3758      7000
 3759              	.LASF40:
 3760 0887 705F6E61 		.ascii	"p_name\000"
 3760      6D6500
 3761              	.LASF166:
 3762 088e 73697A65 		.ascii	"size\000"
 3762      00
 3763              	.LASF79:
 3764 0893 76745F73 		.ascii	"vt_systime\000"
 3764      79737469 
 3764      6D6500
 3765              	.LASF85:
 3766 089e 74726163 		.ascii	"trace_buffer\000"
 3766      655F6275 
 3766      66666572 
 3766      00
 3767              	.LASF175:
 3768 08ab 5F686561 		.ascii	"_heap_init\000"
 3768      705F696E 
 3768      697400
 3769              	.LASF139:
 3770 08b6 63685F76 		.ascii	"ch_version\000"
 3770      65727369 
 3770      6F6E00
 3771              	.LASF117:
 3772 08c1 6D5F6372 		.ascii	"m_crit_thd\000"
ARM GAS  /var/folders/km/q6jdms0143g2bddz5bhvdfd00000gn/T//ccVOWgQN.s 			page 74


 3772      69745F74 
 3772      686400
 3773              	.LASF132:
 3774 08cc 6D5F6F77 		.ascii	"m_owner\000"
 3774      6E657200 
 3775              	.LASF101:
 3776 08d4 73655F77 		.ascii	"se_wtobjp\000"
 3776      746F626A 
 3776      7000
 3777              	.LASF136:
 3778 08de 63685F69 		.ascii	"ch_identifier\000"
 3778      64656E74 
 3778      69666965 
 3778      7200
 3779              	.LASF75:
 3780 08ec 76745F66 		.ascii	"vt_func\000"
 3780      756E6300 
 3781              	.LASF159:
 3782 08f4 6D656D6F 		.ascii	"memory_heap\000"
 3782      72795F68 
 3782      65617000 
 3783              		.ident	"GCC: (GNU Tools for Arm Embedded Processors 7-2017-q4-major) 7.2.1 20170904 (release) [ARM
ARM GAS  /var/folders/km/q6jdms0143g2bddz5bhvdfd00000gn/T//ccVOWgQN.s 			page 75


DEFINED SYMBOLS
                            *ABS*:0000000000000000 chheap.c
/var/folders/km/q6jdms0143g2bddz5bhvdfd00000gn/T//ccVOWgQN.s:18     .text._heap_init:0000000000000000 $t
/var/folders/km/q6jdms0143g2bddz5bhvdfd00000gn/T//ccVOWgQN.s:26     .text._heap_init:0000000000000000 _heap_init
/var/folders/km/q6jdms0143g2bddz5bhvdfd00000gn/T//ccVOWgQN.s:50     .text._heap_init:0000000000000014 $d
/var/folders/km/q6jdms0143g2bddz5bhvdfd00000gn/T//ccVOWgQN.s:56     .text.chHeapObjectInit:0000000000000000 $t
/var/folders/km/q6jdms0143g2bddz5bhvdfd00000gn/T//ccVOWgQN.s:64     .text.chHeapObjectInit:0000000000000000 chHeapObjectInit
/var/folders/km/q6jdms0143g2bddz5bhvdfd00000gn/T//ccVOWgQN.s:123    .text.chHeapObjectInit:0000000000000030 $d
/var/folders/km/q6jdms0143g2bddz5bhvdfd00000gn/T//ccVOWgQN.s:128    .text.chHeapAlloc:0000000000000000 $t
/var/folders/km/q6jdms0143g2bddz5bhvdfd00000gn/T//ccVOWgQN.s:136    .text.chHeapAlloc:0000000000000000 chHeapAlloc
/var/folders/km/q6jdms0143g2bddz5bhvdfd00000gn/T//ccVOWgQN.s:263    .text.chHeapAlloc:0000000000000084 $d
/var/folders/km/q6jdms0143g2bddz5bhvdfd00000gn/T//ccVOWgQN.s:268    .text.chHeapFree:0000000000000000 $t
/var/folders/km/q6jdms0143g2bddz5bhvdfd00000gn/T//ccVOWgQN.s:276    .text.chHeapFree:0000000000000000 chHeapFree
/var/folders/km/q6jdms0143g2bddz5bhvdfd00000gn/T//ccVOWgQN.s:445    .text.chHeapFree:00000000000000b8 $d
/var/folders/km/q6jdms0143g2bddz5bhvdfd00000gn/T//ccVOWgQN.s:450    .text.chHeapStatus:0000000000000000 $t
/var/folders/km/q6jdms0143g2bddz5bhvdfd00000gn/T//ccVOWgQN.s:458    .text.chHeapStatus:0000000000000000 chHeapStatus
/var/folders/km/q6jdms0143g2bddz5bhvdfd00000gn/T//ccVOWgQN.s:530    .text.chHeapStatus:0000000000000040 $d
/var/folders/km/q6jdms0143g2bddz5bhvdfd00000gn/T//ccVOWgQN.s:535    .bss.default_heap:0000000000000000 $d
/var/folders/km/q6jdms0143g2bddz5bhvdfd00000gn/T//ccVOWgQN.s:539    .bss.default_heap:0000000000000000 default_heap
/var/folders/km/q6jdms0143g2bddz5bhvdfd00000gn/T//ccVOWgQN.s:542    .rodata.__func__.7856:0000000000000000 $d
/var/folders/km/q6jdms0143g2bddz5bhvdfd00000gn/T//ccVOWgQN.s:546    .rodata.__func__.7856:0000000000000000 __func__.7856
/var/folders/km/q6jdms0143g2bddz5bhvdfd00000gn/T//ccVOWgQN.s:549    .rodata.__func__.7873:0000000000000000 $d
/var/folders/km/q6jdms0143g2bddz5bhvdfd00000gn/T//ccVOWgQN.s:553    .rodata.__func__.7873:0000000000000000 __func__.7873

UNDEFINED SYMBOLS
chMtxObjectInit
chCoreAlloc
chSysHalt
chMtxLock
chMtxUnlock
