ARM GAS  /var/folders/km/q6jdms0143g2bddz5bhvdfd00000gn/T//ccVOWgQN.s 			page 1


   1              		.cpu cortex-m4
   2              		.eabi_attribute 27, 1
   3              		.eabi_attribute 28, 1
   4              		.eabi_attribute 20, 1
   5              		.eabi_attribute 21, 1
   6              		.eabi_attribute 23, 3
   7              		.eabi_attribute 24, 1
   8              		.eabi_attribute 25, 1
   9              		.eabi_attribute 26, 1
  10              		.eabi_attribute 30, 2
  11              		.eabi_attribute 34, 1
  12              		.eabi_attribute 18, 4
  13              		.file	"chheap.c"
  14              		.text
  15              	.Ltext0:
  16              		.cfi_sections	.debug_frame
  17              		.section	.text._heap_init,"ax",%progbits
  18              		.align	1
  19              		.p2align 4,,15
  20              		.global	_heap_init
  21              		.syntax unified
  22              		.thumb
  23              		.thumb_func
  24              		.fpu fpv4-sp-d16
  25              		.type	_heap_init, %function
  26              	_heap_init:
  27              	.LFB219:
  28              		.file 1 "../../lib/ChibiOS/os/rt/src/chheap.c"
  29              		.loc 1 91 0
  30              		.cfi_startproc
  31              		@ args = 0, pretend = 0, frame = 0
  32              		@ frame_needed = 0, uses_anonymous_args = 0
  33              		@ link register save eliminated.
  34              		.loc 1 93 0
  35 0000 044B     		ldr	r3, .L3
  36 0002 054A     		ldr	r2, .L3+4
  37 0004 1A60     		str	r2, [r3]
  38              		.loc 1 97 0
  39 0006 03F11000 		add	r0, r3, #16
  40              		.loc 1 94 0
  41 000a 0022     		movs	r2, #0
  42              		.loc 1 95 0
  43 000c C3E90222 		strd	r2, r2, [r3, #8]
  44              		.loc 1 97 0
  45 0010 FFF7FEBF 		b	chMtxObjectInit
  46              	.LVL0:
  47              	.L4:
  48              		.align	2
  49              	.L3:
  50 0014 00000000 		.word	.LANCHOR0
  51 0018 00000000 		.word	chCoreAlloc
  52              		.cfi_endproc
  53              	.LFE219:
  54              		.size	_heap_init, .-_heap_init
  55              		.section	.text.chHeapObjectInit,"ax",%progbits
  56              		.align	1
  57              		.p2align 4,,15
ARM GAS  /var/folders/km/q6jdms0143g2bddz5bhvdfd00000gn/T//ccVOWgQN.s 			page 2


  58              		.global	chHeapObjectInit
  59              		.syntax unified
  60              		.thumb
  61              		.thumb_func
  62              		.fpu fpv4-sp-d16
  63              		.type	chHeapObjectInit, %function
  64              	chHeapObjectInit:
  65              	.LFB220:
  66              		.loc 1 114 0
  67              		.cfi_startproc
  68              		@ args = 0, pretend = 0, frame = 0
  69              		@ frame_needed = 0, uses_anonymous_args = 0
  70              	.LVL1:
  71              		.loc 1 117 0
  72 0000 41EA0203 		orr	r3, r1, r2
  73 0004 5B07     		lsls	r3, r3, #29
  74              		.loc 1 114 0
  75 0006 70B5     		push	{r4, r5, r6, lr}
  76              		.cfi_def_cfa_offset 16
  77              		.cfi_offset 4, -16
  78              		.cfi_offset 5, -12
  79              		.cfi_offset 6, -8
  80              		.cfi_offset 14, -4
  81              		.loc 1 114 0
  82 0008 0C46     		mov	r4, r1
  83              	.LVL2:
  84 000a 1546     		mov	r5, r2
  85 000c 0646     		mov	r6, r0
  86              		.loc 1 117 0
  87 000e 02D0     		beq	.L6
  88              		.loc 1 117 0 is_stmt 0 discriminator 4
  89 0010 0748     		ldr	r0, .L11
  90              	.LVL3:
  91 0012 FFF7FEFF 		bl	chSysHalt
  92              	.LVL4:
  93              	.L6:
  94              		.loc 1 119 0 is_stmt 1
  95 0016 0023     		movs	r3, #0
  96              		.loc 1 123 0
  97 0018 083D     		subs	r5, r5, #8
  98              	.LVL5:
  99              		.loc 1 120 0
 100 001a B460     		str	r4, [r6, #8]
 101              		.loc 1 119 0
 102 001c 3360     		str	r3, [r6]
 103              		.loc 1 121 0
 104 001e F360     		str	r3, [r6, #12]
 105              		.loc 1 125 0
 106 0020 06F11000 		add	r0, r6, #16
 107              		.loc 1 122 0
 108 0024 C4E90035 		strd	r3, r5, [r4]
 109              		.loc 1 129 0
 110 0028 BDE87040 		pop	{r4, r5, r6, lr}
 111              		.cfi_restore 14
 112              		.cfi_restore 6
 113              		.cfi_restore 5
 114              		.cfi_restore 4
ARM GAS  /var/folders/km/q6jdms0143g2bddz5bhvdfd00000gn/T//ccVOWgQN.s 			page 3


 115              		.cfi_def_cfa_offset 0
 116              	.LVL6:
 117              		.loc 1 125 0
 118 002c FFF7FEBF 		b	chMtxObjectInit
 119              	.LVL7:
 120              	.L12:
 121              		.align	2
 122              	.L11:
 123 0030 00000000 		.word	.LANCHOR1
 124              		.cfi_endproc
 125              	.LFE220:
 126              		.size	chHeapObjectInit, .-chHeapObjectInit
 127              		.section	.text.chHeapAlloc,"ax",%progbits
 128              		.align	1
 129              		.p2align 4,,15
 130              		.global	chHeapAlloc
 131              		.syntax unified
 132              		.thumb
 133              		.thumb_func
 134              		.fpu fpv4-sp-d16
 135              		.type	chHeapAlloc, %function
 136              	chHeapAlloc:
 137              	.LFB221:
 138              		.loc 1 147 0
 139              		.cfi_startproc
 140              		@ args = 0, pretend = 0, frame = 0
 141              		@ frame_needed = 0, uses_anonymous_args = 0
 142              	.LVL8:
 143 0000 F8B5     		push	{r3, r4, r5, r6, r7, lr}
 144              		.cfi_def_cfa_offset 24
 145              		.cfi_offset 3, -24
 146              		.cfi_offset 4, -20
 147              		.cfi_offset 5, -16
 148              		.cfi_offset 6, -12
 149              		.cfi_offset 7, -8
 150              		.cfi_offset 14, -4
 151              		.loc 1 151 0
 152 0002 204E     		ldr	r6, .L29
 153 0004 0028     		cmp	r0, #0
 154 0006 18BF     		it	ne
 155 0008 0646     		movne	r6, r0
 156              	.LVL9:
 157              		.loc 1 157 0
 158 000a 06F11007 		add	r7, r6, #16
 159              		.loc 1 154 0
 160 000e 0731     		adds	r1, r1, #7
 161              	.LVL10:
 162              		.loc 1 157 0
 163 0010 3846     		mov	r0, r7
 164              		.loc 1 154 0
 165 0012 21F00705 		bic	r5, r1, #7
 166              	.LVL11:
 167              		.loc 1 155 0
 168 0016 06F10804 		add	r4, r6, #8
 169              	.LVL12:
 170              		.loc 1 157 0
 171 001a FFF7FEFF 		bl	chMtxLock
ARM GAS  /var/folders/km/q6jdms0143g2bddz5bhvdfd00000gn/T//ccVOWgQN.s 			page 4


 172              	.LVL13:
 173              		.loc 1 158 0
 174 001e 03E0     		b	.L15
 175              	.LVL14:
 176              	.L19:
 177              		.loc 1 160 0
 178 0020 4368     		ldr	r3, [r0, #4]
 179 0022 AB42     		cmp	r3, r5
 180 0024 12D2     		bcs	.L28
 181 0026 0446     		mov	r4, r0
 182              	.LVL15:
 183              	.L15:
 184              		.loc 1 158 0
 185 0028 2068     		ldr	r0, [r4]
 186              	.LVL16:
 187 002a 0028     		cmp	r0, #0
 188 002c F8D1     		bne	.L19
 189              		.loc 1 186 0
 190 002e 3846     		mov	r0, r7
 191              	.LVL17:
 192 0030 FFF7FEFF 		bl	chMtxUnlock
 193              	.LVL18:
 194              		.loc 1 190 0
 195 0034 3368     		ldr	r3, [r6]
 196 0036 13B3     		cbz	r3, .L21
 197              		.loc 1 191 0
 198 0038 05F10800 		add	r0, r5, #8
 199 003c 9847     		blx	r3
 200              	.LVL19:
 201              		.loc 1 192 0
 202 003e F0B1     		cbz	r0, .L21
 203              		.loc 1 194 0
 204 0040 C0E90065 		strd	r6, r5, [r0]
 205              		.loc 1 195 0
 206 0044 00F10804 		add	r4, r0, #8
 207              	.LVL20:
 208              	.L13:
 209              		.loc 1 204 0
 210 0048 2046     		mov	r0, r4
 211 004a F8BD     		pop	{r3, r4, r5, r6, r7, pc}
 212              	.LVL21:
 213              	.L28:
 214              		.loc 1 161 0
 215 004c 05F10802 		add	r2, r5, #8
 216 0050 9342     		cmp	r3, r2
 217 0052 0168     		ldr	r1, [r0]
 218 0054 08D2     		bcs	.L16
 219              		.loc 1 165 0
 220 0056 2160     		str	r1, [r4]
 221              	.L17:
 222              		.loc 1 177 0
 223 0058 0446     		mov	r4, r0
 224              	.LVL22:
 225              		.loc 1 178 0
 226 005a 3846     		mov	r0, r7
 227              	.LVL23:
 228              		.loc 1 177 0
ARM GAS  /var/folders/km/q6jdms0143g2bddz5bhvdfd00000gn/T//ccVOWgQN.s 			page 5


 229 005c 44F8086B 		str	r6, [r4], #8
 230              	.LVL24:
 231              		.loc 1 178 0
 232 0060 FFF7FEFF 		bl	chMtxUnlock
 233              	.LVL25:
 234              		.loc 1 204 0
 235 0064 2046     		mov	r0, r4
 236 0066 F8BD     		pop	{r3, r4, r5, r6, r7, pc}
 237              	.LVL26:
 238              	.L16:
 239              		.loc 1 170 0
 240 0068 00EB020C 		add	ip, r0, r2
 241              	.LVL27:
 242              		.loc 1 173 0
 243 006c 5B1B     		subs	r3, r3, r5
 244 006e 083B     		subs	r3, r3, #8
 245              		.loc 1 172 0
 246 0070 8150     		str	r1, [r0, r2]
 247              		.loc 1 173 0
 248 0072 CCF80430 		str	r3, [ip, #4]
 249              		.loc 1 174 0
 250 0076 C4F800C0 		str	ip, [r4]
 251              		.loc 1 175 0
 252 007a 4560     		str	r5, [r0, #4]
 253 007c ECE7     		b	.L17
 254              	.LVL28:
 255              	.L21:
 256              		.loc 1 203 0
 257 007e 0024     		movs	r4, #0
 258              	.LVL29:
 259 0080 E2E7     		b	.L13
 260              	.L30:
 261 0082 00BF     		.align	2
 262              	.L29:
 263 0084 00000000 		.word	.LANCHOR0
 264              		.cfi_endproc
 265              	.LFE221:
 266              		.size	chHeapAlloc, .-chHeapAlloc
 267              		.section	.text.chHeapFree,"ax",%progbits
 268              		.align	1
 269              		.p2align 4,,15
 270              		.global	chHeapFree
 271              		.syntax unified
 272              		.thumb
 273              		.thumb_func
 274              		.fpu fpv4-sp-d16
 275              		.type	chHeapFree, %function
 276              	chHeapFree:
 277              	.LFB222:
 278              		.loc 1 213 0
 279              		.cfi_startproc
 280              		@ args = 0, pretend = 0, frame = 0
 281              		@ frame_needed = 0, uses_anonymous_args = 0
 282              	.LVL30:
 283 0000 2DE9F843 		push	{r3, r4, r5, r6, r7, r8, r9, lr}
 284              		.cfi_def_cfa_offset 32
 285              		.cfi_offset 3, -32
ARM GAS  /var/folders/km/q6jdms0143g2bddz5bhvdfd00000gn/T//ccVOWgQN.s 			page 6


 286              		.cfi_offset 4, -28
 287              		.cfi_offset 5, -24
 288              		.cfi_offset 6, -20
 289              		.cfi_offset 7, -16
 290              		.cfi_offset 8, -12
 291              		.cfi_offset 9, -8
 292              		.cfi_offset 14, -4
 293              		.loc 1 217 0
 294 0004 8146     		mov	r9, r0
 295 0006 0028     		cmp	r0, #0
 296 0008 51D0     		beq	.L44
 297              	.LVL31:
 298              	.L32:
 299              		.loc 1 222 0
 300 000a 59F8083C 		ldr	r3, [r9, #-8]
 301              		.loc 1 227 0
 302 000e 2A4F     		ldr	r7, .L48
 303              		.loc 1 225 0
 304 0010 03F11006 		add	r6, r3, #16
 305 0014 3046     		mov	r0, r6
 306              		.loc 1 223 0
 307 0016 03F10808 		add	r8, r3, #8
 308              		.loc 1 225 0
 309 001a FFF7FEFF 		bl	chMtxLock
 310              	.LVL32:
 311              		.loc 1 223 0
 312 001e 4446     		mov	r4, r8
 313              		.loc 1 220 0
 314 0020 A9F10805 		sub	r5, r9, #8
 315              	.LVL33:
 316              	.L33:
 317              		.loc 1 227 0 discriminator 1
 318 0024 AC42     		cmp	r4, r5
 319 0026 04D8     		bhi	.L34
 320              		.loc 1 227 0 is_stmt 0 discriminator 2
 321 0028 6368     		ldr	r3, [r4, #4]
 322 002a 0833     		adds	r3, r3, #8
 323 002c 2344     		add	r3, r3, r4
 324 002e 9D42     		cmp	r5, r3
 325 0030 1FD3     		bcc	.L45
 326              	.L34:
 327              		.loc 1 229 0 is_stmt 1
 328 0032 4445     		cmp	r4, r8
 329 0034 2368     		ldr	r3, [r4]
 330 0036 01D0     		beq	.L35
 331              		.loc 1 229 0 is_stmt 0 discriminator 2
 332 0038 AC42     		cmp	r4, r5
 333 003a 02D2     		bcs	.L36
 334              	.L35:
 335              		.loc 1 229 0 discriminator 3
 336 003c 1BB1     		cbz	r3, .L37
 337              		.loc 1 230 0 is_stmt 1
 338 003e 9D42     		cmp	r5, r3
 339 0040 01D3     		bcc	.L37
 340              	.L36:
 341              		.loc 1 213 0 discriminator 1
 342 0042 1C46     		mov	r4, r3
ARM GAS  /var/folders/km/q6jdms0143g2bddz5bhvdfd00000gn/T//ccVOWgQN.s 			page 7


 343              	.LVL34:
 344 0044 EEE7     		b	.L33
 345              	.LVL35:
 346              	.L37:
 347              		.loc 1 232 0
 348 0046 49F8083C 		str	r3, [r9, #-8]
 349              		.loc 1 235 0
 350 004a 59F8043C 		ldr	r3, [r9, #-4]
 351              		.loc 1 233 0
 352 004e 2560     		str	r5, [r4]
 353              		.loc 1 235 0
 354 0050 59F8081C 		ldr	r1, [r9, #-8]
 355 0054 09EB0302 		add	r2, r9, r3
 356 0058 8A42     		cmp	r2, r1
 357 005a 0ED0     		beq	.L46
 358              		.loc 1 240 0
 359 005c 6268     		ldr	r2, [r4, #4]
 360 005e 02F10803 		add	r3, r2, #8
 361 0062 2344     		add	r3, r3, r4
 362 0064 9D42     		cmp	r5, r3
 363 0066 17D0     		beq	.L47
 364              	.L39:
 365              		.loc 1 249 0
 366 0068 3046     		mov	r0, r6
 367              		.loc 1 252 0
 368 006a BDE8F843 		pop	{r3, r4, r5, r6, r7, r8, r9, lr}
 369              		.cfi_remember_state
 370              		.cfi_restore 14
 371              		.cfi_restore 9
 372              		.cfi_restore 8
 373              		.cfi_restore 7
 374              		.cfi_restore 6
 375              		.cfi_restore 5
 376              		.cfi_restore 4
 377              		.cfi_restore 3
 378              		.cfi_def_cfa_offset 0
 379              	.LVL36:
 380              		.loc 1 249 0
 381 006e FFF7FEBF 		b	chMtxUnlock
 382              	.LVL37:
 383              	.L45:
 384              		.cfi_restore_state
 385              		.loc 1 227 0 discriminator 3
 386 0072 3846     		mov	r0, r7
 387 0074 FFF7FEFF 		bl	chSysHalt
 388              	.LVL38:
 389 0078 DBE7     		b	.L34
 390              	.L46:
 391              		.loc 1 237 0
 392 007a 5268     		ldr	r2, [r2, #4]
 393              		.loc 1 238 0
 394 007c 59F80310 		ldr	r1, [r9, r3]
 395 0080 49F8081C 		str	r1, [r9, #-8]
 396              		.loc 1 237 0
 397 0084 0833     		adds	r3, r3, #8
 398 0086 1344     		add	r3, r3, r2
 399 0088 49F8043C 		str	r3, [r9, #-4]
ARM GAS  /var/folders/km/q6jdms0143g2bddz5bhvdfd00000gn/T//ccVOWgQN.s 			page 8


 400              		.loc 1 240 0
 401 008c 6268     		ldr	r2, [r4, #4]
 402 008e 02F10803 		add	r3, r2, #8
 403 0092 2344     		add	r3, r3, r4
 404 0094 9D42     		cmp	r5, r3
 405 0096 E7D1     		bne	.L39
 406              	.L47:
 407              		.loc 1 243 0
 408 0098 59E90213 		ldrd	r1, r3, [r9, #-8]
 409              		.loc 1 242 0
 410 009c 0833     		adds	r3, r3, #8
 411 009e 1A44     		add	r2, r2, r3
 412              		.loc 1 243 0
 413 00a0 2160     		str	r1, [r4]
 414              		.loc 1 242 0
 415 00a2 6260     		str	r2, [r4, #4]
 416              		.loc 1 249 0
 417 00a4 3046     		mov	r0, r6
 418              		.loc 1 252 0
 419 00a6 BDE8F843 		pop	{r3, r4, r5, r6, r7, r8, r9, lr}
 420              		.cfi_remember_state
 421              		.cfi_restore 14
 422              		.cfi_restore 9
 423              		.cfi_restore 8
 424              		.cfi_restore 7
 425              		.cfi_restore 6
 426              		.cfi_restore 5
 427              		.cfi_restore 4
 428              		.cfi_restore 3
 429              		.cfi_def_cfa_offset 0
 430              	.LVL39:
 431              		.loc 1 249 0
 432 00aa FFF7FEBF 		b	chMtxUnlock
 433              	.LVL40:
 434              	.L44:
 435              		.cfi_restore_state
 436              		.loc 1 217 0 discriminator 2
 437 00ae 0248     		ldr	r0, .L48
 438              	.LVL41:
 439 00b0 FFF7FEFF 		bl	chSysHalt
 440              	.LVL42:
 441 00b4 A9E7     		b	.L32
 442              	.L49:
 443 00b6 00BF     		.align	2
 444              	.L48:
 445 00b8 00000000 		.word	.LANCHOR2
 446              		.cfi_endproc
 447              	.LFE222:
 448              		.size	chHeapFree, .-chHeapFree
 449              		.section	.text.chHeapStatus,"ax",%progbits
 450              		.align	1
 451              		.p2align 4,,15
 452              		.global	chHeapStatus
 453              		.syntax unified
 454              		.thumb
 455              		.thumb_func
 456              		.fpu fpv4-sp-d16
ARM GAS  /var/folders/km/q6jdms0143g2bddz5bhvdfd00000gn/T//ccVOWgQN.s 			page 9


 457              		.type	chHeapStatus, %function
 458              	chHeapStatus:
 459              	.LFB223:
 460              		.loc 1 267 0
 461              		.cfi_startproc
 462              		@ args = 0, pretend = 0, frame = 0
 463              		@ frame_needed = 0, uses_anonymous_args = 0
 464              	.LVL43:
 465 0000 70B5     		push	{r4, r5, r6, lr}
 466              		.cfi_def_cfa_offset 16
 467              		.cfi_offset 4, -16
 468              		.cfi_offset 5, -12
 469              		.cfi_offset 6, -8
 470              		.cfi_offset 14, -4
 471              		.loc 1 272 0
 472 0002 0F4C     		ldr	r4, .L61
 473 0004 0028     		cmp	r0, #0
 474 0006 18BF     		it	ne
 475 0008 0446     		movne	r4, r0
 476              	.LVL44:
 477              		.loc 1 275 0
 478 000a 04F11005 		add	r5, r4, #16
 479 000e 2846     		mov	r0, r5
 480              		.loc 1 267 0
 481 0010 0E46     		mov	r6, r1
 482              		.loc 1 275 0
 483 0012 FFF7FEFF 		bl	chMtxLock
 484              	.LVL45:
 485              		.loc 1 279 0
 486 0016 A368     		ldr	r3, [r4, #8]
 487 0018 73B1     		cbz	r3, .L55
 488              		.loc 1 276 0
 489 001a 0022     		movs	r2, #0
 490              		.loc 1 277 0
 491 001c 1446     		mov	r4, r2
 492              	.LVL46:
 493              	.L53:
 494              		.loc 1 279 0
 495 001e D3E90030 		ldrd	r3, r0, [r3]
 496              		.loc 1 281 0
 497 0022 0134     		adds	r4, r4, #1
 498              	.LVL47:
 499              		.loc 1 280 0
 500 0024 0244     		add	r2, r2, r0
 501              	.LVL48:
 502              		.loc 1 279 0
 503 0026 002B     		cmp	r3, #0
 504 0028 F9D1     		bne	.L53
 505              	.LVL49:
 506              	.L52:
 507              		.loc 1 284 0
 508 002a 06B1     		cbz	r6, .L54
 509              		.loc 1 285 0
 510 002c 3260     		str	r2, [r6]
 511              	.L54:
 512              		.loc 1 287 0
 513 002e 2846     		mov	r0, r5
ARM GAS  /var/folders/km/q6jdms0143g2bddz5bhvdfd00000gn/T//ccVOWgQN.s 			page 10


 514 0030 FFF7FEFF 		bl	chMtxUnlock
 515              	.LVL50:
 516              		.loc 1 290 0
 517 0034 2046     		mov	r0, r4
 518 0036 70BD     		pop	{r4, r5, r6, pc}
 519              	.LVL51:
 520              	.L55:
 521              		.loc 1 276 0
 522 0038 1A46     		mov	r2, r3
 523              		.loc 1 277 0
 524 003a 1C46     		mov	r4, r3
 525              	.LVL52:
 526 003c F5E7     		b	.L52
 527              	.L62:
 528 003e 00BF     		.align	2
 529              	.L61:
 530 0040 00000000 		.word	.LANCHOR0
 531              		.cfi_endproc
 532              	.LFE223:
 533              		.size	chHeapStatus, .-chHeapStatus
 534              		.section	.bss.default_heap,"aw",%nobits
 535              		.align	3
 536              		.set	.LANCHOR0,. + 0
 537              		.type	default_heap, %object
 538              		.size	default_heap, 40
 539              	default_heap:
 540 0000 00000000 		.space	40
 540      00000000 
 540      00000000 
 540      00000000 
 540      00000000 
 541              		.section	.rodata.__func__.7856,"a",%progbits
 542              		.align	2
 543              		.set	.LANCHOR1,. + 0
 544              		.type	__func__.7856, %object
 545              		.size	__func__.7856, 17
 546              	__func__.7856:
 547 0000 63684865 		.ascii	"chHeapObjectInit\000"
 547      61704F62 
 547      6A656374 
 547      496E6974 
 547      00
 548              		.section	.rodata.__func__.7873,"a",%progbits
 549              		.align	2
 550              		.set	.LANCHOR2,. + 0
 551              		.type	__func__.7873, %object
 552              		.size	__func__.7873, 11
 553              	__func__.7873:
 554 0000 63684865 		.ascii	"chHeapFree\000"
 554      61704672 
 554      656500
 555              		.text
 556              	.Letext0:
 557              		.file 2 "/Applications/Eclipse_e-puck2.app/Contents/Eclipse_e-puck2/Tools/gcc-arm-none-eabi-7-2017
 558              		.file 3 "/Applications/Eclipse_e-puck2.app/Contents/Eclipse_e-puck2/Tools/gcc-arm-none-eabi-7-2017
 559              		.file 4 "/Applications/Eclipse_e-puck2.app/Contents/Eclipse_e-puck2/Tools/gcc-arm-none-eabi-7-2017
 560              		.file 5 "../../lib/ChibiOS/os/rt/ports/ARMCMx/compilers/GCC/chtypes.h"
ARM GAS  /var/folders/km/q6jdms0143g2bddz5bhvdfd00000gn/T//ccVOWgQN.s 			page 11


 561              		.file 6 "../../lib/ChibiOS/os/rt/include/chsystypes.h"
 562              		.file 7 "../../lib/ChibiOS/os/rt/include/chschd.h"
 563              		.file 8 "../../lib/ChibiOS/os/ext/CMSIS/include/core_cm4.h"
 564              		.file 9 "../../lib/ChibiOS/os/ext/CMSIS/ST/system_stm32f4xx.h"
 565              		.file 10 "../../lib/ChibiOS/os/rt/ports/ARMCMx/chcore.h"
 566              		.file 11 "../../lib/ChibiOS/os/rt/ports/ARMCMx/chcore_v7m.h"
 567              		.file 12 "../../lib/ChibiOS/os/rt/include/chdebug.h"
 568              		.file 13 "../../lib/ChibiOS/os/rt/include/chtm.h"
 569              		.file 14 "../../lib/ChibiOS/os/rt/include/chstats.h"
 570              		.file 15 "../../lib/ChibiOS/os/rt/include/chsem.h"
 571              		.file 16 "../../lib/ChibiOS/os/rt/include/chmtx.h"
 572              		.file 17 "../../lib/ChibiOS/os/rt/include/chregistry.h"
 573              		.file 18 "../../lib/ChibiOS/os/rt/include/chmemcore.h"
 574              		.file 19 "../../lib/ChibiOS/os/rt/include/chheap.h"
 575              		.file 20 "../../lib/ChibiOS/os/rt/include/chsys.h"