ARM GAS  /var/folders/km/q6jdms0143g2bddz5bhvdfd00000gn/T//ccdVbhBp.s 			page 1


   1              		.cpu cortex-m4
   2              		.eabi_attribute 27, 1
   3              		.eabi_attribute 28, 1
   4              		.eabi_attribute 20, 1
   5              		.eabi_attribute 21, 1
   6              		.eabi_attribute 23, 3
   7              		.eabi_attribute 24, 1
   8              		.eabi_attribute 25, 1
   9              		.eabi_attribute 26, 1
  10              		.eabi_attribute 30, 2
  11              		.eabi_attribute 34, 1
  12              		.eabi_attribute 18, 4
  13              		.file	"chmsg.c"
  14              		.text
  15              	.Ltext0:
  16              		.cfi_sections	.debug_frame
  17              		.section	.text.chMsgSend,"ax",%progbits
  18              		.align	1
  19              		.p2align 4,,15
  20              		.global	chMsgSend
  21              		.syntax unified
  22              		.thumb
  23              		.thumb_func
  24              		.fpu fpv4-sp-d16
  25              		.type	chMsgSend, %function
  26              	chMsgSend:
  27              	.LFB219:
  28              		.file 1 "../../lib/ChibiOS/os/rt/src/chmsg.c"
  29              		.loc 1 87 0
  30              		.cfi_startproc
  31              		@ args = 0, pretend = 0, frame = 0
  32              		@ frame_needed = 0, uses_anonymous_args = 0
  33              	.LVL0:
  34 0000 F8B5     		push	{r3, r4, r5, r6, r7, lr}
  35              		.cfi_def_cfa_offset 24
  36              		.cfi_offset 3, -24
  37              		.cfi_offset 4, -20
  38              		.cfi_offset 5, -16
  39              		.cfi_offset 6, -12
  40              		.cfi_offset 7, -8
  41              		.cfi_offset 14, -4
  42              		.loc 1 88 0
  43 0002 1F4E     		ldr	r6, .L10
  44              		.loc 1 87 0
  45 0004 0F46     		mov	r7, r1
  46              		.loc 1 88 0
  47 0006 B469     		ldr	r4, [r6, #24]
  48              	.LVL1:
  49              		.loc 1 90 0
  50 0008 0546     		mov	r5, r0
  51 000a 0028     		cmp	r0, #0
  52 000c 34D0     		beq	.L7
  53              	.LVL2:
  54              	.L2:
  55              	.LBB49:
  56              	.LBB50:
  57              	.LBB51:
ARM GAS  /var/folders/km/q6jdms0143g2bddz5bhvdfd00000gn/T//ccdVbhBp.s 			page 2


  58              	.LBB52:
  59              	.LBB53:
  60              		.file 2 "../../lib/ChibiOS/os/ext/CMSIS/include/core_cmFunc.h"
  61              		.loc 2 546 0
  62 000e 2023     		movs	r3, #32
  63              		.syntax unified
  64              	@ 546 "../../lib/ChibiOS/os/ext/CMSIS/include/core_cmFunc.h" 1
  65 0010 83F31188 		MSR basepri, r3
  66              	@ 0 "" 2
  67              	.LVL3:
  68              		.thumb
  69              		.syntax unified
  70              	.LBE53:
  71              	.LBE52:
  72              	.LBE51:
  73              		.file 3 "../../lib/ChibiOS/os/rt/include/chsys.h"
  74              		.loc 3 349 0
  75 0014 FFF7FEFF 		bl	_stats_start_measure_crit_thd
  76              	.LVL4:
  77              		.loc 3 350 0
  78 0018 FFF7FEFF 		bl	_dbg_check_lock
  79              	.LVL5:
  80              	.LBE50:
  81              	.LBE49:
  82              	.LBB54:
  83              	.LBB55:
  84              		.file 4 "../../lib/ChibiOS/os/rt/include/chschd.h"
  85              		.loc 4 666 0
  86 001c 6B6B     		ldr	r3, [r5, #52]
  87 001e 6360     		str	r3, [r4, #4]
  88              	.LBE55:
  89              	.LBE54:
  90              		.loc 1 94 0
  91 0020 05F13002 		add	r2, r5, #48
  92              		.loc 1 93 0
  93 0024 A763     		str	r7, [r4, #56]
  94              		.loc 1 94 0
  95 0026 A262     		str	r2, [r4, #40]
  96              	.LVL6:
  97              	.LBB58:
  98              	.LBB56:
  99              		.loc 4 665 0
 100 0028 2260     		str	r2, [r4]
 101              		.loc 4 667 0
 102 002a 1C60     		str	r4, [r3]
 103              	.LBE56:
 104              	.LBE58:
 105              		.loc 1 96 0
 106 002c 95F82030 		ldrb	r3, [r5, #32]	@ zero_extendqisi2
 107              	.LBB59:
 108              	.LBB57:
 109              		.loc 4 668 0
 110 0030 6C63     		str	r4, [r5, #52]
 111              	.LVL7:
 112              	.LBE57:
 113              	.LBE59:
 114              		.loc 1 96 0
ARM GAS  /var/folders/km/q6jdms0143g2bddz5bhvdfd00000gn/T//ccdVbhBp.s 			page 3


 115 0032 0E2B     		cmp	r3, #14
 116 0034 1CD0     		beq	.L8
 117              	.L3:
 118              		.loc 1 99 0
 119 0036 0C20     		movs	r0, #12
 120 0038 FFF7FEFF 		bl	chSchGoSleepS
 121              	.LVL8:
 122              		.loc 1 100 0
 123 003c A46A     		ldr	r4, [r4, #40]
 124              	.LVL9:
 125              	.LBB60:
 126              	.LBB61:
 127              		.loc 3 360 0
 128 003e FFF7FEFF 		bl	_dbg_check_unlock
 129              	.LVL10:
 130              		.loc 3 361 0
 131 0042 FFF7FEFF 		bl	_stats_stop_measure_crit_thd
 132              	.LVL11:
 133              		.loc 3 367 0
 134 0046 3368     		ldr	r3, [r6]
 135 0048 B342     		cmp	r3, r6
 136 004a 04D0     		beq	.L4
 137 004c B269     		ldr	r2, [r6, #24]
 138 004e 9B68     		ldr	r3, [r3, #8]
 139 0050 9268     		ldr	r2, [r2, #8]
 140 0052 9A42     		cmp	r2, r3
 141 0054 04D3     		bcc	.L9
 142              	.L4:
 143              	.LVL12:
 144              	.LBB62:
 145              	.LBB63:
 146              	.LBB64:
 147              		.loc 2 546 0
 148 0056 0023     		movs	r3, #0
 149              		.syntax unified
 150              	@ 546 "../../lib/ChibiOS/os/ext/CMSIS/include/core_cmFunc.h" 1
 151 0058 83F31188 		MSR basepri, r3
 152              	@ 0 "" 2
 153              	.LVL13:
 154              		.thumb
 155              		.syntax unified
 156              	.LBE64:
 157              	.LBE63:
 158              	.LBE62:
 159              	.LBE61:
 160              	.LBE60:
 161              		.loc 1 104 0
 162 005c 2046     		mov	r0, r4
 163 005e F8BD     		pop	{r3, r4, r5, r6, r7, pc}
 164              	.LVL14:
 165              	.L9:
 166              	.LBB69:
 167              	.LBB68:
 168              		.loc 3 367 0
 169 0060 0848     		ldr	r0, .L10+4
 170 0062 FFF7FEFF 		bl	chSysHalt
 171              	.LVL15:
ARM GAS  /var/folders/km/q6jdms0143g2bddz5bhvdfd00000gn/T//ccdVbhBp.s 			page 4


 172              	.LBB67:
 173              	.LBB66:
 174              	.LBB65:
 175              		.loc 2 546 0
 176 0066 0023     		movs	r3, #0
 177              		.syntax unified
 178              	@ 546 "../../lib/ChibiOS/os/ext/CMSIS/include/core_cmFunc.h" 1
 179 0068 83F31188 		MSR basepri, r3
 180              	@ 0 "" 2
 181              	.LVL16:
 182              		.thumb
 183              		.syntax unified
 184              	.LBE65:
 185              	.LBE66:
 186              	.LBE67:
 187              	.LBE68:
 188              	.LBE69:
 189              		.loc 1 104 0
 190 006c 2046     		mov	r0, r4
 191 006e F8BD     		pop	{r3, r4, r5, r6, r7, pc}
 192              	.LVL17:
 193              	.L8:
 194              		.loc 1 97 0
 195 0070 2846     		mov	r0, r5
 196 0072 FFF7FEFF 		bl	chSchReadyI
 197              	.LVL18:
 198 0076 DEE7     		b	.L3
 199              	.LVL19:
 200              	.L7:
 201              		.loc 1 90 0 discriminator 2
 202 0078 0348     		ldr	r0, .L10+8
 203              	.LVL20:
 204 007a FFF7FEFF 		bl	chSysHalt
 205              	.LVL21:
 206 007e C6E7     		b	.L2
 207              	.L11:
 208              		.align	2
 209              	.L10:
 210 0080 00000000 		.word	ch
 211 0084 00000000 		.word	.LANCHOR1
 212 0088 00000000 		.word	.LANCHOR0
 213              		.cfi_endproc
 214              	.LFE219:
 215              		.size	chMsgSend, .-chMsgSend
 216              		.section	.text.chMsgWait,"ax",%progbits
 217              		.align	1
 218              		.p2align 4,,15
 219              		.global	chMsgWait
 220              		.syntax unified
 221              		.thumb
 222              		.thumb_func
 223              		.fpu fpv4-sp-d16
 224              		.type	chMsgWait, %function
 225              	chMsgWait:
 226              	.LFB220:
 227              		.loc 1 120 0
 228              		.cfi_startproc
ARM GAS  /var/folders/km/q6jdms0143g2bddz5bhvdfd00000gn/T//ccdVbhBp.s 			page 5


 229              		@ args = 0, pretend = 0, frame = 0
 230              		@ frame_needed = 0, uses_anonymous_args = 0
 231              	.LVL22:
 232 0000 38B5     		push	{r3, r4, r5, lr}
 233              		.cfi_def_cfa_offset 16
 234              		.cfi_offset 3, -16
 235              		.cfi_offset 4, -12
 236              		.cfi_offset 5, -8
 237              		.cfi_offset 14, -4
 238              	.LBB84:
 239              	.LBB85:
 240              	.LBB86:
 241              	.LBB87:
 242              	.LBB88:
 243              		.loc 2 546 0
 244 0002 2023     		movs	r3, #32
 245              		.syntax unified
 246              	@ 546 "../../lib/ChibiOS/os/ext/CMSIS/include/core_cmFunc.h" 1
 247 0004 83F31188 		MSR basepri, r3
 248              	@ 0 "" 2
 249              	.LVL23:
 250              		.thumb
 251              		.syntax unified
 252              	.LBE88:
 253              	.LBE87:
 254              	.LBE86:
 255              	.LBE85:
 256              	.LBE84:
 257              		.loc 1 124 0
 258 0008 184C     		ldr	r4, .L18
 259              	.LBB90:
 260              	.LBB89:
 261              		.loc 3 349 0
 262 000a FFF7FEFF 		bl	_stats_start_measure_crit_thd
 263              	.LVL24:
 264              		.loc 3 350 0
 265 000e FFF7FEFF 		bl	_dbg_check_lock
 266              	.LVL25:
 267              	.LBE89:
 268              	.LBE90:
 269              		.loc 1 124 0
 270 0012 A569     		ldr	r5, [r4, #24]
 271              	.LVL26:
 272              	.LBB91:
 273              	.LBB92:
 274              		.file 5 "../../lib/ChibiOS/os/rt/include/chmsg.h"
 275              		.loc 5 81 0
 276 0014 FFF7FEFF 		bl	chDbgCheckClassI
 277              	.LVL27:
 278              	.LBE92:
 279              	.LBE91:
 280              		.loc 1 124 0
 281 0018 2B6B     		ldr	r3, [r5, #48]
 282              	.LBB94:
 283              	.LBB93:
 284              		.loc 5 83 0
 285 001a 3035     		adds	r5, r5, #48
ARM GAS  /var/folders/km/q6jdms0143g2bddz5bhvdfd00000gn/T//ccdVbhBp.s 			page 6


 286              	.LBE93:
 287              	.LBE94:
 288              		.loc 1 124 0
 289 001c AB42     		cmp	r3, r5
 290 001e 21D0     		beq	.L16
 291              	.L13:
 292              		.loc 1 127 0
 293 0020 A369     		ldr	r3, [r4, #24]
 294              	.LVL28:
 295              	.LBB95:
 296              	.LBB96:
 297              		.loc 4 672 0
 298 0022 1D6B     		ldr	r5, [r3, #48]
 299              	.LVL29:
 300              		.loc 4 674 0
 301 0024 2A68     		ldr	r2, [r5]
 302 0026 43F8302F 		str	r2, [r3, #48]!
 303              	.LVL30:
 304              	.LBE96:
 305              	.LBE95:
 306              		.loc 1 128 0
 307 002a 0D21     		movs	r1, #13
 308              	.LBB98:
 309              	.LBB97:
 310              		.loc 4 675 0
 311 002c 5360     		str	r3, [r2, #4]
 312              	.LVL31:
 313              	.LBE97:
 314              	.LBE98:
 315              		.loc 1 128 0
 316 002e 85F82010 		strb	r1, [r5, #32]
 317              	.LBB99:
 318              	.LBB100:
 319              		.loc 3 360 0
 320 0032 FFF7FEFF 		bl	_dbg_check_unlock
 321              	.LVL32:
 322              		.loc 3 361 0
 323 0036 FFF7FEFF 		bl	_stats_stop_measure_crit_thd
 324              	.LVL33:
 325              		.loc 3 367 0
 326 003a 2368     		ldr	r3, [r4]
 327 003c A342     		cmp	r3, r4
 328 003e 04D0     		beq	.L14
 329 0040 A269     		ldr	r2, [r4, #24]
 330 0042 9B68     		ldr	r3, [r3, #8]
 331 0044 9268     		ldr	r2, [r2, #8]
 332 0046 9A42     		cmp	r2, r3
 333 0048 04D3     		bcc	.L17
 334              	.L14:
 335              	.LVL34:
 336              	.LBB101:
 337              	.LBB102:
 338              	.LBB103:
 339              		.loc 2 546 0
 340 004a 0023     		movs	r3, #0
 341              		.syntax unified
 342              	@ 546 "../../lib/ChibiOS/os/ext/CMSIS/include/core_cmFunc.h" 1
ARM GAS  /var/folders/km/q6jdms0143g2bddz5bhvdfd00000gn/T//ccdVbhBp.s 			page 7


 343 004c 83F31188 		MSR basepri, r3
 344              	@ 0 "" 2
 345              	.LVL35:
 346              		.thumb
 347              		.syntax unified
 348              	.LBE103:
 349              	.LBE102:
 350              	.LBE101:
 351              	.LBE100:
 352              	.LBE99:
 353              		.loc 1 132 0
 354 0050 2846     		mov	r0, r5
 355 0052 38BD     		pop	{r3, r4, r5, pc}
 356              	.L17:
 357              	.LBB108:
 358              	.LBB107:
 359              		.loc 3 367 0
 360 0054 0648     		ldr	r0, .L18+4
 361 0056 FFF7FEFF 		bl	chSysHalt
 362              	.LVL36:
 363              	.LBB106:
 364              	.LBB105:
 365              	.LBB104:
 366              		.loc 2 546 0
 367 005a 0023     		movs	r3, #0
 368              		.syntax unified
 369              	@ 546 "../../lib/ChibiOS/os/ext/CMSIS/include/core_cmFunc.h" 1
 370 005c 83F31188 		MSR basepri, r3
 371              	@ 0 "" 2
 372              	.LVL37:
 373              		.thumb
 374              		.syntax unified
 375              	.LBE104:
 376              	.LBE105:
 377              	.LBE106:
 378              	.LBE107:
 379              	.LBE108:
 380              		.loc 1 132 0
 381 0060 2846     		mov	r0, r5
 382 0062 38BD     		pop	{r3, r4, r5, pc}
 383              	.L16:
 384              		.loc 1 125 0
 385 0064 0E20     		movs	r0, #14
 386 0066 FFF7FEFF 		bl	chSchGoSleepS
 387              	.LVL38:
 388 006a D9E7     		b	.L13
 389              	.L19:
 390              		.align	2
 391              	.L18:
 392 006c 00000000 		.word	ch
 393 0070 00000000 		.word	.LANCHOR1
 394              		.cfi_endproc
 395              	.LFE220:
 396              		.size	chMsgWait, .-chMsgWait
 397              		.section	.text.chMsgRelease,"ax",%progbits
 398              		.align	1
 399              		.p2align 4,,15
ARM GAS  /var/folders/km/q6jdms0143g2bddz5bhvdfd00000gn/T//ccdVbhBp.s 			page 8


 400              		.global	chMsgRelease
 401              		.syntax unified
 402              		.thumb
 403              		.thumb_func
 404              		.fpu fpv4-sp-d16
 405              		.type	chMsgRelease, %function
 406              	chMsgRelease:
 407              	.LFB221:
 408              		.loc 1 144 0
 409              		.cfi_startproc
 410              		@ args = 0, pretend = 0, frame = 0
 411              		@ frame_needed = 0, uses_anonymous_args = 0
 412              	.LVL39:
 413 0000 38B5     		push	{r3, r4, r5, lr}
 414              		.cfi_def_cfa_offset 16
 415              		.cfi_offset 3, -16
 416              		.cfi_offset 4, -12
 417              		.cfi_offset 5, -8
 418              		.cfi_offset 14, -4
 419              		.loc 1 144 0
 420 0002 0446     		mov	r4, r0
 421 0004 0D46     		mov	r5, r1
 422              	.LBB121:
 423              	.LBB122:
 424              	.LBB123:
 425              	.LBB124:
 426              	.LBB125:
 427              		.loc 2 546 0
 428 0006 2023     		movs	r3, #32
 429              		.syntax unified
 430              	@ 546 "../../lib/ChibiOS/os/ext/CMSIS/include/core_cmFunc.h" 1
 431 0008 83F31188 		MSR basepri, r3
 432              	@ 0 "" 2
 433              	.LVL40:
 434              		.thumb
 435              		.syntax unified
 436              	.LBE125:
 437              	.LBE124:
 438              	.LBE123:
 439              		.loc 3 349 0
 440 000c FFF7FEFF 		bl	_stats_start_measure_crit_thd
 441              	.LVL41:
 442              		.loc 3 350 0
 443 0010 FFF7FEFF 		bl	_dbg_check_lock
 444              	.LVL42:
 445              	.LBE122:
 446              	.LBE121:
 447              		.loc 1 147 0
 448 0014 94F82030 		ldrb	r3, [r4, #32]	@ zero_extendqisi2
 449 0018 0D2B     		cmp	r3, #13
 450 001a 02D0     		beq	.L21
 451              		.loc 1 147 0 is_stmt 0 discriminator 2
 452 001c 1048     		ldr	r0, .L28
 453 001e FFF7FEFF 		bl	chSysHalt
 454              	.LVL43:
 455              	.L21:
 456              	.LBB126:
ARM GAS  /var/folders/km/q6jdms0143g2bddz5bhvdfd00000gn/T//ccdVbhBp.s 			page 9


 457              	.LBB127:
 458              		.loc 5 113 0 is_stmt 1
 459 0022 FFF7FEFF 		bl	chDbgCheckClassS
 460              	.LVL44:
 461              		.loc 5 115 0
 462 0026 2946     		mov	r1, r5
 463 0028 2046     		mov	r0, r4
 464 002a FFF7FEFF 		bl	chSchWakeupS
 465              	.LVL45:
 466              	.LBE127:
 467              	.LBE126:
 468              	.LBB128:
 469              	.LBB129:
 470              		.loc 3 360 0
 471 002e FFF7FEFF 		bl	_dbg_check_unlock
 472              	.LVL46:
 473              		.loc 3 361 0
 474 0032 FFF7FEFF 		bl	_stats_stop_measure_crit_thd
 475              	.LVL47:
 476              		.loc 3 367 0
 477 0036 0B4B     		ldr	r3, .L28+4
 478 0038 1A68     		ldr	r2, [r3]
 479 003a 9A42     		cmp	r2, r3
 480 003c 04D0     		beq	.L22
 481 003e 9969     		ldr	r1, [r3, #24]
 482 0040 9368     		ldr	r3, [r2, #8]
 483 0042 8A68     		ldr	r2, [r1, #8]
 484 0044 9A42     		cmp	r2, r3
 485 0046 03D3     		bcc	.L27
 486              	.L22:
 487              	.LVL48:
 488              	.LBB130:
 489              	.LBB131:
 490              	.LBB132:
 491              		.loc 2 546 0
 492 0048 0023     		movs	r3, #0
 493              		.syntax unified
 494              	@ 546 "../../lib/ChibiOS/os/ext/CMSIS/include/core_cmFunc.h" 1
 495 004a 83F31188 		MSR basepri, r3
 496              	@ 0 "" 2
 497              	.LVL49:
 498              		.thumb
 499              		.syntax unified
 500              	.LBE132:
 501              	.LBE131:
 502              	.LBE130:
 503              	.LBE129:
 504              	.LBE128:
 505              		.loc 1 150 0
 506 004e 38BD     		pop	{r3, r4, r5, pc}
 507              	.LVL50:
 508              	.L27:
 509              	.LBB137:
 510              	.LBB136:
 511              		.loc 3 367 0
 512 0050 0548     		ldr	r0, .L28+8
 513 0052 FFF7FEFF 		bl	chSysHalt
ARM GAS  /var/folders/km/q6jdms0143g2bddz5bhvdfd00000gn/T//ccdVbhBp.s 			page 10


 514              	.LVL51:
 515              	.LBB135:
 516              	.LBB134:
 517              	.LBB133:
 518              		.loc 2 546 0
 519 0056 0023     		movs	r3, #0
 520              		.syntax unified
 521              	@ 546 "../../lib/ChibiOS/os/ext/CMSIS/include/core_cmFunc.h" 1
 522 0058 83F31188 		MSR basepri, r3
 523              	@ 0 "" 2
 524              	.LVL52:
 525              		.thumb
 526              		.syntax unified
 527              	.LBE133:
 528              	.LBE134:
 529              	.LBE135:
 530              	.LBE136:
 531              	.LBE137:
 532              		.loc 1 150 0
 533 005c 38BD     		pop	{r3, r4, r5, pc}
 534              	.LVL53:
 535              	.L29:
 536 005e 00BF     		.align	2
 537              	.L28:
 538 0060 00000000 		.word	.LANCHOR2
 539 0064 00000000 		.word	ch
 540 0068 00000000 		.word	.LANCHOR1
 541              		.cfi_endproc
 542              	.LFE221:
 543              		.size	chMsgRelease, .-chMsgRelease
 544              		.section	.rodata.__func__.7153,"a",%progbits
 545              		.align	2
 546              		.set	.LANCHOR1,. + 0
 547              		.type	__func__.7153, %object
 548              		.size	__func__.7153, 12
 549              	__func__.7153:
 550 0000 63685379 		.ascii	"chSysUnlock\000"
 550      73556E6C 
 550      6F636B00 
 551              		.section	.rodata.__func__.7851,"a",%progbits
 552              		.align	2
 553              		.set	.LANCHOR0,. + 0
 554              		.type	__func__.7851, %object
 555              		.size	__func__.7851, 10
 556              	__func__.7851:
 557 0000 63684D73 		.ascii	"chMsgSend\000"
 557      6753656E 
 557      6400
 558              		.section	.rodata.__func__.7860,"a",%progbits
 559              		.align	2
 560              		.set	.LANCHOR2,. + 0
 561              		.type	__func__.7860, %object
 562              		.size	__func__.7860, 13
 563              	__func__.7860:
 564 0000 63684D73 		.ascii	"chMsgRelease\000"
 564      6752656C 
 564      65617365 
ARM GAS  /var/folders/km/q6jdms0143g2bddz5bhvdfd00000gn/T//ccdVbhBp.s 			page 11


 564      00
 565              		.text
 566              	.Letext0:
 567              		.file 6 "/Applications/Eclipse_e-puck2.app/Contents/Eclipse_e-puck2/Tools/gcc-arm-none-eabi-7-2017
 568              		.file 7 "/Applications/Eclipse_e-puck2.app/Contents/Eclipse_e-puck2/Tools/gcc-arm-none-eabi-7-2017
 569              		.file 8 "../../lib/ChibiOS/os/rt/ports/ARMCMx/compilers/GCC/chtypes.h"
 570              		.file 9 "../../lib/ChibiOS/os/rt/include/chsystypes.h"
 571              		.file 10 "../../lib/ChibiOS/os/ext/CMSIS/include/core_cm4.h"
 572              		.file 11 "../../lib/ChibiOS/os/ext/CMSIS/ST/system_stm32f4xx.h"
 573              		.file 12 "../../lib/ChibiOS/os/rt/ports/ARMCMx/chcore.h"
 574              		.file 13 "../../lib/ChibiOS/os/rt/ports/ARMCMx/chcore_v7m.h"
 575              		.file 14 "../../lib/ChibiOS/os/rt/include/chdebug.h"
 576              		.file 15 "../../lib/ChibiOS/os/rt/include/chtm.h"
 577              		.file 16 "../../lib/ChibiOS/os/rt/include/chstats.h"
 578              		.file 17 "../../lib/ChibiOS/os/rt/include/chsem.h"
 579              		.file 18 "../../lib/ChibiOS/os/rt/include/chmtx.h"
 580              		.file 19 "../../lib/ChibiOS/os/rt/include/chregistry.h"
 581              		.section	.debug_info,"",%progbits
 582              	.Ldebug_info0:
 583 0000 AE0F0000 		.4byte	0xfae
 584 0004 0400     		.2byte	0x4
 585 0006 00000000 		.4byte	.Ldebug_abbrev0
 586 000a 04       		.byte	0x4
 587 000b 01       		.uleb128 0x1
 588 000c BA020000 		.4byte	.LASF180
 589 0010 0C       		.byte	0xc
 590 0011 7E080000 		.4byte	.LASF181
 591 0015 67040000 		.4byte	.LASF182
 592 0019 F8000000 		.4byte	.Ldebug_ranges0+0xf8
 593 001d 00000000 		.4byte	0
 594 0021 00000000 		.4byte	.Ldebug_line0
 595 0025 02       		.uleb128 0x2
 596 0026 04       		.byte	0x4
 597 0027 05       		.byte	0x5
 598 0028 696E7400 		.ascii	"int\000"
 599 002c 03       		.uleb128 0x3
 600 002d 04       		.byte	0x4
 601 002e 07       		.byte	0x7
 602 002f 7E020000 		.4byte	.LASF0
 603 0033 03       		.uleb128 0x3
 604 0034 08       		.byte	0x8
 605 0035 05       		.byte	0x5
 606 0036 4C010000 		.4byte	.LASF1
 607 003a 03       		.uleb128 0x3
 608 003b 08       		.byte	0x8
 609 003c 04       		.byte	0x4
 610 003d 9B050000 		.4byte	.LASF2
 611 0041 03       		.uleb128 0x3
 612 0042 01       		.byte	0x1
 613 0043 06       		.byte	0x6
 614 0044 5A010000 		.4byte	.LASF3
 615 0048 04       		.uleb128 0x4
 616 0049 4A000000 		.4byte	.LASF6
 617 004d 06       		.byte	0x6
 618 004e 2B       		.byte	0x2b
 619 004f 53000000 		.4byte	0x53
 620 0053 03       		.uleb128 0x3
ARM GAS  /var/folders/km/q6jdms0143g2bddz5bhvdfd00000gn/T//ccdVbhBp.s 			page 12


 621 0054 01       		.byte	0x1
 622 0055 08       		.byte	0x8
 623 0056 7C060000 		.4byte	.LASF4
 624 005a 03       		.uleb128 0x3
 625 005b 02       		.byte	0x2
 626 005c 05       		.byte	0x5
 627 005d 94060000 		.4byte	.LASF5
 628 0061 04       		.uleb128 0x4
 629 0062 B2070000 		.4byte	.LASF7
 630 0066 06       		.byte	0x6
 631 0067 39       		.byte	0x39
 632 0068 6C000000 		.4byte	0x6c
 633 006c 03       		.uleb128 0x3
 634 006d 02       		.byte	0x2
 635 006e 07       		.byte	0x7
 636 006f F3030000 		.4byte	.LASF8
 637 0073 04       		.uleb128 0x4
 638 0074 0D050000 		.4byte	.LASF9
 639 0078 06       		.byte	0x6
 640 0079 4D       		.byte	0x4d
 641 007a 7E000000 		.4byte	0x7e
 642 007e 03       		.uleb128 0x3
 643 007f 04       		.byte	0x4
 644 0080 05       		.byte	0x5
 645 0081 BA010000 		.4byte	.LASF10
 646 0085 04       		.uleb128 0x4
 647 0086 FB070000 		.4byte	.LASF11
 648 008a 06       		.byte	0x6
 649 008b 4F       		.byte	0x4f
 650 008c 90000000 		.4byte	0x90
 651 0090 03       		.uleb128 0x3
 652 0091 04       		.byte	0x4
 653 0092 07       		.byte	0x7
 654 0093 94070000 		.4byte	.LASF12
 655 0097 04       		.uleb128 0x4
 656 0098 13060000 		.4byte	.LASF13
 657 009c 06       		.byte	0x6
 658 009d 69       		.byte	0x69
 659 009e A2000000 		.4byte	0xa2
 660 00a2 03       		.uleb128 0x3
 661 00a3 08       		.byte	0x8
 662 00a4 07       		.byte	0x7
 663 00a5 A3000000 		.4byte	.LASF14
 664 00a9 04       		.uleb128 0x4
 665 00aa A2080000 		.4byte	.LASF15
 666 00ae 07       		.byte	0x7
 667 00af 18       		.byte	0x18
 668 00b0 48000000 		.4byte	0x48
 669 00b4 04       		.uleb128 0x4
 670 00b5 93020000 		.4byte	.LASF16
 671 00b9 07       		.byte	0x7
 672 00ba 24       		.byte	0x24
 673 00bb 61000000 		.4byte	0x61
 674 00bf 04       		.uleb128 0x4
 675 00c0 74060000 		.4byte	.LASF17
 676 00c4 07       		.byte	0x7
 677 00c5 2C       		.byte	0x2c
ARM GAS  /var/folders/km/q6jdms0143g2bddz5bhvdfd00000gn/T//ccdVbhBp.s 			page 13


 678 00c6 73000000 		.4byte	0x73
 679 00ca 05       		.uleb128 0x5
 680 00cb BF000000 		.4byte	0xbf
 681 00cf 04       		.uleb128 0x4
 682 00d0 53070000 		.4byte	.LASF18
 683 00d4 07       		.byte	0x7
 684 00d5 30       		.byte	0x30
 685 00d6 85000000 		.4byte	0x85
 686 00da 04       		.uleb128 0x4
 687 00db 34000000 		.4byte	.LASF19
 688 00df 07       		.byte	0x7
 689 00e0 3C       		.byte	0x3c
 690 00e1 97000000 		.4byte	0x97
 691 00e5 04       		.uleb128 0x4
 692 00e6 6C050000 		.4byte	.LASF20
 693 00ea 08       		.byte	0x8
 694 00eb 45       		.byte	0x45
 695 00ec CF000000 		.4byte	0xcf
 696 00f0 04       		.uleb128 0x4
 697 00f1 2F010000 		.4byte	.LASF21
 698 00f5 08       		.byte	0x8
 699 00f6 46       		.byte	0x46
 700 00f7 DA000000 		.4byte	0xda
 701 00fb 04       		.uleb128 0x4
 702 00fc C5060000 		.4byte	.LASF22
 703 0100 08       		.byte	0x8
 704 0101 48       		.byte	0x48
 705 0102 A9000000 		.4byte	0xa9
 706 0106 04       		.uleb128 0x4
 707 0107 CD010000 		.4byte	.LASF23
 708 010b 08       		.byte	0x8
 709 010c 49       		.byte	0x49
 710 010d A9000000 		.4byte	0xa9
 711 0111 04       		.uleb128 0x4
 712 0112 29060000 		.4byte	.LASF24
 713 0116 08       		.byte	0x8
 714 0117 4A       		.byte	0x4a
 715 0118 A9000000 		.4byte	0xa9
 716 011c 04       		.uleb128 0x4
 717 011d A6010000 		.4byte	.LASF25
 718 0121 08       		.byte	0x8
 719 0122 4B       		.byte	0x4b
 720 0123 A9000000 		.4byte	0xa9
 721 0127 04       		.uleb128 0x4
 722 0128 5D060000 		.4byte	.LASF26
 723 012c 08       		.byte	0x8
 724 012d 4C       		.byte	0x4c
 725 012e CF000000 		.4byte	0xcf
 726 0132 04       		.uleb128 0x4
 727 0133 2C040000 		.4byte	.LASF27
 728 0137 08       		.byte	0x8
 729 0138 4D       		.byte	0x4d
 730 0139 BF000000 		.4byte	0xbf
 731 013d 04       		.uleb128 0x4
 732 013e 01050000 		.4byte	.LASF28
 733 0142 08       		.byte	0x8
 734 0143 4F       		.byte	0x4f
ARM GAS  /var/folders/km/q6jdms0143g2bddz5bhvdfd00000gn/T//ccdVbhBp.s 			page 14


 735 0144 CF000000 		.4byte	0xcf
 736 0148 04       		.uleb128 0x4
 737 0149 6D020000 		.4byte	.LASF29
 738 014d 08       		.byte	0x8
 739 014e 51       		.byte	0x51
 740 014f BF000000 		.4byte	0xbf
 741 0153 04       		.uleb128 0x4
 742 0154 37040000 		.4byte	.LASF30
 743 0158 08       		.byte	0x8
 744 0159 52       		.byte	0x52
 745 015a CF000000 		.4byte	0xcf
 746 015e 04       		.uleb128 0x4
 747 015f DD070000 		.4byte	.LASF31
 748 0163 09       		.byte	0x9
 749 0164 33       		.byte	0x33
 750 0165 CF000000 		.4byte	0xcf
 751 0169 05       		.uleb128 0x5
 752 016a 5E010000 		.4byte	0x15e
 753 016e 04       		.uleb128 0x4
 754 016f BD070000 		.4byte	.LASF32
 755 0173 09       		.byte	0x9
 756 0174 3F       		.byte	0x3f
 757 0175 79010000 		.4byte	0x179
 758 0179 06       		.uleb128 0x6
 759 017a 15040000 		.4byte	.LASF56
 760 017e 68       		.byte	0x68
 761 017f 04       		.byte	0x4
 762 0180 C2       		.byte	0xc2
 763 0181 97020000 		.4byte	0x297
 764 0185 07       		.uleb128 0x7
 765 0186 BE060000 		.4byte	.LASF33
 766 018a 04       		.byte	0x4
 767 018b C3       		.byte	0xc3
 768 018c A2020000 		.4byte	0x2a2
 769 0190 00       		.byte	0
 770 0191 07       		.uleb128 0x7
 771 0192 56060000 		.4byte	.LASF34
 772 0196 04       		.byte	0x4
 773 0197 C5       		.byte	0xc5
 774 0198 A2020000 		.4byte	0x2a2
 775 019c 04       		.byte	0x4
 776 019d 07       		.uleb128 0x7
 777 019e 38010000 		.4byte	.LASF35
 778 01a2 04       		.byte	0x4
 779 01a3 C7       		.byte	0xc7
 780 01a4 27010000 		.4byte	0x127
 781 01a8 08       		.byte	0x8
 782 01a9 07       		.uleb128 0x7
 783 01aa E3050000 		.4byte	.LASF36
 784 01ae 04       		.byte	0x4
 785 01af C8       		.byte	0xc8
 786 01b0 1B050000 		.4byte	0x51b
 787 01b4 0C       		.byte	0xc
 788 01b5 07       		.uleb128 0x7
 789 01b6 F6010000 		.4byte	.LASF37
 790 01ba 04       		.byte	0x4
 791 01bb CA       		.byte	0xca
ARM GAS  /var/folders/km/q6jdms0143g2bddz5bhvdfd00000gn/T//ccdVbhBp.s 			page 15


 792 01bc A2020000 		.4byte	0x2a2
 793 01c0 10       		.byte	0x10
 794 01c1 07       		.uleb128 0x7
 795 01c2 D5050000 		.4byte	.LASF38
 796 01c6 04       		.byte	0x4
 797 01c7 CB       		.byte	0xcb
 798 01c8 A2020000 		.4byte	0x2a2
 799 01cc 14       		.byte	0x14
 800 01cd 07       		.uleb128 0x7
 801 01ce E3080000 		.4byte	.LASF39
 802 01d2 04       		.byte	0x4
 803 01d3 D2       		.byte	0xd2
 804 01d4 91080000 		.4byte	0x891
 805 01d8 18       		.byte	0x18
 806 01d9 07       		.uleb128 0x7
 807 01da 73020000 		.4byte	.LASF40
 808 01de 04       		.byte	0x4
 809 01df D8       		.byte	0xd8
 810 01e0 A8080000 		.4byte	0x8a8
 811 01e4 1C       		.byte	0x1c
 812 01e5 07       		.uleb128 0x7
 813 01e6 9E060000 		.4byte	.LASF41
 814 01ea 04       		.byte	0x4
 815 01eb DD       		.byte	0xdd
 816 01ec 06010000 		.4byte	0x106
 817 01f0 20       		.byte	0x20
 818 01f1 07       		.uleb128 0x7
 819 01f2 DC060000 		.4byte	.LASF42
 820 01f6 04       		.byte	0x4
 821 01f7 E1       		.byte	0xe1
 822 01f8 FB000000 		.4byte	0xfb
 823 01fc 21       		.byte	0x21
 824 01fd 07       		.uleb128 0x7
 825 01fe 60080000 		.4byte	.LASF43
 826 0202 04       		.byte	0x4
 827 0203 E6       		.byte	0xe6
 828 0204 11010000 		.4byte	0x111
 829 0208 22       		.byte	0x22
 830 0209 07       		.uleb128 0x7
 831 020a A6060000 		.4byte	.LASF44
 832 020e 04       		.byte	0x4
 833 020f EC       		.byte	0xec
 834 0210 1C010000 		.4byte	0x11c
 835 0214 23       		.byte	0x23
 836 0215 07       		.uleb128 0x7
 837 0216 AC020000 		.4byte	.LASF45
 838 021a 04       		.byte	0x4
 839 021b F3       		.byte	0xf3
 840 021c 69010000 		.4byte	0x169
 841 0220 24       		.byte	0x24
 842 0221 08       		.uleb128 0x8
 843 0222 705F7500 		.ascii	"p_u\000"
 844 0226 04       		.byte	0x4
 845 0227 3101     		.2byte	0x131
 846 0229 C0070000 		.4byte	0x7c0
 847 022d 28       		.byte	0x28
 848 022e 09       		.uleb128 0x9
ARM GAS  /var/folders/km/q6jdms0143g2bddz5bhvdfd00000gn/T//ccdVbhBp.s 			page 16


 849 022f 45050000 		.4byte	.LASF46
 850 0233 04       		.byte	0x4
 851 0234 3601     		.2byte	0x136
 852 0236 A8020000 		.4byte	0x2a8
 853 023a 2C       		.byte	0x2c
 854 023b 09       		.uleb128 0x9
 855 023c D3030000 		.4byte	.LASF47
 856 0240 04       		.byte	0x4
 857 0241 3C01     		.2byte	0x13c
 858 0243 CC020000 		.4byte	0x2cc
 859 0247 30       		.byte	0x30
 860 0248 09       		.uleb128 0x9
 861 0249 2D080000 		.4byte	.LASF48
 862 024d 04       		.byte	0x4
 863 024e 4001     		.2byte	0x140
 864 0250 32010000 		.4byte	0x132
 865 0254 38       		.byte	0x38
 866 0255 09       		.uleb128 0x9
 867 0256 48070000 		.4byte	.LASF49
 868 025a 04       		.byte	0x4
 869 025b 4601     		.2byte	0x146
 870 025d 3D010000 		.4byte	0x13d
 871 0261 3C       		.byte	0x3c
 872 0262 09       		.uleb128 0x9
 873 0263 8A060000 		.4byte	.LASF50
 874 0267 04       		.byte	0x4
 875 0268 4D01     		.2byte	0x14d
 876 026a 8B080000 		.4byte	0x88b
 877 026e 40       		.byte	0x40
 878 026f 09       		.uleb128 0x9
 879 0270 E7070000 		.4byte	.LASF51
 880 0274 04       		.byte	0x4
 881 0275 5101     		.2byte	0x151
 882 0277 27010000 		.4byte	0x127
 883 027b 44       		.byte	0x44
 884 027c 09       		.uleb128 0x9
 885 027d 83010000 		.4byte	.LASF52
 886 0281 04       		.byte	0x4
 887 0282 5801     		.2byte	0x158
 888 0284 7F030000 		.4byte	0x37f
 889 0288 48       		.byte	0x48
 890 0289 09       		.uleb128 0x9
 891 028a ED060000 		.4byte	.LASF53
 892 028e 04       		.byte	0x4
 893 028f 5E01     		.2byte	0x15e
 894 0291 71070000 		.4byte	0x771
 895 0295 50       		.byte	0x50
 896 0296 00       		.byte	0
 897 0297 04       		.uleb128 0x4
 898 0298 BC080000 		.4byte	.LASF54
 899 029c 09       		.byte	0x9
 900 029d 44       		.byte	0x44
 901 029e A2020000 		.4byte	0x2a2
 902 02a2 0A       		.uleb128 0xa
 903 02a3 04       		.byte	0x4
 904 02a4 6E010000 		.4byte	0x16e
 905 02a8 04       		.uleb128 0x4
ARM GAS  /var/folders/km/q6jdms0143g2bddz5bhvdfd00000gn/T//ccdVbhBp.s 			page 17


 906 02a9 22050000 		.4byte	.LASF55
 907 02ad 09       		.byte	0x9
 908 02ae 49       		.byte	0x49
 909 02af B3020000 		.4byte	0x2b3
 910 02b3 06       		.uleb128 0x6
 911 02b4 7C070000 		.4byte	.LASF57
 912 02b8 04       		.byte	0x4
 913 02b9 04       		.byte	0x4
 914 02ba B0       		.byte	0xb0
 915 02bb CC020000 		.4byte	0x2cc
 916 02bf 07       		.uleb128 0x7
 917 02c0 BE060000 		.4byte	.LASF33
 918 02c4 04       		.byte	0x4
 919 02c5 B1       		.byte	0xb1
 920 02c6 A2020000 		.4byte	0x2a2
 921 02ca 00       		.byte	0
 922 02cb 00       		.byte	0
 923 02cc 04       		.uleb128 0x4
 924 02cd FF060000 		.4byte	.LASF58
 925 02d1 09       		.byte	0x9
 926 02d2 50       		.byte	0x50
 927 02d3 D7020000 		.4byte	0x2d7
 928 02d7 06       		.uleb128 0x6
 929 02d8 60000000 		.4byte	.LASF59
 930 02dc 08       		.byte	0x8
 931 02dd 04       		.byte	0x4
 932 02de B7       		.byte	0xb7
 933 02df FC020000 		.4byte	0x2fc
 934 02e3 07       		.uleb128 0x7
 935 02e4 BE060000 		.4byte	.LASF33
 936 02e8 04       		.byte	0x4
 937 02e9 B8       		.byte	0xb8
 938 02ea A2020000 		.4byte	0x2a2
 939 02ee 00       		.byte	0
 940 02ef 07       		.uleb128 0x7
 941 02f0 56060000 		.4byte	.LASF34
 942 02f4 04       		.byte	0x4
 943 02f5 B9       		.byte	0xb9
 944 02f6 A2020000 		.4byte	0x2a2
 945 02fa 04       		.byte	0x4
 946 02fb 00       		.byte	0
 947 02fc 04       		.uleb128 0x4
 948 02fd 0D000000 		.4byte	.LASF60
 949 0301 09       		.byte	0x9
 950 0302 57       		.byte	0x57
 951 0303 07030000 		.4byte	0x307
 952 0307 0B       		.uleb128 0xb
 953 0308 F3040000 		.4byte	.LASF61
 954 030c 1C       		.byte	0x1c
 955 030d 04       		.byte	0x4
 956 030e 9001     		.2byte	0x190
 957 0310 63030000 		.4byte	0x363
 958 0314 09       		.uleb128 0x9
 959 0315 68070000 		.4byte	.LASF62
 960 0319 04       		.byte	0x4
 961 031a 9101     		.2byte	0x191
 962 031c CC020000 		.4byte	0x2cc
ARM GAS  /var/folders/km/q6jdms0143g2bddz5bhvdfd00000gn/T//ccdVbhBp.s 			page 18


 963 0320 00       		.byte	0
 964 0321 09       		.uleb128 0x9
 965 0322 B0060000 		.4byte	.LASF63
 966 0326 04       		.byte	0x4
 967 0327 9201     		.2byte	0x192
 968 0329 27010000 		.4byte	0x127
 969 032d 08       		.byte	0x8
 970 032e 09       		.uleb128 0x9
 971 032f DD050000 		.4byte	.LASF64
 972 0333 04       		.byte	0x4
 973 0334 9401     		.2byte	0x194
 974 0336 1B050000 		.4byte	0x51b
 975 033a 0C       		.byte	0xc
 976 033b 09       		.uleb128 0x9
 977 033c 0E020000 		.4byte	.LASF65
 978 0340 04       		.byte	0x4
 979 0341 9701     		.2byte	0x197
 980 0343 A2020000 		.4byte	0x2a2
 981 0347 10       		.byte	0x10
 982 0348 09       		.uleb128 0x9
 983 0349 0B060000 		.4byte	.LASF66
 984 034d 04       		.byte	0x4
 985 034e 9801     		.2byte	0x198
 986 0350 A2020000 		.4byte	0x2a2
 987 0354 14       		.byte	0x14
 988 0355 09       		.uleb128 0x9
 989 0356 01060000 		.4byte	.LASF67
 990 035a 04       		.byte	0x4
 991 035b 9B01     		.2byte	0x19b
 992 035d A2020000 		.4byte	0x2a2
 993 0361 18       		.byte	0x18
 994 0362 00       		.byte	0
 995 0363 04       		.uleb128 0x4
 996 0364 F2070000 		.4byte	.LASF68
 997 0368 09       		.byte	0x9
 998 0369 5C       		.byte	0x5c
 999 036a 6E030000 		.4byte	0x36e
 1000 036e 0A       		.uleb128 0xa
 1001 036f 04       		.byte	0x4
 1002 0370 74030000 		.4byte	0x374
 1003 0374 0C       		.uleb128 0xc
 1004 0375 7F030000 		.4byte	0x37f
 1005 0379 0D       		.uleb128 0xd
 1006 037a 7F030000 		.4byte	0x37f
 1007 037e 00       		.byte	0
 1008 037f 0E       		.uleb128 0xe
 1009 0380 04       		.byte	0x4
 1010 0381 04       		.uleb128 0x4
 1011 0382 46060000 		.4byte	.LASF69
 1012 0386 09       		.byte	0x9
 1013 0387 61       		.byte	0x61
 1014 0388 8C030000 		.4byte	0x38c
 1015 038c 0B       		.uleb128 0xb
 1016 038d 0F070000 		.4byte	.LASF70
 1017 0391 14       		.byte	0x14
 1018 0392 04       		.byte	0x4
 1019 0393 6B01     		.2byte	0x16b
ARM GAS  /var/folders/km/q6jdms0143g2bddz5bhvdfd00000gn/T//ccdVbhBp.s 			page 19


 1020 0395 DB030000 		.4byte	0x3db
 1021 0399 09       		.uleb128 0x9
 1022 039a 8B020000 		.4byte	.LASF71
 1023 039e 04       		.byte	0x4
 1024 039f 6C01     		.2byte	0x16c
 1025 03a1 AE080000 		.4byte	0x8ae
 1026 03a5 00       		.byte	0
 1027 03a6 09       		.uleb128 0x9
 1028 03a7 1F020000 		.4byte	.LASF72
 1029 03ab 04       		.byte	0x4
 1030 03ac 6D01     		.2byte	0x16d
 1031 03ae AE080000 		.4byte	0x8ae
 1032 03b2 04       		.byte	0x4
 1033 03b3 09       		.uleb128 0x9
 1034 03b4 02090000 		.4byte	.LASF73
 1035 03b8 04       		.byte	0x4
 1036 03b9 6E01     		.2byte	0x16e
 1037 03bb 5E010000 		.4byte	0x15e
 1038 03bf 08       		.byte	0x8
 1039 03c0 09       		.uleb128 0x9
 1040 03c1 5B090000 		.4byte	.LASF74
 1041 03c5 04       		.byte	0x4
 1042 03c6 6F01     		.2byte	0x16f
 1043 03c8 63030000 		.4byte	0x363
 1044 03cc 0C       		.byte	0xc
 1045 03cd 09       		.uleb128 0x9
 1046 03ce 33080000 		.4byte	.LASF75
 1047 03d2 04       		.byte	0x4
 1048 03d3 7101     		.2byte	0x171
 1049 03d5 7F030000 		.4byte	0x37f
 1050 03d9 10       		.byte	0x10
 1051 03da 00       		.byte	0
 1052 03db 04       		.uleb128 0x4
 1053 03dc 0C010000 		.4byte	.LASF76
 1054 03e0 09       		.byte	0x9
 1055 03e1 66       		.byte	0x66
 1056 03e2 E6030000 		.4byte	0x3e6
 1057 03e6 0B       		.uleb128 0xb
 1058 03e7 84050000 		.4byte	.LASF77
 1059 03eb 10       		.byte	0x10
 1060 03ec 04       		.byte	0x4
 1061 03ed 7B01     		.2byte	0x17b
 1062 03ef 28040000 		.4byte	0x428
 1063 03f3 09       		.uleb128 0x9
 1064 03f4 8B020000 		.4byte	.LASF71
 1065 03f8 04       		.byte	0x4
 1066 03f9 7C01     		.2byte	0x17c
 1067 03fb AE080000 		.4byte	0x8ae
 1068 03ff 00       		.byte	0
 1069 0400 09       		.uleb128 0x9
 1070 0401 1F020000 		.4byte	.LASF72
 1071 0405 04       		.byte	0x4
 1072 0406 7E01     		.2byte	0x17e
 1073 0408 AE080000 		.4byte	0x8ae
 1074 040c 04       		.byte	0x4
 1075 040d 09       		.uleb128 0x9
 1076 040e 02090000 		.4byte	.LASF73
ARM GAS  /var/folders/km/q6jdms0143g2bddz5bhvdfd00000gn/T//ccdVbhBp.s 			page 20


 1077 0412 04       		.byte	0x4
 1078 0413 8001     		.2byte	0x180
 1079 0415 5E010000 		.4byte	0x15e
 1080 0419 08       		.byte	0x8
 1081 041a 09       		.uleb128 0x9
 1082 041b EA080000 		.4byte	.LASF78
 1083 041f 04       		.byte	0x4
 1084 0420 8201     		.2byte	0x182
 1085 0422 69010000 		.4byte	0x169
 1086 0426 0C       		.byte	0xc
 1087 0427 00       		.byte	0
 1088 0428 04       		.uleb128 0x4
 1089 0429 71000000 		.4byte	.LASF79
 1090 042d 09       		.byte	0x9
 1091 042e 6B       		.byte	0x6b
 1092 042f 33040000 		.4byte	0x433
 1093 0433 0F       		.uleb128 0xf
 1094 0434 31020000 		.4byte	.LASF80
 1095 0438 1404     		.2byte	0x414
 1096 043a 04       		.byte	0x4
 1097 043b A201     		.2byte	0x1a2
 1098 043d 76040000 		.4byte	0x476
 1099 0441 09       		.uleb128 0x9
 1100 0442 14080000 		.4byte	.LASF81
 1101 0446 04       		.byte	0x4
 1102 0447 AA01     		.2byte	0x1aa
 1103 0449 97080000 		.4byte	0x897
 1104 044d 00       		.byte	0
 1105 044e 09       		.uleb128 0x9
 1106 044f 67080000 		.4byte	.LASF82
 1107 0453 04       		.byte	0x4
 1108 0454 AF01     		.2byte	0x1af
 1109 0456 48010000 		.4byte	0x148
 1110 045a 04       		.byte	0x4
 1111 045b 09       		.uleb128 0x9
 1112 045c 55020000 		.4byte	.LASF83
 1113 0460 04       		.byte	0x4
 1114 0461 B301     		.2byte	0x1b3
 1115 0463 48010000 		.4byte	0x148
 1116 0467 08       		.byte	0x8
 1117 0468 09       		.uleb128 0x9
 1118 0469 F5080000 		.4byte	.LASF84
 1119 046d 04       		.byte	0x4
 1120 046e B901     		.2byte	0x1b9
 1121 0470 03070000 		.4byte	0x703
 1122 0474 0C       		.byte	0xc
 1123 0475 00       		.byte	0
 1124 0476 04       		.uleb128 0x4
 1125 0477 4F040000 		.4byte	.LASF85
 1126 047b 09       		.byte	0x9
 1127 047c 70       		.byte	0x70
 1128 047d 81040000 		.4byte	0x481
 1129 0481 0F       		.uleb128 0xf
 1130 0482 B0010000 		.4byte	.LASF86
 1131 0486 7006     		.2byte	0x670
 1132 0488 04       		.byte	0x4
 1133 0489 C201     		.2byte	0x1c2
ARM GAS  /var/folders/km/q6jdms0143g2bddz5bhvdfd00000gn/T//ccdVbhBp.s 			page 21


 1134 048b EE040000 		.4byte	0x4ee
 1135 048f 09       		.uleb128 0x9
 1136 0490 78080000 		.4byte	.LASF87
 1137 0494 04       		.byte	0x4
 1138 0495 C601     		.2byte	0x1c6
 1139 0497 FC020000 		.4byte	0x2fc
 1140 049b 00       		.byte	0
 1141 049c 09       		.uleb128 0x9
 1142 049d 93010000 		.4byte	.LASF88
 1143 04a1 04       		.byte	0x4
 1144 04a2 CA01     		.2byte	0x1ca
 1145 04a4 DB030000 		.4byte	0x3db
 1146 04a8 1C       		.byte	0x1c
 1147 04a9 08       		.uleb128 0x8
 1148 04aa 64626700 		.ascii	"dbg\000"
 1149 04ae 04       		.byte	0x4
 1150 04af CE01     		.2byte	0x1ce
 1151 04b1 28040000 		.4byte	0x428
 1152 04b5 2C       		.byte	0x2c
 1153 04b6 10       		.uleb128 0x10
 1154 04b7 E3000000 		.4byte	.LASF89
 1155 04bb 04       		.byte	0x4
 1156 04bc D201     		.2byte	0x1d2
 1157 04be 6E010000 		.4byte	0x16e
 1158 04c2 4004     		.2byte	0x440
 1159 04c4 11       		.uleb128 0x11
 1160 04c5 746D00   		.ascii	"tm\000"
 1161 04c8 04       		.byte	0x4
 1162 04c9 D701     		.2byte	0x1d7
 1163 04cb 23070000 		.4byte	0x723
 1164 04cf A804     		.2byte	0x4a8
 1165 04d1 10       		.uleb128 0x10
 1166 04d2 3D000000 		.4byte	.LASF90
 1167 04d6 04       		.byte	0x4
 1168 04d7 DD01     		.2byte	0x1dd
 1169 04d9 B5070000 		.4byte	0x7b5
 1170 04dd B004     		.2byte	0x4b0
 1171 04df 10       		.uleb128 0x10
 1172 04e0 5E020000 		.4byte	.LASF91
 1173 04e4 04       		.byte	0x4
 1174 04e5 E301     		.2byte	0x1e3
 1175 04e7 B4080000 		.4byte	0x8b4
 1176 04eb E804     		.2byte	0x4e8
 1177 04ed 00       		.byte	0
 1178 04ee 12       		.uleb128 0x12
 1179 04ef 22010000 		.4byte	.LASF92
 1180 04f3 0A       		.byte	0xa
 1181 04f4 A706     		.2byte	0x6a7
 1182 04f6 CA000000 		.4byte	0xca
 1183 04fa 13       		.uleb128 0x13
 1184 04fb 9C020000 		.4byte	.LASF93
 1185 04ff 0B       		.byte	0xb
 1186 0500 4C       		.byte	0x4c
 1187 0501 CF000000 		.4byte	0xcf
 1188 0505 04       		.uleb128 0x4
 1189 0506 16020000 		.4byte	.LASF94
 1190 050a 0C       		.byte	0xc
ARM GAS  /var/folders/km/q6jdms0143g2bddz5bhvdfd00000gn/T//ccdVbhBp.s 			page 22


 1191 050b 65       		.byte	0x65
 1192 050c 7F030000 		.4byte	0x37f
 1193 0510 04       		.uleb128 0x4
 1194 0511 17050000 		.4byte	.LASF95
 1195 0515 0C       		.byte	0xc
 1196 0516 6D       		.byte	0x6d
 1197 0517 DA000000 		.4byte	0xda
 1198 051b 06       		.uleb128 0x6
 1199 051c 25080000 		.4byte	.LASF96
 1200 0520 04       		.byte	0x4
 1201 0521 0C       		.byte	0xc
 1202 0522 89       		.byte	0x89
 1203 0523 34050000 		.4byte	0x534
 1204 0527 14       		.uleb128 0x14
 1205 0528 72313300 		.ascii	"r13\000"
 1206 052c 0C       		.byte	0xc
 1207 052d 8A       		.byte	0x8a
 1208 052e 75060000 		.4byte	0x675
 1209 0532 00       		.byte	0
 1210 0533 00       		.byte	0
 1211 0534 06       		.uleb128 0x6
 1212 0535 54000000 		.4byte	.LASF97
 1213 0539 64       		.byte	0x64
 1214 053a 0D       		.byte	0xd
 1215 053b F4       		.byte	0xf4
 1216 053c 75060000 		.4byte	0x675
 1217 0540 14       		.uleb128 0x14
 1218 0541 73313600 		.ascii	"s16\000"
 1219 0545 0D       		.byte	0xd
 1220 0546 F6       		.byte	0xf6
 1221 0547 05050000 		.4byte	0x505
 1222 054b 00       		.byte	0
 1223 054c 14       		.uleb128 0x14
 1224 054d 73313700 		.ascii	"s17\000"
 1225 0551 0D       		.byte	0xd
 1226 0552 F7       		.byte	0xf7
 1227 0553 05050000 		.4byte	0x505
 1228 0557 04       		.byte	0x4
 1229 0558 14       		.uleb128 0x14
 1230 0559 73313800 		.ascii	"s18\000"
 1231 055d 0D       		.byte	0xd
 1232 055e F8       		.byte	0xf8
 1233 055f 05050000 		.4byte	0x505
 1234 0563 08       		.byte	0x8
 1235 0564 14       		.uleb128 0x14
 1236 0565 73313900 		.ascii	"s19\000"
 1237 0569 0D       		.byte	0xd
 1238 056a F9       		.byte	0xf9
 1239 056b 05050000 		.4byte	0x505
 1240 056f 0C       		.byte	0xc
 1241 0570 14       		.uleb128 0x14
 1242 0571 73323000 		.ascii	"s20\000"
 1243 0575 0D       		.byte	0xd
 1244 0576 FA       		.byte	0xfa
 1245 0577 05050000 		.4byte	0x505
 1246 057b 10       		.byte	0x10
 1247 057c 14       		.uleb128 0x14
ARM GAS  /var/folders/km/q6jdms0143g2bddz5bhvdfd00000gn/T//ccdVbhBp.s 			page 23


 1248 057d 73323100 		.ascii	"s21\000"
 1249 0581 0D       		.byte	0xd
 1250 0582 FB       		.byte	0xfb
 1251 0583 05050000 		.4byte	0x505
 1252 0587 14       		.byte	0x14
 1253 0588 14       		.uleb128 0x14
 1254 0589 73323200 		.ascii	"s22\000"
 1255 058d 0D       		.byte	0xd
 1256 058e FC       		.byte	0xfc
 1257 058f 05050000 		.4byte	0x505
 1258 0593 18       		.byte	0x18
 1259 0594 14       		.uleb128 0x14
 1260 0595 73323300 		.ascii	"s23\000"
 1261 0599 0D       		.byte	0xd
 1262 059a FD       		.byte	0xfd
 1263 059b 05050000 		.4byte	0x505
 1264 059f 1C       		.byte	0x1c
 1265 05a0 14       		.uleb128 0x14
 1266 05a1 73323400 		.ascii	"s24\000"
 1267 05a5 0D       		.byte	0xd
 1268 05a6 FE       		.byte	0xfe
 1269 05a7 05050000 		.4byte	0x505
 1270 05ab 20       		.byte	0x20
 1271 05ac 14       		.uleb128 0x14
 1272 05ad 73323500 		.ascii	"s25\000"
 1273 05b1 0D       		.byte	0xd
 1274 05b2 FF       		.byte	0xff
 1275 05b3 05050000 		.4byte	0x505
 1276 05b7 24       		.byte	0x24
 1277 05b8 08       		.uleb128 0x8
 1278 05b9 73323600 		.ascii	"s26\000"
 1279 05bd 0D       		.byte	0xd
 1280 05be 0001     		.2byte	0x100
 1281 05c0 05050000 		.4byte	0x505
 1282 05c4 28       		.byte	0x28
 1283 05c5 08       		.uleb128 0x8
 1284 05c6 73323700 		.ascii	"s27\000"
 1285 05ca 0D       		.byte	0xd
 1286 05cb 0101     		.2byte	0x101
 1287 05cd 05050000 		.4byte	0x505
 1288 05d1 2C       		.byte	0x2c
 1289 05d2 08       		.uleb128 0x8
 1290 05d3 73323800 		.ascii	"s28\000"
 1291 05d7 0D       		.byte	0xd
 1292 05d8 0201     		.2byte	0x102
 1293 05da 05050000 		.4byte	0x505
 1294 05de 30       		.byte	0x30
 1295 05df 08       		.uleb128 0x8
 1296 05e0 73323900 		.ascii	"s29\000"
 1297 05e4 0D       		.byte	0xd
 1298 05e5 0301     		.2byte	0x103
 1299 05e7 05050000 		.4byte	0x505
 1300 05eb 34       		.byte	0x34
 1301 05ec 08       		.uleb128 0x8
 1302 05ed 73333000 		.ascii	"s30\000"
 1303 05f1 0D       		.byte	0xd
 1304 05f2 0401     		.2byte	0x104
ARM GAS  /var/folders/km/q6jdms0143g2bddz5bhvdfd00000gn/T//ccdVbhBp.s 			page 24


 1305 05f4 05050000 		.4byte	0x505
 1306 05f8 38       		.byte	0x38
 1307 05f9 08       		.uleb128 0x8
 1308 05fa 73333100 		.ascii	"s31\000"
 1309 05fe 0D       		.byte	0xd
 1310 05ff 0501     		.2byte	0x105
 1311 0601 05050000 		.4byte	0x505
 1312 0605 3C       		.byte	0x3c
 1313 0606 08       		.uleb128 0x8
 1314 0607 723400   		.ascii	"r4\000"
 1315 060a 0D       		.byte	0xd
 1316 060b 0701     		.2byte	0x107
 1317 060d 05050000 		.4byte	0x505
 1318 0611 40       		.byte	0x40
 1319 0612 08       		.uleb128 0x8
 1320 0613 723500   		.ascii	"r5\000"
 1321 0616 0D       		.byte	0xd
 1322 0617 0801     		.2byte	0x108
 1323 0619 05050000 		.4byte	0x505
 1324 061d 44       		.byte	0x44
 1325 061e 08       		.uleb128 0x8
 1326 061f 723600   		.ascii	"r6\000"
 1327 0622 0D       		.byte	0xd
 1328 0623 0901     		.2byte	0x109
 1329 0625 05050000 		.4byte	0x505
 1330 0629 48       		.byte	0x48
 1331 062a 08       		.uleb128 0x8
 1332 062b 723700   		.ascii	"r7\000"
 1333 062e 0D       		.byte	0xd
 1334 062f 0A01     		.2byte	0x10a
 1335 0631 05050000 		.4byte	0x505
 1336 0635 4C       		.byte	0x4c
 1337 0636 08       		.uleb128 0x8
 1338 0637 723800   		.ascii	"r8\000"
 1339 063a 0D       		.byte	0xd
 1340 063b 0B01     		.2byte	0x10b
 1341 063d 05050000 		.4byte	0x505
 1342 0641 50       		.byte	0x50
 1343 0642 08       		.uleb128 0x8
 1344 0643 723900   		.ascii	"r9\000"
 1345 0646 0D       		.byte	0xd
 1346 0647 0C01     		.2byte	0x10c
 1347 0649 05050000 		.4byte	0x505
 1348 064d 54       		.byte	0x54
 1349 064e 08       		.uleb128 0x8
 1350 064f 72313000 		.ascii	"r10\000"
 1351 0653 0D       		.byte	0xd
 1352 0654 0D01     		.2byte	0x10d
 1353 0656 05050000 		.4byte	0x505
 1354 065a 58       		.byte	0x58
 1355 065b 08       		.uleb128 0x8
 1356 065c 72313100 		.ascii	"r11\000"
 1357 0660 0D       		.byte	0xd
 1358 0661 0E01     		.2byte	0x10e
 1359 0663 05050000 		.4byte	0x505
 1360 0667 5C       		.byte	0x5c
 1361 0668 08       		.uleb128 0x8
ARM GAS  /var/folders/km/q6jdms0143g2bddz5bhvdfd00000gn/T//ccdVbhBp.s 			page 25


 1362 0669 6C7200   		.ascii	"lr\000"
 1363 066c 0D       		.byte	0xd
 1364 066d 0F01     		.2byte	0x10f
 1365 066f 05050000 		.4byte	0x505
 1366 0673 60       		.byte	0x60
 1367 0674 00       		.byte	0
 1368 0675 0A       		.uleb128 0xa
 1369 0676 04       		.byte	0x4
 1370 0677 34050000 		.4byte	0x534
 1371 067b 15       		.uleb128 0x15
 1372 067c 10       		.byte	0x10
 1373 067d 0E       		.byte	0xe
 1374 067e 51       		.byte	0x51
 1375 067f B4060000 		.4byte	0x6b4
 1376 0683 07       		.uleb128 0x7
 1377 0684 44080000 		.4byte	.LASF98
 1378 0688 0E       		.byte	0xe
 1379 0689 55       		.byte	0x55
 1380 068a 5E010000 		.4byte	0x15e
 1381 068e 00       		.byte	0
 1382 068f 07       		.uleb128 0x7
 1383 0690 D6010000 		.4byte	.LASF99
 1384 0694 0E       		.byte	0xe
 1385 0695 59       		.byte	0x59
 1386 0696 A2020000 		.4byte	0x2a2
 1387 069a 04       		.byte	0x4
 1388 069b 07       		.uleb128 0x7
 1389 069c 43090000 		.4byte	.LASF100
 1390 06a0 0E       		.byte	0xe
 1391 06a1 5D       		.byte	0x5d
 1392 06a2 7F030000 		.4byte	0x37f
 1393 06a6 08       		.byte	0x8
 1394 06a7 07       		.uleb128 0x7
 1395 06a8 6F080000 		.4byte	.LASF101
 1396 06ac 0E       		.byte	0xe
 1397 06ad 61       		.byte	0x61
 1398 06ae A9000000 		.4byte	0xa9
 1399 06b2 0C       		.byte	0xc
 1400 06b3 00       		.byte	0
 1401 06b4 04       		.uleb128 0x4
 1402 06b5 BA050000 		.4byte	.LASF102
 1403 06b9 0E       		.byte	0xe
 1404 06ba 62       		.byte	0x62
 1405 06bb 7B060000 		.4byte	0x67b
 1406 06bf 16       		.uleb128 0x16
 1407 06c0 0804     		.2byte	0x408
 1408 06c2 0E       		.byte	0xe
 1409 06c3 67       		.byte	0x67
 1410 06c4 ED060000 		.4byte	0x6ed
 1411 06c8 07       		.uleb128 0x7
 1412 06c9 06020000 		.4byte	.LASF103
 1413 06cd 0E       		.byte	0xe
 1414 06ce 6B       		.byte	0x6b
 1415 06cf 2C000000 		.4byte	0x2c
 1416 06d3 00       		.byte	0
 1417 06d4 07       		.uleb128 0x7
 1418 06d5 B3050000 		.4byte	.LASF104
ARM GAS  /var/folders/km/q6jdms0143g2bddz5bhvdfd00000gn/T//ccdVbhBp.s 			page 26


 1419 06d9 0E       		.byte	0xe
 1420 06da 6F       		.byte	0x6f
 1421 06db ED060000 		.4byte	0x6ed
 1422 06df 04       		.byte	0x4
 1423 06e0 07       		.uleb128 0x7
 1424 06e1 31060000 		.4byte	.LASF105
 1425 06e5 0E       		.byte	0xe
 1426 06e6 73       		.byte	0x73
 1427 06e7 F3060000 		.4byte	0x6f3
 1428 06eb 08       		.byte	0x8
 1429 06ec 00       		.byte	0
 1430 06ed 0A       		.uleb128 0xa
 1431 06ee 04       		.byte	0x4
 1432 06ef B4060000 		.4byte	0x6b4
 1433 06f3 17       		.uleb128 0x17
 1434 06f4 B4060000 		.4byte	0x6b4
 1435 06f8 03070000 		.4byte	0x703
 1436 06fc 18       		.uleb128 0x18
 1437 06fd 2C000000 		.4byte	0x2c
 1438 0701 3F       		.byte	0x3f
 1439 0702 00       		.byte	0
 1440 0703 04       		.uleb128 0x4
 1441 0704 BA000000 		.4byte	.LASF106
 1442 0708 0E       		.byte	0xe
 1443 0709 74       		.byte	0x74
 1444 070a BF060000 		.4byte	0x6bf
 1445 070e 15       		.uleb128 0x15
 1446 070f 04       		.byte	0x4
 1447 0710 0F       		.byte	0xf
 1448 0711 38       		.byte	0x38
 1449 0712 23070000 		.4byte	0x723
 1450 0716 07       		.uleb128 0x7
 1451 0717 1E080000 		.4byte	.LASF107
 1452 071b 0F       		.byte	0xf
 1453 071c 3C       		.byte	0x3c
 1454 071d E5000000 		.4byte	0xe5
 1455 0721 00       		.byte	0
 1456 0722 00       		.byte	0
 1457 0723 04       		.uleb128 0x4
 1458 0724 E9050000 		.4byte	.LASF108
 1459 0728 0F       		.byte	0xf
 1460 0729 3D       		.byte	0x3d
 1461 072a 0E070000 		.4byte	0x70e
 1462 072e 15       		.uleb128 0x15
 1463 072f 18       		.byte	0x18
 1464 0730 0F       		.byte	0xf
 1465 0731 48       		.byte	0x48
 1466 0732 71070000 		.4byte	0x771
 1467 0736 07       		.uleb128 0x7
 1468 0737 C6070000 		.4byte	.LASF109
 1469 073b 0F       		.byte	0xf
 1470 073c 49       		.byte	0x49
 1471 073d E5000000 		.4byte	0xe5
 1472 0741 00       		.byte	0
 1473 0742 07       		.uleb128 0x7
 1474 0743 8A000000 		.4byte	.LASF110
 1475 0747 0F       		.byte	0xf
ARM GAS  /var/folders/km/q6jdms0143g2bddz5bhvdfd00000gn/T//ccdVbhBp.s 			page 27


 1476 0748 4A       		.byte	0x4a
 1477 0749 E5000000 		.4byte	0xe5
 1478 074d 04       		.byte	0x4
 1479 074e 07       		.uleb128 0x7
 1480 074f 32040000 		.4byte	.LASF111
 1481 0753 0F       		.byte	0xf
 1482 0754 4B       		.byte	0x4b
 1483 0755 E5000000 		.4byte	0xe5
 1484 0759 08       		.byte	0x8
 1485 075a 14       		.uleb128 0x14
 1486 075b 6E00     		.ascii	"n\000"
 1487 075d 0F       		.byte	0xf
 1488 075e 4C       		.byte	0x4c
 1489 075f 53010000 		.4byte	0x153
 1490 0763 0C       		.byte	0xc
 1491 0764 07       		.uleb128 0x7
 1492 0765 1E060000 		.4byte	.LASF112
 1493 0769 0F       		.byte	0xf
 1494 076a 4D       		.byte	0x4d
 1495 076b F0000000 		.4byte	0xf0
 1496 076f 10       		.byte	0x10
 1497 0770 00       		.byte	0
 1498 0771 04       		.uleb128 0x4
 1499 0772 90000000 		.4byte	.LASF113
 1500 0776 0F       		.byte	0xf
 1501 0777 4E       		.byte	0x4e
 1502 0778 2E070000 		.4byte	0x72e
 1503 077c 15       		.uleb128 0x15
 1504 077d 38       		.byte	0x38
 1505 077e 10       		.byte	0x10
 1506 077f 38       		.byte	0x38
 1507 0780 B5070000 		.4byte	0x7b5
 1508 0784 07       		.uleb128 0x7
 1509 0785 E7030000 		.4byte	.LASF114
 1510 0789 10       		.byte	0x10
 1511 078a 39       		.byte	0x39
 1512 078b 53010000 		.4byte	0x153
 1513 078f 00       		.byte	0
 1514 0790 07       		.uleb128 0x7
 1515 0791 65060000 		.4byte	.LASF115
 1516 0795 10       		.byte	0x10
 1517 0796 3A       		.byte	0x3a
 1518 0797 53010000 		.4byte	0x153
 1519 079b 04       		.byte	0x4
 1520 079c 07       		.uleb128 0x7
 1521 079d 30090000 		.4byte	.LASF116
 1522 07a1 10       		.byte	0x10
 1523 07a2 3B       		.byte	0x3b
 1524 07a3 71070000 		.4byte	0x771
 1525 07a7 08       		.byte	0x8
 1526 07a8 07       		.uleb128 0x7
 1527 07a9 E8040000 		.4byte	.LASF117
 1528 07ad 10       		.byte	0x10
 1529 07ae 3D       		.byte	0x3d
 1530 07af 71070000 		.4byte	0x771
 1531 07b3 20       		.byte	0x20
 1532 07b4 00       		.byte	0
ARM GAS  /var/folders/km/q6jdms0143g2bddz5bhvdfd00000gn/T//ccdVbhBp.s 			page 28


 1533 07b5 04       		.uleb128 0x4
 1534 07b6 06040000 		.4byte	.LASF118
 1535 07ba 10       		.byte	0x10
 1536 07bb 3F       		.byte	0x3f
 1537 07bc 7C070000 		.4byte	0x77c
 1538 07c0 19       		.uleb128 0x19
 1539 07c1 04       		.byte	0x4
 1540 07c2 04       		.byte	0x4
 1541 07c3 FA       		.byte	0xfa
 1542 07c4 1D080000 		.4byte	0x81d
 1543 07c8 1A       		.uleb128 0x1a
 1544 07c9 2D000000 		.4byte	.LASF119
 1545 07cd 04       		.byte	0x4
 1546 07ce 0101     		.2byte	0x101
 1547 07d0 32010000 		.4byte	0x132
 1548 07d4 1A       		.uleb128 0x1a
 1549 07d5 DA000000 		.4byte	.LASF120
 1550 07d9 04       		.byte	0x4
 1551 07da 0801     		.2byte	0x108
 1552 07dc 32010000 		.4byte	0x132
 1553 07e0 1A       		.uleb128 0x1a
 1554 07e1 CF080000 		.4byte	.LASF121
 1555 07e5 04       		.byte	0x4
 1556 07e6 0F01     		.2byte	0x10f
 1557 07e8 7F030000 		.4byte	0x37f
 1558 07ec 1A       		.uleb128 0x1a
 1559 07ed 27000000 		.4byte	.LASF122
 1560 07f1 04       		.byte	0x4
 1561 07f2 1601     		.2byte	0x116
 1562 07f4 1D080000 		.4byte	0x81d
 1563 07f8 1A       		.uleb128 0x1a
 1564 07f9 B3020000 		.4byte	.LASF123
 1565 07fd 04       		.byte	0x4
 1566 07fe 1E01     		.2byte	0x11e
 1567 0800 48080000 		.4byte	0x848
 1568 0804 1A       		.uleb128 0x1a
 1569 0805 AB070000 		.4byte	.LASF124
 1570 0809 04       		.byte	0x4
 1571 080a 2701     		.2byte	0x127
 1572 080c 8B080000 		.4byte	0x88b
 1573 0810 1A       		.uleb128 0x1a
 1574 0811 B7060000 		.4byte	.LASF125
 1575 0815 04       		.byte	0x4
 1576 0816 2F01     		.2byte	0x12f
 1577 0818 3D010000 		.4byte	0x13d
 1578 081c 00       		.byte	0
 1579 081d 0A       		.uleb128 0xa
 1580 081e 04       		.byte	0x4
 1581 081f 97020000 		.4byte	0x297
 1582 0823 06       		.uleb128 0x6
 1583 0824 2D070000 		.4byte	.LASF126
 1584 0828 0C       		.byte	0xc
 1585 0829 11       		.byte	0x11
 1586 082a 34       		.byte	0x34
 1587 082b 48080000 		.4byte	0x848
 1588 082f 07       		.uleb128 0x7
 1589 0830 FE010000 		.4byte	.LASF127
ARM GAS  /var/folders/km/q6jdms0143g2bddz5bhvdfd00000gn/T//ccdVbhBp.s 			page 29


 1590 0834 11       		.byte	0x11
 1591 0835 35       		.byte	0x35
 1592 0836 CC020000 		.4byte	0x2cc
 1593 083a 00       		.byte	0
 1594 083b 07       		.uleb128 0x7
 1595 083c ED030000 		.4byte	.LASF128
 1596 0840 11       		.byte	0x11
 1597 0841 37       		.byte	0x37
 1598 0842 48010000 		.4byte	0x148
 1599 0846 08       		.byte	0x8
 1600 0847 00       		.byte	0
 1601 0848 0A       		.uleb128 0xa
 1602 0849 04       		.byte	0x4
 1603 084a 23080000 		.4byte	0x823
 1604 084e 06       		.uleb128 0x6
 1605 084f 57080000 		.4byte	.LASF129
 1606 0853 14       		.byte	0x14
 1607 0854 12       		.byte	0x12
 1608 0855 39       		.byte	0x39
 1609 0856 8B080000 		.4byte	0x88b
 1610 085a 07       		.uleb128 0x7
 1611 085b 8B010000 		.4byte	.LASF130
 1612 085f 12       		.byte	0x12
 1613 0860 3A       		.byte	0x3a
 1614 0861 CC020000 		.4byte	0x2cc
 1615 0865 00       		.byte	0
 1616 0866 07       		.uleb128 0x7
 1617 0867 3B090000 		.4byte	.LASF131
 1618 086b 12       		.byte	0x12
 1619 086c 3C       		.byte	0x3c
 1620 086d A2020000 		.4byte	0x2a2
 1621 0871 08       		.byte	0x8
 1622 0872 07       		.uleb128 0x7
 1623 0873 FA050000 		.4byte	.LASF132
 1624 0877 12       		.byte	0x12
 1625 0878 3E       		.byte	0x3e
 1626 0879 E6090000 		.4byte	0x9e6
 1627 087d 0C       		.byte	0xc
 1628 087e 07       		.uleb128 0x7
 1629 087f 41020000 		.4byte	.LASF133
 1630 0883 12       		.byte	0x12
 1631 0884 41       		.byte	0x41
 1632 0885 48010000 		.4byte	0x148
 1633 0889 10       		.byte	0x10
 1634 088a 00       		.byte	0
 1635 088b 0A       		.uleb128 0xa
 1636 088c 04       		.byte	0x4
 1637 088d 4E080000 		.4byte	0x84e
 1638 0891 0A       		.uleb128 0xa
 1639 0892 04       		.byte	0x4
 1640 0893 A3080000 		.4byte	0x8a3
 1641 0897 05       		.uleb128 0x5
 1642 0898 91080000 		.4byte	0x891
 1643 089c 03       		.uleb128 0x3
 1644 089d 01       		.byte	0x1
 1645 089e 08       		.byte	0x8
 1646 089f A6070000 		.4byte	.LASF134
ARM GAS  /var/folders/km/q6jdms0143g2bddz5bhvdfd00000gn/T//ccdVbhBp.s 			page 30


 1647 08a3 1B       		.uleb128 0x1b
 1648 08a4 9C080000 		.4byte	0x89c
 1649 08a8 0A       		.uleb128 0xa
 1650 08a9 04       		.byte	0x4
 1651 08aa 10050000 		.4byte	0x510
 1652 08ae 0A       		.uleb128 0xa
 1653 08af 04       		.byte	0x4
 1654 08b0 81030000 		.4byte	0x381
 1655 08b4 17       		.uleb128 0x17
 1656 08b5 10050000 		.4byte	0x510
 1657 08b9 C4080000 		.4byte	0x8c4
 1658 08bd 18       		.uleb128 0x18
 1659 08be 2C000000 		.4byte	0x2c
 1660 08c2 30       		.byte	0x30
 1661 08c3 00       		.byte	0
 1662 08c4 1C       		.uleb128 0x1c
 1663 08c5 636800   		.ascii	"ch\000"
 1664 08c8 04       		.byte	0x4
 1665 08c9 0902     		.2byte	0x209
 1666 08cb 76040000 		.4byte	0x476
 1667 08cf 15       		.uleb128 0x15
 1668 08d0 16       		.byte	0x16
 1669 08d1 13       		.byte	0x13
 1670 08d2 34       		.byte	0x34
 1671 08d3 B0090000 		.4byte	0x9b0
 1672 08d7 07       		.uleb128 0x7
 1673 08d8 4D090000 		.4byte	.LASF135
 1674 08dc 13       		.byte	0x13
 1675 08dd 35       		.byte	0x35
 1676 08de B0090000 		.4byte	0x9b0
 1677 08e2 00       		.byte	0
 1678 08e3 07       		.uleb128 0x7
 1679 08e4 31050000 		.4byte	.LASF136
 1680 08e8 13       		.byte	0x13
 1681 08e9 36       		.byte	0x36
 1682 08ea A9000000 		.4byte	0xa9
 1683 08ee 04       		.byte	0x4
 1684 08ef 07       		.uleb128 0x7
 1685 08f0 8C070000 		.4byte	.LASF137
 1686 08f4 13       		.byte	0x13
 1687 08f5 37       		.byte	0x37
 1688 08f6 A9000000 		.4byte	0xa9
 1689 08fa 05       		.byte	0x5
 1690 08fb 07       		.uleb128 0x7
 1691 08fc 17090000 		.4byte	.LASF138
 1692 0900 13       		.byte	0x13
 1693 0901 38       		.byte	0x38
 1694 0902 B4000000 		.4byte	0xb4
 1695 0906 06       		.byte	0x6
 1696 0907 07       		.uleb128 0x7
 1697 0908 3B060000 		.4byte	.LASF139
 1698 090c 13       		.byte	0x13
 1699 090d 39       		.byte	0x39
 1700 090e A9000000 		.4byte	0xa9
 1701 0912 08       		.byte	0x8
 1702 0913 07       		.uleb128 0x7
 1703 0914 A7050000 		.4byte	.LASF140
ARM GAS  /var/folders/km/q6jdms0143g2bddz5bhvdfd00000gn/T//ccdVbhBp.s 			page 31


 1704 0918 13       		.byte	0x13
 1705 0919 3A       		.byte	0x3a
 1706 091a A9000000 		.4byte	0xa9
 1707 091e 09       		.byte	0x9
 1708 091f 07       		.uleb128 0x7
 1709 0920 CC000000 		.4byte	.LASF141
 1710 0924 13       		.byte	0x13
 1711 0925 3B       		.byte	0x3b
 1712 0926 A9000000 		.4byte	0xa9
 1713 092a 0A       		.byte	0xa
 1714 092b 07       		.uleb128 0x7
 1715 092c 5C070000 		.4byte	.LASF142
 1716 0930 13       		.byte	0x13
 1717 0931 3C       		.byte	0x3c
 1718 0932 A9000000 		.4byte	0xa9
 1719 0936 0B       		.byte	0xb
 1720 0937 07       		.uleb128 0x7
 1721 0938 4C080000 		.4byte	.LASF143
 1722 093c 13       		.byte	0x13
 1723 093d 3D       		.byte	0x3d
 1724 093e A9000000 		.4byte	0xa9
 1725 0942 0C       		.byte	0xc
 1726 0943 07       		.uleb128 0x7
 1727 0944 D6080000 		.4byte	.LASF144
 1728 0948 13       		.byte	0x13
 1729 0949 3E       		.byte	0x3e
 1730 094a A9000000 		.4byte	0xa9
 1731 094e 0D       		.byte	0xd
 1732 094f 07       		.uleb128 0x7
 1733 0950 00000000 		.4byte	.LASF145
 1734 0954 13       		.byte	0x13
 1735 0955 3F       		.byte	0x3f
 1736 0956 A9000000 		.4byte	0xa9
 1737 095a 0E       		.byte	0xe
 1738 095b 07       		.uleb128 0x7
 1739 095c C9050000 		.4byte	.LASF146
 1740 0960 13       		.byte	0x13
 1741 0961 40       		.byte	0x40
 1742 0962 A9000000 		.4byte	0xa9
 1743 0966 0F       		.byte	0xf
 1744 0967 07       		.uleb128 0x7
 1745 0968 66010000 		.4byte	.LASF147
 1746 096c 13       		.byte	0x13
 1747 096d 41       		.byte	0x41
 1748 096e A9000000 		.4byte	0xa9
 1749 0972 10       		.byte	0x10
 1750 0973 07       		.uleb128 0x7
 1751 0974 3F010000 		.4byte	.LASF148
 1752 0978 13       		.byte	0x13
 1753 0979 43       		.byte	0x43
 1754 097a A9000000 		.4byte	0xa9
 1755 097e 11       		.byte	0x11
 1756 097f 07       		.uleb128 0x7
 1757 0980 76010000 		.4byte	.LASF149
 1758 0984 13       		.byte	0x13
 1759 0985 44       		.byte	0x44
 1760 0986 A9000000 		.4byte	0xa9
ARM GAS  /var/folders/km/q6jdms0143g2bddz5bhvdfd00000gn/T//ccdVbhBp.s 			page 32


 1761 098a 12       		.byte	0x12
 1762 098b 07       		.uleb128 0x7
 1763 098c 39050000 		.4byte	.LASF150
 1764 0990 13       		.byte	0x13
 1765 0991 45       		.byte	0x45
 1766 0992 A9000000 		.4byte	0xa9
 1767 0996 13       		.byte	0x13
 1768 0997 07       		.uleb128 0x7
 1769 0998 CD060000 		.4byte	.LASF151
 1770 099c 13       		.byte	0x13
 1771 099d 46       		.byte	0x46
 1772 099e A9000000 		.4byte	0xa9
 1773 09a2 14       		.byte	0x14
 1774 09a3 07       		.uleb128 0x7
 1775 09a4 5B040000 		.4byte	.LASF152
 1776 09a8 13       		.byte	0x13
 1777 09a9 48       		.byte	0x48
 1778 09aa A9000000 		.4byte	0xa9
 1779 09ae 15       		.byte	0x15
 1780 09af 00       		.byte	0
 1781 09b0 17       		.uleb128 0x17
 1782 09b1 9C080000 		.4byte	0x89c
 1783 09b5 C0090000 		.4byte	0x9c0
 1784 09b9 18       		.uleb128 0x18
 1785 09ba 2C000000 		.4byte	0x2c
 1786 09be 03       		.byte	0x3
 1787 09bf 00       		.byte	0
 1788 09c0 04       		.uleb128 0x4
 1789 09c1 DC010000 		.4byte	.LASF153
 1790 09c5 13       		.byte	0x13
 1791 09c6 49       		.byte	0x49
 1792 09c7 CF080000 		.4byte	0x8cf
 1793 09cb 1B       		.uleb128 0x1b
 1794 09cc C0090000 		.4byte	0x9c0
 1795 09d0 13       		.uleb128 0x13
 1796 09d1 DE030000 		.4byte	.LASF154
 1797 09d5 13       		.byte	0x13
 1798 09d6 6E       		.byte	0x6e
 1799 09d7 CB090000 		.4byte	0x9cb
 1800 09db 04       		.uleb128 0x4
 1801 09dc 47020000 		.4byte	.LASF155
 1802 09e0 12       		.byte	0x12
 1803 09e1 34       		.byte	0x34
 1804 09e2 4E080000 		.4byte	0x84e
 1805 09e6 0A       		.uleb128 0xa
 1806 09e7 04       		.byte	0x4
 1807 09e8 DB090000 		.4byte	0x9db
 1808 09ec 1D       		.uleb128 0x1d
 1809 09ed 20070000 		.4byte	.LASF183
 1810 09f1 01       		.byte	0x1
 1811 09f2 90       		.byte	0x90
 1812 09f3 00000000 		.4byte	.LFB221
 1813 09f7 6C000000 		.4byte	.LFE221-.LFB221
 1814 09fb 01       		.uleb128 0x1
 1815 09fc 9C       		.byte	0x9c
 1816 09fd 4E0B0000 		.4byte	0xb4e
 1817 0a01 1E       		.uleb128 0x1e
ARM GAS  /var/folders/km/q6jdms0143g2bddz5bhvdfd00000gn/T//ccdVbhBp.s 			page 33


 1818 0a02 747000   		.ascii	"tp\000"
 1819 0a05 01       		.byte	0x1
 1820 0a06 90       		.byte	0x90
 1821 0a07 A2020000 		.4byte	0x2a2
 1822 0a0b 00000000 		.4byte	.LLST12
 1823 0a0f 1E       		.uleb128 0x1e
 1824 0a10 6D736700 		.ascii	"msg\000"
 1825 0a14 01       		.byte	0x1
 1826 0a15 90       		.byte	0x90
 1827 0a16 32010000 		.4byte	0x132
 1828 0a1a 2C000000 		.4byte	.LLST13
 1829 0a1e 1F       		.uleb128 0x1f
 1830 0a1f E4060000 		.4byte	.LASF156
 1831 0a23 5E0B0000 		.4byte	0xb5e
 1832 0a27 05       		.uleb128 0x5
 1833 0a28 03       		.byte	0x3
 1834 0a29 00000000 		.4byte	__func__.7860
 1835 0a2d 20       		.uleb128 0x20
 1836 0a2e B60E0000 		.4byte	0xeb6
 1837 0a32 06000000 		.4byte	.LBB121
 1838 0a36 0E000000 		.4byte	.LBE121-.LBB121
 1839 0a3a 01       		.byte	0x1
 1840 0a3b 92       		.byte	0x92
 1841 0a3c 820A0000 		.4byte	0xa82
 1842 0a40 21       		.uleb128 0x21
 1843 0a41 1C0F0000 		.4byte	0xf1c
 1844 0a45 06000000 		.4byte	.LBB123
 1845 0a49 06000000 		.4byte	.LBE123-.LBB123
 1846 0a4d 03       		.byte	0x3
 1847 0a4e 5C01     		.2byte	0x15c
 1848 0a50 6F0A0000 		.4byte	0xa6f
 1849 0a54 22       		.uleb128 0x22
 1850 0a55 250F0000 		.4byte	0xf25
 1851 0a59 06000000 		.4byte	.LBB124
 1852 0a5d 06000000 		.4byte	.LBE124-.LBB124
 1853 0a61 0D       		.byte	0xd
 1854 0a62 BF01     		.2byte	0x1bf
 1855 0a64 23       		.uleb128 0x23
 1856 0a65 320F0000 		.4byte	0xf32
 1857 0a69 58000000 		.4byte	.LLST14
 1858 0a6d 00       		.byte	0
 1859 0a6e 00       		.byte	0
 1860 0a6f 24       		.uleb128 0x24
 1861 0a70 10000000 		.4byte	.LVL41
 1862 0a74 3F0F0000 		.4byte	0xf3f
 1863 0a78 24       		.uleb128 0x24
 1864 0a79 14000000 		.4byte	.LVL42
 1865 0a7d 4A0F0000 		.4byte	0xf4a
 1866 0a81 00       		.byte	0
 1867 0a82 20       		.uleb128 0x20
 1868 0a83 420E0000 		.4byte	0xe42
 1869 0a87 22000000 		.4byte	.LBB126
 1870 0a8b 0C000000 		.4byte	.LBE126-.LBB126
 1871 0a8f 01       		.byte	0x1
 1872 0a90 94       		.byte	0x94
 1873 0a91 C70A0000 		.4byte	0xac7
 1874 0a95 23       		.uleb128 0x23
ARM GAS  /var/folders/km/q6jdms0143g2bddz5bhvdfd00000gn/T//ccdVbhBp.s 			page 34


 1875 0a96 580E0000 		.4byte	0xe58
 1876 0a9a 6D000000 		.4byte	.LLST15
 1877 0a9e 23       		.uleb128 0x23
 1878 0a9f 4E0E0000 		.4byte	0xe4e
 1879 0aa3 80000000 		.4byte	.LLST16
 1880 0aa7 24       		.uleb128 0x24
 1881 0aa8 26000000 		.4byte	.LVL44
 1882 0aac 550F0000 		.4byte	0xf55
 1883 0ab0 25       		.uleb128 0x25
 1884 0ab1 2E000000 		.4byte	.LVL45
 1885 0ab5 600F0000 		.4byte	0xf60
 1886 0ab9 26       		.uleb128 0x26
 1887 0aba 01       		.uleb128 0x1
 1888 0abb 50       		.byte	0x50
 1889 0abc 02       		.uleb128 0x2
 1890 0abd 74       		.byte	0x74
 1891 0abe 00       		.sleb128 0
 1892 0abf 26       		.uleb128 0x26
 1893 0ac0 01       		.uleb128 0x1
 1894 0ac1 51       		.byte	0x51
 1895 0ac2 02       		.uleb128 0x2
 1896 0ac3 75       		.byte	0x75
 1897 0ac4 00       		.sleb128 0
 1898 0ac5 00       		.byte	0
 1899 0ac6 00       		.byte	0
 1900 0ac7 27       		.uleb128 0x27
 1901 0ac8 860E0000 		.4byte	0xe86
 1902 0acc 2E000000 		.4byte	.LBB128
 1903 0ad0 C8000000 		.4byte	.Ldebug_ranges0+0xc8
 1904 0ad4 01       		.byte	0x1
 1905 0ad5 95       		.byte	0x95
 1906 0ad6 3A0B0000 		.4byte	0xb3a
 1907 0ada 28       		.uleb128 0x28
 1908 0adb C8000000 		.4byte	.Ldebug_ranges0+0xc8
 1909 0adf 29       		.uleb128 0x29
 1910 0ae0 930E0000 		.4byte	0xe93
 1911 0ae4 2A       		.uleb128 0x2a
 1912 0ae5 130F0000 		.4byte	0xf13
 1913 0ae9 48000000 		.4byte	.LBB130
 1914 0aed E0000000 		.4byte	.Ldebug_ranges0+0xe0
 1915 0af1 03       		.byte	0x3
 1916 0af2 7301     		.2byte	0x173
 1917 0af4 130B0000 		.4byte	0xb13
 1918 0af8 2B       		.uleb128 0x2b
 1919 0af9 250F0000 		.4byte	0xf25
 1920 0afd 48000000 		.4byte	.LBB131
 1921 0b01 E0000000 		.4byte	.Ldebug_ranges0+0xe0
 1922 0b05 0D       		.byte	0xd
 1923 0b06 CD01     		.2byte	0x1cd
 1924 0b08 23       		.uleb128 0x23
 1925 0b09 320F0000 		.4byte	0xf32
 1926 0b0d 93000000 		.4byte	.LLST17
 1927 0b11 00       		.byte	0
 1928 0b12 00       		.byte	0
 1929 0b13 24       		.uleb128 0x24
 1930 0b14 32000000 		.4byte	.LVL46
 1931 0b18 6C0F0000 		.4byte	0xf6c
ARM GAS  /var/folders/km/q6jdms0143g2bddz5bhvdfd00000gn/T//ccdVbhBp.s 			page 35


 1932 0b1c 24       		.uleb128 0x24
 1933 0b1d 36000000 		.4byte	.LVL47
 1934 0b21 770F0000 		.4byte	0xf77
 1935 0b25 25       		.uleb128 0x25
 1936 0b26 56000000 		.4byte	.LVL51
 1937 0b2a 820F0000 		.4byte	0xf82
 1938 0b2e 26       		.uleb128 0x26
 1939 0b2f 01       		.uleb128 0x1
 1940 0b30 50       		.byte	0x50
 1941 0b31 05       		.uleb128 0x5
 1942 0b32 03       		.byte	0x3
 1943 0b33 00000000 		.4byte	.LANCHOR1
 1944 0b37 00       		.byte	0
 1945 0b38 00       		.byte	0
 1946 0b39 00       		.byte	0
 1947 0b3a 25       		.uleb128 0x25
 1948 0b3b 22000000 		.4byte	.LVL43
 1949 0b3f 820F0000 		.4byte	0xf82
 1950 0b43 26       		.uleb128 0x26
 1951 0b44 01       		.uleb128 0x1
 1952 0b45 50       		.byte	0x50
 1953 0b46 05       		.uleb128 0x5
 1954 0b47 03       		.byte	0x3
 1955 0b48 00000000 		.4byte	.LANCHOR2
 1956 0b4c 00       		.byte	0
 1957 0b4d 00       		.byte	0
 1958 0b4e 17       		.uleb128 0x17
 1959 0b4f A3080000 		.4byte	0x8a3
 1960 0b53 5E0B0000 		.4byte	0xb5e
 1961 0b57 18       		.uleb128 0x18
 1962 0b58 2C000000 		.4byte	0x2c
 1963 0b5c 0C       		.byte	0xc
 1964 0b5d 00       		.byte	0
 1965 0b5e 1B       		.uleb128 0x1b
 1966 0b5f 4E0B0000 		.4byte	0xb4e
 1967 0b63 2C       		.uleb128 0x2c
 1968 0b64 3A080000 		.4byte	.LASF157
 1969 0b68 01       		.byte	0x1
 1970 0b69 78       		.byte	0x78
 1971 0b6a A2020000 		.4byte	0x2a2
 1972 0b6e 00000000 		.4byte	.LFB220
 1973 0b72 74000000 		.4byte	.LFE220-.LFB220
 1974 0b76 01       		.uleb128 0x1
 1975 0b77 9C       		.byte	0x9c
 1976 0b78 B00C0000 		.4byte	0xcb0
 1977 0b7c 2D       		.uleb128 0x2d
 1978 0b7d 747000   		.ascii	"tp\000"
 1979 0b80 01       		.byte	0x1
 1980 0b81 79       		.byte	0x79
 1981 0b82 A2020000 		.4byte	0x2a2
 1982 0b86 27       		.uleb128 0x27
 1983 0b87 B60E0000 		.4byte	0xeb6
 1984 0b8b 02000000 		.4byte	.LBB84
 1985 0b8f 50000000 		.4byte	.Ldebug_ranges0+0x50
 1986 0b93 01       		.byte	0x1
 1987 0b94 7B       		.byte	0x7b
 1988 0b95 DB0B0000 		.4byte	0xbdb
ARM GAS  /var/folders/km/q6jdms0143g2bddz5bhvdfd00000gn/T//ccdVbhBp.s 			page 36


 1989 0b99 21       		.uleb128 0x21
 1990 0b9a 1C0F0000 		.4byte	0xf1c
 1991 0b9e 02000000 		.4byte	.LBB86
 1992 0ba2 06000000 		.4byte	.LBE86-.LBB86
 1993 0ba6 03       		.byte	0x3
 1994 0ba7 5C01     		.2byte	0x15c
 1995 0ba9 C80B0000 		.4byte	0xbc8
 1996 0bad 22       		.uleb128 0x22
 1997 0bae 250F0000 		.4byte	0xf25
 1998 0bb2 02000000 		.4byte	.LBB87
 1999 0bb6 06000000 		.4byte	.LBE87-.LBB87
 2000 0bba 0D       		.byte	0xd
 2001 0bbb BF01     		.2byte	0x1bf
 2002 0bbd 23       		.uleb128 0x23
 2003 0bbe 320F0000 		.4byte	0xf32
 2004 0bc2 B3000000 		.4byte	.LLST7
 2005 0bc6 00       		.byte	0
 2006 0bc7 00       		.byte	0
 2007 0bc8 24       		.uleb128 0x24
 2008 0bc9 0E000000 		.4byte	.LVL24
 2009 0bcd 3F0F0000 		.4byte	0xf3f
 2010 0bd1 24       		.uleb128 0x24
 2011 0bd2 12000000 		.4byte	.LVL25
 2012 0bd6 4A0F0000 		.4byte	0xf4a
 2013 0bda 00       		.byte	0
 2014 0bdb 27       		.uleb128 0x27
 2015 0bdc 640E0000 		.4byte	0xe64
 2016 0be0 14000000 		.4byte	.LBB91
 2017 0be4 68000000 		.4byte	.Ldebug_ranges0+0x68
 2018 0be8 01       		.byte	0x1
 2019 0be9 7C       		.byte	0x7c
 2020 0bea 010C0000 		.4byte	0xc01
 2021 0bee 23       		.uleb128 0x23
 2022 0bef 740E0000 		.4byte	0xe74
 2023 0bf3 C8000000 		.4byte	.LLST8
 2024 0bf7 24       		.uleb128 0x24
 2025 0bf8 18000000 		.4byte	.LVL27
 2026 0bfc 8E0F0000 		.4byte	0xf8e
 2027 0c00 00       		.byte	0
 2028 0c01 27       		.uleb128 0x27
 2029 0c02 BF0E0000 		.4byte	0xebf
 2030 0c06 22000000 		.4byte	.LBB95
 2031 0c0a 80000000 		.4byte	.Ldebug_ranges0+0x80
 2032 0c0e 01       		.byte	0x1
 2033 0c0f 7F       		.byte	0x7f
 2034 0c10 2D0C0000 		.4byte	0xc2d
 2035 0c14 23       		.uleb128 0x23
 2036 0c15 D00E0000 		.4byte	0xed0
 2037 0c19 DB000000 		.4byte	.LLST9
 2038 0c1d 28       		.uleb128 0x28
 2039 0c1e 80000000 		.4byte	.Ldebug_ranges0+0x80
 2040 0c22 2E       		.uleb128 0x2e
 2041 0c23 DC0E0000 		.4byte	0xedc
 2042 0c27 FB000000 		.4byte	.LLST10
 2043 0c2b 00       		.byte	0
 2044 0c2c 00       		.byte	0
 2045 0c2d 27       		.uleb128 0x27
ARM GAS  /var/folders/km/q6jdms0143g2bddz5bhvdfd00000gn/T//ccdVbhBp.s 			page 37


 2046 0c2e 860E0000 		.4byte	0xe86
 2047 0c32 32000000 		.4byte	.LBB99
 2048 0c36 98000000 		.4byte	.Ldebug_ranges0+0x98
 2049 0c3a 01       		.byte	0x1
 2050 0c3b 81       		.byte	0x81
 2051 0c3c A00C0000 		.4byte	0xca0
 2052 0c40 28       		.uleb128 0x28
 2053 0c41 98000000 		.4byte	.Ldebug_ranges0+0x98
 2054 0c45 29       		.uleb128 0x29
 2055 0c46 930E0000 		.4byte	0xe93
 2056 0c4a 2A       		.uleb128 0x2a
 2057 0c4b 130F0000 		.4byte	0xf13
 2058 0c4f 4A000000 		.4byte	.LBB101
 2059 0c53 B0000000 		.4byte	.Ldebug_ranges0+0xb0
 2060 0c57 03       		.byte	0x3
 2061 0c58 7301     		.2byte	0x173
 2062 0c5a 790C0000 		.4byte	0xc79
 2063 0c5e 2B       		.uleb128 0x2b
 2064 0c5f 250F0000 		.4byte	0xf25
 2065 0c63 4A000000 		.4byte	.LBB102
 2066 0c67 B0000000 		.4byte	.Ldebug_ranges0+0xb0
 2067 0c6b 0D       		.byte	0xd
 2068 0c6c CD01     		.2byte	0x1cd
 2069 0c6e 23       		.uleb128 0x23
 2070 0c6f 320F0000 		.4byte	0xf32
 2071 0c73 0E010000 		.4byte	.LLST11
 2072 0c77 00       		.byte	0
 2073 0c78 00       		.byte	0
 2074 0c79 24       		.uleb128 0x24
 2075 0c7a 36000000 		.4byte	.LVL32
 2076 0c7e 6C0F0000 		.4byte	0xf6c
 2077 0c82 24       		.uleb128 0x24
 2078 0c83 3A000000 		.4byte	.LVL33
 2079 0c87 770F0000 		.4byte	0xf77
 2080 0c8b 25       		.uleb128 0x25
 2081 0c8c 5A000000 		.4byte	.LVL36
 2082 0c90 820F0000 		.4byte	0xf82
 2083 0c94 26       		.uleb128 0x26
 2084 0c95 01       		.uleb128 0x1
 2085 0c96 50       		.byte	0x50
 2086 0c97 05       		.uleb128 0x5
 2087 0c98 03       		.byte	0x3
 2088 0c99 00000000 		.4byte	.LANCHOR1
 2089 0c9d 00       		.byte	0
 2090 0c9e 00       		.byte	0
 2091 0c9f 00       		.byte	0
 2092 0ca0 25       		.uleb128 0x25
 2093 0ca1 6A000000 		.4byte	.LVL38
 2094 0ca5 990F0000 		.4byte	0xf99
 2095 0ca9 26       		.uleb128 0x26
 2096 0caa 01       		.uleb128 0x1
 2097 0cab 50       		.byte	0x50
 2098 0cac 01       		.uleb128 0x1
 2099 0cad 3E       		.byte	0x3e
 2100 0cae 00       		.byte	0
 2101 0caf 00       		.byte	0
 2102 0cb0 2C       		.uleb128 0x2c
ARM GAS  /var/folders/km/q6jdms0143g2bddz5bhvdfd00000gn/T//ccdVbhBp.s 			page 38


 2103 0cb1 C3010000 		.4byte	.LASF158
 2104 0cb5 01       		.byte	0x1
 2105 0cb6 57       		.byte	0x57
 2106 0cb7 32010000 		.4byte	0x132
 2107 0cbb 00000000 		.4byte	.LFB219
 2108 0cbf 8C000000 		.4byte	.LFE219-.LFB219
 2109 0cc3 01       		.uleb128 0x1
 2110 0cc4 9C       		.byte	0x9c
 2111 0cc5 2D0E0000 		.4byte	0xe2d
 2112 0cc9 1E       		.uleb128 0x1e
 2113 0cca 747000   		.ascii	"tp\000"
 2114 0ccd 01       		.byte	0x1
 2115 0cce 57       		.byte	0x57
 2116 0ccf A2020000 		.4byte	0x2a2
 2117 0cd3 2E010000 		.4byte	.LLST0
 2118 0cd7 1E       		.uleb128 0x1e
 2119 0cd8 6D736700 		.ascii	"msg\000"
 2120 0cdc 01       		.byte	0x1
 2121 0cdd 57       		.byte	0x57
 2122 0cde 32010000 		.4byte	0x132
 2123 0ce2 62010000 		.4byte	.LLST1
 2124 0ce6 2F       		.uleb128 0x2f
 2125 0ce7 63747000 		.ascii	"ctp\000"
 2126 0ceb 01       		.byte	0x1
 2127 0cec 58       		.byte	0x58
 2128 0ced A2020000 		.4byte	0x2a2
 2129 0cf1 AC010000 		.4byte	.LLST2
 2130 0cf5 1F       		.uleb128 0x1f
 2131 0cf6 E4060000 		.4byte	.LASF156
 2132 0cfa 3D0E0000 		.4byte	0xe3d
 2133 0cfe 05       		.uleb128 0x5
 2134 0cff 03       		.byte	0x3
 2135 0d00 00000000 		.4byte	__func__.7851
 2136 0d04 20       		.uleb128 0x20
 2137 0d05 B60E0000 		.4byte	0xeb6
 2138 0d09 0E000000 		.4byte	.LBB49
 2139 0d0d 0E000000 		.4byte	.LBE49-.LBB49
 2140 0d11 01       		.byte	0x1
 2141 0d12 5C       		.byte	0x5c
 2142 0d13 590D0000 		.4byte	0xd59
 2143 0d17 21       		.uleb128 0x21
 2144 0d18 1C0F0000 		.4byte	0xf1c
 2145 0d1c 0E000000 		.4byte	.LBB51
 2146 0d20 06000000 		.4byte	.LBE51-.LBB51
 2147 0d24 03       		.byte	0x3
 2148 0d25 5C01     		.2byte	0x15c
 2149 0d27 460D0000 		.4byte	0xd46
 2150 0d2b 22       		.uleb128 0x22
 2151 0d2c 250F0000 		.4byte	0xf25
 2152 0d30 0E000000 		.4byte	.LBB52
 2153 0d34 06000000 		.4byte	.LBE52-.LBB52
 2154 0d38 0D       		.byte	0xd
 2155 0d39 BF01     		.2byte	0x1bf
 2156 0d3b 23       		.uleb128 0x23
 2157 0d3c 320F0000 		.4byte	0xf32
 2158 0d40 CA010000 		.4byte	.LLST3
 2159 0d44 00       		.byte	0
ARM GAS  /var/folders/km/q6jdms0143g2bddz5bhvdfd00000gn/T//ccdVbhBp.s 			page 39


 2160 0d45 00       		.byte	0
 2161 0d46 24       		.uleb128 0x24
 2162 0d47 18000000 		.4byte	.LVL4
 2163 0d4b 3F0F0000 		.4byte	0xf3f
 2164 0d4f 24       		.uleb128 0x24
 2165 0d50 1C000000 		.4byte	.LVL5
 2166 0d54 4A0F0000 		.4byte	0xf4a
 2167 0d58 00       		.byte	0
 2168 0d59 27       		.uleb128 0x27
 2169 0d5a EE0E0000 		.4byte	0xeee
 2170 0d5e 1C000000 		.4byte	.LBB54
 2171 0d62 00000000 		.4byte	.Ldebug_ranges0+0
 2172 0d66 01       		.byte	0x1
 2173 0d67 5F       		.byte	0x5f
 2174 0d68 7F0D0000 		.4byte	0xd7f
 2175 0d6c 23       		.uleb128 0x23
 2176 0d6d 060F0000 		.4byte	0xf06
 2177 0d71 DF010000 		.4byte	.LLST4
 2178 0d75 23       		.uleb128 0x23
 2179 0d76 FB0E0000 		.4byte	0xefb
 2180 0d7a F2010000 		.4byte	.LLST5
 2181 0d7e 00       		.byte	0
 2182 0d7f 27       		.uleb128 0x27
 2183 0d80 860E0000 		.4byte	0xe86
 2184 0d84 3E000000 		.4byte	.LBB60
 2185 0d88 20000000 		.4byte	.Ldebug_ranges0+0x20
 2186 0d8c 01       		.byte	0x1
 2187 0d8d 65       		.byte	0x65
 2188 0d8e F20D0000 		.4byte	0xdf2
 2189 0d92 28       		.uleb128 0x28
 2190 0d93 20000000 		.4byte	.Ldebug_ranges0+0x20
 2191 0d97 29       		.uleb128 0x29
 2192 0d98 930E0000 		.4byte	0xe93
 2193 0d9c 2A       		.uleb128 0x2a
 2194 0d9d 130F0000 		.4byte	0xf13
 2195 0da1 56000000 		.4byte	.LBB62
 2196 0da5 38000000 		.4byte	.Ldebug_ranges0+0x38
 2197 0da9 03       		.byte	0x3
 2198 0daa 7301     		.2byte	0x173
 2199 0dac CB0D0000 		.4byte	0xdcb
 2200 0db0 2B       		.uleb128 0x2b
 2201 0db1 250F0000 		.4byte	0xf25
 2202 0db5 56000000 		.4byte	.LBB63
 2203 0db9 38000000 		.4byte	.Ldebug_ranges0+0x38
 2204 0dbd 0D       		.byte	0xd
 2205 0dbe CD01     		.2byte	0x1cd
 2206 0dc0 23       		.uleb128 0x23
 2207 0dc1 320F0000 		.4byte	0xf32
 2208 0dc5 05020000 		.4byte	.LLST6
 2209 0dc9 00       		.byte	0
 2210 0dca 00       		.byte	0
 2211 0dcb 24       		.uleb128 0x24
 2212 0dcc 42000000 		.4byte	.LVL10
 2213 0dd0 6C0F0000 		.4byte	0xf6c
 2214 0dd4 24       		.uleb128 0x24
 2215 0dd5 46000000 		.4byte	.LVL11
 2216 0dd9 770F0000 		.4byte	0xf77
ARM GAS  /var/folders/km/q6jdms0143g2bddz5bhvdfd00000gn/T//ccdVbhBp.s 			page 40


 2217 0ddd 25       		.uleb128 0x25
 2218 0dde 66000000 		.4byte	.LVL15
 2219 0de2 820F0000 		.4byte	0xf82
 2220 0de6 26       		.uleb128 0x26
 2221 0de7 01       		.uleb128 0x1
 2222 0de8 50       		.byte	0x50
 2223 0de9 05       		.uleb128 0x5
 2224 0dea 03       		.byte	0x3
 2225 0deb 00000000 		.4byte	.LANCHOR1
 2226 0def 00       		.byte	0
 2227 0df0 00       		.byte	0
 2228 0df1 00       		.byte	0
 2229 0df2 30       		.uleb128 0x30
 2230 0df3 3C000000 		.4byte	.LVL8
 2231 0df7 990F0000 		.4byte	0xf99
 2232 0dfb 050E0000 		.4byte	0xe05
 2233 0dff 26       		.uleb128 0x26
 2234 0e00 01       		.uleb128 0x1
 2235 0e01 50       		.byte	0x50
 2236 0e02 01       		.uleb128 0x1
 2237 0e03 3C       		.byte	0x3c
 2238 0e04 00       		.byte	0
 2239 0e05 30       		.uleb128 0x30
 2240 0e06 76000000 		.4byte	.LVL18
 2241 0e0a A50F0000 		.4byte	0xfa5
 2242 0e0e 190E0000 		.4byte	0xe19
 2243 0e12 26       		.uleb128 0x26
 2244 0e13 01       		.uleb128 0x1
 2245 0e14 50       		.byte	0x50
 2246 0e15 02       		.uleb128 0x2
 2247 0e16 75       		.byte	0x75
 2248 0e17 00       		.sleb128 0
 2249 0e18 00       		.byte	0
 2250 0e19 25       		.uleb128 0x25
 2251 0e1a 7E000000 		.4byte	.LVL21
 2252 0e1e 820F0000 		.4byte	0xf82
 2253 0e22 26       		.uleb128 0x26
 2254 0e23 01       		.uleb128 0x1
 2255 0e24 50       		.byte	0x50
 2256 0e25 05       		.uleb128 0x5
 2257 0e26 03       		.byte	0x3
 2258 0e27 00000000 		.4byte	.LANCHOR0
 2259 0e2b 00       		.byte	0
 2260 0e2c 00       		.byte	0
 2261 0e2d 17       		.uleb128 0x17
 2262 0e2e A3080000 		.4byte	0x8a3
 2263 0e32 3D0E0000 		.4byte	0xe3d
 2264 0e36 18       		.uleb128 0x18
 2265 0e37 2C000000 		.4byte	0x2c
 2266 0e3b 09       		.byte	0x9
 2267 0e3c 00       		.byte	0
 2268 0e3d 1B       		.uleb128 0x1b
 2269 0e3e 2D0E0000 		.4byte	0xe2d
 2270 0e42 31       		.uleb128 0x31
 2271 0e43 22090000 		.4byte	.LASF160
 2272 0e47 05       		.byte	0x5
 2273 0e48 6F       		.byte	0x6f
ARM GAS  /var/folders/km/q6jdms0143g2bddz5bhvdfd00000gn/T//ccdVbhBp.s 			page 41


 2274 0e49 03       		.byte	0x3
 2275 0e4a 640E0000 		.4byte	0xe64
 2276 0e4e 32       		.uleb128 0x32
 2277 0e4f 747000   		.ascii	"tp\000"
 2278 0e52 05       		.byte	0x5
 2279 0e53 6F       		.byte	0x6f
 2280 0e54 A2020000 		.4byte	0x2a2
 2281 0e58 32       		.uleb128 0x32
 2282 0e59 6D736700 		.ascii	"msg\000"
 2283 0e5d 05       		.byte	0x5
 2284 0e5e 6F       		.byte	0x6f
 2285 0e5f 32010000 		.4byte	0x132
 2286 0e63 00       		.byte	0
 2287 0e64 33       		.uleb128 0x33
 2288 0e65 E6010000 		.4byte	.LASF162
 2289 0e69 05       		.byte	0x5
 2290 0e6a 4F       		.byte	0x4f
 2291 0e6b 7F0E0000 		.4byte	0xe7f
 2292 0e6f 03       		.byte	0x3
 2293 0e70 7F0E0000 		.4byte	0xe7f
 2294 0e74 32       		.uleb128 0x32
 2295 0e75 747000   		.ascii	"tp\000"
 2296 0e78 05       		.byte	0x5
 2297 0e79 4F       		.byte	0x4f
 2298 0e7a A2020000 		.4byte	0x2a2
 2299 0e7e 00       		.byte	0
 2300 0e7f 03       		.uleb128 0x3
 2301 0e80 01       		.byte	0x1
 2302 0e81 02       		.byte	0x2
 2303 0e82 6E060000 		.4byte	.LASF159
 2304 0e86 34       		.uleb128 0x34
 2305 0e87 0B090000 		.4byte	.LASF161
 2306 0e8b 03       		.byte	0x3
 2307 0e8c 6601     		.2byte	0x166
 2308 0e8e 03       		.byte	0x3
 2309 0e8f A10E0000 		.4byte	0xea1
 2310 0e93 35       		.uleb128 0x35
 2311 0e94 E4060000 		.4byte	.LASF156
 2312 0e98 B10E0000 		.4byte	0xeb1
 2313 0e9c 0B090000 		.4byte	.LASF161
 2314 0ea0 00       		.byte	0
 2315 0ea1 17       		.uleb128 0x17
 2316 0ea2 A3080000 		.4byte	0x8a3
 2317 0ea6 B10E0000 		.4byte	0xeb1
 2318 0eaa 18       		.uleb128 0x18
 2319 0eab 2C000000 		.4byte	0x2c
 2320 0eaf 0B       		.byte	0xb
 2321 0eb0 00       		.byte	0
 2322 0eb1 1B       		.uleb128 0x1b
 2323 0eb2 A10E0000 		.4byte	0xea1
 2324 0eb6 36       		.uleb128 0x36
 2325 0eb7 F5060000 		.4byte	.LASF165
 2326 0ebb 03       		.byte	0x3
 2327 0ebc 5A01     		.2byte	0x15a
 2328 0ebe 03       		.byte	0x3
 2329 0ebf 37       		.uleb128 0x37
 2330 0ec0 CB070000 		.4byte	.LASF163
ARM GAS  /var/folders/km/q6jdms0143g2bddz5bhvdfd00000gn/T//ccdVbhBp.s 			page 42


 2331 0ec4 04       		.byte	0x4
 2332 0ec5 9F02     		.2byte	0x29f
 2333 0ec7 A2020000 		.4byte	0x2a2
 2334 0ecb 03       		.byte	0x3
 2335 0ecc E80E0000 		.4byte	0xee8
 2336 0ed0 38       		.uleb128 0x38
 2337 0ed1 74717000 		.ascii	"tqp\000"
 2338 0ed5 04       		.byte	0x4
 2339 0ed6 9F02     		.2byte	0x29f
 2340 0ed8 E80E0000 		.4byte	0xee8
 2341 0edc 39       		.uleb128 0x39
 2342 0edd 747000   		.ascii	"tp\000"
 2343 0ee0 04       		.byte	0x4
 2344 0ee1 A002     		.2byte	0x2a0
 2345 0ee3 A2020000 		.4byte	0x2a2
 2346 0ee7 00       		.byte	0
 2347 0ee8 0A       		.uleb128 0xa
 2348 0ee9 04       		.byte	0x4
 2349 0eea CC020000 		.4byte	0x2cc
 2350 0eee 34       		.uleb128 0x34
 2351 0eef 1A000000 		.4byte	.LASF164
 2352 0ef3 04       		.byte	0x4
 2353 0ef4 9702     		.2byte	0x297
 2354 0ef6 03       		.byte	0x3
 2355 0ef7 130F0000 		.4byte	0xf13
 2356 0efb 38       		.uleb128 0x38
 2357 0efc 747000   		.ascii	"tp\000"
 2358 0eff 04       		.byte	0x4
 2359 0f00 9702     		.2byte	0x297
 2360 0f02 A2020000 		.4byte	0x2a2
 2361 0f06 38       		.uleb128 0x38
 2362 0f07 74717000 		.ascii	"tqp\000"
 2363 0f0b 04       		.byte	0x4
 2364 0f0c 9702     		.2byte	0x297
 2365 0f0e E80E0000 		.4byte	0xee8
 2366 0f12 00       		.byte	0
 2367 0f13 36       		.uleb128 0x36
 2368 0f14 9A010000 		.4byte	.LASF166
 2369 0f18 0D       		.byte	0xd
 2370 0f19 CA01     		.2byte	0x1ca
 2371 0f1b 03       		.byte	0x3
 2372 0f1c 36       		.uleb128 0x36
 2373 0f1d 80000000 		.4byte	.LASF167
 2374 0f21 0D       		.byte	0xd
 2375 0f22 BC01     		.2byte	0x1bc
 2376 0f24 03       		.byte	0x3
 2377 0f25 34       		.uleb128 0x34
 2378 0f26 06080000 		.4byte	.LASF168
 2379 0f2a 02       		.byte	0x2
 2380 0f2b 2002     		.2byte	0x220
 2381 0f2d 03       		.byte	0x3
 2382 0f2e 3F0F0000 		.4byte	0xf3f
 2383 0f32 3A       		.uleb128 0x3a
 2384 0f33 4F020000 		.4byte	.LASF169
 2385 0f37 02       		.byte	0x2
 2386 0f38 2002     		.2byte	0x220
 2387 0f3a CF000000 		.4byte	0xcf
ARM GAS  /var/folders/km/q6jdms0143g2bddz5bhvdfd00000gn/T//ccdVbhBp.s 			page 43


 2388 0f3e 00       		.byte	0
 2389 0f3f 3B       		.uleb128 0x3b
 2390 0f40 EE000000 		.4byte	.LASF170
 2391 0f44 EE000000 		.4byte	.LASF170
 2392 0f48 10       		.byte	0x10
 2393 0f49 4F       		.byte	0x4f
 2394 0f4a 3B       		.uleb128 0x3b
 2395 0f4b 74050000 		.4byte	.LASF171
 2396 0f4f 74050000 		.4byte	.LASF171
 2397 0f53 0E       		.byte	0xe
 2398 0f54 D8       		.byte	0xd8
 2399 0f55 3B       		.uleb128 0x3b
 2400 0f56 D7040000 		.4byte	.LASF172
 2401 0f5a D7040000 		.4byte	.LASF172
 2402 0f5e 0E       		.byte	0xe
 2403 0f5f DF       		.byte	0xdf
 2404 0f60 3C       		.uleb128 0x3c
 2405 0f61 1F040000 		.4byte	.LASF173
 2406 0f65 1F040000 		.4byte	.LASF173
 2407 0f69 04       		.byte	0x4
 2408 0f6a 1602     		.2byte	0x216
 2409 0f6c 3B       		.uleb128 0x3b
 2410 0f6d AA080000 		.4byte	.LASF174
 2411 0f71 AA080000 		.4byte	.LASF174
 2412 0f75 0E       		.byte	0xe
 2413 0f76 D9       		.byte	0xd9
 2414 0f77 3B       		.uleb128 0x3b
 2415 0f78 4F050000 		.4byte	.LASF175
 2416 0f7c 4F050000 		.4byte	.LASF175
 2417 0f80 10       		.byte	0x10
 2418 0f81 50       		.byte	0x50
 2419 0f82 3C       		.uleb128 0x3c
 2420 0f83 27020000 		.4byte	.LASF176
 2421 0f87 27020000 		.4byte	.LASF176
 2422 0f8b 03       		.byte	0x3
 2423 0f8c 1601     		.2byte	0x116
 2424 0f8e 3B       		.uleb128 0x3b
 2425 0f8f 3E040000 		.4byte	.LASF177
 2426 0f93 3E040000 		.4byte	.LASF177
 2427 0f97 0E       		.byte	0xe
 2428 0f98 DE       		.byte	0xde
 2429 0f99 3C       		.uleb128 0x3c
 2430 0f9a 3A070000 		.4byte	.LASF178
 2431 0f9e 3A070000 		.4byte	.LASF178
 2432 0fa2 04       		.byte	0x4
 2433 0fa3 1402     		.2byte	0x214
 2434 0fa5 3C       		.uleb128 0x3c
 2435 0fa6 70070000 		.4byte	.LASF179
 2436 0faa 70070000 		.4byte	.LASF179
 2437 0fae 04       		.byte	0x4
 2438 0faf 1302     		.2byte	0x213
 2439 0fb1 00       		.byte	0
 2440              		.section	.debug_abbrev,"",%progbits
 2441              	.Ldebug_abbrev0:
 2442 0000 01       		.uleb128 0x1
 2443 0001 11       		.uleb128 0x11
 2444 0002 01       		.byte	0x1
ARM GAS  /var/folders/km/q6jdms0143g2bddz5bhvdfd00000gn/T//ccdVbhBp.s 			page 44


 2445 0003 25       		.uleb128 0x25
 2446 0004 0E       		.uleb128 0xe
 2447 0005 13       		.uleb128 0x13
 2448 0006 0B       		.uleb128 0xb
 2449 0007 03       		.uleb128 0x3
 2450 0008 0E       		.uleb128 0xe
 2451 0009 1B       		.uleb128 0x1b
 2452 000a 0E       		.uleb128 0xe
 2453 000b 55       		.uleb128 0x55
 2454 000c 17       		.uleb128 0x17
 2455 000d 11       		.uleb128 0x11
 2456 000e 01       		.uleb128 0x1
 2457 000f 10       		.uleb128 0x10
 2458 0010 17       		.uleb128 0x17
 2459 0011 00       		.byte	0
 2460 0012 00       		.byte	0
 2461 0013 02       		.uleb128 0x2
 2462 0014 24       		.uleb128 0x24
 2463 0015 00       		.byte	0
 2464 0016 0B       		.uleb128 0xb
 2465 0017 0B       		.uleb128 0xb
 2466 0018 3E       		.uleb128 0x3e
 2467 0019 0B       		.uleb128 0xb
 2468 001a 03       		.uleb128 0x3
 2469 001b 08       		.uleb128 0x8
 2470 001c 00       		.byte	0
 2471 001d 00       		.byte	0
 2472 001e 03       		.uleb128 0x3
 2473 001f 24       		.uleb128 0x24
 2474 0020 00       		.byte	0
 2475 0021 0B       		.uleb128 0xb
 2476 0022 0B       		.uleb128 0xb
 2477 0023 3E       		.uleb128 0x3e
 2478 0024 0B       		.uleb128 0xb
 2479 0025 03       		.uleb128 0x3
 2480 0026 0E       		.uleb128 0xe
 2481 0027 00       		.byte	0
 2482 0028 00       		.byte	0
 2483 0029 04       		.uleb128 0x4
 2484 002a 16       		.uleb128 0x16
 2485 002b 00       		.byte	0
 2486 002c 03       		.uleb128 0x3
 2487 002d 0E       		.uleb128 0xe
 2488 002e 3A       		.uleb128 0x3a
 2489 002f 0B       		.uleb128 0xb
 2490 0030 3B       		.uleb128 0x3b
 2491 0031 0B       		.uleb128 0xb
 2492 0032 49       		.uleb128 0x49
 2493 0033 13       		.uleb128 0x13
 2494 0034 00       		.byte	0
 2495 0035 00       		.byte	0
 2496 0036 05       		.uleb128 0x5
 2497 0037 35       		.uleb128 0x35
 2498 0038 00       		.byte	0
 2499 0039 49       		.uleb128 0x49
 2500 003a 13       		.uleb128 0x13
 2501 003b 00       		.byte	0
ARM GAS  /var/folders/km/q6jdms0143g2bddz5bhvdfd00000gn/T//ccdVbhBp.s 			page 45


 2502 003c 00       		.byte	0
 2503 003d 06       		.uleb128 0x6
 2504 003e 13       		.uleb128 0x13
 2505 003f 01       		.byte	0x1
 2506 0040 03       		.uleb128 0x3
 2507 0041 0E       		.uleb128 0xe
 2508 0042 0B       		.uleb128 0xb
 2509 0043 0B       		.uleb128 0xb
 2510 0044 3A       		.uleb128 0x3a
 2511 0045 0B       		.uleb128 0xb
 2512 0046 3B       		.uleb128 0x3b
 2513 0047 0B       		.uleb128 0xb
 2514 0048 01       		.uleb128 0x1
 2515 0049 13       		.uleb128 0x13
 2516 004a 00       		.byte	0
 2517 004b 00       		.byte	0
 2518 004c 07       		.uleb128 0x7
 2519 004d 0D       		.uleb128 0xd
 2520 004e 00       		.byte	0
 2521 004f 03       		.uleb128 0x3
 2522 0050 0E       		.uleb128 0xe
 2523 0051 3A       		.uleb128 0x3a
 2524 0052 0B       		.uleb128 0xb
 2525 0053 3B       		.uleb128 0x3b
 2526 0054 0B       		.uleb128 0xb
 2527 0055 49       		.uleb128 0x49
 2528 0056 13       		.uleb128 0x13
 2529 0057 38       		.uleb128 0x38
 2530 0058 0B       		.uleb128 0xb
 2531 0059 00       		.byte	0
 2532 005a 00       		.byte	0
 2533 005b 08       		.uleb128 0x8
 2534 005c 0D       		.uleb128 0xd
 2535 005d 00       		.byte	0
 2536 005e 03       		.uleb128 0x3
 2537 005f 08       		.uleb128 0x8
 2538 0060 3A       		.uleb128 0x3a
 2539 0061 0B       		.uleb128 0xb
 2540 0062 3B       		.uleb128 0x3b
 2541 0063 05       		.uleb128 0x5
 2542 0064 49       		.uleb128 0x49
 2543 0065 13       		.uleb128 0x13
 2544 0066 38       		.uleb128 0x38
 2545 0067 0B       		.uleb128 0xb
 2546 0068 00       		.byte	0
 2547 0069 00       		.byte	0
 2548 006a 09       		.uleb128 0x9
 2549 006b 0D       		.uleb128 0xd
 2550 006c 00       		.byte	0
 2551 006d 03       		.uleb128 0x3
 2552 006e 0E       		.uleb128 0xe
 2553 006f 3A       		.uleb128 0x3a
 2554 0070 0B       		.uleb128 0xb
 2555 0071 3B       		.uleb128 0x3b
 2556 0072 05       		.uleb128 0x5
 2557 0073 49       		.uleb128 0x49
 2558 0074 13       		.uleb128 0x13
ARM GAS  /var/folders/km/q6jdms0143g2bddz5bhvdfd00000gn/T//ccdVbhBp.s 			page 46


 2559 0075 38       		.uleb128 0x38
 2560 0076 0B       		.uleb128 0xb
 2561 0077 00       		.byte	0
 2562 0078 00       		.byte	0
 2563 0079 0A       		.uleb128 0xa
 2564 007a 0F       		.uleb128 0xf
 2565 007b 00       		.byte	0
 2566 007c 0B       		.uleb128 0xb
 2567 007d 0B       		.uleb128 0xb
 2568 007e 49       		.uleb128 0x49
 2569 007f 13       		.uleb128 0x13
 2570 0080 00       		.byte	0
 2571 0081 00       		.byte	0
 2572 0082 0B       		.uleb128 0xb
 2573 0083 13       		.uleb128 0x13
 2574 0084 01       		.byte	0x1
 2575 0085 03       		.uleb128 0x3
 2576 0086 0E       		.uleb128 0xe
 2577 0087 0B       		.uleb128 0xb
 2578 0088 0B       		.uleb128 0xb
 2579 0089 3A       		.uleb128 0x3a
 2580 008a 0B       		.uleb128 0xb
 2581 008b 3B       		.uleb128 0x3b
 2582 008c 05       		.uleb128 0x5
 2583 008d 01       		.uleb128 0x1
 2584 008e 13       		.uleb128 0x13
 2585 008f 00       		.byte	0
 2586 0090 00       		.byte	0
 2587 0091 0C       		.uleb128 0xc
 2588 0092 15       		.uleb128 0x15
 2589 0093 01       		.byte	0x1
 2590 0094 27       		.uleb128 0x27
 2591 0095 19       		.uleb128 0x19
 2592 0096 01       		.uleb128 0x1
 2593 0097 13       		.uleb128 0x13
 2594 0098 00       		.byte	0
 2595 0099 00       		.byte	0
 2596 009a 0D       		.uleb128 0xd
 2597 009b 05       		.uleb128 0x5
 2598 009c 00       		.byte	0
 2599 009d 49       		.uleb128 0x49
 2600 009e 13       		.uleb128 0x13
 2601 009f 00       		.byte	0
 2602 00a0 00       		.byte	0
 2603 00a1 0E       		.uleb128 0xe
 2604 00a2 0F       		.uleb128 0xf
 2605 00a3 00       		.byte	0
 2606 00a4 0B       		.uleb128 0xb
 2607 00a5 0B       		.uleb128 0xb
 2608 00a6 00       		.byte	0
 2609 00a7 00       		.byte	0
 2610 00a8 0F       		.uleb128 0xf
 2611 00a9 13       		.uleb128 0x13
 2612 00aa 01       		.byte	0x1
 2613 00ab 03       		.uleb128 0x3
 2614 00ac 0E       		.uleb128 0xe
 2615 00ad 0B       		.uleb128 0xb
ARM GAS  /var/folders/km/q6jdms0143g2bddz5bhvdfd00000gn/T//ccdVbhBp.s 			page 47


 2616 00ae 05       		.uleb128 0x5
 2617 00af 3A       		.uleb128 0x3a
 2618 00b0 0B       		.uleb128 0xb
 2619 00b1 3B       		.uleb128 0x3b
 2620 00b2 05       		.uleb128 0x5
 2621 00b3 01       		.uleb128 0x1
 2622 00b4 13       		.uleb128 0x13
 2623 00b5 00       		.byte	0
 2624 00b6 00       		.byte	0
 2625 00b7 10       		.uleb128 0x10
 2626 00b8 0D       		.uleb128 0xd
 2627 00b9 00       		.byte	0
 2628 00ba 03       		.uleb128 0x3
 2629 00bb 0E       		.uleb128 0xe
 2630 00bc 3A       		.uleb128 0x3a
 2631 00bd 0B       		.uleb128 0xb
 2632 00be 3B       		.uleb128 0x3b
 2633 00bf 05       		.uleb128 0x5
 2634 00c0 49       		.uleb128 0x49
 2635 00c1 13       		.uleb128 0x13
 2636 00c2 38       		.uleb128 0x38
 2637 00c3 05       		.uleb128 0x5
 2638 00c4 00       		.byte	0
 2639 00c5 00       		.byte	0
 2640 00c6 11       		.uleb128 0x11
 2641 00c7 0D       		.uleb128 0xd
 2642 00c8 00       		.byte	0
 2643 00c9 03       		.uleb128 0x3
 2644 00ca 08       		.uleb128 0x8
 2645 00cb 3A       		.uleb128 0x3a
 2646 00cc 0B       		.uleb128 0xb
 2647 00cd 3B       		.uleb128 0x3b
 2648 00ce 05       		.uleb128 0x5
 2649 00cf 49       		.uleb128 0x49
 2650 00d0 13       		.uleb128 0x13
 2651 00d1 38       		.uleb128 0x38
 2652 00d2 05       		.uleb128 0x5
 2653 00d3 00       		.byte	0
 2654 00d4 00       		.byte	0
 2655 00d5 12       		.uleb128 0x12
 2656 00d6 34       		.uleb128 0x34
 2657 00d7 00       		.byte	0
 2658 00d8 03       		.uleb128 0x3
 2659 00d9 0E       		.uleb128 0xe
 2660 00da 3A       		.uleb128 0x3a
 2661 00db 0B       		.uleb128 0xb
 2662 00dc 3B       		.uleb128 0x3b
 2663 00dd 05       		.uleb128 0x5
 2664 00de 49       		.uleb128 0x49
 2665 00df 13       		.uleb128 0x13
 2666 00e0 3F       		.uleb128 0x3f
 2667 00e1 19       		.uleb128 0x19
 2668 00e2 3C       		.uleb128 0x3c
 2669 00e3 19       		.uleb128 0x19
 2670 00e4 00       		.byte	0
 2671 00e5 00       		.byte	0
 2672 00e6 13       		.uleb128 0x13
ARM GAS  /var/folders/km/q6jdms0143g2bddz5bhvdfd00000gn/T//ccdVbhBp.s 			page 48


 2673 00e7 34       		.uleb128 0x34
 2674 00e8 00       		.byte	0
 2675 00e9 03       		.uleb128 0x3
 2676 00ea 0E       		.uleb128 0xe
 2677 00eb 3A       		.uleb128 0x3a
 2678 00ec 0B       		.uleb128 0xb
 2679 00ed 3B       		.uleb128 0x3b
 2680 00ee 0B       		.uleb128 0xb
 2681 00ef 49       		.uleb128 0x49
 2682 00f0 13       		.uleb128 0x13
 2683 00f1 3F       		.uleb128 0x3f
 2684 00f2 19       		.uleb128 0x19
 2685 00f3 3C       		.uleb128 0x3c
 2686 00f4 19       		.uleb128 0x19
 2687 00f5 00       		.byte	0
 2688 00f6 00       		.byte	0
 2689 00f7 14       		.uleb128 0x14
 2690 00f8 0D       		.uleb128 0xd
 2691 00f9 00       		.byte	0
 2692 00fa 03       		.uleb128 0x3
 2693 00fb 08       		.uleb128 0x8
 2694 00fc 3A       		.uleb128 0x3a
 2695 00fd 0B       		.uleb128 0xb
 2696 00fe 3B       		.uleb128 0x3b
 2697 00ff 0B       		.uleb128 0xb
 2698 0100 49       		.uleb128 0x49
 2699 0101 13       		.uleb128 0x13
 2700 0102 38       		.uleb128 0x38
 2701 0103 0B       		.uleb128 0xb
 2702 0104 00       		.byte	0
 2703 0105 00       		.byte	0
 2704 0106 15       		.uleb128 0x15
 2705 0107 13       		.uleb128 0x13
 2706 0108 01       		.byte	0x1
 2707 0109 0B       		.uleb128 0xb
 2708 010a 0B       		.uleb128 0xb
 2709 010b 3A       		.uleb128 0x3a
 2710 010c 0B       		.uleb128 0xb
 2711 010d 3B       		.uleb128 0x3b
 2712 010e 0B       		.uleb128 0xb
 2713 010f 01       		.uleb128 0x1
 2714 0110 13       		.uleb128 0x13
 2715 0111 00       		.byte	0
 2716 0112 00       		.byte	0
 2717 0113 16       		.uleb128 0x16
 2718 0114 13       		.uleb128 0x13
 2719 0115 01       		.byte	0x1
 2720 0116 0B       		.uleb128 0xb
 2721 0117 05       		.uleb128 0x5
 2722 0118 3A       		.uleb128 0x3a
 2723 0119 0B       		.uleb128 0xb
 2724 011a 3B       		.uleb128 0x3b
 2725 011b 0B       		.uleb128 0xb
 2726 011c 01       		.uleb128 0x1
 2727 011d 13       		.uleb128 0x13
 2728 011e 00       		.byte	0
 2729 011f 00       		.byte	0
ARM GAS  /var/folders/km/q6jdms0143g2bddz5bhvdfd00000gn/T//ccdVbhBp.s 			page 49


 2730 0120 17       		.uleb128 0x17
 2731 0121 01       		.uleb128 0x1
 2732 0122 01       		.byte	0x1
 2733 0123 49       		.uleb128 0x49
 2734 0124 13       		.uleb128 0x13
 2735 0125 01       		.uleb128 0x1
 2736 0126 13       		.uleb128 0x13
 2737 0127 00       		.byte	0
 2738 0128 00       		.byte	0
 2739 0129 18       		.uleb128 0x18
 2740 012a 21       		.uleb128 0x21
 2741 012b 00       		.byte	0
 2742 012c 49       		.uleb128 0x49
 2743 012d 13       		.uleb128 0x13
 2744 012e 2F       		.uleb128 0x2f
 2745 012f 0B       		.uleb128 0xb
 2746 0130 00       		.byte	0
 2747 0131 00       		.byte	0
 2748 0132 19       		.uleb128 0x19
 2749 0133 17       		.uleb128 0x17
 2750 0134 01       		.byte	0x1
 2751 0135 0B       		.uleb128 0xb
 2752 0136 0B       		.uleb128 0xb
 2753 0137 3A       		.uleb128 0x3a
 2754 0138 0B       		.uleb128 0xb
 2755 0139 3B       		.uleb128 0x3b
 2756 013a 0B       		.uleb128 0xb
 2757 013b 01       		.uleb128 0x1
 2758 013c 13       		.uleb128 0x13
 2759 013d 00       		.byte	0
 2760 013e 00       		.byte	0
 2761 013f 1A       		.uleb128 0x1a
 2762 0140 0D       		.uleb128 0xd
 2763 0141 00       		.byte	0
 2764 0142 03       		.uleb128 0x3
 2765 0143 0E       		.uleb128 0xe
 2766 0144 3A       		.uleb128 0x3a
 2767 0145 0B       		.uleb128 0xb
 2768 0146 3B       		.uleb128 0x3b
 2769 0147 05       		.uleb128 0x5
 2770 0148 49       		.uleb128 0x49
 2771 0149 13       		.uleb128 0x13
 2772 014a 00       		.byte	0
 2773 014b 00       		.byte	0
 2774 014c 1B       		.uleb128 0x1b
 2775 014d 26       		.uleb128 0x26
 2776 014e 00       		.byte	0
 2777 014f 49       		.uleb128 0x49
 2778 0150 13       		.uleb128 0x13
 2779 0151 00       		.byte	0
 2780 0152 00       		.byte	0
 2781 0153 1C       		.uleb128 0x1c
 2782 0154 34       		.uleb128 0x34
 2783 0155 00       		.byte	0
 2784 0156 03       		.uleb128 0x3
 2785 0157 08       		.uleb128 0x8
 2786 0158 3A       		.uleb128 0x3a
ARM GAS  /var/folders/km/q6jdms0143g2bddz5bhvdfd00000gn/T//ccdVbhBp.s 			page 50


 2787 0159 0B       		.uleb128 0xb
 2788 015a 3B       		.uleb128 0x3b
 2789 015b 05       		.uleb128 0x5
 2790 015c 49       		.uleb128 0x49
 2791 015d 13       		.uleb128 0x13
 2792 015e 3F       		.uleb128 0x3f
 2793 015f 19       		.uleb128 0x19
 2794 0160 3C       		.uleb128 0x3c
 2795 0161 19       		.uleb128 0x19
 2796 0162 00       		.byte	0
 2797 0163 00       		.byte	0
 2798 0164 1D       		.uleb128 0x1d
 2799 0165 2E       		.uleb128 0x2e
 2800 0166 01       		.byte	0x1
 2801 0167 3F       		.uleb128 0x3f
 2802 0168 19       		.uleb128 0x19
 2803 0169 03       		.uleb128 0x3
 2804 016a 0E       		.uleb128 0xe
 2805 016b 3A       		.uleb128 0x3a
 2806 016c 0B       		.uleb128 0xb
 2807 016d 3B       		.uleb128 0x3b
 2808 016e 0B       		.uleb128 0xb
 2809 016f 27       		.uleb128 0x27
 2810 0170 19       		.uleb128 0x19
 2811 0171 11       		.uleb128 0x11
 2812 0172 01       		.uleb128 0x1
 2813 0173 12       		.uleb128 0x12
 2814 0174 06       		.uleb128 0x6
 2815 0175 40       		.uleb128 0x40
 2816 0176 18       		.uleb128 0x18
 2817 0177 9742     		.uleb128 0x2117
 2818 0179 19       		.uleb128 0x19
 2819 017a 01       		.uleb128 0x1
 2820 017b 13       		.uleb128 0x13
 2821 017c 00       		.byte	0
 2822 017d 00       		.byte	0
 2823 017e 1E       		.uleb128 0x1e
 2824 017f 05       		.uleb128 0x5
 2825 0180 00       		.byte	0
 2826 0181 03       		.uleb128 0x3
 2827 0182 08       		.uleb128 0x8
 2828 0183 3A       		.uleb128 0x3a
 2829 0184 0B       		.uleb128 0xb
 2830 0185 3B       		.uleb128 0x3b
 2831 0186 0B       		.uleb128 0xb
 2832 0187 49       		.uleb128 0x49
 2833 0188 13       		.uleb128 0x13
 2834 0189 02       		.uleb128 0x2
 2835 018a 17       		.uleb128 0x17
 2836 018b 00       		.byte	0
 2837 018c 00       		.byte	0
 2838 018d 1F       		.uleb128 0x1f
 2839 018e 34       		.uleb128 0x34
 2840 018f 00       		.byte	0
 2841 0190 03       		.uleb128 0x3
 2842 0191 0E       		.uleb128 0xe
 2843 0192 49       		.uleb128 0x49
ARM GAS  /var/folders/km/q6jdms0143g2bddz5bhvdfd00000gn/T//ccdVbhBp.s 			page 51


 2844 0193 13       		.uleb128 0x13
 2845 0194 34       		.uleb128 0x34
 2846 0195 19       		.uleb128 0x19
 2847 0196 02       		.uleb128 0x2
 2848 0197 18       		.uleb128 0x18
 2849 0198 00       		.byte	0
 2850 0199 00       		.byte	0
 2851 019a 20       		.uleb128 0x20
 2852 019b 1D       		.uleb128 0x1d
 2853 019c 01       		.byte	0x1
 2854 019d 31       		.uleb128 0x31
 2855 019e 13       		.uleb128 0x13
 2856 019f 11       		.uleb128 0x11
 2857 01a0 01       		.uleb128 0x1
 2858 01a1 12       		.uleb128 0x12
 2859 01a2 06       		.uleb128 0x6
 2860 01a3 58       		.uleb128 0x58
 2861 01a4 0B       		.uleb128 0xb
 2862 01a5 59       		.uleb128 0x59
 2863 01a6 0B       		.uleb128 0xb
 2864 01a7 01       		.uleb128 0x1
 2865 01a8 13       		.uleb128 0x13
 2866 01a9 00       		.byte	0
 2867 01aa 00       		.byte	0
 2868 01ab 21       		.uleb128 0x21
 2869 01ac 1D       		.uleb128 0x1d
 2870 01ad 01       		.byte	0x1
 2871 01ae 31       		.uleb128 0x31
 2872 01af 13       		.uleb128 0x13
 2873 01b0 11       		.uleb128 0x11
 2874 01b1 01       		.uleb128 0x1
 2875 01b2 12       		.uleb128 0x12
 2876 01b3 06       		.uleb128 0x6
 2877 01b4 58       		.uleb128 0x58
 2878 01b5 0B       		.uleb128 0xb
 2879 01b6 59       		.uleb128 0x59
 2880 01b7 05       		.uleb128 0x5
 2881 01b8 01       		.uleb128 0x1
 2882 01b9 13       		.uleb128 0x13
 2883 01ba 00       		.byte	0
 2884 01bb 00       		.byte	0
 2885 01bc 22       		.uleb128 0x22
 2886 01bd 1D       		.uleb128 0x1d
 2887 01be 01       		.byte	0x1
 2888 01bf 31       		.uleb128 0x31
 2889 01c0 13       		.uleb128 0x13
 2890 01c1 11       		.uleb128 0x11
 2891 01c2 01       		.uleb128 0x1
 2892 01c3 12       		.uleb128 0x12
 2893 01c4 06       		.uleb128 0x6
 2894 01c5 58       		.uleb128 0x58
 2895 01c6 0B       		.uleb128 0xb
 2896 01c7 59       		.uleb128 0x59
 2897 01c8 05       		.uleb128 0x5
 2898 01c9 00       		.byte	0
 2899 01ca 00       		.byte	0
 2900 01cb 23       		.uleb128 0x23
ARM GAS  /var/folders/km/q6jdms0143g2bddz5bhvdfd00000gn/T//ccdVbhBp.s 			page 52


 2901 01cc 05       		.uleb128 0x5
 2902 01cd 00       		.byte	0
 2903 01ce 31       		.uleb128 0x31
 2904 01cf 13       		.uleb128 0x13
 2905 01d0 02       		.uleb128 0x2
 2906 01d1 17       		.uleb128 0x17
 2907 01d2 00       		.byte	0
 2908 01d3 00       		.byte	0
 2909 01d4 24       		.uleb128 0x24
 2910 01d5 898201   		.uleb128 0x4109
 2911 01d8 00       		.byte	0
 2912 01d9 11       		.uleb128 0x11
 2913 01da 01       		.uleb128 0x1
 2914 01db 31       		.uleb128 0x31
 2915 01dc 13       		.uleb128 0x13
 2916 01dd 00       		.byte	0
 2917 01de 00       		.byte	0
 2918 01df 25       		.uleb128 0x25
 2919 01e0 898201   		.uleb128 0x4109
 2920 01e3 01       		.byte	0x1
 2921 01e4 11       		.uleb128 0x11
 2922 01e5 01       		.uleb128 0x1
 2923 01e6 31       		.uleb128 0x31
 2924 01e7 13       		.uleb128 0x13
 2925 01e8 00       		.byte	0
 2926 01e9 00       		.byte	0
 2927 01ea 26       		.uleb128 0x26
 2928 01eb 8A8201   		.uleb128 0x410a
 2929 01ee 00       		.byte	0
 2930 01ef 02       		.uleb128 0x2
 2931 01f0 18       		.uleb128 0x18
 2932 01f1 9142     		.uleb128 0x2111
 2933 01f3 18       		.uleb128 0x18
 2934 01f4 00       		.byte	0
 2935 01f5 00       		.byte	0
 2936 01f6 27       		.uleb128 0x27
 2937 01f7 1D       		.uleb128 0x1d
 2938 01f8 01       		.byte	0x1
 2939 01f9 31       		.uleb128 0x31
 2940 01fa 13       		.uleb128 0x13
 2941 01fb 52       		.uleb128 0x52
 2942 01fc 01       		.uleb128 0x1
 2943 01fd 55       		.uleb128 0x55
 2944 01fe 17       		.uleb128 0x17
 2945 01ff 58       		.uleb128 0x58
 2946 0200 0B       		.uleb128 0xb
 2947 0201 59       		.uleb128 0x59
 2948 0202 0B       		.uleb128 0xb
 2949 0203 01       		.uleb128 0x1
 2950 0204 13       		.uleb128 0x13
 2951 0205 00       		.byte	0
 2952 0206 00       		.byte	0
 2953 0207 28       		.uleb128 0x28
 2954 0208 0B       		.uleb128 0xb
 2955 0209 01       		.byte	0x1
 2956 020a 55       		.uleb128 0x55
 2957 020b 17       		.uleb128 0x17
ARM GAS  /var/folders/km/q6jdms0143g2bddz5bhvdfd00000gn/T//ccdVbhBp.s 			page 53


 2958 020c 00       		.byte	0
 2959 020d 00       		.byte	0
 2960 020e 29       		.uleb128 0x29
 2961 020f 34       		.uleb128 0x34
 2962 0210 00       		.byte	0
 2963 0211 31       		.uleb128 0x31
 2964 0212 13       		.uleb128 0x13
 2965 0213 00       		.byte	0
 2966 0214 00       		.byte	0
 2967 0215 2A       		.uleb128 0x2a
 2968 0216 1D       		.uleb128 0x1d
 2969 0217 01       		.byte	0x1
 2970 0218 31       		.uleb128 0x31
 2971 0219 13       		.uleb128 0x13
 2972 021a 52       		.uleb128 0x52
 2973 021b 01       		.uleb128 0x1
 2974 021c 55       		.uleb128 0x55
 2975 021d 17       		.uleb128 0x17
 2976 021e 58       		.uleb128 0x58
 2977 021f 0B       		.uleb128 0xb
 2978 0220 59       		.uleb128 0x59
 2979 0221 05       		.uleb128 0x5
 2980 0222 01       		.uleb128 0x1
 2981 0223 13       		.uleb128 0x13
 2982 0224 00       		.byte	0
 2983 0225 00       		.byte	0
 2984 0226 2B       		.uleb128 0x2b
 2985 0227 1D       		.uleb128 0x1d
 2986 0228 01       		.byte	0x1
 2987 0229 31       		.uleb128 0x31
 2988 022a 13       		.uleb128 0x13
 2989 022b 52       		.uleb128 0x52
 2990 022c 01       		.uleb128 0x1
 2991 022d 55       		.uleb128 0x55
 2992 022e 17       		.uleb128 0x17
 2993 022f 58       		.uleb128 0x58
 2994 0230 0B       		.uleb128 0xb
 2995 0231 59       		.uleb128 0x59
 2996 0232 05       		.uleb128 0x5
 2997 0233 00       		.byte	0
 2998 0234 00       		.byte	0
 2999 0235 2C       		.uleb128 0x2c
 3000 0236 2E       		.uleb128 0x2e
 3001 0237 01       		.byte	0x1
 3002 0238 3F       		.uleb128 0x3f
 3003 0239 19       		.uleb128 0x19
 3004 023a 03       		.uleb128 0x3
 3005 023b 0E       		.uleb128 0xe
 3006 023c 3A       		.uleb128 0x3a
 3007 023d 0B       		.uleb128 0xb
 3008 023e 3B       		.uleb128 0x3b
 3009 023f 0B       		.uleb128 0xb
 3010 0240 27       		.uleb128 0x27
 3011 0241 19       		.uleb128 0x19
 3012 0242 49       		.uleb128 0x49
 3013 0243 13       		.uleb128 0x13
 3014 0244 11       		.uleb128 0x11
ARM GAS  /var/folders/km/q6jdms0143g2bddz5bhvdfd00000gn/T//ccdVbhBp.s 			page 54


 3015 0245 01       		.uleb128 0x1
 3016 0246 12       		.uleb128 0x12
 3017 0247 06       		.uleb128 0x6
 3018 0248 40       		.uleb128 0x40
 3019 0249 18       		.uleb128 0x18
 3020 024a 9742     		.uleb128 0x2117
 3021 024c 19       		.uleb128 0x19
 3022 024d 01       		.uleb128 0x1
 3023 024e 13       		.uleb128 0x13
 3024 024f 00       		.byte	0
 3025 0250 00       		.byte	0
 3026 0251 2D       		.uleb128 0x2d
 3027 0252 34       		.uleb128 0x34
 3028 0253 00       		.byte	0
 3029 0254 03       		.uleb128 0x3
 3030 0255 08       		.uleb128 0x8
 3031 0256 3A       		.uleb128 0x3a
 3032 0257 0B       		.uleb128 0xb
 3033 0258 3B       		.uleb128 0x3b
 3034 0259 0B       		.uleb128 0xb
 3035 025a 49       		.uleb128 0x49
 3036 025b 13       		.uleb128 0x13
 3037 025c 00       		.byte	0
 3038 025d 00       		.byte	0
 3039 025e 2E       		.uleb128 0x2e
 3040 025f 34       		.uleb128 0x34
 3041 0260 00       		.byte	0
 3042 0261 31       		.uleb128 0x31
 3043 0262 13       		.uleb128 0x13
 3044 0263 02       		.uleb128 0x2
 3045 0264 17       		.uleb128 0x17
 3046 0265 00       		.byte	0
 3047 0266 00       		.byte	0
 3048 0267 2F       		.uleb128 0x2f
 3049 0268 34       		.uleb128 0x34
 3050 0269 00       		.byte	0
 3051 026a 03       		.uleb128 0x3
 3052 026b 08       		.uleb128 0x8
 3053 026c 3A       		.uleb128 0x3a
 3054 026d 0B       		.uleb128 0xb
 3055 026e 3B       		.uleb128 0x3b
 3056 026f 0B       		.uleb128 0xb
 3057 0270 49       		.uleb128 0x49
 3058 0271 13       		.uleb128 0x13
 3059 0272 02       		.uleb128 0x2
 3060 0273 17       		.uleb128 0x17
 3061 0274 00       		.byte	0
 3062 0275 00       		.byte	0
 3063 0276 30       		.uleb128 0x30
 3064 0277 898201   		.uleb128 0x4109
 3065 027a 01       		.byte	0x1
 3066 027b 11       		.uleb128 0x11
 3067 027c 01       		.uleb128 0x1
 3068 027d 31       		.uleb128 0x31
 3069 027e 13       		.uleb128 0x13
 3070 027f 01       		.uleb128 0x1
 3071 0280 13       		.uleb128 0x13
ARM GAS  /var/folders/km/q6jdms0143g2bddz5bhvdfd00000gn/T//ccdVbhBp.s 			page 55


 3072 0281 00       		.byte	0
 3073 0282 00       		.byte	0
 3074 0283 31       		.uleb128 0x31
 3075 0284 2E       		.uleb128 0x2e
 3076 0285 01       		.byte	0x1
 3077 0286 03       		.uleb128 0x3
 3078 0287 0E       		.uleb128 0xe
 3079 0288 3A       		.uleb128 0x3a
 3080 0289 0B       		.uleb128 0xb
 3081 028a 3B       		.uleb128 0x3b
 3082 028b 0B       		.uleb128 0xb
 3083 028c 27       		.uleb128 0x27
 3084 028d 19       		.uleb128 0x19
 3085 028e 20       		.uleb128 0x20
 3086 028f 0B       		.uleb128 0xb
 3087 0290 01       		.uleb128 0x1
 3088 0291 13       		.uleb128 0x13
 3089 0292 00       		.byte	0
 3090 0293 00       		.byte	0
 3091 0294 32       		.uleb128 0x32
 3092 0295 05       		.uleb128 0x5
 3093 0296 00       		.byte	0
 3094 0297 03       		.uleb128 0x3
 3095 0298 08       		.uleb128 0x8
 3096 0299 3A       		.uleb128 0x3a
 3097 029a 0B       		.uleb128 0xb
 3098 029b 3B       		.uleb128 0x3b
 3099 029c 0B       		.uleb128 0xb
 3100 029d 49       		.uleb128 0x49
 3101 029e 13       		.uleb128 0x13
 3102 029f 00       		.byte	0
 3103 02a0 00       		.byte	0
 3104 02a1 33       		.uleb128 0x33
 3105 02a2 2E       		.uleb128 0x2e
 3106 02a3 01       		.byte	0x1
 3107 02a4 03       		.uleb128 0x3
 3108 02a5 0E       		.uleb128 0xe
 3109 02a6 3A       		.uleb128 0x3a
 3110 02a7 0B       		.uleb128 0xb
 3111 02a8 3B       		.uleb128 0x3b
 3112 02a9 0B       		.uleb128 0xb
 3113 02aa 27       		.uleb128 0x27
 3114 02ab 19       		.uleb128 0x19
 3115 02ac 49       		.uleb128 0x49
 3116 02ad 13       		.uleb128 0x13
 3117 02ae 20       		.uleb128 0x20
 3118 02af 0B       		.uleb128 0xb
 3119 02b0 01       		.uleb128 0x1
 3120 02b1 13       		.uleb128 0x13
 3121 02b2 00       		.byte	0
 3122 02b3 00       		.byte	0
 3123 02b4 34       		.uleb128 0x34
 3124 02b5 2E       		.uleb128 0x2e
 3125 02b6 01       		.byte	0x1
 3126 02b7 03       		.uleb128 0x3
 3127 02b8 0E       		.uleb128 0xe
 3128 02b9 3A       		.uleb128 0x3a
ARM GAS  /var/folders/km/q6jdms0143g2bddz5bhvdfd00000gn/T//ccdVbhBp.s 			page 56


 3129 02ba 0B       		.uleb128 0xb
 3130 02bb 3B       		.uleb128 0x3b
 3131 02bc 05       		.uleb128 0x5
 3132 02bd 27       		.uleb128 0x27
 3133 02be 19       		.uleb128 0x19
 3134 02bf 20       		.uleb128 0x20
 3135 02c0 0B       		.uleb128 0xb
 3136 02c1 01       		.uleb128 0x1
 3137 02c2 13       		.uleb128 0x13
 3138 02c3 00       		.byte	0
 3139 02c4 00       		.byte	0
 3140 02c5 35       		.uleb128 0x35
 3141 02c6 34       		.uleb128 0x34
 3142 02c7 00       		.byte	0
 3143 02c8 03       		.uleb128 0x3
 3144 02c9 0E       		.uleb128 0xe
 3145 02ca 49       		.uleb128 0x49
 3146 02cb 13       		.uleb128 0x13
 3147 02cc 34       		.uleb128 0x34
 3148 02cd 19       		.uleb128 0x19
 3149 02ce 1C       		.uleb128 0x1c
 3150 02cf 0E       		.uleb128 0xe
 3151 02d0 00       		.byte	0
 3152 02d1 00       		.byte	0
 3153 02d2 36       		.uleb128 0x36
 3154 02d3 2E       		.uleb128 0x2e
 3155 02d4 00       		.byte	0
 3156 02d5 03       		.uleb128 0x3
 3157 02d6 0E       		.uleb128 0xe
 3158 02d7 3A       		.uleb128 0x3a
 3159 02d8 0B       		.uleb128 0xb
 3160 02d9 3B       		.uleb128 0x3b
 3161 02da 05       		.uleb128 0x5
 3162 02db 27       		.uleb128 0x27
 3163 02dc 19       		.uleb128 0x19
 3164 02dd 20       		.uleb128 0x20
 3165 02de 0B       		.uleb128 0xb
 3166 02df 00       		.byte	0
 3167 02e0 00       		.byte	0
 3168 02e1 37       		.uleb128 0x37
 3169 02e2 2E       		.uleb128 0x2e
 3170 02e3 01       		.byte	0x1
 3171 02e4 03       		.uleb128 0x3
 3172 02e5 0E       		.uleb128 0xe
 3173 02e6 3A       		.uleb128 0x3a
 3174 02e7 0B       		.uleb128 0xb
 3175 02e8 3B       		.uleb128 0x3b
 3176 02e9 05       		.uleb128 0x5
 3177 02ea 27       		.uleb128 0x27
 3178 02eb 19       		.uleb128 0x19
 3179 02ec 49       		.uleb128 0x49
 3180 02ed 13       		.uleb128 0x13
 3181 02ee 20       		.uleb128 0x20
 3182 02ef 0B       		.uleb128 0xb
 3183 02f0 01       		.uleb128 0x1
 3184 02f1 13       		.uleb128 0x13
 3185 02f2 00       		.byte	0
ARM GAS  /var/folders/km/q6jdms0143g2bddz5bhvdfd00000gn/T//ccdVbhBp.s 			page 57


 3186 02f3 00       		.byte	0
 3187 02f4 38       		.uleb128 0x38
 3188 02f5 05       		.uleb128 0x5
 3189 02f6 00       		.byte	0
 3190 02f7 03       		.uleb128 0x3
 3191 02f8 08       		.uleb128 0x8
 3192 02f9 3A       		.uleb128 0x3a
 3193 02fa 0B       		.uleb128 0xb
 3194 02fb 3B       		.uleb128 0x3b
 3195 02fc 05       		.uleb128 0x5
 3196 02fd 49       		.uleb128 0x49
 3197 02fe 13       		.uleb128 0x13
 3198 02ff 00       		.byte	0
 3199 0300 00       		.byte	0
 3200 0301 39       		.uleb128 0x39
 3201 0302 34       		.uleb128 0x34
 3202 0303 00       		.byte	0
 3203 0304 03       		.uleb128 0x3
 3204 0305 08       		.uleb128 0x8
 3205 0306 3A       		.uleb128 0x3a
 3206 0307 0B       		.uleb128 0xb
 3207 0308 3B       		.uleb128 0x3b
 3208 0309 05       		.uleb128 0x5
 3209 030a 49       		.uleb128 0x49
 3210 030b 13       		.uleb128 0x13
 3211 030c 00       		.byte	0
 3212 030d 00       		.byte	0
 3213 030e 3A       		.uleb128 0x3a
 3214 030f 05       		.uleb128 0x5
 3215 0310 00       		.byte	0
 3216 0311 03       		.uleb128 0x3
 3217 0312 0E       		.uleb128 0xe
 3218 0313 3A       		.uleb128 0x3a
 3219 0314 0B       		.uleb128 0xb
 3220 0315 3B       		.uleb128 0x3b
 3221 0316 05       		.uleb128 0x5
 3222 0317 49       		.uleb128 0x49
 3223 0318 13       		.uleb128 0x13
 3224 0319 00       		.byte	0
 3225 031a 00       		.byte	0
 3226 031b 3B       		.uleb128 0x3b
 3227 031c 2E       		.uleb128 0x2e
 3228 031d 00       		.byte	0
 3229 031e 3F       		.uleb128 0x3f
 3230 031f 19       		.uleb128 0x19
 3231 0320 3C       		.uleb128 0x3c
 3232 0321 19       		.uleb128 0x19
 3233 0322 6E       		.uleb128 0x6e
 3234 0323 0E       		.uleb128 0xe
 3235 0324 03       		.uleb128 0x3
 3236 0325 0E       		.uleb128 0xe
 3237 0326 3A       		.uleb128 0x3a
 3238 0327 0B       		.uleb128 0xb
 3239 0328 3B       		.uleb128 0x3b
 3240 0329 0B       		.uleb128 0xb
 3241 032a 00       		.byte	0
 3242 032b 00       		.byte	0
ARM GAS  /var/folders/km/q6jdms0143g2bddz5bhvdfd00000gn/T//ccdVbhBp.s 			page 58


 3243 032c 3C       		.uleb128 0x3c
 3244 032d 2E       		.uleb128 0x2e
 3245 032e 00       		.byte	0
 3246 032f 3F       		.uleb128 0x3f
 3247 0330 19       		.uleb128 0x19
 3248 0331 3C       		.uleb128 0x3c
 3249 0332 19       		.uleb128 0x19
 3250 0333 6E       		.uleb128 0x6e
 3251 0334 0E       		.uleb128 0xe
 3252 0335 03       		.uleb128 0x3
 3253 0336 0E       		.uleb128 0xe
 3254 0337 3A       		.uleb128 0x3a
 3255 0338 0B       		.uleb128 0xb
 3256 0339 3B       		.uleb128 0x3b
 3257 033a 05       		.uleb128 0x5
 3258 033b 00       		.byte	0
 3259 033c 00       		.byte	0
 3260 033d 00       		.byte	0
 3261              		.section	.debug_loc,"",%progbits
 3262              	.Ldebug_loc0:
 3263              	.LLST12:
 3264 0000 00000000 		.4byte	.LVL39
 3265 0004 0F000000 		.4byte	.LVL41-1
 3266 0008 0100     		.2byte	0x1
 3267 000a 50       		.byte	0x50
 3268 000b 0F000000 		.4byte	.LVL41-1
 3269 000f 5E000000 		.4byte	.LVL53
 3270 0013 0100     		.2byte	0x1
 3271 0015 54       		.byte	0x54
 3272 0016 5E000000 		.4byte	.LVL53
 3273 001a 6C000000 		.4byte	.LFE221
 3274 001e 0400     		.2byte	0x4
 3275 0020 F3       		.byte	0xf3
 3276 0021 01       		.uleb128 0x1
 3277 0022 50       		.byte	0x50
 3278 0023 9F       		.byte	0x9f
 3279 0024 00000000 		.4byte	0
 3280 0028 00000000 		.4byte	0
 3281              	.LLST13:
 3282 002c 00000000 		.4byte	.LVL39
 3283 0030 0F000000 		.4byte	.LVL41-1
 3284 0034 0100     		.2byte	0x1
 3285 0036 51       		.byte	0x51
 3286 0037 0F000000 		.4byte	.LVL41-1
 3287 003b 5E000000 		.4byte	.LVL53
 3288 003f 0100     		.2byte	0x1
 3289 0041 55       		.byte	0x55
 3290 0042 5E000000 		.4byte	.LVL53
 3291 0046 6C000000 		.4byte	.LFE221
 3292 004a 0400     		.2byte	0x4
 3293 004c F3       		.byte	0xf3
 3294 004d 01       		.uleb128 0x1
 3295 004e 51       		.byte	0x51
 3296 004f 9F       		.byte	0x9f
 3297 0050 00000000 		.4byte	0
 3298 0054 00000000 		.4byte	0
 3299              	.LLST14:
ARM GAS  /var/folders/km/q6jdms0143g2bddz5bhvdfd00000gn/T//ccdVbhBp.s 			page 59


 3300 0058 00000000 		.4byte	.LVL39
 3301 005c 0C000000 		.4byte	.LVL40
 3302 0060 0300     		.2byte	0x3
 3303 0062 08       		.byte	0x8
 3304 0063 20       		.byte	0x20
 3305 0064 9F       		.byte	0x9f
 3306 0065 00000000 		.4byte	0
 3307 0069 00000000 		.4byte	0
 3308              	.LLST15:
 3309 006d 22000000 		.4byte	.LVL43
 3310 0071 2E000000 		.4byte	.LVL45
 3311 0075 0100     		.2byte	0x1
 3312 0077 55       		.byte	0x55
 3313 0078 00000000 		.4byte	0
 3314 007c 00000000 		.4byte	0
 3315              	.LLST16:
 3316 0080 22000000 		.4byte	.LVL43
 3317 0084 2E000000 		.4byte	.LVL45
 3318 0088 0100     		.2byte	0x1
 3319 008a 54       		.byte	0x54
 3320 008b 00000000 		.4byte	0
 3321 008f 00000000 		.4byte	0
 3322              	.LLST17:
 3323 0093 48000000 		.4byte	.LVL48
 3324 0097 4E000000 		.4byte	.LVL49
 3325 009b 0200     		.2byte	0x2
 3326 009d 30       		.byte	0x30
 3327 009e 9F       		.byte	0x9f
 3328 009f 56000000 		.4byte	.LVL51
 3329 00a3 5C000000 		.4byte	.LVL52
 3330 00a7 0200     		.2byte	0x2
 3331 00a9 30       		.byte	0x30
 3332 00aa 9F       		.byte	0x9f
 3333 00ab 00000000 		.4byte	0
 3334 00af 00000000 		.4byte	0
 3335              	.LLST7:
 3336 00b3 00000000 		.4byte	.LVL22
 3337 00b7 08000000 		.4byte	.LVL23
 3338 00bb 0300     		.2byte	0x3
 3339 00bd 08       		.byte	0x8
 3340 00be 20       		.byte	0x20
 3341 00bf 9F       		.byte	0x9f
 3342 00c0 00000000 		.4byte	0
 3343 00c4 00000000 		.4byte	0
 3344              	.LLST8:
 3345 00c8 14000000 		.4byte	.LVL26
 3346 00cc 18000000 		.4byte	.LVL27
 3347 00d0 0100     		.2byte	0x1
 3348 00d2 55       		.byte	0x55
 3349 00d3 00000000 		.4byte	0
 3350 00d7 00000000 		.4byte	0
 3351              	.LLST9:
 3352 00db 22000000 		.4byte	.LVL28
 3353 00df 2A000000 		.4byte	.LVL30
 3354 00e3 0300     		.2byte	0x3
 3355 00e5 73       		.byte	0x73
 3356 00e6 30       		.sleb128 48
ARM GAS  /var/folders/km/q6jdms0143g2bddz5bhvdfd00000gn/T//ccdVbhBp.s 			page 60


 3357 00e7 9F       		.byte	0x9f
 3358 00e8 2A000000 		.4byte	.LVL30
 3359 00ec 2E000000 		.4byte	.LVL31
 3360 00f0 0100     		.2byte	0x1
 3361 00f2 53       		.byte	0x53
 3362 00f3 00000000 		.4byte	0
 3363 00f7 00000000 		.4byte	0
 3364              	.LLST10:
 3365 00fb 24000000 		.4byte	.LVL29
 3366 00ff 2E000000 		.4byte	.LVL31
 3367 0103 0100     		.2byte	0x1
 3368 0105 55       		.byte	0x55
 3369 0106 00000000 		.4byte	0
 3370 010a 00000000 		.4byte	0
 3371              	.LLST11:
 3372 010e 4A000000 		.4byte	.LVL34
 3373 0112 50000000 		.4byte	.LVL35
 3374 0116 0200     		.2byte	0x2
 3375 0118 30       		.byte	0x30
 3376 0119 9F       		.byte	0x9f
 3377 011a 5A000000 		.4byte	.LVL36
 3378 011e 60000000 		.4byte	.LVL37
 3379 0122 0200     		.2byte	0x2
 3380 0124 30       		.byte	0x30
 3381 0125 9F       		.byte	0x9f
 3382 0126 00000000 		.4byte	0
 3383 012a 00000000 		.4byte	0
 3384              	.LLST0:
 3385 012e 00000000 		.4byte	.LVL0
 3386 0132 0E000000 		.4byte	.LVL2
 3387 0136 0100     		.2byte	0x1
 3388 0138 50       		.byte	0x50
 3389 0139 0E000000 		.4byte	.LVL2
 3390 013d 78000000 		.4byte	.LVL19
 3391 0141 0100     		.2byte	0x1
 3392 0143 55       		.byte	0x55
 3393 0144 78000000 		.4byte	.LVL19
 3394 0148 7A000000 		.4byte	.LVL20
 3395 014c 0100     		.2byte	0x1
 3396 014e 50       		.byte	0x50
 3397 014f 7A000000 		.4byte	.LVL20
 3398 0153 8C000000 		.4byte	.LFE219
 3399 0157 0100     		.2byte	0x1
 3400 0159 55       		.byte	0x55
 3401 015a 00000000 		.4byte	0
 3402 015e 00000000 		.4byte	0
 3403              	.LLST1:
 3404 0162 00000000 		.4byte	.LVL0
 3405 0166 0E000000 		.4byte	.LVL2
 3406 016a 0100     		.2byte	0x1
 3407 016c 51       		.byte	0x51
 3408 016d 0E000000 		.4byte	.LVL2
 3409 0171 3E000000 		.4byte	.LVL9
 3410 0175 0100     		.2byte	0x1
 3411 0177 57       		.byte	0x57
 3412 0178 3E000000 		.4byte	.LVL9
 3413 017c 70000000 		.4byte	.LVL17
ARM GAS  /var/folders/km/q6jdms0143g2bddz5bhvdfd00000gn/T//ccdVbhBp.s 			page 61


 3414 0180 0100     		.2byte	0x1
 3415 0182 54       		.byte	0x54
 3416 0183 70000000 		.4byte	.LVL17
 3417 0187 78000000 		.4byte	.LVL19
 3418 018b 0100     		.2byte	0x1
 3419 018d 57       		.byte	0x57
 3420 018e 78000000 		.4byte	.LVL19
 3421 0192 7D000000 		.4byte	.LVL21-1
 3422 0196 0100     		.2byte	0x1
 3423 0198 51       		.byte	0x51
 3424 0199 7D000000 		.4byte	.LVL21-1
 3425 019d 8C000000 		.4byte	.LFE219
 3426 01a1 0100     		.2byte	0x1
 3427 01a3 57       		.byte	0x57
 3428 01a4 00000000 		.4byte	0
 3429 01a8 00000000 		.4byte	0
 3430              	.LLST2:
 3431 01ac 08000000 		.4byte	.LVL1
 3432 01b0 3E000000 		.4byte	.LVL9
 3433 01b4 0100     		.2byte	0x1
 3434 01b6 54       		.byte	0x54
 3435 01b7 70000000 		.4byte	.LVL17
 3436 01bb 8C000000 		.4byte	.LFE219
 3437 01bf 0100     		.2byte	0x1
 3438 01c1 54       		.byte	0x54
 3439 01c2 00000000 		.4byte	0
 3440 01c6 00000000 		.4byte	0
 3441              	.LLST3:
 3442 01ca 0E000000 		.4byte	.LVL2
 3443 01ce 14000000 		.4byte	.LVL3
 3444 01d2 0300     		.2byte	0x3
 3445 01d4 08       		.byte	0x8
 3446 01d5 20       		.byte	0x20
 3447 01d6 9F       		.byte	0x9f
 3448 01d7 00000000 		.4byte	0
 3449 01db 00000000 		.4byte	0
 3450              	.LLST4:
 3451 01df 28000000 		.4byte	.LVL6
 3452 01e3 32000000 		.4byte	.LVL7
 3453 01e7 0100     		.2byte	0x1
 3454 01e9 52       		.byte	0x52
 3455 01ea 00000000 		.4byte	0
 3456 01ee 00000000 		.4byte	0
 3457              	.LLST5:
 3458 01f2 28000000 		.4byte	.LVL6
 3459 01f6 32000000 		.4byte	.LVL7
 3460 01fa 0100     		.2byte	0x1
 3461 01fc 54       		.byte	0x54
 3462 01fd 00000000 		.4byte	0
 3463 0201 00000000 		.4byte	0
 3464              	.LLST6:
 3465 0205 56000000 		.4byte	.LVL12
 3466 0209 5C000000 		.4byte	.LVL13
 3467 020d 0200     		.2byte	0x2
 3468 020f 30       		.byte	0x30
 3469 0210 9F       		.byte	0x9f
 3470 0211 66000000 		.4byte	.LVL15
ARM GAS  /var/folders/km/q6jdms0143g2bddz5bhvdfd00000gn/T//ccdVbhBp.s 			page 62


 3471 0215 6C000000 		.4byte	.LVL16
 3472 0219 0200     		.2byte	0x2
 3473 021b 30       		.byte	0x30
 3474 021c 9F       		.byte	0x9f
 3475 021d 00000000 		.4byte	0
 3476 0221 00000000 		.4byte	0
 3477              		.section	.debug_aranges,"",%progbits
 3478 0000 2C000000 		.4byte	0x2c
 3479 0004 0200     		.2byte	0x2
 3480 0006 00000000 		.4byte	.Ldebug_info0
 3481 000a 04       		.byte	0x4
 3482 000b 00       		.byte	0
 3483 000c 0000     		.2byte	0
 3484 000e 0000     		.2byte	0
 3485 0010 00000000 		.4byte	.LFB219
 3486 0014 8C000000 		.4byte	.LFE219-.LFB219
 3487 0018 00000000 		.4byte	.LFB220
 3488 001c 74000000 		.4byte	.LFE220-.LFB220
 3489 0020 00000000 		.4byte	.LFB221
 3490 0024 6C000000 		.4byte	.LFE221-.LFB221
 3491 0028 00000000 		.4byte	0
 3492 002c 00000000 		.4byte	0
 3493              		.section	.debug_ranges,"",%progbits
 3494              	.Ldebug_ranges0:
 3495 0000 1C000000 		.4byte	.LBB54
 3496 0004 20000000 		.4byte	.LBE54
 3497 0008 28000000 		.4byte	.LBB58
 3498 000c 2C000000 		.4byte	.LBE58
 3499 0010 30000000 		.4byte	.LBB59
 3500 0014 32000000 		.4byte	.LBE59
 3501 0018 00000000 		.4byte	0
 3502 001c 00000000 		.4byte	0
 3503 0020 3E000000 		.4byte	.LBB60
 3504 0024 5C000000 		.4byte	.LBE60
 3505 0028 60000000 		.4byte	.LBB69
 3506 002c 6C000000 		.4byte	.LBE69
 3507 0030 00000000 		.4byte	0
 3508 0034 00000000 		.4byte	0
 3509 0038 56000000 		.4byte	.LBB62
 3510 003c 5C000000 		.4byte	.LBE62
 3511 0040 66000000 		.4byte	.LBB67
 3512 0044 6C000000 		.4byte	.LBE67
 3513 0048 00000000 		.4byte	0
 3514 004c 00000000 		.4byte	0
 3515 0050 02000000 		.4byte	.LBB84
 3516 0054 08000000 		.4byte	.LBE84
 3517 0058 0A000000 		.4byte	.LBB90
 3518 005c 12000000 		.4byte	.LBE90
 3519 0060 00000000 		.4byte	0
 3520 0064 00000000 		.4byte	0
 3521 0068 14000000 		.4byte	.LBB91
 3522 006c 18000000 		.4byte	.LBE91
 3523 0070 1A000000 		.4byte	.LBB94
 3524 0074 1C000000 		.4byte	.LBE94
 3525 0078 00000000 		.4byte	0
 3526 007c 00000000 		.4byte	0
 3527 0080 22000000 		.4byte	.LBB95
ARM GAS  /var/folders/km/q6jdms0143g2bddz5bhvdfd00000gn/T//ccdVbhBp.s 			page 63


 3528 0084 2A000000 		.4byte	.LBE95
 3529 0088 2C000000 		.4byte	.LBB98
 3530 008c 2E000000 		.4byte	.LBE98
 3531 0090 00000000 		.4byte	0
 3532 0094 00000000 		.4byte	0
 3533 0098 32000000 		.4byte	.LBB99
 3534 009c 50000000 		.4byte	.LBE99
 3535 00a0 54000000 		.4byte	.LBB108
 3536 00a4 60000000 		.4byte	.LBE108
 3537 00a8 00000000 		.4byte	0
 3538 00ac 00000000 		.4byte	0
 3539 00b0 4A000000 		.4byte	.LBB101
 3540 00b4 50000000 		.4byte	.LBE101
 3541 00b8 5A000000 		.4byte	.LBB106
 3542 00bc 60000000 		.4byte	.LBE106
 3543 00c0 00000000 		.4byte	0
 3544 00c4 00000000 		.4byte	0
 3545 00c8 2E000000 		.4byte	.LBB128
 3546 00cc 4E000000 		.4byte	.LBE128
 3547 00d0 50000000 		.4byte	.LBB137
 3548 00d4 5C000000 		.4byte	.LBE137
 3549 00d8 00000000 		.4byte	0
 3550 00dc 00000000 		.4byte	0
 3551 00e0 48000000 		.4byte	.LBB130
 3552 00e4 4E000000 		.4byte	.LBE130
 3553 00e8 56000000 		.4byte	.LBB135
 3554 00ec 5C000000 		.4byte	.LBE135
 3555 00f0 00000000 		.4byte	0
 3556 00f4 00000000 		.4byte	0
 3557 00f8 00000000 		.4byte	.LFB219
 3558 00fc 8C000000 		.4byte	.LFE219
 3559 0100 00000000 		.4byte	.LFB220
 3560 0104 74000000 		.4byte	.LFE220
 3561 0108 00000000 		.4byte	.LFB221
 3562 010c 6C000000 		.4byte	.LFE221
 3563 0110 00000000 		.4byte	0
 3564 0114 00000000 		.4byte	0
 3565              		.section	.debug_line,"",%progbits
 3566              	.Ldebug_line0:
 3567 0000 4B040000 		.section	.debug_str,"MS",%progbits,1
 3567      0200F402 
 3567      00000201 
 3567      FB0E0D00 
 3567      01010101 
 3568              	.LASF145:
 3569 0000 63665F6F 		.ascii	"cf_off_older\000"
 3569      66665F6F 
 3569      6C646572 
 3569      00
 3570              	.LASF60:
 3571 000d 72656164 		.ascii	"ready_list_t\000"
 3571      795F6C69 
 3571      73745F74 
 3571      00
 3572              	.LASF164:
 3573 001a 71756575 		.ascii	"queue_insert\000"
 3573      655F696E 
ARM GAS  /var/folders/km/q6jdms0143g2bddz5bhvdfd00000gn/T//ccdVbhBp.s 			page 64


 3573      73657274 
 3573      00
 3574              	.LASF122:
 3575 0027 77747472 		.ascii	"wttrp\000"
 3575      7000
 3576              	.LASF119:
 3577 002d 7264796D 		.ascii	"rdymsg\000"
 3577      736700
 3578              	.LASF19:
 3579 0034 75696E74 		.ascii	"uint64_t\000"
 3579      36345F74 
 3579      00
 3580              	.LASF90:
 3581 003d 6B65726E 		.ascii	"kernel_stats\000"
 3581      656C5F73 
 3581      74617473 
 3581      00
 3582              	.LASF6:
 3583 004a 5F5F7569 		.ascii	"__uint8_t\000"
 3583      6E74385F 
 3583      7400
 3584              	.LASF97:
 3585 0054 706F7274 		.ascii	"port_intctx\000"
 3585      5F696E74 
 3585      63747800 
 3586              	.LASF59:
 3587 0060 63685F74 		.ascii	"ch_threads_queue\000"
 3587      68726561 
 3587      64735F71 
 3587      75657565 
 3587      00
 3588              	.LASF79:
 3589 0071 73797374 		.ascii	"system_debug_t\000"
 3589      656D5F64 
 3589      65627567 
 3589      5F7400
 3590              	.LASF167:
 3591 0080 706F7274 		.ascii	"port_lock\000"
 3591      5F6C6F63 
 3591      6B00
 3592              	.LASF110:
 3593 008a 776F7273 		.ascii	"worst\000"
 3593      7400
 3594              	.LASF113:
 3595 0090 74696D65 		.ascii	"time_measurement_t\000"
 3595      5F6D6561 
 3595      73757265 
 3595      6D656E74 
 3595      5F7400
 3596              	.LASF14:
 3597 00a3 6C6F6E67 		.ascii	"long long unsigned int\000"
 3597      206C6F6E 
 3597      6720756E 
 3597      7369676E 
 3597      65642069 
 3598              	.LASF106:
 3599 00ba 63685F74 		.ascii	"ch_trace_buffer_t\000"
ARM GAS  /var/folders/km/q6jdms0143g2bddz5bhvdfd00000gn/T//ccdVbhBp.s 			page 65


 3599      72616365 
 3599      5F627566 
 3599      6665725F 
 3599      7400
 3600              	.LASF141:
 3601 00cc 63685F74 		.ascii	"ch_threadsize\000"
 3601      68726561 
 3601      6473697A 
 3601      6500
 3602              	.LASF120:
 3603 00da 65786974 		.ascii	"exitcode\000"
 3603      636F6465 
 3603      00
 3604              	.LASF89:
 3605 00e3 6D61696E 		.ascii	"mainthread\000"
 3605      74687265 
 3605      616400
 3606              	.LASF170:
 3607 00ee 5F737461 		.ascii	"_stats_start_measure_crit_thd\000"
 3607      74735F73 
 3607      74617274 
 3607      5F6D6561 
 3607      73757265 
 3608              	.LASF76:
 3609 010c 76697274 		.ascii	"virtual_timers_list_t\000"
 3609      75616C5F 
 3609      74696D65 
 3609      72735F6C 
 3609      6973745F 
 3610              	.LASF92:
 3611 0122 49544D5F 		.ascii	"ITM_RxBuffer\000"
 3611      52784275 
 3611      66666572 
 3611      00
 3612              	.LASF21:
 3613 012f 72747469 		.ascii	"rttime_t\000"
 3613      6D655F74 
 3613      00
 3614              	.LASF35:
 3615 0138 705F7072 		.ascii	"p_prio\000"
 3615      696F00
 3616              	.LASF148:
 3617 013f 63665F6F 		.ascii	"cf_off_state\000"
 3617      66665F73 
 3617      74617465 
 3617      00
 3618              	.LASF1:
 3619 014c 6C6F6E67 		.ascii	"long long int\000"
 3619      206C6F6E 
 3619      6720696E 
 3619      7400
 3620              	.LASF3:
 3621 015a 7369676E 		.ascii	"signed char\000"
 3621      65642063 
 3621      68617200 
 3622              	.LASF147:
 3623 0166 63665F6F 		.ascii	"cf_off_stklimit\000"
ARM GAS  /var/folders/km/q6jdms0143g2bddz5bhvdfd00000gn/T//ccdVbhBp.s 			page 66


 3623      66665F73 
 3623      746B6C69 
 3623      6D697400 
 3624              	.LASF149:
 3625 0176 63665F6F 		.ascii	"cf_off_flags\000"
 3625      66665F66 
 3625      6C616773 
 3625      00
 3626              	.LASF52:
 3627 0183 705F6D70 		.ascii	"p_mpool\000"
 3627      6F6F6C00 
 3628              	.LASF130:
 3629 018b 6D5F7175 		.ascii	"m_queue\000"
 3629      65756500 
 3630              	.LASF88:
 3631 0193 76746C69 		.ascii	"vtlist\000"
 3631      737400
 3632              	.LASF166:
 3633 019a 706F7274 		.ascii	"port_unlock\000"
 3633      5F756E6C 
 3633      6F636B00 
 3634              	.LASF25:
 3635 01a6 74736C69 		.ascii	"tslices_t\000"
 3635      6365735F 
 3635      7400
 3636              	.LASF86:
 3637 01b0 63685F73 		.ascii	"ch_system\000"
 3637      79737465 
 3637      6D00
 3638              	.LASF10:
 3639 01ba 6C6F6E67 		.ascii	"long int\000"
 3639      20696E74 
 3639      00
 3640              	.LASF158:
 3641 01c3 63684D73 		.ascii	"chMsgSend\000"
 3641      6753656E 
 3641      6400
 3642              	.LASF23:
 3643 01cd 74737461 		.ascii	"tstate_t\000"
 3643      74655F74 
 3643      00
 3644              	.LASF99:
 3645 01d6 73655F74 		.ascii	"se_tp\000"
 3645      7000
 3646              	.LASF153:
 3647 01dc 63686465 		.ascii	"chdebug_t\000"
 3647      6275675F 
 3647      7400
 3648              	.LASF162:
 3649 01e6 63684D73 		.ascii	"chMsgIsPendingI\000"
 3649      67497350 
 3649      656E6469 
 3649      6E674900 
 3650              	.LASF37:
 3651 01f6 705F6E65 		.ascii	"p_newer\000"
 3651      77657200 
 3652              	.LASF127:
ARM GAS  /var/folders/km/q6jdms0143g2bddz5bhvdfd00000gn/T//ccdVbhBp.s 			page 67


 3653 01fe 735F7175 		.ascii	"s_queue\000"
 3653      65756500 
 3654              	.LASF103:
 3655 0206 74625F73 		.ascii	"tb_size\000"
 3655      697A6500 
 3656              	.LASF65:
 3657 020e 725F6E65 		.ascii	"r_newer\000"
 3657      77657200 
 3658              	.LASF94:
 3659 0216 72656761 		.ascii	"regarm_t\000"
 3659      726D5F74 
 3659      00
 3660              	.LASF72:
 3661 021f 76745F70 		.ascii	"vt_prev\000"
 3661      72657600 
 3662              	.LASF176:
 3663 0227 63685379 		.ascii	"chSysHalt\000"
 3663      7348616C 
 3663      7400
 3664              	.LASF80:
 3665 0231 63685F73 		.ascii	"ch_system_debug\000"
 3665      79737465 
 3665      6D5F6465 
 3665      62756700 
 3666              	.LASF133:
 3667 0241 6D5F636E 		.ascii	"m_cnt\000"
 3667      7400
 3668              	.LASF155:
 3669 0247 6D757465 		.ascii	"mutex_t\000"
 3669      785F7400 
 3670              	.LASF169:
 3671 024f 76616C75 		.ascii	"value\000"
 3671      6500
 3672              	.LASF83:
 3673 0255 6C6F636B 		.ascii	"lock_cnt\000"
 3673      5F636E74 
 3673      00
 3674              	.LASF91:
 3675 025e 69646C65 		.ascii	"idle_thread_wa\000"
 3675      5F746872 
 3675      6561645F 
 3675      776100
 3676              	.LASF29:
 3677 026d 636E745F 		.ascii	"cnt_t\000"
 3677      7400
 3678              	.LASF40:
 3679 0273 705F7374 		.ascii	"p_stklimit\000"
 3679      6B6C696D 
 3679      697400
 3680              	.LASF0:
 3681 027e 756E7369 		.ascii	"unsigned int\000"
 3681      676E6564 
 3681      20696E74 
 3681      00
 3682              	.LASF71:
 3683 028b 76745F6E 		.ascii	"vt_next\000"
 3683      65787400 
ARM GAS  /var/folders/km/q6jdms0143g2bddz5bhvdfd00000gn/T//ccdVbhBp.s 			page 68


 3684              	.LASF16:
 3685 0293 75696E74 		.ascii	"uint16_t\000"
 3685      31365F74 
 3685      00
 3686              	.LASF93:
 3687 029c 53797374 		.ascii	"SystemCoreClock\000"
 3687      656D436F 
 3687      7265436C 
 3687      6F636B00 
 3688              	.LASF45:
 3689 02ac 705F7469 		.ascii	"p_time\000"
 3689      6D6500
 3690              	.LASF123:
 3691 02b3 77747365 		.ascii	"wtsemp\000"
 3691      6D7000
 3692              	.LASF180:
 3693 02ba 474E5520 		.ascii	"GNU C11 7.2.1 20170904 (release) [ARM/embedded-7-br"
 3693      43313120 
 3693      372E322E 
 3693      31203230 
 3693      31373039 
 3694 02ed 616E6368 		.ascii	"anch revision 255204] -mcpu=cortex-m4 -mfloat-abi=h"
 3694      20726576 
 3694      6973696F 
 3694      6E203235 
 3694      35323034 
 3695 0320 61726420 		.ascii	"ard -mfpu=fpv4-sp-d16 -mno-thumb-interwork -mthumb "
 3695      2D6D6670 
 3695      753D6670 
 3695      76342D73 
 3695      702D6431 
 3696 0353 2D676764 		.ascii	"-ggdb -O2 -fomit-frame-pointer -falign-functions=16"
 3696      62202D4F 
 3696      32202D66 
 3696      6F6D6974 
 3696      2D667261 
 3697 0386 202D6666 		.ascii	" -ffunction-sections -fdata-sections -fno-common -f"
 3697      756E6374 
 3697      696F6E2D 
 3697      73656374 
 3697      696F6E73 
 3698 03b9 73696E67 		.ascii	"single-precision-constant\000"
 3698      6C652D70 
 3698      72656369 
 3698      73696F6E 
 3698      2D636F6E 
 3699              	.LASF47:
 3700 03d3 705F6D73 		.ascii	"p_msgqueue\000"
 3700      67717565 
 3700      756500
 3701              	.LASF154:
 3702 03de 63685F64 		.ascii	"ch_debug\000"
 3702      65627567 
 3702      00
 3703              	.LASF114:
 3704 03e7 6E5F6972 		.ascii	"n_irq\000"
 3704      7100
ARM GAS  /var/folders/km/q6jdms0143g2bddz5bhvdfd00000gn/T//ccdVbhBp.s 			page 69


 3705              	.LASF128:
 3706 03ed 735F636E 		.ascii	"s_cnt\000"
 3706      7400
 3707              	.LASF8:
 3708 03f3 73686F72 		.ascii	"short unsigned int\000"
 3708      7420756E 
 3708      7369676E 
 3708      65642069 
 3708      6E7400
 3709              	.LASF118:
 3710 0406 6B65726E 		.ascii	"kernel_stats_t\000"
 3710      656C5F73 
 3710      74617473 
 3710      5F7400
 3711              	.LASF56:
 3712 0415 63685F74 		.ascii	"ch_thread\000"
 3712      68726561 
 3712      6400
 3713              	.LASF173:
 3714 041f 63685363 		.ascii	"chSchWakeupS\000"
 3714      6857616B 
 3714      65757053 
 3714      00
 3715              	.LASF27:
 3716 042c 6D73675F 		.ascii	"msg_t\000"
 3716      7400
 3717              	.LASF111:
 3718 0432 6C617374 		.ascii	"last\000"
 3718      00
 3719              	.LASF30:
 3720 0437 75636E74 		.ascii	"ucnt_t\000"
 3720      5F7400
 3721              	.LASF177:
 3722 043e 63684462 		.ascii	"chDbgCheckClassI\000"
 3722      67436865 
 3722      636B436C 
 3722      61737349 
 3722      00
 3723              	.LASF85:
 3724 044f 63685F73 		.ascii	"ch_system_t\000"
 3724      79737465 
 3724      6D5F7400 
 3725              	.LASF152:
 3726 045b 63665F6F 		.ascii	"cf_off_time\000"
 3726      66665F74 
 3726      696D6500 
 3727              	.LASF182:
 3728 0467 2F557365 		.ascii	"/Users/xavierdulex/Documents/EPFL/MT6/robotique_et_"
 3728      72732F78 
 3728      61766965 
 3728      7264756C 
 3728      65782F44 
 3729 049a 73797374 		.ascii	"systemes_ embarques/GitRobotique/TP3_Chibi/Chibi_co"
 3729      656D6573 
 3729      5F20656D 
 3729      62617271 
 3729      7565732F 
ARM GAS  /var/folders/km/q6jdms0143g2bddz5bhvdfd00000gn/T//ccdVbhBp.s 			page 70


 3730 04cd 72726563 		.ascii	"rrection/\000"
 3730      74696F6E 
 3730      2F00
 3731              	.LASF172:
 3732 04d7 63684462 		.ascii	"chDbgCheckClassS\000"
 3732      67436865 
 3732      636B436C 
 3732      61737353 
 3732      00
 3733              	.LASF117:
 3734 04e8 6D5F6372 		.ascii	"m_crit_isr\000"
 3734      69745F69 
 3734      737200
 3735              	.LASF61:
 3736 04f3 63685F72 		.ascii	"ch_ready_list\000"
 3736      65616479 
 3736      5F6C6973 
 3736      7400
 3737              	.LASF28:
 3738 0501 6576656E 		.ascii	"eventmask_t\000"
 3738      746D6173 
 3738      6B5F7400 
 3739              	.LASF9:
 3740 050d 5F5F696E 		.ascii	"__int32_t\000"
 3740      7433325F 
 3740      7400
 3741              	.LASF95:
 3742 0517 73746B61 		.ascii	"stkalign_t\000"
 3742      6C69676E 
 3742      5F7400
 3743              	.LASF55:
 3744 0522 74687265 		.ascii	"threads_list_t\000"
 3744      6164735F 
 3744      6C697374 
 3744      5F7400
 3745              	.LASF136:
 3746 0531 63685F7A 		.ascii	"ch_zero\000"
 3746      65726F00 
 3747              	.LASF150:
 3748 0539 63665F6F 		.ascii	"cf_off_refs\000"
 3748      66665F72 
 3748      65667300 
 3749              	.LASF46:
 3750 0545 705F7761 		.ascii	"p_waiting\000"
 3750      6974696E 
 3750      6700
 3751              	.LASF175:
 3752 054f 5F737461 		.ascii	"_stats_stop_measure_crit_thd\000"
 3752      74735F73 
 3752      746F705F 
 3752      6D656173 
 3752      7572655F 
 3753              	.LASF20:
 3754 056c 7274636E 		.ascii	"rtcnt_t\000"
 3754      745F7400 
 3755              	.LASF171:
 3756 0574 5F646267 		.ascii	"_dbg_check_lock\000"
ARM GAS  /var/folders/km/q6jdms0143g2bddz5bhvdfd00000gn/T//ccdVbhBp.s 			page 71


 3756      5F636865 
 3756      636B5F6C 
 3756      6F636B00 
 3757              	.LASF77:
 3758 0584 63685F76 		.ascii	"ch_virtual_timers_list\000"
 3758      69727475 
 3758      616C5F74 
 3758      696D6572 
 3758      735F6C69 
 3759              	.LASF2:
 3760 059b 6C6F6E67 		.ascii	"long double\000"
 3760      20646F75 
 3760      626C6500 
 3761              	.LASF140:
 3762 05a7 63685F74 		.ascii	"ch_timesize\000"
 3762      696D6573 
 3762      697A6500 
 3763              	.LASF104:
 3764 05b3 74625F70 		.ascii	"tb_ptr\000"
 3764      747200
 3765              	.LASF102:
 3766 05ba 63685F73 		.ascii	"ch_swc_event_t\000"
 3766      77635F65 
 3766      76656E74 
 3766      5F7400
 3767              	.LASF146:
 3768 05c9 63665F6F 		.ascii	"cf_off_name\000"
 3768      66665F6E 
 3768      616D6500 
 3769              	.LASF38:
 3770 05d5 705F6F6C 		.ascii	"p_older\000"
 3770      64657200 
 3771              	.LASF64:
 3772 05dd 725F6374 		.ascii	"r_ctx\000"
 3772      7800
 3773              	.LASF36:
 3774 05e3 705F6374 		.ascii	"p_ctx\000"
 3774      7800
 3775              	.LASF108:
 3776 05e9 746D5F63 		.ascii	"tm_calibration_t\000"
 3776      616C6962 
 3776      72617469 
 3776      6F6E5F74 
 3776      00
 3777              	.LASF132:
 3778 05fa 6D5F6E65 		.ascii	"m_next\000"
 3778      787400
 3779              	.LASF67:
 3780 0601 725F6375 		.ascii	"r_current\000"
 3780      7272656E 
 3780      7400
 3781              	.LASF66:
 3782 060b 725F6F6C 		.ascii	"r_older\000"
 3782      64657200 
 3783              	.LASF13:
 3784 0613 5F5F7569 		.ascii	"__uint64_t\000"
 3784      6E743634 
ARM GAS  /var/folders/km/q6jdms0143g2bddz5bhvdfd00000gn/T//ccdVbhBp.s 			page 72


 3784      5F7400
 3785              	.LASF112:
 3786 061e 63756D75 		.ascii	"cumulative\000"
 3786      6C617469 
 3786      766500
 3787              	.LASF24:
 3788 0629 74726566 		.ascii	"trefs_t\000"
 3788      735F7400 
 3789              	.LASF105:
 3790 0631 74625F62 		.ascii	"tb_buffer\000"
 3790      75666665 
 3790      7200
 3791              	.LASF139:
 3792 063b 63685F70 		.ascii	"ch_ptrsize\000"
 3792      74727369 
 3792      7A6500
 3793              	.LASF69:
 3794 0646 76697274 		.ascii	"virtual_timer_t\000"
 3794      75616C5F 
 3794      74696D65 
 3794      725F7400 
 3795              	.LASF34:
 3796 0656 705F7072 		.ascii	"p_prev\000"
 3796      657600
 3797              	.LASF26:
 3798 065d 74707269 		.ascii	"tprio_t\000"
 3798      6F5F7400 
 3799              	.LASF115:
 3800 0665 6E5F6374 		.ascii	"n_ctxswc\000"
 3800      78737763 
 3800      00
 3801              	.LASF159:
 3802 066e 5F426F6F 		.ascii	"_Bool\000"
 3802      6C00
 3803              	.LASF17:
 3804 0674 696E7433 		.ascii	"int32_t\000"
 3804      325F7400 
 3805              	.LASF4:
 3806 067c 756E7369 		.ascii	"unsigned char\000"
 3806      676E6564 
 3806      20636861 
 3806      7200
 3807              	.LASF50:
 3808 068a 705F6D74 		.ascii	"p_mtxlist\000"
 3808      786C6973 
 3808      7400
 3809              	.LASF5:
 3810 0694 73686F72 		.ascii	"short int\000"
 3810      7420696E 
 3810      7400
 3811              	.LASF41:
 3812 069e 705F7374 		.ascii	"p_state\000"
 3812      61746500 
 3813              	.LASF44:
 3814 06a6 705F7072 		.ascii	"p_preempt\000"
 3814      65656D70 
 3814      7400
ARM GAS  /var/folders/km/q6jdms0143g2bddz5bhvdfd00000gn/T//ccdVbhBp.s 			page 73


 3815              	.LASF63:
 3816 06b0 725F7072 		.ascii	"r_prio\000"
 3816      696F00
 3817              	.LASF125:
 3818 06b7 65776D61 		.ascii	"ewmask\000"
 3818      736B00
 3819              	.LASF33:
 3820 06be 705F6E65 		.ascii	"p_next\000"
 3820      787400
 3821              	.LASF22:
 3822 06c5 746D6F64 		.ascii	"tmode_t\000"
 3822      655F7400 
 3823              	.LASF151:
 3824 06cd 63665F6F 		.ascii	"cf_off_preempt\000"
 3824      66665F70 
 3824      7265656D 
 3824      707400
 3825              	.LASF42:
 3826 06dc 705F666C 		.ascii	"p_flags\000"
 3826      61677300 
 3827              	.LASF156:
 3828 06e4 5F5F6675 		.ascii	"__func__\000"
 3828      6E635F5F 
 3828      00
 3829              	.LASF53:
 3830 06ed 705F7374 		.ascii	"p_stats\000"
 3830      61747300 
 3831              	.LASF165:
 3832 06f5 63685379 		.ascii	"chSysLock\000"
 3832      734C6F63 
 3832      6B00
 3833              	.LASF58:
 3834 06ff 74687265 		.ascii	"threads_queue_t\000"
 3834      6164735F 
 3834      71756575 
 3834      655F7400 
 3835              	.LASF70:
 3836 070f 63685F76 		.ascii	"ch_virtual_timer\000"
 3836      69727475 
 3836      616C5F74 
 3836      696D6572 
 3836      00
 3837              	.LASF183:
 3838 0720 63684D73 		.ascii	"chMsgRelease\000"
 3838      6752656C 
 3838      65617365 
 3838      00
 3839              	.LASF126:
 3840 072d 63685F73 		.ascii	"ch_semaphore\000"
 3840      656D6170 
 3840      686F7265 
 3840      00
 3841              	.LASF178:
 3842 073a 63685363 		.ascii	"chSchGoSleepS\000"
 3842      68476F53 
 3842      6C656570 
 3842      5300
ARM GAS  /var/folders/km/q6jdms0143g2bddz5bhvdfd00000gn/T//ccdVbhBp.s 			page 74


 3843              	.LASF49:
 3844 0748 705F6570 		.ascii	"p_epending\000"
 3844      656E6469 
 3844      6E6700
 3845              	.LASF18:
 3846 0753 75696E74 		.ascii	"uint32_t\000"
 3846      33325F74 
 3846      00
 3847              	.LASF142:
 3848 075c 63665F6F 		.ascii	"cf_off_prio\000"
 3848      66665F70 
 3848      72696F00 
 3849              	.LASF62:
 3850 0768 725F7175 		.ascii	"r_queue\000"
 3850      65756500 
 3851              	.LASF179:
 3852 0770 63685363 		.ascii	"chSchReadyI\000"
 3852      68526561 
 3852      64794900 
 3853              	.LASF57:
 3854 077c 63685F74 		.ascii	"ch_threads_list\000"
 3854      68726561 
 3854      64735F6C 
 3854      69737400 
 3855              	.LASF137:
 3856 078c 63685F73 		.ascii	"ch_size\000"
 3856      697A6500 
 3857              	.LASF12:
 3858 0794 6C6F6E67 		.ascii	"long unsigned int\000"
 3858      20756E73 
 3858      69676E65 
 3858      6420696E 
 3858      7400
 3859              	.LASF134:
 3860 07a6 63686172 		.ascii	"char\000"
 3860      00
 3861              	.LASF124:
 3862 07ab 77746D74 		.ascii	"wtmtxp\000"
 3862      787000
 3863              	.LASF7:
 3864 07b2 5F5F7569 		.ascii	"__uint16_t\000"
 3864      6E743136 
 3864      5F7400
 3865              	.LASF32:
 3866 07bd 74687265 		.ascii	"thread_t\000"
 3866      61645F74 
 3866      00
 3867              	.LASF109:
 3868 07c6 62657374 		.ascii	"best\000"
 3868      00
 3869              	.LASF163:
 3870 07cb 71756575 		.ascii	"queue_fifo_remove\000"
 3870      655F6669 
 3870      666F5F72 
 3870      656D6F76 
 3870      6500
 3871              	.LASF31:
ARM GAS  /var/folders/km/q6jdms0143g2bddz5bhvdfd00000gn/T//ccdVbhBp.s 			page 75


 3872 07dd 73797374 		.ascii	"systime_t\000"
 3872      696D655F 
 3872      7400
 3873              	.LASF51:
 3874 07e7 705F7265 		.ascii	"p_realprio\000"
 3874      616C7072 
 3874      696F00
 3875              	.LASF68:
 3876 07f2 76746675 		.ascii	"vtfunc_t\000"
 3876      6E635F74 
 3876      00
 3877              	.LASF11:
 3878 07fb 5F5F7569 		.ascii	"__uint32_t\000"
 3878      6E743332 
 3878      5F7400
 3879              	.LASF168:
 3880 0806 5F5F7365 		.ascii	"__set_BASEPRI\000"
 3880      745F4241 
 3880      53455052 
 3880      4900
 3881              	.LASF81:
 3882 0814 70616E69 		.ascii	"panic_msg\000"
 3882      635F6D73 
 3882      6700
 3883              	.LASF107:
 3884 081e 6F666673 		.ascii	"offset\000"
 3884      657400
 3885              	.LASF96:
 3886 0825 636F6E74 		.ascii	"context\000"
 3886      65787400 
 3887              	.LASF48:
 3888 082d 705F6D73 		.ascii	"p_msg\000"
 3888      6700
 3889              	.LASF75:
 3890 0833 76745F70 		.ascii	"vt_par\000"
 3890      617200
 3891              	.LASF157:
 3892 083a 63684D73 		.ascii	"chMsgWait\000"
 3892      67576169 
 3892      7400
 3893              	.LASF98:
 3894 0844 73655F74 		.ascii	"se_time\000"
 3894      696D6500 
 3895              	.LASF143:
 3896 084c 63665F6F 		.ascii	"cf_off_ctx\000"
 3896      66665F63 
 3896      747800
 3897              	.LASF129:
 3898 0857 63685F6D 		.ascii	"ch_mutex\000"
 3898      75746578 
 3898      00
 3899              	.LASF43:
 3900 0860 705F7265 		.ascii	"p_refs\000"
 3900      667300
 3901              	.LASF82:
 3902 0867 6973725F 		.ascii	"isr_cnt\000"
 3902      636E7400 
ARM GAS  /var/folders/km/q6jdms0143g2bddz5bhvdfd00000gn/T//ccdVbhBp.s 			page 76


 3903              	.LASF101:
 3904 086f 73655F73 		.ascii	"se_state\000"
 3904      74617465 
 3904      00
 3905              	.LASF87:
 3906 0878 726C6973 		.ascii	"rlist\000"
 3906      7400
 3907              	.LASF181:
 3908 087e 2E2E2F2E 		.ascii	"../../lib/ChibiOS/os/rt/src/chmsg.c\000"
 3908      2E2F6C69 
 3908      622F4368 
 3908      6962694F 
 3908      532F6F73 
 3909              	.LASF15:
 3910 08a2 75696E74 		.ascii	"uint8_t\000"
 3910      385F7400 
 3911              	.LASF174:
 3912 08aa 5F646267 		.ascii	"_dbg_check_unlock\000"
 3912      5F636865 
 3912      636B5F75 
 3912      6E6C6F63 
 3912      6B00
 3913              	.LASF54:
 3914 08bc 74687265 		.ascii	"thread_reference_t\000"
 3914      61645F72 
 3914      65666572 
 3914      656E6365 
 3914      5F7400
 3915              	.LASF121:
 3916 08cf 77746F62 		.ascii	"wtobjp\000"
 3916      6A7000
 3917              	.LASF144:
 3918 08d6 63665F6F 		.ascii	"cf_off_newer\000"
 3918      66665F6E 
 3918      65776572 
 3918      00
 3919              	.LASF39:
 3920 08e3 705F6E61 		.ascii	"p_name\000"
 3920      6D6500
 3921              	.LASF78:
 3922 08ea 76745F73 		.ascii	"vt_systime\000"
 3922      79737469 
 3922      6D6500
 3923              	.LASF84:
 3924 08f5 74726163 		.ascii	"trace_buffer\000"
 3924      655F6275 
 3924      66666572 
 3924      00
 3925              	.LASF73:
 3926 0902 76745F64 		.ascii	"vt_delta\000"
 3926      656C7461 
 3926      00
 3927              	.LASF161:
 3928 090b 63685379 		.ascii	"chSysUnlock\000"
 3928      73556E6C 
 3928      6F636B00 
 3929              	.LASF138:
ARM GAS  /var/folders/km/q6jdms0143g2bddz5bhvdfd00000gn/T//ccdVbhBp.s 			page 77


 3930 0917 63685F76 		.ascii	"ch_version\000"
 3930      65727369 
 3930      6F6E00
 3931              	.LASF160:
 3932 0922 63684D73 		.ascii	"chMsgReleaseS\000"
 3932      6752656C 
 3932      65617365 
 3932      5300
 3933              	.LASF116:
 3934 0930 6D5F6372 		.ascii	"m_crit_thd\000"
 3934      69745F74 
 3934      686400
 3935              	.LASF131:
 3936 093b 6D5F6F77 		.ascii	"m_owner\000"
 3936      6E657200 
 3937              	.LASF100:
 3938 0943 73655F77 		.ascii	"se_wtobjp\000"
 3938      746F626A 
 3938      7000
 3939              	.LASF135:
 3940 094d 63685F69 		.ascii	"ch_identifier\000"
 3940      64656E74 
 3940      69666965 
 3940      7200
 3941              	.LASF74:
 3942 095b 76745F66 		.ascii	"vt_func\000"
 3942      756E6300 
 3943              		.ident	"GCC: (GNU Tools for Arm Embedded Processors 7-2017-q4-major) 7.2.1 20170904 (release) [ARM
ARM GAS  /var/folders/km/q6jdms0143g2bddz5bhvdfd00000gn/T//ccdVbhBp.s 			page 78


DEFINED SYMBOLS
                            *ABS*:0000000000000000 chmsg.c
/var/folders/km/q6jdms0143g2bddz5bhvdfd00000gn/T//ccdVbhBp.s:18     .text.chMsgSend:0000000000000000 $t
/var/folders/km/q6jdms0143g2bddz5bhvdfd00000gn/T//ccdVbhBp.s:26     .text.chMsgSend:0000000000000000 chMsgSend
/var/folders/km/q6jdms0143g2bddz5bhvdfd00000gn/T//ccdVbhBp.s:210    .text.chMsgSend:0000000000000080 $d
/var/folders/km/q6jdms0143g2bddz5bhvdfd00000gn/T//ccdVbhBp.s:217    .text.chMsgWait:0000000000000000 $t
/var/folders/km/q6jdms0143g2bddz5bhvdfd00000gn/T//ccdVbhBp.s:225    .text.chMsgWait:0000000000000000 chMsgWait
/var/folders/km/q6jdms0143g2bddz5bhvdfd00000gn/T//ccdVbhBp.s:392    .text.chMsgWait:000000000000006c $d
/var/folders/km/q6jdms0143g2bddz5bhvdfd00000gn/T//ccdVbhBp.s:398    .text.chMsgRelease:0000000000000000 $t
/var/folders/km/q6jdms0143g2bddz5bhvdfd00000gn/T//ccdVbhBp.s:406    .text.chMsgRelease:0000000000000000 chMsgRelease
/var/folders/km/q6jdms0143g2bddz5bhvdfd00000gn/T//ccdVbhBp.s:538    .text.chMsgRelease:0000000000000060 $d
/var/folders/km/q6jdms0143g2bddz5bhvdfd00000gn/T//ccdVbhBp.s:545    .rodata.__func__.7153:0000000000000000 $d
/var/folders/km/q6jdms0143g2bddz5bhvdfd00000gn/T//ccdVbhBp.s:549    .rodata.__func__.7153:0000000000000000 __func__.7153
/var/folders/km/q6jdms0143g2bddz5bhvdfd00000gn/T//ccdVbhBp.s:552    .rodata.__func__.7851:0000000000000000 $d
/var/folders/km/q6jdms0143g2bddz5bhvdfd00000gn/T//ccdVbhBp.s:556    .rodata.__func__.7851:0000000000000000 __func__.7851
/var/folders/km/q6jdms0143g2bddz5bhvdfd00000gn/T//ccdVbhBp.s:559    .rodata.__func__.7860:0000000000000000 $d
/var/folders/km/q6jdms0143g2bddz5bhvdfd00000gn/T//ccdVbhBp.s:563    .rodata.__func__.7860:0000000000000000 __func__.7860

UNDEFINED SYMBOLS
_stats_start_measure_crit_thd
_dbg_check_lock
chSchGoSleepS
_dbg_check_unlock
_stats_stop_measure_crit_thd
chSysHalt
chSchReadyI
ch
chDbgCheckClassI
chDbgCheckClassS
chSchWakeupS
