ARM GAS  /var/folders/km/q6jdms0143g2bddz5bhvdfd00000gn/T//ccdVbhBp.s 			page 1


   1              		.cpu cortex-m4
   2              		.eabi_attribute 27, 1
   3              		.eabi_attribute 28, 1
   4              		.eabi_attribute 20, 1
   5              		.eabi_attribute 21, 1
   6              		.eabi_attribute 23, 3
   7              		.eabi_attribute 24, 1
   8              		.eabi_attribute 25, 1
   9              		.eabi_attribute 26, 1
  10              		.eabi_attribute 30, 2
  11              		.eabi_attribute 34, 1
  12              		.eabi_attribute 18, 4
  13              		.file	"chmsg.c"
  14              		.text
  15              	.Ltext0:
  16              		.cfi_sections	.debug_frame
  17              		.section	.text.chMsgSend,"ax",%progbits
  18              		.align	1
  19              		.p2align 4,,15
  20              		.global	chMsgSend
  21              		.syntax unified
  22              		.thumb
  23              		.thumb_func
  24              		.fpu fpv4-sp-d16
  25              		.type	chMsgSend, %function
  26              	chMsgSend:
  27              	.LFB219:
  28              		.file 1 "../../lib/ChibiOS/os/rt/src/chmsg.c"
  29              		.loc 1 87 0
  30              		.cfi_startproc
  31              		@ args = 0, pretend = 0, frame = 0
  32              		@ frame_needed = 0, uses_anonymous_args = 0
  33              	.LVL0:
  34 0000 F8B5     		push	{r3, r4, r5, r6, r7, lr}
  35              		.cfi_def_cfa_offset 24
  36              		.cfi_offset 3, -24
  37              		.cfi_offset 4, -20
  38              		.cfi_offset 5, -16
  39              		.cfi_offset 6, -12
  40              		.cfi_offset 7, -8
  41              		.cfi_offset 14, -4
  42              		.loc 1 88 0
  43 0002 1F4E     		ldr	r6, .L10
  44              		.loc 1 87 0
  45 0004 0F46     		mov	r7, r1
  46              		.loc 1 88 0
  47 0006 B469     		ldr	r4, [r6, #24]
  48              	.LVL1:
  49              		.loc 1 90 0
  50 0008 0546     		mov	r5, r0
  51 000a 0028     		cmp	r0, #0
  52 000c 34D0     		beq	.L7
  53              	.LVL2:
  54              	.L2:
  55              	.LBB49:
  56              	.LBB50:
  57              	.LBB51:
ARM GAS  /var/folders/km/q6jdms0143g2bddz5bhvdfd00000gn/T//ccdVbhBp.s 			page 2


  58              	.LBB52:
  59              	.LBB53:
  60              		.file 2 "../../lib/ChibiOS/os/ext/CMSIS/include/core_cmFunc.h"
  61              		.loc 2 546 0
  62 000e 2023     		movs	r3, #32
  63              		.syntax unified
  64              	@ 546 "../../lib/ChibiOS/os/ext/CMSIS/include/core_cmFunc.h" 1
  65 0010 83F31188 		MSR basepri, r3
  66              	@ 0 "" 2
  67              	.LVL3:
  68              		.thumb
  69              		.syntax unified
  70              	.LBE53:
  71              	.LBE52:
  72              	.LBE51:
  73              		.file 3 "../../lib/ChibiOS/os/rt/include/chsys.h"
  74              		.loc 3 349 0
  75 0014 FFF7FEFF 		bl	_stats_start_measure_crit_thd
  76              	.LVL4:
  77              		.loc 3 350 0
  78 0018 FFF7FEFF 		bl	_dbg_check_lock
  79              	.LVL5:
  80              	.LBE50:
  81              	.LBE49:
  82              	.LBB54:
  83              	.LBB55:
  84              		.file 4 "../../lib/ChibiOS/os/rt/include/chschd.h"
  85              		.loc 4 666 0
  86 001c 6B6B     		ldr	r3, [r5, #52]
  87 001e 6360     		str	r3, [r4, #4]
  88              	.LBE55:
  89              	.LBE54:
  90              		.loc 1 94 0
  91 0020 05F13002 		add	r2, r5, #48
  92              		.loc 1 93 0
  93 0024 A763     		str	r7, [r4, #56]
  94              		.loc 1 94 0
  95 0026 A262     		str	r2, [r4, #40]
  96              	.LVL6:
  97              	.LBB58:
  98              	.LBB56:
  99              		.loc 4 665 0
 100 0028 2260     		str	r2, [r4]
 101              		.loc 4 667 0
 102 002a 1C60     		str	r4, [r3]
 103              	.LBE56:
 104              	.LBE58:
 105              		.loc 1 96 0
 106 002c 95F82030 		ldrb	r3, [r5, #32]	@ zero_extendqisi2
 107              	.LBB59:
 108              	.LBB57:
 109              		.loc 4 668 0
 110 0030 6C63     		str	r4, [r5, #52]
 111              	.LVL7:
 112              	.LBE57:
 113              	.LBE59:
 114              		.loc 1 96 0
ARM GAS  /var/folders/km/q6jdms0143g2bddz5bhvdfd00000gn/T//ccdVbhBp.s 			page 3


 115 0032 0E2B     		cmp	r3, #14
 116 0034 1CD0     		beq	.L8
 117              	.L3:
 118              		.loc 1 99 0
 119 0036 0C20     		movs	r0, #12
 120 0038 FFF7FEFF 		bl	chSchGoSleepS
 121              	.LVL8:
 122              		.loc 1 100 0
 123 003c A46A     		ldr	r4, [r4, #40]
 124              	.LVL9:
 125              	.LBB60:
 126              	.LBB61:
 127              		.loc 3 360 0
 128 003e FFF7FEFF 		bl	_dbg_check_unlock
 129              	.LVL10:
 130              		.loc 3 361 0
 131 0042 FFF7FEFF 		bl	_stats_stop_measure_crit_thd
 132              	.LVL11:
 133              		.loc 3 367 0
 134 0046 3368     		ldr	r3, [r6]
 135 0048 B342     		cmp	r3, r6
 136 004a 04D0     		beq	.L4
 137 004c B269     		ldr	r2, [r6, #24]
 138 004e 9B68     		ldr	r3, [r3, #8]
 139 0050 9268     		ldr	r2, [r2, #8]
 140 0052 9A42     		cmp	r2, r3
 141 0054 04D3     		bcc	.L9
 142              	.L4:
 143              	.LVL12:
 144              	.LBB62:
 145              	.LBB63:
 146              	.LBB64:
 147              		.loc 2 546 0
 148 0056 0023     		movs	r3, #0
 149              		.syntax unified
 150              	@ 546 "../../lib/ChibiOS/os/ext/CMSIS/include/core_cmFunc.h" 1
 151 0058 83F31188 		MSR basepri, r3
 152              	@ 0 "" 2
 153              	.LVL13:
 154              		.thumb
 155              		.syntax unified
 156              	.LBE64:
 157              	.LBE63:
 158              	.LBE62:
 159              	.LBE61:
 160              	.LBE60:
 161              		.loc 1 104 0
 162 005c 2046     		mov	r0, r4
 163 005e F8BD     		pop	{r3, r4, r5, r6, r7, pc}
 164              	.LVL14:
 165              	.L9:
 166              	.LBB69:
 167              	.LBB68:
 168              		.loc 3 367 0
 169 0060 0848     		ldr	r0, .L10+4
 170 0062 FFF7FEFF 		bl	chSysHalt
 171              	.LVL15:
ARM GAS  /var/folders/km/q6jdms0143g2bddz5bhvdfd00000gn/T//ccdVbhBp.s 			page 4


 172              	.LBB67:
 173              	.LBB66:
 174              	.LBB65:
 175              		.loc 2 546 0
 176 0066 0023     		movs	r3, #0
 177              		.syntax unified
 178              	@ 546 "../../lib/ChibiOS/os/ext/CMSIS/include/core_cmFunc.h" 1
 179 0068 83F31188 		MSR basepri, r3
 180              	@ 0 "" 2
 181              	.LVL16:
 182              		.thumb
 183              		.syntax unified
 184              	.LBE65:
 185              	.LBE66:
 186              	.LBE67:
 187              	.LBE68:
 188              	.LBE69:
 189              		.loc 1 104 0
 190 006c 2046     		mov	r0, r4
 191 006e F8BD     		pop	{r3, r4, r5, r6, r7, pc}
 192              	.LVL17:
 193              	.L8:
 194              		.loc 1 97 0
 195 0070 2846     		mov	r0, r5
 196 0072 FFF7FEFF 		bl	chSchReadyI
 197              	.LVL18:
 198 0076 DEE7     		b	.L3
 199              	.LVL19:
 200              	.L7:
 201              		.loc 1 90 0 discriminator 2
 202 0078 0348     		ldr	r0, .L10+8
 203              	.LVL20:
 204 007a FFF7FEFF 		bl	chSysHalt
 205              	.LVL21:
 206 007e C6E7     		b	.L2
 207              	.L11:
 208              		.align	2
 209              	.L10:
 210 0080 00000000 		.word	ch
 211 0084 00000000 		.word	.LANCHOR1
 212 0088 00000000 		.word	.LANCHOR0
 213              		.cfi_endproc
 214              	.LFE219:
 215              		.size	chMsgSend, .-chMsgSend
 216              		.section	.text.chMsgWait,"ax",%progbits
 217              		.align	1
 218              		.p2align 4,,15
 219              		.global	chMsgWait
 220              		.syntax unified
 221              		.thumb
 222              		.thumb_func
 223              		.fpu fpv4-sp-d16
 224              		.type	chMsgWait, %function
 225              	chMsgWait:
 226              	.LFB220:
 227              		.loc 1 120 0
 228              		.cfi_startproc
ARM GAS  /var/folders/km/q6jdms0143g2bddz5bhvdfd00000gn/T//ccdVbhBp.s 			page 5


 229              		@ args = 0, pretend = 0, frame = 0
 230              		@ frame_needed = 0, uses_anonymous_args = 0
 231              	.LVL22:
 232 0000 38B5     		push	{r3, r4, r5, lr}
 233              		.cfi_def_cfa_offset 16
 234              		.cfi_offset 3, -16
 235              		.cfi_offset 4, -12
 236              		.cfi_offset 5, -8
 237              		.cfi_offset 14, -4
 238              	.LBB84:
 239              	.LBB85:
 240              	.LBB86:
 241              	.LBB87:
 242              	.LBB88:
 243              		.loc 2 546 0
 244 0002 2023     		movs	r3, #32
 245              		.syntax unified
 246              	@ 546 "../../lib/ChibiOS/os/ext/CMSIS/include/core_cmFunc.h" 1
 247 0004 83F31188 		MSR basepri, r3
 248              	@ 0 "" 2
 249              	.LVL23:
 250              		.thumb
 251              		.syntax unified
 252              	.LBE88:
 253              	.LBE87:
 254              	.LBE86:
 255              	.LBE85:
 256              	.LBE84:
 257              		.loc 1 124 0
 258 0008 184C     		ldr	r4, .L18
 259              	.LBB90:
 260              	.LBB89:
 261              		.loc 3 349 0
 262 000a FFF7FEFF 		bl	_stats_start_measure_crit_thd
 263              	.LVL24:
 264              		.loc 3 350 0
 265 000e FFF7FEFF 		bl	_dbg_check_lock
 266              	.LVL25:
 267              	.LBE89:
 268              	.LBE90:
 269              		.loc 1 124 0
 270 0012 A569     		ldr	r5, [r4, #24]
 271              	.LVL26:
 272              	.LBB91:
 273              	.LBB92:
 274              		.file 5 "../../lib/ChibiOS/os/rt/include/chmsg.h"
 275              		.loc 5 81 0
 276 0014 FFF7FEFF 		bl	chDbgCheckClassI
 277              	.LVL27:
 278              	.LBE92:
 279              	.LBE91:
 280              		.loc 1 124 0
 281 0018 2B6B     		ldr	r3, [r5, #48]
 282              	.LBB94:
 283              	.LBB93:
 284              		.loc 5 83 0
 285 001a 3035     		adds	r5, r5, #48
ARM GAS  /var/folders/km/q6jdms0143g2bddz5bhvdfd00000gn/T//ccdVbhBp.s 			page 6


 286              	.LBE93:
 287              	.LBE94:
 288              		.loc 1 124 0
 289 001c AB42     		cmp	r3, r5
 290 001e 21D0     		beq	.L16
 291              	.L13:
 292              		.loc 1 127 0
 293 0020 A369     		ldr	r3, [r4, #24]
 294              	.LVL28:
 295              	.LBB95:
 296              	.LBB96:
 297              		.loc 4 672 0
 298 0022 1D6B     		ldr	r5, [r3, #48]
 299              	.LVL29:
 300              		.loc 4 674 0
 301 0024 2A68     		ldr	r2, [r5]
 302 0026 43F8302F 		str	r2, [r3, #48]!
 303              	.LVL30:
 304              	.LBE96:
 305              	.LBE95:
 306              		.loc 1 128 0
 307 002a 0D21     		movs	r1, #13
 308              	.LBB98:
 309              	.LBB97:
 310              		.loc 4 675 0
 311 002c 5360     		str	r3, [r2, #4]
 312              	.LVL31:
 313              	.LBE97:
 314              	.LBE98:
 315              		.loc 1 128 0
 316 002e 85F82010 		strb	r1, [r5, #32]
 317              	.LBB99:
 318              	.LBB100:
 319              		.loc 3 360 0
 320 0032 FFF7FEFF 		bl	_dbg_check_unlock
 321              	.LVL32:
 322              		.loc 3 361 0
 323 0036 FFF7FEFF 		bl	_stats_stop_measure_crit_thd
 324              	.LVL33:
 325              		.loc 3 367 0
 326 003a 2368     		ldr	r3, [r4]
 327 003c A342     		cmp	r3, r4
 328 003e 04D0     		beq	.L14
 329 0040 A269     		ldr	r2, [r4, #24]
 330 0042 9B68     		ldr	r3, [r3, #8]
 331 0044 9268     		ldr	r2, [r2, #8]
 332 0046 9A42     		cmp	r2, r3
 333 0048 04D3     		bcc	.L17
 334              	.L14:
 335              	.LVL34:
 336              	.LBB101:
 337              	.LBB102:
 338              	.LBB103:
 339              		.loc 2 546 0
 340 004a 0023     		movs	r3, #0
 341              		.syntax unified
 342              	@ 546 "../../lib/ChibiOS/os/ext/CMSIS/include/core_cmFunc.h" 1
ARM GAS  /var/folders/km/q6jdms0143g2bddz5bhvdfd00000gn/T//ccdVbhBp.s 			page 7


 343 004c 83F31188 		MSR basepri, r3
 344              	@ 0 "" 2
 345              	.LVL35:
 346              		.thumb
 347              		.syntax unified
 348              	.LBE103:
 349              	.LBE102:
 350              	.LBE101:
 351              	.LBE100:
 352              	.LBE99:
 353              		.loc 1 132 0
 354 0050 2846     		mov	r0, r5
 355 0052 38BD     		pop	{r3, r4, r5, pc}
 356              	.L17:
 357              	.LBB108:
 358              	.LBB107:
 359              		.loc 3 367 0
 360 0054 0648     		ldr	r0, .L18+4
 361 0056 FFF7FEFF 		bl	chSysHalt
 362              	.LVL36:
 363              	.LBB106:
 364              	.LBB105:
 365              	.LBB104:
 366              		.loc 2 546 0
 367 005a 0023     		movs	r3, #0
 368              		.syntax unified
 369              	@ 546 "../../lib/ChibiOS/os/ext/CMSIS/include/core_cmFunc.h" 1
 370 005c 83F31188 		MSR basepri, r3
 371              	@ 0 "" 2
 372              	.LVL37:
 373              		.thumb
 374              		.syntax unified
 375              	.LBE104:
 376              	.LBE105:
 377              	.LBE106:
 378              	.LBE107:
 379              	.LBE108:
 380              		.loc 1 132 0
 381 0060 2846     		mov	r0, r5
 382 0062 38BD     		pop	{r3, r4, r5, pc}
 383              	.L16:
 384              		.loc 1 125 0
 385 0064 0E20     		movs	r0, #14
 386 0066 FFF7FEFF 		bl	chSchGoSleepS
 387              	.LVL38:
 388 006a D9E7     		b	.L13
 389              	.L19:
 390              		.align	2
 391              	.L18:
 392 006c 00000000 		.word	ch
 393 0070 00000000 		.word	.LANCHOR1
 394              		.cfi_endproc
 395              	.LFE220:
 396              		.size	chMsgWait, .-chMsgWait
 397              		.section	.text.chMsgRelease,"ax",%progbits
 398              		.align	1
 399              		.p2align 4,,15
ARM GAS  /var/folders/km/q6jdms0143g2bddz5bhvdfd00000gn/T//ccdVbhBp.s 			page 8


 400              		.global	chMsgRelease
 401              		.syntax unified
 402              		.thumb
 403              		.thumb_func
 404              		.fpu fpv4-sp-d16
 405              		.type	chMsgRelease, %function
 406              	chMsgRelease:
 407              	.LFB221:
 408              		.loc 1 144 0
 409              		.cfi_startproc
 410              		@ args = 0, pretend = 0, frame = 0
 411              		@ frame_needed = 0, uses_anonymous_args = 0
 412              	.LVL39:
 413 0000 38B5     		push	{r3, r4, r5, lr}
 414              		.cfi_def_cfa_offset 16
 415              		.cfi_offset 3, -16
 416              		.cfi_offset 4, -12
 417              		.cfi_offset 5, -8
 418              		.cfi_offset 14, -4
 419              		.loc 1 144 0
 420 0002 0446     		mov	r4, r0
 421 0004 0D46     		mov	r5, r1
 422              	.LBB121:
 423              	.LBB122:
 424              	.LBB123:
 425              	.LBB124:
 426              	.LBB125:
 427              		.loc 2 546 0
 428 0006 2023     		movs	r3, #32
 429              		.syntax unified
 430              	@ 546 "../../lib/ChibiOS/os/ext/CMSIS/include/core_cmFunc.h" 1
 431 0008 83F31188 		MSR basepri, r3
 432              	@ 0 "" 2
 433              	.LVL40:
 434              		.thumb
 435              		.syntax unified
 436              	.LBE125:
 437              	.LBE124:
 438              	.LBE123:
 439              		.loc 3 349 0
 440 000c FFF7FEFF 		bl	_stats_start_measure_crit_thd
 441              	.LVL41:
 442              		.loc 3 350 0
 443 0010 FFF7FEFF 		bl	_dbg_check_lock
 444              	.LVL42:
 445              	.LBE122:
 446              	.LBE121:
 447              		.loc 1 147 0
 448 0014 94F82030 		ldrb	r3, [r4, #32]	@ zero_extendqisi2
 449 0018 0D2B     		cmp	r3, #13
 450 001a 02D0     		beq	.L21
 451              		.loc 1 147 0 is_stmt 0 discriminator 2
 452 001c 1048     		ldr	r0, .L28
 453 001e FFF7FEFF 		bl	chSysHalt
 454              	.LVL43:
 455              	.L21:
 456              	.LBB126:
ARM GAS  /var/folders/km/q6jdms0143g2bddz5bhvdfd00000gn/T//ccdVbhBp.s 			page 9


 457              	.LBB127:
 458              		.loc 5 113 0 is_stmt 1
 459 0022 FFF7FEFF 		bl	chDbgCheckClassS
 460              	.LVL44:
 461              		.loc 5 115 0
 462 0026 2946     		mov	r1, r5
 463 0028 2046     		mov	r0, r4
 464 002a FFF7FEFF 		bl	chSchWakeupS
 465              	.LVL45:
 466              	.LBE127:
 467              	.LBE126:
 468              	.LBB128:
 469              	.LBB129:
 470              		.loc 3 360 0
 471 002e FFF7FEFF 		bl	_dbg_check_unlock
 472              	.LVL46:
 473              		.loc 3 361 0
 474 0032 FFF7FEFF 		bl	_stats_stop_measure_crit_thd
 475              	.LVL47:
 476              		.loc 3 367 0
 477 0036 0B4B     		ldr	r3, .L28+4
 478 0038 1A68     		ldr	r2, [r3]
 479 003a 9A42     		cmp	r2, r3
 480 003c 04D0     		beq	.L22
 481 003e 9969     		ldr	r1, [r3, #24]
 482 0040 9368     		ldr	r3, [r2, #8]
 483 0042 8A68     		ldr	r2, [r1, #8]
 484 0044 9A42     		cmp	r2, r3
 485 0046 03D3     		bcc	.L27
 486              	.L22:
 487              	.LVL48:
 488              	.LBB130:
 489              	.LBB131:
 490              	.LBB132:
 491              		.loc 2 546 0
 492 0048 0023     		movs	r3, #0
 493              		.syntax unified
 494              	@ 546 "../../lib/ChibiOS/os/ext/CMSIS/include/core_cmFunc.h" 1
 495 004a 83F31188 		MSR basepri, r3
 496              	@ 0 "" 2
 497              	.LVL49:
 498              		.thumb
 499              		.syntax unified
 500              	.LBE132:
 501              	.LBE131:
 502              	.LBE130:
 503              	.LBE129:
 504              	.LBE128:
 505              		.loc 1 150 0
 506 004e 38BD     		pop	{r3, r4, r5, pc}
 507              	.LVL50:
 508              	.L27:
 509              	.LBB137:
 510              	.LBB136:
 511              		.loc 3 367 0
 512 0050 0548     		ldr	r0, .L28+8
 513 0052 FFF7FEFF 		bl	chSysHalt
ARM GAS  /var/folders/km/q6jdms0143g2bddz5bhvdfd00000gn/T//ccdVbhBp.s 			page 10


 514              	.LVL51:
 515              	.LBB135:
 516              	.LBB134:
 517              	.LBB133:
 518              		.loc 2 546 0
 519 0056 0023     		movs	r3, #0
 520              		.syntax unified
 521              	@ 546 "../../lib/ChibiOS/os/ext/CMSIS/include/core_cmFunc.h" 1
 522 0058 83F31188 		MSR basepri, r3
 523              	@ 0 "" 2
 524              	.LVL52:
 525              		.thumb
 526              		.syntax unified
 527              	.LBE133:
 528              	.LBE134:
 529              	.LBE135:
 530              	.LBE136:
 531              	.LBE137:
 532              		.loc 1 150 0
 533 005c 38BD     		pop	{r3, r4, r5, pc}
 534              	.LVL53:
 535              	.L29:
 536 005e 00BF     		.align	2
 537              	.L28:
 538 0060 00000000 		.word	.LANCHOR2
 539 0064 00000000 		.word	ch
 540 0068 00000000 		.word	.LANCHOR1
 541              		.cfi_endproc
 542              	.LFE221:
 543              		.size	chMsgRelease, .-chMsgRelease
 544              		.section	.rodata.__func__.7153,"a",%progbits
 545              		.align	2
 546              		.set	.LANCHOR1,. + 0
 547              		.type	__func__.7153, %object
 548              		.size	__func__.7153, 12
 549              	__func__.7153:
 550 0000 63685379 		.ascii	"chSysUnlock\000"
 550      73556E6C 
 550      6F636B00 
 551              		.section	.rodata.__func__.7851,"a",%progbits
 552              		.align	2
 553              		.set	.LANCHOR0,. + 0
 554              		.type	__func__.7851, %object
 555              		.size	__func__.7851, 10
 556              	__func__.7851:
 557 0000 63684D73 		.ascii	"chMsgSend\000"
 557      6753656E 
 557      6400
 558              		.section	.rodata.__func__.7860,"a",%progbits
 559              		.align	2
 560              		.set	.LANCHOR2,. + 0
 561              		.type	__func__.7860, %object
 562              		.size	__func__.7860, 13
 563              	__func__.7860:
 564 0000 63684D73 		.ascii	"chMsgRelease\000"
 564      6752656C 
 564      65617365 
ARM GAS  /var/folders/km/q6jdms0143g2bddz5bhvdfd00000gn/T//ccdVbhBp.s 			page 11


 564      00
 565              		.text
 566              	.Letext0:
 567              		.file 6 "/Applications/Eclipse_e-puck2.app/Contents/Eclipse_e-puck2/Tools/gcc-arm-none-eabi-7-2017
 568              		.file 7 "/Applications/Eclipse_e-puck2.app/Contents/Eclipse_e-puck2/Tools/gcc-arm-none-eabi-7-2017
 569              		.file 8 "../../lib/ChibiOS/os/rt/ports/ARMCMx/compilers/GCC/chtypes.h"
 570              		.file 9 "../../lib/ChibiOS/os/rt/include/chsystypes.h"
 571              		.file 10 "../../lib/ChibiOS/os/ext/CMSIS/include/core_cm4.h"
 572              		.file 11 "../../lib/ChibiOS/os/ext/CMSIS/ST/system_stm32f4xx.h"
 573              		.file 12 "../../lib/ChibiOS/os/rt/ports/ARMCMx/chcore.h"
 574              		.file 13 "../../lib/ChibiOS/os/rt/ports/ARMCMx/chcore_v7m.h"
 575              		.file 14 "../../lib/ChibiOS/os/rt/include/chdebug.h"
 576              		.file 15 "../../lib/ChibiOS/os/rt/include/chtm.h"
 577              		.file 16 "../../lib/ChibiOS/os/rt/include/chstats.h"
 578              		.file 17 "../../lib/ChibiOS/os/rt/include/chsem.h"
 579              		.file 18 "../../lib/ChibiOS/os/rt/include/chmtx.h"
 580              		.file 19 "../../lib/ChibiOS/os/rt/include/chregistry.h"