ARM GAS  /var/folders/km/q6jdms0143g2bddz5bhvdfd00000gn/T//ccikXD6n.s 			page 1


   1              		.cpu cortex-m4
   2              		.eabi_attribute 27, 1
   3              		.eabi_attribute 28, 1
   4              		.eabi_attribute 20, 1
   5              		.eabi_attribute 21, 1
   6              		.eabi_attribute 23, 3
   7              		.eabi_attribute 24, 1
   8              		.eabi_attribute 25, 1
   9              		.eabi_attribute 26, 1
  10              		.eabi_attribute 30, 2
  11              		.eabi_attribute 34, 1
  12              		.eabi_attribute 18, 4
  13              		.file	"chprintf.c"
  14              		.text
  15              	.Ltext0:
  16              		.cfi_sections	.debug_frame
  17              		.global	__aeabi_d2f
  18              		.global	__aeabi_f2d
  19              		.global	__aeabi_ui2d
  20              		.global	__aeabi_i2d
  21              		.global	__aeabi_dsub
  22              		.global	__aeabi_dmul
  23              		.global	__aeabi_d2iz
  24              		.section	.text.chvprintf,"ax",%progbits
  25              		.align	1
  26              		.p2align 4,,15
  27              		.global	chvprintf
  28              		.syntax unified
  29              		.thumb
  30              		.thumb_func
  31              		.fpu fpv4-sp-d16
  32              		.type	chvprintf, %function
  33              	chvprintf:
  34              	.LFB260:
  35              		.file 1 "../../lib/ChibiOS/os/hal/lib/streams/chprintf.c"
  36              		.loc 1 121 0
  37              		.cfi_startproc
  38              		@ args = 0, pretend = 0, frame = 64
  39              		@ frame_needed = 0, uses_anonymous_args = 0
  40              	.LVL0:
  41 0000 2DE9F04F 		push	{r4, r5, r6, r7, r8, r9, r10, fp, lr}
  42              		.cfi_def_cfa_offset 36
  43              		.cfi_offset 4, -36
  44              		.cfi_offset 5, -32
  45              		.cfi_offset 6, -28
  46              		.cfi_offset 7, -24
  47              		.cfi_offset 8, -20
  48              		.cfi_offset 9, -16
  49              		.cfi_offset 10, -12
  50              		.cfi_offset 11, -8
  51              		.cfi_offset 14, -4
  52 0004 2DED028B 		vpush.64	{d8}
  53              		.cfi_def_cfa_offset 44
  54              		.cfi_offset 80, -44
  55              		.cfi_offset 81, -40
  56 0008 0646     		mov	r6, r0
  57 000a 91B0     		sub	sp, sp, #68
ARM GAS  /var/folders/km/q6jdms0143g2bddz5bhvdfd00000gn/T//ccikXD6n.s 			page 2


  58              		.cfi_def_cfa_offset 112
  59              		.loc 1 121 0
  60 000c 8946     		mov	r9, r1
  61 000e 9246     		mov	r10, r2
  62              	.LVL1:
  63              		.loc 1 124 0
  64 0010 4FF0000B 		mov	fp, #0
  65              	.LVL2:
  66              	.L2:
  67              		.loc 1 135 0
  68 0014 99F80010 		ldrb	r1, [r9]	@ zero_extendqisi2
  69 0018 09F10102 		add	r2, r9, #1
  70              	.LVL3:
  71              		.loc 1 136 0
  72 001c 71B1     		cbz	r1, .L102
  73              	.LVL4:
  74              	.L115:
  75              		.loc 1 138 0
  76 001e 2529     		cmp	r1, #37
  77 0020 12D0     		beq	.L4
  78              		.loc 1 139 0
  79 0022 3368     		ldr	r3, [r6]
  80              		.loc 1 135 0
  81 0024 9146     		mov	r9, r2
  82              		.loc 1 139 0
  83 0026 9B68     		ldr	r3, [r3, #8]
  84 0028 3046     		mov	r0, r6
  85 002a 9847     		blx	r3
  86              	.LVL5:
  87              		.loc 1 135 0
  88 002c 99F80010 		ldrb	r1, [r9]	@ zero_extendqisi2
  89              		.loc 1 140 0
  90 0030 0BF1010B 		add	fp, fp, #1
  91              	.LVL6:
  92              		.loc 1 135 0
  93 0034 09F10102 		add	r2, r9, #1
  94              	.LVL7:
  95              		.loc 1 136 0
  96 0038 0029     		cmp	r1, #0
  97 003a F0D1     		bne	.L115
  98              	.L102:
  99              		.loc 1 277 0
 100 003c 5846     		mov	r0, fp
 101 003e 11B0     		add	sp, sp, #68
 102              		.cfi_remember_state
 103              		.cfi_def_cfa_offset 44
 104              		@ sp needed
 105 0040 BDEC028B 		vldm	sp!, {d8}
 106              		.cfi_restore 80
 107              		.cfi_restore 81
 108              		.cfi_def_cfa_offset 36
 109 0044 BDE8F08F 		pop	{r4, r5, r6, r7, r8, r9, r10, fp, pc}
 110              	.LVL8:
 111              	.L4:
 112              		.cfi_restore_state
 113              		.loc 1 146 0
 114 0048 99F80110 		ldrb	r1, [r9, #1]	@ zero_extendqisi2
ARM GAS  /var/folders/km/q6jdms0143g2bddz5bhvdfd00000gn/T//ccikXD6n.s 			page 3


 115              	.LVL9:
 116 004c 2D29     		cmp	r1, #45
 117 004e 03BF     		ittte	eq
 118 0050 99F80210 		ldrbeq	r1, [r9, #2]	@ zero_extendqisi2
 119              		.loc 1 147 0
 120 0054 09F10202 		addeq	r2, r9, #2
 121              	.LVL10:
 122              		.loc 1 148 0
 123 0058 0123     		moveq	r3, #1
 124              		.loc 1 145 0
 125 005a 0023     		movne	r3, #0
 126              		.loc 1 151 0
 127 005c 3029     		cmp	r1, #48
 128 005e 08BF     		it	eq
 129 0060 5178     		ldrbeq	r1, [r2, #1]	@ zero_extendqisi2
 130              		.loc 1 145 0
 131 0062 0293     		str	r3, [sp, #8]
 132              	.LVL11:
 133              		.loc 1 152 0
 134 0064 06BF     		itte	eq
 135 0066 0132     		addeq	r2, r2, #1
 136              	.LVL12:
 137              		.loc 1 153 0
 138 0068 3027     		moveq	r7, #48
 139              		.loc 1 150 0
 140 006a 2027     		movne	r7, #32
 141              	.LVL13:
 142 006c 0132     		adds	r2, r2, #1
 143              	.LVL14:
 144              		.loc 1 155 0
 145 006e 0024     		movs	r4, #0
 146 0070 07E0     		b	.L10
 147              	.LVL15:
 148              	.L116:
 149              		.loc 1 161 0
 150 0072 9AF80030 		ldrb	r3, [r10]	@ zero_extendqisi2
 151              	.LVL16:
 152 0076 0AF1040A 		add	r10, r10, #4
 153              	.LVL17:
 154              	.L8:
 155 007a 12F8011B 		ldrb	r1, [r2], #1	@ zero_extendqisi2
 156              	.LVL18:
 157              		.loc 1 164 0
 158 007e 03EB4004 		add	r4, r3, r0, lsl #1
 159              	.LVL19:
 160              	.L10:
 161              		.loc 1 158 0
 162 0082 A1F13003 		sub	r3, r1, #48
 163 0086 DBB2     		uxtb	r3, r3
 164 0088 092B     		cmp	r3, #9
 165              		.loc 1 157 0
 166 008a 1546     		mov	r5, r2
 167              	.LVL20:
 168              		.loc 1 164 0
 169 008c 04EB8400 		add	r0, r4, r4, lsl #2
 170              		.loc 1 158 0
 171 0090 F3D9     		bls	.L8
ARM GAS  /var/folders/km/q6jdms0143g2bddz5bhvdfd00000gn/T//ccikXD6n.s 			page 4


 172              		.loc 1 160 0
 173 0092 2A29     		cmp	r1, #42
 174 0094 EDD0     		beq	.L116
 175              	.LVL21:
 176              		.loc 1 167 0
 177 0096 2E29     		cmp	r1, #46
 178              		.loc 1 166 0
 179 0098 4FF00008 		mov	r8, #0
 180              		.loc 1 167 0
 181 009c 4AD0     		beq	.L13
 182              	.LVL22:
 183              	.L11:
 184              		.loc 1 181 0
 185 009e 01F0DF03 		and	r3, r1, #223
 186 00a2 4C2B     		cmp	r3, #76
 187 00a4 05F10109 		add	r9, r5, #1
 188 00a8 50D0     		beq	.L117
 189              		.loc 1 187 0
 190 00aa A1F14103 		sub	r3, r1, #65
 191              		.loc 1 190 0
 192 00ae A1F14402 		sub	r2, r1, #68
 193              		.loc 1 187 0
 194 00b2 DBB2     		uxtb	r3, r3
 195              	.LVL23:
 196              		.loc 1 190 0
 197 00b4 342A     		cmp	r2, #52
 198 00b6 00F2D381 		bhi	.L70
 199 00ba DFE812F0 		tbh	[pc, r2, lsl #1]
 200              	.L19:
 201 00be 1E02     		.2byte	(.L18-.L19)/2
 202 00c0 D101     		.2byte	(.L70-.L19)/2
 203 00c2 D101     		.2byte	(.L70-.L19)/2
 204 00c4 D101     		.2byte	(.L70-.L19)/2
 205 00c6 D101     		.2byte	(.L70-.L19)/2
 206 00c8 1E02     		.2byte	(.L18-.L19)/2
 207 00ca D101     		.2byte	(.L70-.L19)/2
 208 00cc D101     		.2byte	(.L70-.L19)/2
 209 00ce D101     		.2byte	(.L70-.L19)/2
 210 00d0 D101     		.2byte	(.L70-.L19)/2
 211 00d2 D101     		.2byte	(.L70-.L19)/2
 212 00d4 CD01     		.2byte	(.L71-.L19)/2
 213 00d6 D101     		.2byte	(.L70-.L19)/2
 214 00d8 D101     		.2byte	(.L70-.L19)/2
 215 00da D101     		.2byte	(.L70-.L19)/2
 216 00dc D101     		.2byte	(.L70-.L19)/2
 217 00de D101     		.2byte	(.L70-.L19)/2
 218 00e0 9701     		.2byte	(.L72-.L19)/2
 219 00e2 D101     		.2byte	(.L70-.L19)/2
 220 00e4 D101     		.2byte	(.L70-.L19)/2
 221 00e6 2702     		.2byte	(.L73-.L19)/2
 222 00e8 D101     		.2byte	(.L70-.L19)/2
 223 00ea D101     		.2byte	(.L70-.L19)/2
 224 00ec D101     		.2byte	(.L70-.L19)/2
 225 00ee D101     		.2byte	(.L70-.L19)/2
 226 00f0 D101     		.2byte	(.L70-.L19)/2
 227 00f2 D101     		.2byte	(.L70-.L19)/2
 228 00f4 D101     		.2byte	(.L70-.L19)/2
ARM GAS  /var/folders/km/q6jdms0143g2bddz5bhvdfd00000gn/T//ccikXD6n.s 			page 5


 229 00f6 D101     		.2byte	(.L70-.L19)/2
 230 00f8 D101     		.2byte	(.L70-.L19)/2
 231 00fa D101     		.2byte	(.L70-.L19)/2
 232 00fc 4E01     		.2byte	(.L74-.L19)/2
 233 00fe 1E02     		.2byte	(.L18-.L19)/2
 234 0100 D101     		.2byte	(.L70-.L19)/2
 235 0102 AA00     		.2byte	(.L75-.L19)/2
 236 0104 D101     		.2byte	(.L70-.L19)/2
 237 0106 D101     		.2byte	(.L70-.L19)/2
 238 0108 1E02     		.2byte	(.L18-.L19)/2
 239 010a D101     		.2byte	(.L70-.L19)/2
 240 010c D101     		.2byte	(.L70-.L19)/2
 241 010e D101     		.2byte	(.L70-.L19)/2
 242 0110 D101     		.2byte	(.L70-.L19)/2
 243 0112 D101     		.2byte	(.L70-.L19)/2
 244 0114 CD01     		.2byte	(.L71-.L19)/2
 245 0116 D101     		.2byte	(.L70-.L19)/2
 246 0118 D101     		.2byte	(.L70-.L19)/2
 247 011a D101     		.2byte	(.L70-.L19)/2
 248 011c 8800     		.2byte	(.L76-.L19)/2
 249 011e D101     		.2byte	(.L70-.L19)/2
 250 0120 9701     		.2byte	(.L72-.L19)/2
 251 0122 D101     		.2byte	(.L70-.L19)/2
 252 0124 D101     		.2byte	(.L70-.L19)/2
 253 0126 2702     		.2byte	(.L73-.L19)/2
 254              	.LVL24:
 255              		.p2align 1
 256              	.L118:
 257              		.loc 1 173 0
 258 0128 9AF80030 		ldrb	r3, [r10]	@ zero_extendqisi2
 259              	.LVL25:
 260 012c 0AF1040A 		add	r10, r10, #4
 261              	.LVL26:
 262              	.L12:
 263              		.loc 1 177 0
 264 0130 03EB4208 		add	r8, r3, r2, lsl #1
 265              	.LVL27:
 266              	.L13:
 267              		.loc 1 169 0
 268 0134 15F8011B 		ldrb	r1, [r5], #1	@ zero_extendqisi2
 269              	.LVL28:
 270              		.loc 1 170 0
 271 0138 A1F13003 		sub	r3, r1, #48
 272 013c DBB2     		uxtb	r3, r3
 273 013e 092B     		cmp	r3, #9
 274              		.loc 1 176 0
 275 0140 08EB8802 		add	r2, r8, r8, lsl #2
 276              		.loc 1 170 0
 277 0144 F4D9     		bls	.L12
 278              		.loc 1 172 0
 279 0146 2A29     		cmp	r1, #42
 280 0148 EED0     		beq	.L118
 281 014a A8E7     		b	.L11
 282              	.LVL29:
 283              	.L117:
 284              		.loc 1 183 0
 285 014c 2B78     		ldrb	r3, [r5]	@ zero_extendqisi2
ARM GAS  /var/folders/km/q6jdms0143g2bddz5bhvdfd00000gn/T//ccikXD6n.s 			page 6


 286 014e DBB3     		cbz	r3, .L119
 287              	.L15:
 288              	.LVL30:
 289              		.loc 1 190 0
 290 0150 A3F14402 		sub	r2, r3, #68
 291 0154 342A     		cmp	r2, #52
 292 0156 00F28581 		bhi	.L17
 293 015a DFE812F0 		tbh	[pc, r2, lsl #1]
 294              	.L64:
 295 015e A201     		.2byte	(.L92-.L64)/2
 296 0160 8301     		.2byte	(.L17-.L64)/2
 297 0162 8301     		.2byte	(.L17-.L64)/2
 298 0164 8301     		.2byte	(.L17-.L64)/2
 299 0166 8301     		.2byte	(.L17-.L64)/2
 300 0168 A201     		.2byte	(.L92-.L64)/2
 301 016a 8301     		.2byte	(.L17-.L64)/2
 302 016c 8301     		.2byte	(.L17-.L64)/2
 303 016e 8301     		.2byte	(.L17-.L64)/2
 304 0170 8301     		.2byte	(.L17-.L64)/2
 305 0172 8301     		.2byte	(.L17-.L64)/2
 306 0174 7E01     		.2byte	(.L20-.L64)/2
 307 0176 8301     		.2byte	(.L17-.L64)/2
 308 0178 8301     		.2byte	(.L17-.L64)/2
 309 017a 8301     		.2byte	(.L17-.L64)/2
 310 017c 8301     		.2byte	(.L17-.L64)/2
 311 017e 8301     		.2byte	(.L17-.L64)/2
 312 0180 4801     		.2byte	(.L21-.L64)/2
 313 0182 8301     		.2byte	(.L17-.L64)/2
 314 0184 8301     		.2byte	(.L17-.L64)/2
 315 0186 9F01     		.2byte	(.L86-.L64)/2
 316 0188 8301     		.2byte	(.L17-.L64)/2
 317 018a 8301     		.2byte	(.L17-.L64)/2
 318 018c 8301     		.2byte	(.L17-.L64)/2
 319 018e 8301     		.2byte	(.L17-.L64)/2
 320 0190 8301     		.2byte	(.L17-.L64)/2
 321 0192 8301     		.2byte	(.L17-.L64)/2
 322 0194 8301     		.2byte	(.L17-.L64)/2
 323 0196 8301     		.2byte	(.L17-.L64)/2
 324 0198 8301     		.2byte	(.L17-.L64)/2
 325 019a 8301     		.2byte	(.L17-.L64)/2
 326 019c FF00     		.2byte	(.L23-.L64)/2
 327 019e A201     		.2byte	(.L92-.L64)/2
 328 01a0 8301     		.2byte	(.L17-.L64)/2
 329 01a2 5B00     		.2byte	(.L24-.L64)/2
 330 01a4 8301     		.2byte	(.L17-.L64)/2
 331 01a6 8301     		.2byte	(.L17-.L64)/2
 332 01a8 A201     		.2byte	(.L92-.L64)/2
 333 01aa 8301     		.2byte	(.L17-.L64)/2
 334 01ac 8301     		.2byte	(.L17-.L64)/2
 335 01ae 8301     		.2byte	(.L17-.L64)/2
 336 01b0 8301     		.2byte	(.L17-.L64)/2
 337 01b2 8301     		.2byte	(.L17-.L64)/2
 338 01b4 7E01     		.2byte	(.L20-.L64)/2
 339 01b6 8301     		.2byte	(.L17-.L64)/2
 340 01b8 8301     		.2byte	(.L17-.L64)/2
 341 01ba 8301     		.2byte	(.L17-.L64)/2
 342 01bc 3900     		.2byte	(.L25-.L64)/2
ARM GAS  /var/folders/km/q6jdms0143g2bddz5bhvdfd00000gn/T//ccikXD6n.s 			page 7


 343 01be 8301     		.2byte	(.L17-.L64)/2
 344 01c0 4801     		.2byte	(.L21-.L64)/2
 345 01c2 8301     		.2byte	(.L17-.L64)/2
 346 01c4 8301     		.2byte	(.L17-.L64)/2
 347 01c6 9F01     		.2byte	(.L86-.L64)/2
 348              	.LVL31:
 349              		.p2align 1
 350              	.L119:
 351              		.loc 1 183 0
 352 01c8 0B46     		mov	r3, r1
 353 01ca A946     		mov	r9, r5
 354 01cc C0E7     		b	.L15
 355              	.LVL32:
 356              	.L76:
 357              		.loc 1 190 0
 358 01ce A946     		mov	r9, r5
 359              	.LVL33:
 360              	.L25:
 361              		.loc 1 197 0
 362 01d0 DAF80050 		ldr	r5, [r10]
 363 01d4 0AF1040A 		add	r10, r10, #4
 364              	.LVL34:
 365 01d8 002D     		cmp	r5, #0
 366 01da 00F0A681 		beq	.L27
 367              	.LVL35:
 368 01de 2B78     		ldrb	r3, [r5]	@ zero_extendqisi2
 369 01e0 2946     		mov	r1, r5
 370              		.loc 1 199 0
 371 01e2 B8F1000F 		cmp	r8, #0
 372 01e6 40F0BF81 		bne	.L120
 373              	.LVL36:
 374              		.loc 1 201 0
 375 01ea 002B     		cmp	r3, #0
 376 01ec 00F0CC81 		beq	.L121
 377              	.LVL37:
 378              	.L112:
 379 01f0 47F6FE78 		movw	r8, #32766
 380              	.L65:
 381              		.loc 1 201 0 is_stmt 0 discriminator 4
 382 01f4 2B46     		mov	r3, r5
 383 01f6 02E0     		b	.L31
 384              	.LVL38:
 385              	.L30:
 386              		.loc 1 201 0 discriminator 3
 387 01f8 B8F10108 		subs	r8, r8, #1
 388              	.LVL39:
 389 01fc 03D4     		bmi	.L113
 390              	.LVL40:
 391              	.L31:
 392              		.loc 1 201 0 discriminator 4
 393 01fe 13F8012F 		ldrb	r2, [r3, #1]!	@ zero_extendqisi2
 394              	.LVL41:
 395 0202 002A     		cmp	r2, #0
 396 0204 F8D1     		bne	.L30
 397              	.LVL42:
 398              	.L113:
 399 0206 5B1A     		subs	r3, r3, r1
ARM GAS  /var/folders/km/q6jdms0143g2bddz5bhvdfd00000gn/T//ccikXD6n.s 			page 8


 400              	.LVL43:
 401 0208 E41A     		subs	r4, r4, r3
 402              	.LVL44:
 403 020a 013B     		subs	r3, r3, #1
 404 020c 0193     		str	r3, [sp, #4]
 405              		.loc 1 196 0 is_stmt 1
 406 020e 2027     		movs	r7, #32
 407 0210 AFE0     		b	.L26
 408              	.LVL45:
 409              	.L75:
 410              		.loc 1 190 0
 411 0212 A946     		mov	r9, r5
 412              	.LVL46:
 413              	.L24:
 414              		.loc 1 220 0
 415 0214 0AF1070A 		add	r10, r10, #7
 416              	.LVL47:
 417 0218 2AF0070A 		bic	r10, r10, #7
 418              	.LVL48:
 419 021c DAE90001 		ldrd	r0, [r10]
 420 0220 FFF7FEFF 		bl	__aeabi_d2f
 421              	.LVL49:
 422 0224 08EE100A 		vmov	s16, r0
 423              		.loc 1 221 0
 424 0228 B5EEC08A 		vcmpe.f32	s16, #0
 425 022c F1EE10FA 		vmrs	APSR_nzcv, FPSCR
 426              		.loc 1 220 0
 427 0230 0AF1080A 		add	r10, r10, #8
 428              	.LVL50:
 429              		.loc 1 221 0
 430 0234 00F16E81 		bmi	.L122
 431              		.loc 1 143 0
 432 0238 0AAB     		add	r3, sp, #40
 433              	.LVL51:
 434 023a 0393     		str	r3, [sp, #12]
 435 023c 0193     		str	r3, [sp, #4]
 436              	.LVL52:
 437              	.L38:
 438              		.loc 1 225 0
 439 023e 18EE100A 		vmov	r0, s16
 440 0242 FFF7FEFF 		bl	__aeabi_f2d
 441              	.LVL53:
 442              	.LBB26:
 443              	.LBB27:
 444              		.loc 1 83 0
 445 0246 08F1FF38 		add	r8, r8, #-1
 446              	.LVL54:
 447 024a B8F1080F 		cmp	r8, #8
 448              	.LBE27:
 449              	.LBE26:
 450              		.loc 1 225 0
 451 024e CDE90401 		strd	r0, [sp, #16]
 452              	.LVL55:
 453              	.LBB40:
 454              	.LBB38:
 455              		.loc 1 83 0
 456 0252 00F27381 		bhi	.L80
ARM GAS  /var/folders/km/q6jdms0143g2bddz5bhvdfd00000gn/T//ccikXD6n.s 			page 9


 457 0256 C04B     		ldr	r3, .L128+8
 458 0258 53F82850 		ldr	r5, [r3, r8, lsl #2]
 459 025c 2846     		mov	r0, r5
 460              	.LVL56:
 461 025e FFF7FEFF 		bl	__aeabi_ui2d
 462              	.LVL57:
 463 0262 BE4B     		ldr	r3, .L128+12
 464 0264 CDE90601 		strd	r0, [sp, #24]
 465 0268 A3FB0535 		umull	r3, r5, r3, r5
 466 026c EB08     		lsrs	r3, r5, #3
 467 026e 0993     		str	r3, [sp, #36]
 468 0270 1D46     		mov	r5, r3
 469              	.L40:
 470              	.LVL58:
 471              		.loc 1 87 0
 472 0272 FDEEC87A 		vcvt.s32.f32	s15, s16
 473              	.LBB28:
 474              	.LBB29:
 475              		.loc 1 52 0
 476 0276 019B     		ldr	r3, [sp, #4]
 477              		.loc 1 54 0
 478 0278 DFF8E0E2 		ldr	lr, .L128+12
 479              	.LBE29:
 480              	.LBE28:
 481              		.loc 1 87 0
 482 027c CDED087A 		vstr.32	s15, [sp, #32]	@ int
 483              	.LVL59:
 484              	.LBB31:
 485              	.LBB30:
 486              		.loc 1 52 0
 487 0280 03F10B08 		add	r8, r3, #11
 488              	.LVL60:
 489              		.loc 1 45 0
 490 0284 17EE901A 		vmov	r1, s15	@ int
 491              		.loc 1 52 0
 492 0288 4246     		mov	r2, r8
 493              	.LVL61:
 494              	.L41:
 495              		.loc 1 54 0
 496 028a AEFB0103 		umull	r0, r3, lr, r1
 497 028e DB08     		lsrs	r3, r3, #3
 498 0290 03EB830C 		add	ip, r3, r3, lsl #2
 499 0294 1846     		mov	r0, r3
 500 0296 A1EB4C03 		sub	r3, r1, ip, lsl #1
 501              	.LVL62:
 502              		.loc 1 55 0
 503 029a 3033     		adds	r3, r3, #48
 504              	.LVL63:
 505              		.loc 1 58 0
 506 029c DBB2     		uxtb	r3, r3
 507              	.LVL64:
 508 029e 02F8013D 		strb	r3, [r2, #-1]!
 509              	.LVL65:
 510              		.loc 1 60 0
 511 02a2 0146     		mov	r1, r0
 512              	.LVL66:
 513 02a4 0028     		cmp	r0, #0
ARM GAS  /var/folders/km/q6jdms0143g2bddz5bhvdfd00000gn/T//ccikXD6n.s 			page 10


 514 02a6 F0D1     		bne	.L41
 515 02a8 0199     		ldr	r1, [sp, #4]
 516              		.loc 1 62 0
 517 02aa A8EB0208 		sub	r8, r8, r2
 518              	.LVL67:
 519 02ae 0846     		mov	r0, r1
 520              	.LVL68:
 521 02b0 4044     		add	r0, r0, r8
 522 02b2 01E0     		b	.L43
 523              	.LVL69:
 524              	.L123:
 525 02b4 12F8013F 		ldrb	r3, [r2, #1]!	@ zero_extendqisi2
 526              	.LVL70:
 527              	.L43:
 528              		.loc 1 64 0
 529 02b8 01F8013B 		strb	r3, [r1], #1
 530              	.LVL71:
 531              		.loc 1 65 0
 532 02bc 8142     		cmp	r1, r0
 533 02be F9D1     		bne	.L123
 534 02c0 019A     		ldr	r2, [sp, #4]
 535              	.LBE30:
 536              	.LBE31:
 537              		.loc 1 90 0
 538 02c2 0898     		ldr	r0, [sp, #32]
 539              		.loc 1 89 0
 540 02c4 2E23     		movs	r3, #46
 541 02c6 08F1FF38 		add	r8, r8, #-1
 542              	.LVL72:
 543 02ca 4244     		add	r2, r2, r8
 544 02cc 0B70     		strb	r3, [r1]
 545 02ce 0192     		str	r2, [sp, #4]
 546              	.LVL73:
 547              		.loc 1 90 0
 548 02d0 FFF7FEFF 		bl	__aeabi_i2d
 549              	.LVL74:
 550 02d4 0246     		mov	r2, r0
 551 02d6 0B46     		mov	r3, r1
 552 02d8 DDE90401 		ldrd	r0, [sp, #16]
 553 02dc FFF7FEFF 		bl	__aeabi_dsub
 554              	.LVL75:
 555 02e0 DDE90623 		ldrd	r2, [sp, #24]
 556 02e4 FFF7FEFF 		bl	__aeabi_dmul
 557              	.LVL76:
 558 02e8 FFF7FEFF 		bl	__aeabi_d2iz
 559              	.LVL77:
 560              	.LBB32:
 561              	.LBB33:
 562              		.loc 1 52 0
 563 02ec 019B     		ldr	r3, [sp, #4]
 564              		.loc 1 47 0
 565 02ee 099A     		ldr	r2, [sp, #36]
 566              		.loc 1 54 0
 567 02f0 9A49     		ldr	r1, .L128+12
 568              		.loc 1 52 0
 569 02f2 03F10D08 		add	r8, r3, #13
 570              	.LBE33:
ARM GAS  /var/folders/km/q6jdms0143g2bddz5bhvdfd00000gn/T//ccikXD6n.s 			page 11


 571              	.LBE32:
 572              		.loc 1 89 0
 573 02f6 0233     		adds	r3, r3, #2
 574              	.LBB36:
 575              	.LBB34:
 576              		.loc 1 47 0
 577 02f8 002A     		cmp	r2, #0
 578 02fa 08BF     		it	eq
 579 02fc 0546     		moveq	r5, r0
 580              	.LBE34:
 581              	.LBE36:
 582              		.loc 1 89 0
 583 02fe 0893     		str	r3, [sp, #32]
 584              	.LVL78:
 585              	.LBB37:
 586              	.LBB35:
 587              		.loc 1 52 0
 588 0300 4246     		mov	r2, r8
 589              	.LVL79:
 590              	.L45:
 591              		.loc 1 54 0
 592 0302 A1FB00C3 		umull	ip, r3, r1, r0
 593 0306 DB08     		lsrs	r3, r3, #3
 594 0308 03EB830E 		add	lr, r3, r3, lsl #2
 595 030c 9C46     		mov	ip, r3
 596 030e A0EB4E03 		sub	r3, r0, lr, lsl #1
 597              	.LVL80:
 598              		.loc 1 55 0
 599 0312 3033     		adds	r3, r3, #48
 600              	.LVL81:
 601              		.loc 1 60 0
 602 0314 A1FB0505 		umull	r0, r5, r1, r5
 603              	.LVL82:
 604              		.loc 1 58 0
 605 0318 DBB2     		uxtb	r3, r3
 606              	.LVL83:
 607              		.loc 1 60 0
 608 031a ED08     		lsrs	r5, r5, #3
 609              		.loc 1 58 0
 610 031c 02F8013D 		strb	r3, [r2, #-1]!
 611              	.LVL84:
 612              		.loc 1 59 0
 613 0320 6046     		mov	r0, ip
 614              		.loc 1 60 0
 615 0322 EED1     		bne	.L45
 616              	.LVL85:
 617              		.loc 1 62 0
 618 0324 A8EB0208 		sub	r8, r8, r2
 619              	.LVL86:
 620 0328 0199     		ldr	r1, [sp, #4]
 621 032a 08F10200 		add	r0, r8, #2
 622 032e 0144     		add	r1, r1, r0
 623 0330 0846     		mov	r0, r1
 624 0332 0899     		ldr	r1, [sp, #32]
 625 0334 01E0     		b	.L47
 626              	.LVL87:
 627              	.L46:
ARM GAS  /var/folders/km/q6jdms0143g2bddz5bhvdfd00000gn/T//ccikXD6n.s 			page 12


 628 0336 12F8013F 		ldrb	r3, [r2, #1]!	@ zero_extendqisi2
 629              	.LVL88:
 630              	.L47:
 631              		.loc 1 64 0
 632 033a 01F8013B 		strb	r3, [r1], #1
 633              	.LVL89:
 634              		.loc 1 65 0
 635 033e 8142     		cmp	r1, r0
 636 0340 F9D1     		bne	.L46
 637 0342 089B     		ldr	r3, [sp, #32]
 638 0344 039D     		ldr	r5, [sp, #12]
 639 0346 4344     		add	r3, r3, r8
 640 0348 9846     		mov	r8, r3
 641 034a A8EB0508 		sub	r8, r8, r5
 642 034e 08F1FF33 		add	r3, r8, #-1
 643 0352 A4EB0804 		sub	r4, r4, r8
 644              	.LVL90:
 645 0356 0193     		str	r3, [sp, #4]
 646 0358 0BE0     		b	.L26
 647              	.LVL91:
 648              	.L74:
 649              	.LBE35:
 650              	.LBE37:
 651              	.LBE38:
 652              	.LBE40:
 653              		.loc 1 190 0
 654 035a A946     		mov	r9, r5
 655              	.LVL92:
 656              	.L23:
 657              		.loc 1 193 0
 658 035c 10AD     		add	r5, sp, #64
 659 035e DAF80030 		ldr	r3, [r10]
 660 0362 05F8183D 		strb	r3, [r5, #-24]!
 661              		.loc 1 194 0
 662 0366 0023     		movs	r3, #0
 663 0368 013C     		subs	r4, r4, #1
 664              	.LVL93:
 665              		.loc 1 193 0
 666 036a 0AF1040A 		add	r10, r10, #4
 667              	.LVL94:
 668              		.loc 1 194 0
 669 036e 0193     		str	r3, [sp, #4]
 670              		.loc 1 192 0
 671 0370 2027     		movs	r7, #32
 672              	.LVL95:
 673              	.L26:
 674              		.loc 1 251 0
 675 0372 002C     		cmp	r4, #0
 676 0374 6ADB     		blt	.L124
 677              	.LVL96:
 678              	.L52:
 679              		.loc 1 253 0
 680 0376 029B     		ldr	r3, [sp, #8]
 681 0378 002B     		cmp	r3, #0
 682 037a 7BD1     		bne	.L55
 683              		.loc 1 254 0
 684 037c 6342     		negs	r3, r4
ARM GAS  /var/folders/km/q6jdms0143g2bddz5bhvdfd00000gn/T//ccikXD6n.s 			page 13


 685              	.LVL97:
 686              		.loc 1 255 0
 687 037e 002C     		cmp	r4, #0
 688 0380 77D0     		beq	.L83
 689              		.loc 1 256 0
 690 0382 2978     		ldrb	r1, [r5]	@ zero_extendqisi2
 691 0384 3268     		ldr	r2, [r6]
 692 0386 2D29     		cmp	r1, #45
 693 0388 9268     		ldr	r2, [r2, #8]
 694 038a 77D0     		beq	.L125
 695              	.L110:
 696 038c 9846     		mov	r8, r3
 697 038e 01E0     		b	.L58
 698              	.LVL98:
 699              	.L126:
 700 0390 3368     		ldr	r3, [r6]
 701 0392 9A68     		ldr	r2, [r3, #8]
 702              	.LVL99:
 703              	.L58:
 704              		.loc 1 262 0 discriminator 1
 705 0394 3946     		mov	r1, r7
 706 0396 3046     		mov	r0, r6
 707 0398 9047     		blx	r2
 708              	.LVL100:
 709              		.loc 1 264 0 discriminator 1
 710 039a 18F10108 		adds	r8, r8, #1
 711              	.LVL101:
 712 039e F7D1     		bne	.L126
 713              		.loc 1 266 0
 714 03a0 019A     		ldr	r2, [sp, #4]
 715 03a2 002A     		cmp	r2, #0
 716 03a4 4346     		mov	r3, r8
 717 03a6 A344     		add	fp, fp, r4
 718              	.LVL102:
 719 03a8 FFF634AE 		blt	.L2
 720 03ac 1C46     		mov	r4, r3
 721              	.LVL103:
 722              	.L61:
 723              		.loc 1 254 0
 724 03ae DDF80480 		ldr	r8, [sp, #4]
 725              	.LVL104:
 726              	.L59:
 727              		.loc 1 267 0
 728 03b2 3368     		ldr	r3, [r6]
 729 03b4 15F8011B 		ldrb	r1, [r5], #1	@ zero_extendqisi2
 730              	.LVL105:
 731 03b8 9B68     		ldr	r3, [r3, #8]
 732              		.loc 1 266 0
 733 03ba 08F1FF38 		add	r8, r8, #-1
 734              	.LVL106:
 735              		.loc 1 267 0
 736 03be 3046     		mov	r0, r6
 737 03c0 9847     		blx	r3
 738              	.LVL107:
 739              		.loc 1 266 0
 740 03c2 B8F1FF3F 		cmp	r8, #-1
 741 03c6 F4D1     		bne	.L59
ARM GAS  /var/folders/km/q6jdms0143g2bddz5bhvdfd00000gn/T//ccikXD6n.s 			page 14


 742 03c8 019B     		ldr	r3, [sp, #4]
 743 03ca 0BF1010B 		add	fp, fp, #1
 744 03ce 5B44     		add	r3, r3, fp
 745 03d0 9B46     		mov	fp, r3
 746              	.LVL108:
 747              	.L60:
 748              		.loc 1 271 0
 749 03d2 002C     		cmp	r4, #0
 750 03d4 3FF41EAE 		beq	.L2
 751 03d8 2546     		mov	r5, r4
 752              	.LVL109:
 753              	.L62:
 754              		.loc 1 272 0
 755 03da 3368     		ldr	r3, [r6]
 756 03dc 3946     		mov	r1, r7
 757 03de 9B68     		ldr	r3, [r3, #8]
 758 03e0 3046     		mov	r0, r6
 759 03e2 9847     		blx	r3
 760              	.LVL110:
 761              		.loc 1 271 0
 762 03e4 013D     		subs	r5, r5, #1
 763              	.LVL111:
 764 03e6 F8D1     		bne	.L62
 765 03e8 A344     		add	fp, fp, r4
 766 03ea 13E6     		b	.L2
 767              	.LVL112:
 768              	.L72:
 769              		.loc 1 190 0
 770 03ec A946     		mov	r9, r5
 771              	.LVL113:
 772              	.L21:
 773              		.loc 1 235 0
 774 03ee 4FF00A0C 		mov	ip, #10
 775              	.LVL114:
 776              	.L22:
 777 03f2 5AF8042B 		ldr	r2, [r10], #4
 778              	.LVL115:
 779              	.LBB41:
 780              	.LBB42:
 781              	.LBB43:
 782              		.loc 1 52 0
 783 03f6 0DF13301 		add	r1, sp, #51
 784              	.LBE43:
 785              	.LBE42:
 786              	.LBE41:
 787 03fa 00E0     		b	.L49
 788              	.LVL116:
 789              	.L82:
 790              	.LBB46:
 791              	.LBB45:
 792              	.LBB44:
 793              		.loc 1 60 0
 794 03fc 0146     		mov	r1, r0
 795              	.LVL117:
 796              	.L49:
 797              		.loc 1 54 0
 798 03fe B2FBFCF5 		udiv	r5, r2, ip
ARM GAS  /var/folders/km/q6jdms0143g2bddz5bhvdfd00000gn/T//ccikXD6n.s 			page 15


 799 0402 0CFB1522 		mls	r2, ip, r5, r2
 800              	.LVL118:
 801              		.loc 1 55 0
 802 0406 02F13003 		add	r3, r2, #48
 803              	.LVL119:
 804              		.loc 1 56 0
 805 040a 392B     		cmp	r3, #57
 806              		.loc 1 57 0
 807 040c C8BF     		it	gt
 808 040e 02F13703 		addgt	r3, r2, #55
 809              	.LVL120:
 810              		.loc 1 58 0
 811 0412 DBB2     		uxtb	r3, r3
 812              	.LVL121:
 813 0414 01F8013C 		strb	r3, [r1, #-1]
 814 0418 481E     		subs	r0, r1, #1
 815              	.LVL122:
 816              		.loc 1 59 0
 817 041a 2A46     		mov	r2, r5
 818              	.LVL123:
 819              		.loc 1 60 0
 820 041c 002D     		cmp	r5, #0
 821 041e EDD1     		bne	.L82
 822              		.loc 1 62 0
 823 0420 0DF13305 		add	r5, sp, #51
 824 0424 0AAA     		add	r2, sp, #40
 825              	.LVL124:
 826 0426 A5EB0008 		sub	r8, r5, r0
 827              	.LVL125:
 828 042a 0392     		str	r2, [sp, #12]
 829 042c 4044     		add	r0, r0, r8
 830              	.LVL126:
 831 042e 01E0     		b	.L51
 832              	.LVL127:
 833              	.L50:
 834 0430 11F8013B 		ldrb	r3, [r1], #1	@ zero_extendqisi2
 835              	.LVL128:
 836              	.L51:
 837              		.loc 1 64 0
 838 0434 02F8013B 		strb	r3, [r2], #1
 839              	.LVL129:
 840              		.loc 1 65 0
 841 0438 8142     		cmp	r1, r0
 842 043a F9D1     		bne	.L50
 843 043c A4EB0804 		sub	r4, r4, r8
 844              	.LVL130:
 845 0440 08F1FF33 		add	r3, r8, #-1
 846              	.LBE44:
 847              	.LBE45:
 848              	.LBE46:
 849              		.loc 1 251 0
 850 0444 002C     		cmp	r4, #0
 851 0446 0193     		str	r3, [sp, #4]
 852              		.loc 1 144 0
 853 0448 039D     		ldr	r5, [sp, #12]
 854              	.LVL131:
 855              		.loc 1 251 0
ARM GAS  /var/folders/km/q6jdms0143g2bddz5bhvdfd00000gn/T//ccikXD6n.s 			page 16


 856 044a 94DA     		bge	.L52
 857              	.LVL132:
 858              	.L124:
 859              		.loc 1 266 0
 860 044c 019B     		ldr	r3, [sp, #4]
 861 044e 002B     		cmp	r3, #0
 862 0450 FFF6E0AD 		blt	.L2
 863              		.loc 1 252 0
 864 0454 0024     		movs	r4, #0
 865 0456 AAE7     		b	.L61
 866              	.LVL133:
 867              	.L71:
 868              		.loc 1 190 0
 869 0458 A946     		mov	r9, r5
 870              	.LVL134:
 871              	.L20:
 872              		.loc 1 236 0
 873 045a 4FF0080C 		mov	ip, #8
 874 045e C8E7     		b	.L22
 875              	.LVL135:
 876              	.L70:
 877              		.loc 1 190 0
 878 0460 0B46     		mov	r3, r1
 879              	.LVL136:
 880 0462 A946     		mov	r9, r5
 881              	.LVL137:
 882              	.L17:
 883              		.loc 1 247 0
 884 0464 10AD     		add	r5, sp, #64
 885 0466 013C     		subs	r4, r4, #1
 886              	.LVL138:
 887 0468 05F8183D 		strb	r3, [r5, #-24]!
 888              		.loc 1 248 0
 889 046c 0023     		movs	r3, #0
 890              	.LVL139:
 891 046e 0193     		str	r3, [sp, #4]
 892 0470 7FE7     		b	.L26
 893              	.LVL140:
 894              	.L83:
 895              		.loc 1 254 0
 896 0472 1C46     		mov	r4, r3
 897              	.LVL141:
 898              	.L55:
 899              		.loc 1 266 0
 900 0474 019B     		ldr	r3, [sp, #4]
 901 0476 002B     		cmp	r3, #0
 902 0478 99DA     		bge	.L61
 903 047a AAE7     		b	.L60
 904              	.LVL142:
 905              	.L125:
 906              		.loc 1 256 0 discriminator 1
 907 047c 302F     		cmp	r7, #48
 908 047e 85D1     		bne	.L110
 909              		.loc 1 257 0
 910 0480 3046     		mov	r0, r6
 911 0482 0293     		str	r3, [sp, #8]
 912              	.LVL143:
ARM GAS  /var/folders/km/q6jdms0143g2bddz5bhvdfd00000gn/T//ccikXD6n.s 			page 17


 913 0484 9047     		blx	r2
 914              	.LVL144:
 915 0486 019B     		ldr	r3, [sp, #4]
 916 0488 3268     		ldr	r2, [r6]
 917 048a 013B     		subs	r3, r3, #1
 918 048c 0193     		str	r3, [sp, #4]
 919 048e 029B     		ldr	r3, [sp, #8]
 920 0490 9268     		ldr	r2, [r2, #8]
 921 0492 0BF1010B 		add	fp, fp, #1
 922              	.LVL145:
 923 0496 0135     		adds	r5, r5, #1
 924              	.LVL146:
 925 0498 9846     		mov	r8, r3
 926 049a 7BE7     		b	.L58
 927              	.LVL147:
 928              	.L86:
 929              		.loc 1 190 0
 930 049c 4FF0100C 		mov	ip, #16
 931 04a0 A7E7     		b	.L22
 932              	.L92:
 933 04a2 0AF10402 		add	r2, r10, #4
 934              	.LVL148:
 935              	.L33:
 936              		.loc 1 209 0
 937 04a6 DAF80010 		ldr	r1, [r10]
 938 04aa 9246     		mov	r10, r2
 939              	.LVL149:
 940              	.L32:
 941              		.loc 1 212 0
 942 04ac 0029     		cmp	r1, #0
 943 04ae 62DB     		blt	.L127
 944              		.loc 1 143 0
 945 04b0 0AAD     		add	r5, sp, #40
 946              	.LVL150:
 947 04b2 0395     		str	r5, [sp, #12]
 948              	.LVL151:
 949              	.L34:
 950              	.LBB47:
 951              	.LBB48:
 952              	.LBB49:
 953              		.loc 1 52 0
 954 04b4 05F10B02 		add	r2, r5, #11
 955              	.LVL152:
 956              		.loc 1 54 0
 957 04b8 DFF8A080 		ldr	r8, .L128+12
 958              	.LVL153:
 959              		.loc 1 52 0
 960 04bc 1046     		mov	r0, r2
 961              	.LVL154:
 962              	.L35:
 963              		.loc 1 54 0
 964 04be A8FB01C3 		umull	ip, r3, r8, r1
 965 04c2 DB08     		lsrs	r3, r3, #3
 966 04c4 03EB830E 		add	lr, r3, r3, lsl #2
 967 04c8 9C46     		mov	ip, r3
 968 04ca A1EB4E03 		sub	r3, r1, lr, lsl #1
 969              	.LVL155:
ARM GAS  /var/folders/km/q6jdms0143g2bddz5bhvdfd00000gn/T//ccikXD6n.s 			page 18


 970              		.loc 1 55 0
 971 04ce 3033     		adds	r3, r3, #48
 972              	.LVL156:
 973              		.loc 1 58 0
 974 04d0 DBB2     		uxtb	r3, r3
 975              	.LVL157:
 976              		.loc 1 60 0
 977 04d2 6146     		mov	r1, ip
 978              	.LVL158:
 979              		.loc 1 58 0
 980 04d4 00F8013D 		strb	r3, [r0, #-1]!
 981              	.LVL159:
 982              		.loc 1 60 0
 983 04d8 0029     		cmp	r1, #0
 984 04da F0D1     		bne	.L35
 985              	.LVL160:
 986              		.loc 1 62 0
 987 04dc 121A     		subs	r2, r2, r0
 988              	.LVL161:
 989 04de 2A44     		add	r2, r2, r5
 990 04e0 01E0     		b	.L37
 991              	.LVL162:
 992              	.L36:
 993 04e2 10F8013F 		ldrb	r3, [r0, #1]!	@ zero_extendqisi2
 994              	.LVL163:
 995              	.L37:
 996              		.loc 1 64 0
 997 04e6 05F8013B 		strb	r3, [r5], #1
 998              	.LVL164:
 999              		.loc 1 65 0
 1000 04ea AA42     		cmp	r2, r5
 1001 04ec F9D1     		bne	.L36
 1002 04ee 039D     		ldr	r5, [sp, #12]
 1003              	.LVL165:
 1004 04f0 521B     		subs	r2, r2, r5
 1005 04f2 531E     		subs	r3, r2, #1
 1006 04f4 A41A     		subs	r4, r4, r2
 1007              	.LVL166:
 1008 04f6 0193     		str	r3, [sp, #4]
 1009 04f8 3BE7     		b	.L26
 1010              	.LVL167:
 1011              	.L18:
 1012 04fa 5246     		mov	r2, r10
 1013              	.LBE49:
 1014              	.LBE48:
 1015              	.LBE47:
 1016              		.loc 1 208 0
 1017 04fc 192B     		cmp	r3, #25
 1018 04fe 52F8041B 		ldr	r1, [r2], #4
 1019              	.LVL168:
 1020 0502 A946     		mov	r9, r5
 1021              		.loc 1 211 0
 1022 0504 88BF     		it	hi
 1023 0506 9246     		movhi	r10, r2
 1024              	.LVL169:
 1025              		.loc 1 208 0
 1026 0508 D0D8     		bhi	.L32
ARM GAS  /var/folders/km/q6jdms0143g2bddz5bhvdfd00000gn/T//ccikXD6n.s 			page 19


 1027 050a CCE7     		b	.L33
 1028              	.LVL170:
 1029              	.L73:
 1030              		.loc 1 190 0
 1031 050c A946     		mov	r9, r5
 1032 050e 4FF0100C 		mov	ip, #16
 1033 0512 6EE7     		b	.L22
 1034              	.LVL171:
 1035              	.L122:
 1036              		.loc 1 222 0
 1037 0514 2D23     		movs	r3, #45
 1038 0516 8DF82830 		strb	r3, [sp, #40]
 1039 051a 0DF12903 		add	r3, sp, #41
 1040              	.LVL172:
 1041 051e 0193     		str	r3, [sp, #4]
 1042 0520 0AAB     		add	r3, sp, #40
 1043              	.LVL173:
 1044              		.loc 1 223 0
 1045 0522 B1EE488A 		vneg.f32	s16, s16
 1046              	.LVL174:
 1047 0526 0393     		str	r3, [sp, #12]
 1048 0528 89E6     		b	.L38
 1049              	.LVL175:
 1050              	.L27:
 1051 052a 0D49     		ldr	r1, .L128+16
 1052              		.loc 1 199 0
 1053 052c 0D46     		mov	r5, r1
 1054 052e B8F1000F 		cmp	r8, #0
 1055 0532 3FF45DAE 		beq	.L112
 1056              	.LVL176:
 1057              	.L66:
 1058              		.loc 1 201 0
 1059 0536 08F1FF38 		add	r8, r8, #-1
 1060              	.LVL177:
 1061 053a 5BE6     		b	.L65
 1062              	.LVL178:
 1063              	.L80:
 1064              	.LBB50:
 1065              	.LBB39:
 1066              		.loc 1 83 0
 1067 053c 9FED047B 		vldr.64	d7, .L128
 1068 0540 084D     		ldr	r5, .L128+20
 1069 0542 0995     		str	r5, [sp, #36]
 1070 0544 8DED067B 		vstr.64	d7, [sp, #24]
 1071 0548 93E6     		b	.L40
 1072              	.L129:
 1073 054a 00BFAFF3 		.align	3
 1073      0080
 1074              	.L128:
 1075 0550 00000000 		.word	0
 1076 0554 65CDCD41 		.word	1104006501
 1077 0558 00000000 		.word	.LANCHOR0
 1078 055c CDCCCCCC 		.word	-858993459
 1079 0560 00000000 		.word	.LC0
 1080 0564 00E1F505 		.word	100000000
 1081              	.LVL179:
 1082              	.L120:
ARM GAS  /var/folders/km/q6jdms0143g2bddz5bhvdfd00000gn/T//ccikXD6n.s 			page 20


 1083              	.LBE39:
 1084              	.LBE50:
 1085              		.loc 1 201 0
 1086 0568 002B     		cmp	r3, #0
 1087 056a E4D1     		bne	.L66
 1088 056c 4FF0FF33 		mov	r3, #-1
 1089 0570 0193     		str	r3, [sp, #4]
 1090              		.loc 1 196 0
 1091 0572 2027     		movs	r7, #32
 1092 0574 FDE6     		b	.L26
 1093              	.LVL180:
 1094              	.L127:
 1095              		.loc 1 213 0
 1096 0576 2D23     		movs	r3, #45
 1097 0578 8DF82830 		strb	r3, [sp, #40]
 1098 057c 0AAB     		add	r3, sp, #40
 1099              	.LVL181:
 1100              		.loc 1 214 0
 1101 057e 4942     		negs	r1, r1
 1102              	.LVL182:
 1103              		.loc 1 213 0
 1104 0580 0DF12905 		add	r5, sp, #41
 1105              	.LVL183:
 1106 0584 0393     		str	r3, [sp, #12]
 1107 0586 95E7     		b	.L34
 1108              	.LVL184:
 1109              	.L121:
 1110              		.loc 1 201 0
 1111 0588 4FF0FF33 		mov	r3, #-1
 1112 058c 0193     		str	r3, [sp, #4]
 1113              		.loc 1 196 0
 1114 058e 2027     		movs	r7, #32
 1115 0590 F1E6     		b	.L52
 1116              		.cfi_endproc
 1117              	.LFE260:
 1118              		.size	chvprintf, .-chvprintf
 1119 0592 00BF     		.section	.text.chsnprintf,"ax",%progbits
 1120              		.align	1
 1121              		.p2align 4,,15
 1122              		.global	chsnprintf
 1123              		.syntax unified
 1124              		.thumb
 1125              		.thumb_func
 1126              		.fpu fpv4-sp-d16
 1127              		.type	chsnprintf, %function
 1128              	chsnprintf:
 1129              	.LFB261:
 1130              		.loc 1 307 0
 1131              		.cfi_startproc
 1132              		@ args = 4, pretend = 8, frame = 24
 1133              		@ frame_needed = 0, uses_anonymous_args = 1
 1134              	.LVL185:
 1135 0000 0CB4     		push	{r2, r3}
 1136              		.cfi_def_cfa_offset 8
 1137              		.cfi_offset 2, -8
 1138              		.cfi_offset 3, -4
 1139 0002 30B5     		push	{r4, r5, lr}
ARM GAS  /var/folders/km/q6jdms0143g2bddz5bhvdfd00000gn/T//ccikXD6n.s 			page 21


 1140              		.cfi_def_cfa_offset 20
 1141              		.cfi_offset 4, -20
 1142              		.cfi_offset 5, -16
 1143              		.cfi_offset 14, -12
 1144 0004 0546     		mov	r5, r0
 1145 0006 87B0     		sub	sp, sp, #28
 1146              		.cfi_def_cfa_offset 48
 1147              		.loc 1 314 0
 1148 0008 0C46     		mov	r4, r1
 1149 000a B1B1     		cbz	r1, .L131
 1150              	.LVL186:
 1151              		.loc 1 321 0
 1152 000c 4A1E     		subs	r2, r1, #1
 1153              	.LVL187:
 1154 000e 01A8     		add	r0, sp, #4
 1155              	.LVL188:
 1156 0010 0023     		movs	r3, #0
 1157 0012 2946     		mov	r1, r5
 1158              	.LVL189:
 1159 0014 FFF7FEFF 		bl	msObjectInit
 1160              	.LVL190:
 1161              		.loc 1 325 0
 1162 0018 0BAB     		add	r3, sp, #44
 1163              		.loc 1 326 0
 1164 001a 1A46     		mov	r2, r3
 1165 001c 01A8     		add	r0, sp, #4
 1166              	.LVL191:
 1167 001e 0A99     		ldr	r1, [sp, #40]
 1168              		.loc 1 325 0
 1169 0020 0093     		str	r3, [sp]
 1170              		.loc 1 326 0
 1171 0022 FFF7FEFF 		bl	chvprintf
 1172              	.LVL192:
 1173              		.loc 1 330 0
 1174 0026 049B     		ldr	r3, [sp, #16]
 1175 0028 A342     		cmp	r3, r4
 1176 002a 01D2     		bcs	.L130
 1177              		.loc 1 331 0
 1178 002c 0022     		movs	r2, #0
 1179 002e EA54     		strb	r2, [r5, r3]
 1180              	.L130:
 1181              		.loc 1 335 0
 1182 0030 07B0     		add	sp, sp, #28
 1183              		.cfi_remember_state
 1184              		.cfi_def_cfa_offset 20
 1185              		@ sp needed
 1186 0032 BDE83040 		pop	{r4, r5, lr}
 1187              		.cfi_restore 14
 1188              		.cfi_restore 5
 1189              		.cfi_restore 4
 1190              		.cfi_def_cfa_offset 8
 1191              	.LVL193:
 1192 0036 02B0     		add	sp, sp, #8
 1193              		.cfi_restore 3
 1194              		.cfi_restore 2
 1195              		.cfi_def_cfa_offset 0
 1196 0038 7047     		bx	lr
ARM GAS  /var/folders/km/q6jdms0143g2bddz5bhvdfd00000gn/T//ccikXD6n.s 			page 22


 1197              	.LVL194:
 1198              	.L131:
 1199              		.cfi_restore_state
 1200              		.loc 1 321 0
 1201 003a 0146     		mov	r1, r0
 1202              	.LVL195:
 1203 003c 2346     		mov	r3, r4
 1204 003e 01A8     		add	r0, sp, #4
 1205              	.LVL196:
 1206 0040 2246     		mov	r2, r4
 1207 0042 FFF7FEFF 		bl	msObjectInit
 1208              	.LVL197:
 1209              		.loc 1 325 0
 1210 0046 0BAB     		add	r3, sp, #44
 1211              		.loc 1 326 0
 1212 0048 01A8     		add	r0, sp, #4
 1213              	.LVL198:
 1214 004a 1A46     		mov	r2, r3
 1215 004c 0A99     		ldr	r1, [sp, #40]
 1216              		.loc 1 325 0
 1217 004e 0093     		str	r3, [sp]
 1218              		.loc 1 326 0
 1219 0050 FFF7FEFF 		bl	chvprintf
 1220              	.LVL199:
 1221              		.loc 1 335 0
 1222 0054 07B0     		add	sp, sp, #28
 1223              		.cfi_def_cfa_offset 20
 1224              		@ sp needed
 1225 0056 BDE83040 		pop	{r4, r5, lr}
 1226              		.cfi_restore 14
 1227              		.cfi_restore 5
 1228              		.cfi_restore 4
 1229              		.cfi_def_cfa_offset 8
 1230              	.LVL200:
 1231 005a 02B0     		add	sp, sp, #8
 1232              		.cfi_restore 3
 1233              		.cfi_restore 2
 1234              		.cfi_def_cfa_offset 0
 1235 005c 7047     		bx	lr
 1236              		.cfi_endproc
 1237              	.LFE261:
 1238              		.size	chsnprintf, .-chsnprintf
 1239 005e 00BF     		.section	.rodata.chvprintf.str1.4,"aMS",%progbits,1
 1240              		.align	2
 1241              	.LC0:
 1242 0000 286E756C 		.ascii	"(null)\000"
 1242      6C2900
 1243              		.section	.rodata.pow10,"a",%progbits
 1244              		.align	2
 1245              		.set	.LANCHOR0,. + 0
 1246              		.type	pow10, %object
 1247              		.size	pow10, 36
 1248              	pow10:
 1249 0000 0A000000 		.word	10
 1250 0004 64000000 		.word	100
 1251 0008 E8030000 		.word	1000
 1252 000c 10270000 		.word	10000
ARM GAS  /var/folders/km/q6jdms0143g2bddz5bhvdfd00000gn/T//ccikXD6n.s 			page 23


 1253 0010 A0860100 		.word	100000
 1254 0014 40420F00 		.word	1000000
 1255 0018 80969800 		.word	10000000
 1256 001c 00E1F505 		.word	100000000
 1257 0020 00CA9A3B 		.word	1000000000
 1258              		.text
 1259              	.Letext0:
 1260              		.file 2 "/Applications/Eclipse_e-puck2.app/Contents/Eclipse_e-puck2/Tools/gcc-arm-none-eabi-7-2017
 1261              		.file 3 "/Applications/Eclipse_e-puck2.app/Contents/Eclipse_e-puck2/Tools/gcc-arm-none-eabi-7-2017
 1262              		.file 4 "/Applications/Eclipse_e-puck2.app/Contents/Eclipse_e-puck2/Tools/gcc-arm-none-eabi-7-2017
 1263              		.file 5 "../../lib/ChibiOS/os/rt/ports/ARMCMx/compilers/GCC/chtypes.h"
 1264              		.file 6 "../../lib/ChibiOS/os/rt/include/chsystypes.h"
 1265              		.file 7 "../../lib/ChibiOS/os/rt/include/chschd.h"
 1266              		.file 8 "../../lib/ChibiOS/os/ext/CMSIS/include/core_cm4.h"
 1267              		.file 9 "../../lib/ChibiOS/os/ext/CMSIS/ST/system_stm32f4xx.h"
 1268              		.file 10 "../../lib/ChibiOS/os/ext/CMSIS/ST/stm32f407xx.h"
 1269              		.file 11 "../../lib/ChibiOS/os/rt/ports/ARMCMx/chcore.h"
 1270              		.file 12 "../../lib/ChibiOS/os/rt/ports/ARMCMx/chcore_v7m.h"
 1271              		.file 13 "../../lib/ChibiOS/os/rt/include/chdebug.h"
 1272              		.file 14 "../../lib/ChibiOS/os/rt/include/chtm.h"
 1273              		.file 15 "../../lib/ChibiOS/os/rt/include/chstats.h"
 1274              		.file 16 "../../lib/ChibiOS/os/rt/include/chsem.h"
 1275              		.file 17 "../../lib/ChibiOS/os/rt/include/chmtx.h"
 1276              		.file 18 "../../lib/ChibiOS/os/rt/include/chregistry.h"
 1277              		.file 19 "../../lib/ChibiOS/os/rt/include/chevents.h"
 1278              		.file 20 "../../lib/ChibiOS/os/rt/include/chqueues.h"
 1279              		.file 21 "../../lib/ChibiOS/os/rt/include/chstreams.h"
 1280              		.file 22 "../../lib/ChibiOS/os/hal/ports/STM32/STM32F4xx/stm32_dma.h"
 1281              		.file 23 "../../lib/ChibiOS/os/hal/ports/STM32/LLD/GPIOv2/pal_lld.h"
 1282              		.file 24 "../../lib/ChibiOS/os/hal/include/gpt.h"
 1283              		.file 25 "../../lib/ChibiOS/os/hal/ports/STM32/LLD/TIMv1/gpt_lld.h"
 1284              		.file 26 "../../lib/ChibiOS/os/hal/ports/STM32/LLD/TIMv1/stm32_tim.h"
 1285              		.file 27 "../../lib/ChibiOS/os/hal/include/i2c.h"
 1286              		.file 28 "../../lib/ChibiOS/os/hal/ports/STM32/LLD/I2Cv1/i2c_lld.h"
 1287              		.file 29 "../../lib/ChibiOS/os/hal/include/serial.h"
 1288              		.file 30 "../../lib/ChibiOS/os/hal/ports/STM32/LLD/USARTv1/serial_lld.h"
 1289              		.file 31 "../../lib/ChibiOS/os/hal/include/usb.h"
 1290              		.file 32 "../../lib/ChibiOS/os/hal/ports/STM32/LLD/OTGv1/usb_lld.h"
 1291              		.file 33 "../../lib/ChibiOS/os/hal/ports/STM32/LLD/OTGv1/stm32_otg.h"
 1292              		.file 34 "/Applications/Eclipse_e-puck2.app/Contents/Eclipse_e-puck2/Tools/gcc-arm-none-eabi-7-201
 1293              		.file 35 "<built-in>"
 1294              		.file 36 "../../lib/ChibiOS/os/hal/lib/streams/memstreams.h"