ARM GAS  /var/folders/km/q6jdms0143g2bddz5bhvdfd00000gn/T//ccDlEoV8.s 			page 1


   1              		.cpu cortex-m4
   2              		.eabi_attribute 27, 1
   3              		.eabi_attribute 28, 1
   4              		.eabi_attribute 20, 1
   5              		.eabi_attribute 21, 1
   6              		.eabi_attribute 23, 3
   7              		.eabi_attribute 24, 1
   8              		.eabi_attribute 25, 1
   9              		.eabi_attribute 26, 1
  10              		.eabi_attribute 30, 2
  11              		.eabi_attribute 34, 1
  12              		.eabi_attribute 18, 4
  13              		.file	"chqueues.c"
  14              		.text
  15              	.Ltext0:
  16              		.cfi_sections	.debug_frame
  17              		.section	.text.chIQObjectInit,"ax",%progbits
  18              		.align	1
  19              		.p2align 4,,15
  20              		.global	chIQObjectInit
  21              		.syntax unified
  22              		.thumb
  23              		.thumb_func
  24              		.fpu fpv4-sp-d16
  25              		.type	chIQObjectInit, %function
  26              	chIQObjectInit:
  27              	.LFB219:
  28              		.file 1 "../../lib/ChibiOS/os/rt/src/chqueues.c"
  29              		.loc 1 88 0
  30              		.cfi_startproc
  31              		@ args = 4, pretend = 0, frame = 0
  32              		@ frame_needed = 0, uses_anonymous_args = 0
  33              		@ link register save eliminated.
  34              	.LVL0:
  35 0000 30B4     		push	{r4, r5}
  36              		.cfi_def_cfa_offset 8
  37              		.cfi_offset 4, -8
  38              		.cfi_offset 5, -4
  39              		.loc 1 88 0
  40 0002 029C     		ldr	r4, [sp, #8]
  41              		.loc 1 97 0
  42 0004 0462     		str	r4, [r0, #32]
  43              		.loc 1 91 0
  44 0006 0025     		movs	r5, #0
  45              		.loc 1 95 0
  46 0008 0A44     		add	r2, r2, r1
  47              	.LVL1:
  48              		.loc 1 91 0
  49 000a 8560     		str	r5, [r0, #8]
  50              		.loc 1 95 0
  51 000c 0261     		str	r2, [r0, #16]
  52              	.LBB68:
  53              	.LBB69:
  54              	.LBB70:
  55              		.file 2 "../../lib/ChibiOS/os/rt/include/chschd.h"
  56              		.loc 2 605 0
  57 000e C0E90000 		strd	r0, r0, [r0]
ARM GAS  /var/folders/km/q6jdms0143g2bddz5bhvdfd00000gn/T//ccDlEoV8.s 			page 2


  58              	.LVL2:
  59              	.LBE70:
  60              	.LBE69:
  61              	.LBE68:
  62              		.loc 1 92 0
  63 0012 C160     		str	r1, [r0, #12]
  64              		.loc 1 94 0
  65 0014 C0E90511 		strd	r1, r1, [r0, #20]
  66              		.loc 1 96 0
  67 0018 C361     		str	r3, [r0, #28]
  68              		.loc 1 98 0
  69 001a 30BC     		pop	{r4, r5}
  70              		.cfi_restore 5
  71              		.cfi_restore 4
  72              		.cfi_def_cfa_offset 0
  73              	.LVL3:
  74 001c 7047     		bx	lr
  75              		.cfi_endproc
  76              	.LFE219:
  77              		.size	chIQObjectInit, .-chIQObjectInit
  78 001e 00BF     		.section	.text.chIQResetI,"ax",%progbits
  79              		.align	1
  80              		.p2align 4,,15
  81              		.global	chIQResetI
  82              		.syntax unified
  83              		.thumb
  84              		.thumb_func
  85              		.fpu fpv4-sp-d16
  86              		.type	chIQResetI, %function
  87              	chIQResetI:
  88              	.LFB220:
  89              		.loc 1 111 0
  90              		.cfi_startproc
  91              		@ args = 0, pretend = 0, frame = 0
  92              		@ frame_needed = 0, uses_anonymous_args = 0
  93              	.LVL4:
  94 0000 10B5     		push	{r4, lr}
  95              		.cfi_def_cfa_offset 8
  96              		.cfi_offset 4, -8
  97              		.cfi_offset 14, -4
  98              		.loc 1 111 0
  99 0002 0446     		mov	r4, r0
 100              		.loc 1 113 0
 101 0004 FFF7FEFF 		bl	chDbgCheckClassI
 102              	.LVL5:
 103              		.loc 1 115 0
 104 0008 E368     		ldr	r3, [r4, #12]
 105              		.loc 1 117 0
 106 000a 0022     		movs	r2, #0
 107 000c A260     		str	r2, [r4, #8]
 108              		.loc 1 116 0
 109 000e C4E90533 		strd	r3, r3, [r4, #20]
 110              		.loc 1 118 0
 111 0012 2046     		mov	r0, r4
 112 0014 6FF00101 		mvn	r1, #1
 113              		.loc 1 119 0
 114 0018 BDE81040 		pop	{r4, lr}
ARM GAS  /var/folders/km/q6jdms0143g2bddz5bhvdfd00000gn/T//ccDlEoV8.s 			page 3


 115              		.cfi_restore 14
 116              		.cfi_restore 4
 117              		.cfi_def_cfa_offset 0
 118              	.LVL6:
 119              		.loc 1 118 0
 120 001c FFF7FEBF 		b	chThdDequeueAllI
 121              	.LVL7:
 122              		.cfi_endproc
 123              	.LFE220:
 124              		.size	chIQResetI, .-chIQResetI
 125              		.section	.text.chIQPutI,"ax",%progbits
 126              		.align	1
 127              		.p2align 4,,15
 128              		.global	chIQPutI
 129              		.syntax unified
 130              		.thumb
 131              		.thumb_func
 132              		.fpu fpv4-sp-d16
 133              		.type	chIQPutI, %function
 134              	chIQPutI:
 135              	.LFB221:
 136              		.loc 1 134 0
 137              		.cfi_startproc
 138              		@ args = 0, pretend = 0, frame = 0
 139              		@ frame_needed = 0, uses_anonymous_args = 0
 140              	.LVL8:
 141 0000 38B5     		push	{r3, r4, r5, lr}
 142              		.cfi_def_cfa_offset 16
 143              		.cfi_offset 3, -16
 144              		.cfi_offset 4, -12
 145              		.cfi_offset 5, -8
 146              		.cfi_offset 14, -4
 147              		.loc 1 134 0
 148 0002 0446     		mov	r4, r0
 149 0004 0D46     		mov	r5, r1
 150              		.loc 1 136 0
 151 0006 FFF7FEFF 		bl	chDbgCheckClassI
 152              	.LVL9:
 153              	.LBB71:
 154              	.LBB72:
 155              		.file 3 "../../lib/ChibiOS/os/rt/include/chqueues.h"
 156              		.loc 3 322 0
 157 000a FFF7FEFF 		bl	chDbgCheckClassI
 158              	.LVL10:
 159              		.loc 3 324 0
 160 000e D4E90523 		ldrd	r2, r3, [r4, #20]
 161 0012 9A42     		cmp	r2, r3
 162 0014 A368     		ldr	r3, [r4, #8]
 163 0016 10D0     		beq	.L14
 164              	.L9:
 165              	.LVL11:
 166              	.LBE72:
 167              	.LBE71:
 168              		.loc 1 142 0
 169 0018 0133     		adds	r3, r3, #1
 170              		.loc 1 143 0
 171 001a 511C     		adds	r1, r2, #1
ARM GAS  /var/folders/km/q6jdms0143g2bddz5bhvdfd00000gn/T//ccDlEoV8.s 			page 4


 172              		.loc 1 142 0
 173 001c A360     		str	r3, [r4, #8]
 174              		.loc 1 143 0
 175 001e 6161     		str	r1, [r4, #20]
 176 0020 1570     		strb	r5, [r2]
 177              		.loc 1 144 0
 178 0022 D4E90432 		ldrd	r3, r2, [r4, #16]
 179 0026 9A42     		cmp	r2, r3
 180 0028 01D3     		bcc	.L11
 181              		.loc 1 145 0
 182 002a E368     		ldr	r3, [r4, #12]
 183 002c 6361     		str	r3, [r4, #20]
 184              	.L11:
 185              		.loc 1 148 0
 186 002e 2046     		mov	r0, r4
 187 0030 0021     		movs	r1, #0
 188 0032 FFF7FEFF 		bl	chThdDequeueNextI
 189              	.LVL12:
 190              		.loc 1 150 0
 191 0036 0020     		movs	r0, #0
 192              		.loc 1 151 0
 193 0038 38BD     		pop	{r3, r4, r5, pc}
 194              	.LVL13:
 195              	.L14:
 196              	.LBB74:
 197              	.LBB73:
 198              		.loc 3 324 0
 199 003a 002B     		cmp	r3, #0
 200 003c ECD0     		beq	.L9
 201              	.LBE73:
 202              	.LBE74:
 203              		.loc 1 139 0
 204 003e 6FF00300 		mvn	r0, #3
 205              		.loc 1 151 0
 206 0042 38BD     		pop	{r3, r4, r5, pc}
 207              		.cfi_endproc
 208              	.LFE221:
 209              		.size	chIQPutI, .-chIQPutI
 210              		.section	.text.chIQGetTimeout,"ax",%progbits
 211              		.align	1
 212              		.p2align 4,,15
 213              		.global	chIQGetTimeout
 214              		.syntax unified
 215              		.thumb
 216              		.thumb_func
 217              		.fpu fpv4-sp-d16
 218              		.type	chIQGetTimeout, %function
 219              	chIQGetTimeout:
 220              	.LFB222:
 221              		.loc 1 173 0
 222              		.cfi_startproc
 223              		@ args = 0, pretend = 0, frame = 0
 224              		@ frame_needed = 0, uses_anonymous_args = 0
 225              	.LVL14:
 226 0000 70B5     		push	{r4, r5, r6, lr}
 227              		.cfi_def_cfa_offset 16
 228              		.cfi_offset 4, -16
ARM GAS  /var/folders/km/q6jdms0143g2bddz5bhvdfd00000gn/T//ccDlEoV8.s 			page 5


 229              		.cfi_offset 5, -12
 230              		.cfi_offset 6, -8
 231              		.cfi_offset 14, -4
 232              	.LBB93:
 233              	.LBB94:
 234              	.LBB95:
 235              	.LBB96:
 236              	.LBB97:
 237              		.file 4 "../../lib/ChibiOS/os/ext/CMSIS/include/core_cmFunc.h"
 238              		.loc 4 546 0
 239 0002 2023     		movs	r3, #32
 240              	.LBE97:
 241              	.LBE96:
 242              	.LBE95:
 243              	.LBE94:
 244              	.LBE93:
 245              		.loc 1 173 0
 246 0004 0446     		mov	r4, r0
 247 0006 0E46     		mov	r6, r1
 248              	.LBB102:
 249              	.LBB101:
 250              	.LBB100:
 251              	.LBB99:
 252              	.LBB98:
 253              		.loc 4 546 0
 254              		.syntax unified
 255              	@ 546 "../../lib/ChibiOS/os/ext/CMSIS/include/core_cmFunc.h" 1
 256 0008 83F31188 		MSR basepri, r3
 257              	@ 0 "" 2
 258              	.LVL15:
 259              		.thumb
 260              		.syntax unified
 261              	.LBE98:
 262              	.LBE99:
 263              	.LBE100:
 264              		.file 5 "../../lib/ChibiOS/os/rt/include/chsys.h"
 265              		.loc 5 349 0
 266 000c FFF7FEFF 		bl	_stats_start_measure_crit_thd
 267              	.LVL16:
 268              		.loc 5 350 0
 269 0010 FFF7FEFF 		bl	_dbg_check_lock
 270              	.LVL17:
 271              	.LBE101:
 272              	.LBE102:
 273              		.loc 1 177 0
 274 0014 E369     		ldr	r3, [r4, #28]
 275 0016 33B1     		cbz	r3, .L17
 276              		.loc 1 178 0
 277 0018 2046     		mov	r0, r4
 278 001a 9847     		blx	r3
 279              	.LVL18:
 280 001c 03E0     		b	.L17
 281              	.LVL19:
 282              	.L20:
 283              	.LBB103:
 284              		.loc 1 182 0
 285 001e FFF7FEFF 		bl	chThdEnqueueTimeoutS
ARM GAS  /var/folders/km/q6jdms0143g2bddz5bhvdfd00000gn/T//ccDlEoV8.s 			page 6


 286              	.LVL20:
 287              		.loc 1 183 0
 288 0022 051E     		subs	r5, r0, #0
 289 0024 12DB     		blt	.L21
 290              	.LVL21:
 291              	.L17:
 292              	.LBE103:
 293              	.LBB104:
 294              	.LBB105:
 295              		.loc 3 305 0
 296 0026 FFF7FEFF 		bl	chDbgCheckClassI
 297              	.LVL22:
 298              		.loc 3 307 0
 299 002a A368     		ldr	r3, [r4, #8]
 300              	.LBE105:
 301              	.LBE104:
 302              	.LBB106:
 303              		.loc 1 182 0
 304 002c 3146     		mov	r1, r6
 305 002e 2046     		mov	r0, r4
 306              	.LBE106:
 307              		.loc 1 181 0
 308 0030 002B     		cmp	r3, #0
 309 0032 F4D0     		beq	.L20
 310              	.LVL23:
 311              		.loc 1 190 0
 312 0034 A169     		ldr	r1, [r4, #24]
 313              	.LVL24:
 314              		.loc 1 191 0
 315 0036 2069     		ldr	r0, [r4, #16]
 316              	.LVL25:
 317              		.loc 1 190 0
 318 0038 4A1C     		adds	r2, r1, #1
 319              		.loc 1 189 0
 320 003a 013B     		subs	r3, r3, #1
 321              		.loc 1 191 0
 322 003c 8242     		cmp	r2, r0
 323              		.loc 1 189 0
 324 003e A360     		str	r3, [r4, #8]
 325              		.loc 1 190 0
 326 0040 A261     		str	r2, [r4, #24]
 327              		.loc 1 192 0
 328 0042 28BF     		it	cs
 329 0044 E368     		ldrcs	r3, [r4, #12]
 330              		.loc 1 190 0
 331 0046 0D78     		ldrb	r5, [r1]	@ zero_extendqisi2
 332              	.LVL26:
 333              		.loc 1 192 0
 334 0048 28BF     		it	cs
 335 004a A361     		strcs	r3, [r4, #24]
 336              	.LVL27:
 337              	.L21:
 338              	.LBB107:
 339              	.LBB108:
 340              		.loc 5 360 0
 341 004c FFF7FEFF 		bl	_dbg_check_unlock
 342              	.LVL28:
ARM GAS  /var/folders/km/q6jdms0143g2bddz5bhvdfd00000gn/T//ccDlEoV8.s 			page 7


 343              		.loc 5 361 0
 344 0050 FFF7FEFF 		bl	_stats_stop_measure_crit_thd
 345              	.LVL29:
 346              		.loc 5 367 0
 347 0054 0A4B     		ldr	r3, .L33
 348 0056 1A68     		ldr	r2, [r3]
 349 0058 9A42     		cmp	r2, r3
 350 005a 04D0     		beq	.L22
 351 005c 9969     		ldr	r1, [r3, #24]
 352 005e 9368     		ldr	r3, [r2, #8]
 353 0060 8A68     		ldr	r2, [r1, #8]
 354 0062 9A42     		cmp	r2, r3
 355 0064 04D3     		bcc	.L32
 356              	.L22:
 357              	.LVL30:
 358              	.LBB109:
 359              	.LBB110:
 360              	.LBB111:
 361              		.loc 4 546 0
 362 0066 0023     		movs	r3, #0
 363              		.syntax unified
 364              	@ 546 "../../lib/ChibiOS/os/ext/CMSIS/include/core_cmFunc.h" 1
 365 0068 83F31188 		MSR basepri, r3
 366              	@ 0 "" 2
 367              	.LVL31:
 368              		.thumb
 369              		.syntax unified
 370              	.LBE111:
 371              	.LBE110:
 372              	.LBE109:
 373              	.LBE108:
 374              	.LBE107:
 375              		.loc 1 197 0
 376 006c 2846     		mov	r0, r5
 377 006e 70BD     		pop	{r4, r5, r6, pc}
 378              	.LVL32:
 379              	.L32:
 380              	.LBB116:
 381              	.LBB115:
 382              		.loc 5 367 0
 383 0070 0448     		ldr	r0, .L33+4
 384 0072 FFF7FEFF 		bl	chSysHalt
 385              	.LVL33:
 386              	.LBB114:
 387              	.LBB113:
 388              	.LBB112:
 389              		.loc 4 546 0
 390 0076 0023     		movs	r3, #0
 391              		.syntax unified
 392              	@ 546 "../../lib/ChibiOS/os/ext/CMSIS/include/core_cmFunc.h" 1
 393 0078 83F31188 		MSR basepri, r3
 394              	@ 0 "" 2
 395              	.LVL34:
 396              		.thumb
 397              		.syntax unified
 398              	.LBE112:
 399              	.LBE113:
ARM GAS  /var/folders/km/q6jdms0143g2bddz5bhvdfd00000gn/T//ccDlEoV8.s 			page 8


 400              	.LBE114:
 401              	.LBE115:
 402              	.LBE116:
 403              		.loc 1 197 0
 404 007c 2846     		mov	r0, r5
 405 007e 70BD     		pop	{r4, r5, r6, pc}
 406              	.LVL35:
 407              	.L34:
 408              		.align	2
 409              	.L33:
 410 0080 00000000 		.word	ch
 411 0084 00000000 		.word	.LANCHOR0
 412              		.cfi_endproc
 413              	.LFE222:
 414              		.size	chIQGetTimeout, .-chIQGetTimeout
 415              		.section	.text.chIQReadTimeout,"ax",%progbits
 416              		.align	1
 417              		.p2align 4,,15
 418              		.global	chIQReadTimeout
 419              		.syntax unified
 420              		.thumb
 421              		.thumb_func
 422              		.fpu fpv4-sp-d16
 423              		.type	chIQReadTimeout, %function
 424              	chIQReadTimeout:
 425              	.LFB223:
 426              		.loc 1 224 0
 427              		.cfi_startproc
 428              		@ args = 0, pretend = 0, frame = 0
 429              		@ frame_needed = 0, uses_anonymous_args = 0
 430              	.LVL36:
 431 0000 2DE9F84F 		push	{r3, r4, r5, r6, r7, r8, r9, r10, fp, lr}
 432              		.cfi_def_cfa_offset 40
 433              		.cfi_offset 3, -40
 434              		.cfi_offset 4, -36
 435              		.cfi_offset 5, -32
 436              		.cfi_offset 6, -28
 437              		.cfi_offset 7, -24
 438              		.cfi_offset 8, -20
 439              		.cfi_offset 9, -16
 440              		.cfi_offset 10, -12
 441              		.cfi_offset 11, -8
 442              		.cfi_offset 14, -4
 443              		.loc 1 224 0
 444 0004 0446     		mov	r4, r0
 445 0006 8946     		mov	r9, r1
 446 0008 1D46     		mov	r5, r3
 447              		.loc 1 225 0
 448 000a D0F81C80 		ldr	r8, [r0, #28]
 449              	.LVL37:
 450              		.loc 1 228 0
 451 000e 9246     		mov	r10, r2
 452 0010 002A     		cmp	r2, #0
 453 0012 59D0     		beq	.L51
 454              	.LVL38:
 455              	.L36:
 456              	.LBB139:
ARM GAS  /var/folders/km/q6jdms0143g2bddz5bhvdfd00000gn/T//ccDlEoV8.s 			page 9


 457              	.LBB140:
 458              	.LBB141:
 459              	.LBB142:
 460              	.LBB143:
 461              		.loc 4 546 0
 462 0014 4FF0200B 		mov	fp, #32
 463              		.syntax unified
 464              	@ 546 "../../lib/ChibiOS/os/ext/CMSIS/include/core_cmFunc.h" 1
 465 0018 8BF31188 		MSR basepri, fp
 466              	@ 0 "" 2
 467              	.LVL39:
 468              		.thumb
 469              		.syntax unified
 470              	.LBE143:
 471              	.LBE142:
 472              	.LBE141:
 473              		.loc 5 349 0
 474 001c FFF7FEFF 		bl	_stats_start_measure_crit_thd
 475              	.LVL40:
 476              		.loc 5 350 0
 477 0020 FFF7FEFF 		bl	_dbg_check_lock
 478              	.LVL41:
 479 0024 2A4E     		ldr	r6, .L54
 480              	.LBE140:
 481              	.LBE139:
 482              		.loc 1 226 0
 483 0026 0027     		movs	r7, #0
 484              	.LVL42:
 485              	.L44:
 486              		.loc 1 232 0
 487 0028 B8F1000F 		cmp	r8, #0
 488 002c 05D0     		beq	.L38
 489              		.loc 1 233 0
 490 002e 2046     		mov	r0, r4
 491 0030 C047     		blx	r8
 492              	.LVL43:
 493 0032 02E0     		b	.L38
 494              	.LVL44:
 495              	.L41:
 496              		.loc 1 237 0
 497 0034 FFF7FEFF 		bl	chThdEnqueueTimeoutS
 498              	.LVL45:
 499 0038 68BB     		cbnz	r0, .L52
 500              	.LVL46:
 501              	.L38:
 502              	.LBB144:
 503              	.LBB145:
 504              		.loc 3 305 0
 505 003a FFF7FEFF 		bl	chDbgCheckClassI
 506              	.LVL47:
 507              		.loc 3 307 0
 508 003e A368     		ldr	r3, [r4, #8]
 509              	.LBE145:
 510              	.LBE144:
 511              		.loc 1 237 0
 512 0040 2946     		mov	r1, r5
 513 0042 2046     		mov	r0, r4
ARM GAS  /var/folders/km/q6jdms0143g2bddz5bhvdfd00000gn/T//ccDlEoV8.s 			page 10


 514              		.loc 1 236 0
 515 0044 002B     		cmp	r3, #0
 516 0046 F5D0     		beq	.L41
 517              	.LVL48:
 518              		.loc 1 244 0
 519 0048 A269     		ldr	r2, [r4, #24]
 520              		.loc 1 243 0
 521 004a 013B     		subs	r3, r3, #1
 522              		.loc 1 244 0
 523 004c 511C     		adds	r1, r2, #1
 524              	.LVL49:
 525 004e A161     		str	r1, [r4, #24]
 526              		.loc 1 243 0
 527 0050 A360     		str	r3, [r4, #8]
 528              		.loc 1 244 0
 529 0052 1378     		ldrb	r3, [r2]	@ zero_extendqisi2
 530 0054 09F8013B 		strb	r3, [r9], #1
 531              	.LVL50:
 532              		.loc 1 245 0
 533 0058 2369     		ldr	r3, [r4, #16]
 534 005a A269     		ldr	r2, [r4, #24]
 535 005c 9A42     		cmp	r2, r3
 536              		.loc 1 246 0
 537 005e 24BF     		itt	cs
 538 0060 E368     		ldrcs	r3, [r4, #12]
 539 0062 A361     		strcs	r3, [r4, #24]
 540              	.LBB146:
 541              	.LBB147:
 542              		.loc 5 360 0
 543 0064 FFF7FEFF 		bl	_dbg_check_unlock
 544              	.LVL51:
 545              		.loc 5 361 0
 546 0068 FFF7FEFF 		bl	_stats_stop_measure_crit_thd
 547              	.LVL52:
 548              		.loc 5 367 0
 549 006c 3368     		ldr	r3, [r6]
 550 006e B342     		cmp	r3, r6
 551 0070 04D0     		beq	.L43
 552 0072 B269     		ldr	r2, [r6, #24]
 553 0074 9B68     		ldr	r3, [r3, #8]
 554 0076 9268     		ldr	r2, [r2, #8]
 555 0078 9A42     		cmp	r2, r3
 556 007a 21D3     		bcc	.L53
 557              	.L43:
 558              	.LVL53:
 559              	.LBB148:
 560              	.LBB149:
 561              	.LBB150:
 562              		.loc 4 546 0
 563 007c 0023     		movs	r3, #0
 564              		.syntax unified
 565              	@ 546 "../../lib/ChibiOS/os/ext/CMSIS/include/core_cmFunc.h" 1
 566 007e 83F31188 		MSR basepri, r3
 567              	@ 0 "" 2
 568              	.LVL54:
 569              		.thumb
 570              		.syntax unified
ARM GAS  /var/folders/km/q6jdms0143g2bddz5bhvdfd00000gn/T//ccDlEoV8.s 			page 11


 571              	.LBE150:
 572              	.LBE149:
 573              	.LBE148:
 574              	.LBE147:
 575              	.LBE146:
 576              		.loc 1 250 0
 577 0082 0137     		adds	r7, r7, #1
 578              	.LVL55:
 579              		.loc 1 251 0
 580 0084 BA45     		cmp	r10, r7
 581 0086 18D0     		beq	.L35
 582              	.LVL56:
 583              	.LBB152:
 584              	.LBB153:
 585              	.LBB154:
 586              	.LBB155:
 587              	.LBB156:
 588              		.loc 4 546 0
 589              		.syntax unified
 590              	@ 546 "../../lib/ChibiOS/os/ext/CMSIS/include/core_cmFunc.h" 1
 591 0088 8BF31188 		MSR basepri, fp
 592              	@ 0 "" 2
 593              	.LVL57:
 594              		.thumb
 595              		.syntax unified
 596              	.LBE156:
 597              	.LBE155:
 598              	.LBE154:
 599              		.loc 5 349 0
 600 008c FFF7FEFF 		bl	_stats_start_measure_crit_thd
 601              	.LVL58:
 602              		.loc 5 350 0
 603 0090 FFF7FEFF 		bl	_dbg_check_lock
 604              	.LVL59:
 605 0094 C8E7     		b	.L44
 606              	.LVL60:
 607              	.L52:
 608              	.LBE153:
 609              	.LBE152:
 610              	.LBB157:
 611              	.LBB158:
 612              		.loc 5 360 0
 613 0096 FFF7FEFF 		bl	_dbg_check_unlock
 614              	.LVL61:
 615              		.loc 5 361 0
 616 009a FFF7FEFF 		bl	_stats_stop_measure_crit_thd
 617              	.LVL62:
 618              		.loc 5 367 0
 619 009e 3368     		ldr	r3, [r6]
 620 00a0 B342     		cmp	r3, r6
 621 00a2 07D0     		beq	.L39
 622 00a4 B269     		ldr	r2, [r6, #24]
 623 00a6 9B68     		ldr	r3, [r3, #8]
 624 00a8 9268     		ldr	r2, [r2, #8]
 625 00aa 9A42     		cmp	r2, r3
 626 00ac 02D2     		bcs	.L39
 627 00ae 0948     		ldr	r0, .L54+4
ARM GAS  /var/folders/km/q6jdms0143g2bddz5bhvdfd00000gn/T//ccDlEoV8.s 			page 12


 628 00b0 FFF7FEFF 		bl	chSysHalt
 629              	.LVL63:
 630              	.L39:
 631              	.LBB159:
 632              	.LBB160:
 633              	.LBB161:
 634              		.loc 4 546 0
 635 00b4 0023     		movs	r3, #0
 636              		.syntax unified
 637              	@ 546 "../../lib/ChibiOS/os/ext/CMSIS/include/core_cmFunc.h" 1
 638 00b6 83F31188 		MSR basepri, r3
 639              	@ 0 "" 2
 640              	.LVL64:
 641              		.thumb
 642              		.syntax unified
 643              	.L35:
 644              	.LBE161:
 645              	.LBE160:
 646              	.LBE159:
 647              	.LBE158:
 648              	.LBE157:
 649              		.loc 1 257 0
 650 00ba 3846     		mov	r0, r7
 651 00bc BDE8F88F 		pop	{r3, r4, r5, r6, r7, r8, r9, r10, fp, pc}
 652              	.LVL65:
 653              	.L53:
 654              	.LBB162:
 655              	.LBB151:
 656              		.loc 5 367 0
 657 00c0 0448     		ldr	r0, .L54+4
 658 00c2 FFF7FEFF 		bl	chSysHalt
 659              	.LVL66:
 660 00c6 D9E7     		b	.L43
 661              	.LVL67:
 662              	.L51:
 663              	.LBE151:
 664              	.LBE162:
 665              		.loc 1 228 0 discriminator 2
 666 00c8 0348     		ldr	r0, .L54+8
 667              	.LVL68:
 668 00ca FFF7FEFF 		bl	chSysHalt
 669              	.LVL69:
 670 00ce A1E7     		b	.L36
 671              	.L55:
 672              		.align	2
 673              	.L54:
 674 00d0 00000000 		.word	ch
 675 00d4 00000000 		.word	.LANCHOR0
 676 00d8 00000000 		.word	.LANCHOR1
 677              		.cfi_endproc
 678              	.LFE223:
 679              		.size	chIQReadTimeout, .-chIQReadTimeout
 680              		.section	.text.chOQObjectInit,"ax",%progbits
 681              		.align	1
 682              		.p2align 4,,15
 683              		.global	chOQObjectInit
 684              		.syntax unified
ARM GAS  /var/folders/km/q6jdms0143g2bddz5bhvdfd00000gn/T//ccDlEoV8.s 			page 13


 685              		.thumb
 686              		.thumb_func
 687              		.fpu fpv4-sp-d16
 688              		.type	chOQObjectInit, %function
 689              	chOQObjectInit:
 690              	.LFB224:
 691              		.loc 1 276 0
 692              		.cfi_startproc
 693              		@ args = 4, pretend = 0, frame = 0
 694              		@ frame_needed = 0, uses_anonymous_args = 0
 695              		@ link register save eliminated.
 696              	.LVL70:
 697 0000 30B4     		push	{r4, r5}
 698              		.cfi_def_cfa_offset 8
 699              		.cfi_offset 4, -8
 700              		.cfi_offset 5, -4
 701              		.loc 1 276 0
 702 0002 029C     		ldr	r4, [sp, #8]
 703              		.loc 1 279 0
 704 0004 8260     		str	r2, [r0, #8]
 705              		.loc 1 283 0
 706 0006 8D18     		adds	r5, r1, r2
 707              		.loc 1 280 0
 708 0008 C0E90315 		strd	r1, r5, [r0, #12]
 709              		.loc 1 285 0
 710 000c C0E90734 		strd	r3, r4, [r0, #28]
 711              	.LBB163:
 712              	.LBB164:
 713              	.LBB165:
 714              		.loc 2 605 0
 715 0010 C0E90000 		strd	r0, r0, [r0]
 716              	.LVL71:
 717              	.LBE165:
 718              	.LBE164:
 719              	.LBE163:
 720              		.loc 1 282 0
 721 0014 C0E90511 		strd	r1, r1, [r0, #20]
 722              		.loc 1 286 0
 723 0018 30BC     		pop	{r4, r5}
 724              		.cfi_restore 5
 725              		.cfi_restore 4
 726              		.cfi_def_cfa_offset 0
 727              	.LVL72:
 728 001a 7047     		bx	lr
 729              		.cfi_endproc
 730              	.LFE224:
 731              		.size	chOQObjectInit, .-chOQObjectInit
 732              		.section	.text.chOQResetI,"ax",%progbits
 733              		.align	1
 734              		.p2align 4,,15
 735              		.global	chOQResetI
 736              		.syntax unified
 737              		.thumb
 738              		.thumb_func
 739              		.fpu fpv4-sp-d16
 740              		.type	chOQResetI, %function
 741              	chOQResetI:
ARM GAS  /var/folders/km/q6jdms0143g2bddz5bhvdfd00000gn/T//ccDlEoV8.s 			page 14


 742              	.LFB225:
 743              		.loc 1 299 0
 744              		.cfi_startproc
 745              		@ args = 0, pretend = 0, frame = 0
 746              		@ frame_needed = 0, uses_anonymous_args = 0
 747              	.LVL73:
 748 0000 10B5     		push	{r4, lr}
 749              		.cfi_def_cfa_offset 8
 750              		.cfi_offset 4, -8
 751              		.cfi_offset 14, -4
 752              		.loc 1 299 0
 753 0002 0446     		mov	r4, r0
 754              		.loc 1 301 0
 755 0004 FFF7FEFF 		bl	chDbgCheckClassI
 756              	.LVL74:
 757              		.loc 1 305 0
 758 0008 D4E90323 		ldrd	r2, r3, [r4, #12]
 759 000c 9B1A     		subs	r3, r3, r2
 760              		.loc 1 303 0
 761 000e A261     		str	r2, [r4, #24]
 762              		.loc 1 304 0
 763 0010 6261     		str	r2, [r4, #20]
 764              		.loc 1 305 0
 765 0012 A360     		str	r3, [r4, #8]
 766              		.loc 1 306 0
 767 0014 2046     		mov	r0, r4
 768 0016 6FF00101 		mvn	r1, #1
 769              		.loc 1 307 0
 770 001a BDE81040 		pop	{r4, lr}
 771              		.cfi_restore 14
 772              		.cfi_restore 4
 773              		.cfi_def_cfa_offset 0
 774              	.LVL75:
 775              		.loc 1 306 0
 776 001e FFF7FEBF 		b	chThdDequeueAllI
 777              	.LVL76:
 778              		.cfi_endproc
 779              	.LFE225:
 780              		.size	chOQResetI, .-chOQResetI
 781 0022 00BF     		.section	.text.chOQPutTimeout,"ax",%progbits
 782              		.align	1
 783              		.p2align 4,,15
 784              		.global	chOQPutTimeout
 785              		.syntax unified
 786              		.thumb
 787              		.thumb_func
 788              		.fpu fpv4-sp-d16
 789              		.type	chOQPutTimeout, %function
 790              	chOQPutTimeout:
 791              	.LFB226:
 792              		.loc 1 331 0
 793              		.cfi_startproc
 794              		@ args = 0, pretend = 0, frame = 0
 795              		@ frame_needed = 0, uses_anonymous_args = 0
 796              	.LVL77:
 797 0000 F8B5     		push	{r3, r4, r5, r6, r7, lr}
 798              		.cfi_def_cfa_offset 24
ARM GAS  /var/folders/km/q6jdms0143g2bddz5bhvdfd00000gn/T//ccDlEoV8.s 			page 15


 799              		.cfi_offset 3, -24
 800              		.cfi_offset 4, -20
 801              		.cfi_offset 5, -16
 802              		.cfi_offset 6, -12
 803              		.cfi_offset 7, -8
 804              		.cfi_offset 14, -4
 805              		.loc 1 331 0
 806 0002 0446     		mov	r4, r0
 807 0004 0F46     		mov	r7, r1
 808 0006 1646     		mov	r6, r2
 809              	.LBB184:
 810              	.LBB185:
 811              	.LBB186:
 812              	.LBB187:
 813              	.LBB188:
 814              		.loc 4 546 0
 815 0008 2023     		movs	r3, #32
 816              		.syntax unified
 817              	@ 546 "../../lib/ChibiOS/os/ext/CMSIS/include/core_cmFunc.h" 1
 818 000a 83F31188 		MSR basepri, r3
 819              	@ 0 "" 2
 820              	.LVL78:
 821              		.thumb
 822              		.syntax unified
 823              	.LBE188:
 824              	.LBE187:
 825              	.LBE186:
 826              		.loc 5 349 0
 827 000e FFF7FEFF 		bl	_stats_start_measure_crit_thd
 828              	.LVL79:
 829              		.loc 5 350 0
 830 0012 FFF7FEFF 		bl	_dbg_check_lock
 831              	.LVL80:
 832 0016 03E0     		b	.L61
 833              	.LVL81:
 834              	.L64:
 835              	.LBE185:
 836              	.LBE184:
 837              	.LBB189:
 838              		.loc 1 335 0
 839 0018 FFF7FEFF 		bl	chThdEnqueueTimeoutS
 840              	.LVL82:
 841              		.loc 1 336 0
 842 001c 051E     		subs	r5, r0, #0
 843 001e 27DB     		blt	.L73
 844              	.LVL83:
 845              	.L61:
 846              	.LBE189:
 847              	.LBB195:
 848              	.LBB196:
 849              		.loc 3 405 0
 850 0020 FFF7FEFF 		bl	chDbgCheckClassI
 851              	.LVL84:
 852              		.loc 3 407 0
 853 0024 A368     		ldr	r3, [r4, #8]
 854              	.LBE196:
 855              	.LBE195:
ARM GAS  /var/folders/km/q6jdms0143g2bddz5bhvdfd00000gn/T//ccDlEoV8.s 			page 16


 856              	.LBB197:
 857              		.loc 1 335 0
 858 0026 3146     		mov	r1, r6
 859 0028 2046     		mov	r0, r4
 860              	.LBE197:
 861              		.loc 1 334 0
 862 002a 002B     		cmp	r3, #0
 863 002c F4D0     		beq	.L64
 864              	.LVL85:
 865              		.loc 1 343 0
 866 002e 6269     		ldr	r2, [r4, #20]
 867              		.loc 1 342 0
 868 0030 013B     		subs	r3, r3, #1
 869              		.loc 1 343 0
 870 0032 511C     		adds	r1, r2, #1
 871              	.LVL86:
 872 0034 6161     		str	r1, [r4, #20]
 873              		.loc 1 342 0
 874 0036 A360     		str	r3, [r4, #8]
 875              		.loc 1 343 0
 876 0038 1770     		strb	r7, [r2]
 877              		.loc 1 344 0
 878 003a D4E90432 		ldrd	r3, r2, [r4, #16]
 879 003e 9A42     		cmp	r2, r3
 880              		.loc 1 345 0
 881 0040 24BF     		itt	cs
 882 0042 E368     		ldrcs	r3, [r4, #12]
 883 0044 6361     		strcs	r3, [r4, #20]
 884              		.loc 1 348 0
 885 0046 E369     		ldr	r3, [r4, #28]
 886 0048 03B1     		cbz	r3, .L66
 887              		.loc 1 349 0
 888 004a 9847     		blx	r3
 889              	.LVL87:
 890              	.L66:
 891              	.LBB198:
 892              	.LBB199:
 893              		.loc 5 360 0
 894 004c FFF7FEFF 		bl	_dbg_check_unlock
 895              	.LVL88:
 896              		.loc 5 361 0
 897 0050 FFF7FEFF 		bl	_stats_stop_measure_crit_thd
 898              	.LVL89:
 899              		.loc 5 367 0
 900 0054 134B     		ldr	r3, .L75
 901 0056 1A68     		ldr	r2, [r3]
 902 0058 9A42     		cmp	r2, r3
 903 005a 04D0     		beq	.L67
 904 005c 9969     		ldr	r1, [r3, #24]
 905 005e 9368     		ldr	r3, [r2, #8]
 906 0060 8A68     		ldr	r2, [r1, #8]
 907 0062 9A42     		cmp	r2, r3
 908 0064 19D3     		bcc	.L74
 909              	.L67:
 910              	.LVL90:
 911              	.LBB200:
 912              	.LBB201:
ARM GAS  /var/folders/km/q6jdms0143g2bddz5bhvdfd00000gn/T//ccDlEoV8.s 			page 17


 913              	.LBB202:
 914              		.loc 4 546 0
 915 0066 0025     		movs	r5, #0
 916              		.syntax unified
 917              	@ 546 "../../lib/ChibiOS/os/ext/CMSIS/include/core_cmFunc.h" 1
 918 0068 85F31188 		MSR basepri, r5
 919              	@ 0 "" 2
 920              	.LVL91:
 921              		.thumb
 922              		.syntax unified
 923              	.LBE202:
 924              	.LBE201:
 925              	.LBE200:
 926              	.LBE199:
 927              	.LBE198:
 928              		.loc 1 354 0
 929 006c 2846     		mov	r0, r5
 930 006e F8BD     		pop	{r3, r4, r5, r6, r7, pc}
 931              	.LVL92:
 932              	.L73:
 933              	.LBB204:
 934              	.LBB190:
 935              	.LBB191:
 936              		.loc 5 360 0
 937 0070 FFF7FEFF 		bl	_dbg_check_unlock
 938              	.LVL93:
 939              		.loc 5 361 0
 940 0074 FFF7FEFF 		bl	_stats_stop_measure_crit_thd
 941              	.LVL94:
 942              		.loc 5 367 0
 943 0078 0A4B     		ldr	r3, .L75
 944 007a 1A68     		ldr	r2, [r3]
 945 007c 9A42     		cmp	r2, r3
 946 007e 07D0     		beq	.L62
 947 0080 9969     		ldr	r1, [r3, #24]
 948 0082 9368     		ldr	r3, [r2, #8]
 949 0084 8A68     		ldr	r2, [r1, #8]
 950 0086 9A42     		cmp	r2, r3
 951 0088 02D2     		bcs	.L62
 952 008a 0748     		ldr	r0, .L75+4
 953 008c FFF7FEFF 		bl	chSysHalt
 954              	.LVL95:
 955              	.L62:
 956              	.LBB192:
 957              	.LBB193:
 958              	.LBB194:
 959              		.loc 4 546 0
 960 0090 0023     		movs	r3, #0
 961              		.syntax unified
 962              	@ 546 "../../lib/ChibiOS/os/ext/CMSIS/include/core_cmFunc.h" 1
 963 0092 83F31188 		MSR basepri, r3
 964              	@ 0 "" 2
 965              	.LVL96:
 966              		.thumb
 967              		.syntax unified
 968              	.LBE194:
 969              	.LBE193:
ARM GAS  /var/folders/km/q6jdms0143g2bddz5bhvdfd00000gn/T//ccDlEoV8.s 			page 18


 970              	.LBE192:
 971              	.LBE191:
 972              	.LBE190:
 973              	.LBE204:
 974              		.loc 1 354 0
 975 0096 2846     		mov	r0, r5
 976 0098 F8BD     		pop	{r3, r4, r5, r6, r7, pc}
 977              	.LVL97:
 978              	.L74:
 979              	.LBB205:
 980              	.LBB203:
 981              		.loc 5 367 0
 982 009a 0348     		ldr	r0, .L75+4
 983 009c FFF7FEFF 		bl	chSysHalt
 984              	.LVL98:
 985 00a0 E1E7     		b	.L67
 986              	.L76:
 987 00a2 00BF     		.align	2
 988              	.L75:
 989 00a4 00000000 		.word	ch
 990 00a8 00000000 		.word	.LANCHOR0
 991              	.LBE203:
 992              	.LBE205:
 993              		.cfi_endproc
 994              	.LFE226:
 995              		.size	chOQPutTimeout, .-chOQPutTimeout
 996              		.section	.text.chOQGetI,"ax",%progbits
 997              		.align	1
 998              		.p2align 4,,15
 999              		.global	chOQGetI
 1000              		.syntax unified
 1001              		.thumb
 1002              		.thumb_func
 1003              		.fpu fpv4-sp-d16
 1004              		.type	chOQGetI, %function
 1005              	chOQGetI:
 1006              	.LFB227:
 1007              		.loc 1 366 0
 1008              		.cfi_startproc
 1009              		@ args = 0, pretend = 0, frame = 0
 1010              		@ frame_needed = 0, uses_anonymous_args = 0
 1011              	.LVL99:
 1012 0000 38B5     		push	{r3, r4, r5, lr}
 1013              		.cfi_def_cfa_offset 16
 1014              		.cfi_offset 3, -16
 1015              		.cfi_offset 4, -12
 1016              		.cfi_offset 5, -8
 1017              		.cfi_offset 14, -4
 1018              		.loc 1 366 0
 1019 0002 0446     		mov	r4, r0
 1020              		.loc 1 369 0
 1021 0004 FFF7FEFF 		bl	chDbgCheckClassI
 1022              	.LVL100:
 1023              	.LBB206:
 1024              	.LBB207:
 1025              		.loc 3 388 0
 1026 0008 FFF7FEFF 		bl	chDbgCheckClassI
ARM GAS  /var/folders/km/q6jdms0143g2bddz5bhvdfd00000gn/T//ccDlEoV8.s 			page 19


 1027              	.LVL101:
 1028              		.loc 3 390 0
 1029 000c D4E90532 		ldrd	r3, r2, [r4, #20]
 1030 0010 9342     		cmp	r3, r2
 1031 0012 A368     		ldr	r3, [r4, #8]
 1032 0014 0FD0     		beq	.L85
 1033              	.L80:
 1034              	.LVL102:
 1035              	.LBE207:
 1036              	.LBE206:
 1037              		.loc 1 377 0
 1038 0016 2069     		ldr	r0, [r4, #16]
 1039              		.loc 1 376 0
 1040 0018 511C     		adds	r1, r2, #1
 1041              		.loc 1 375 0
 1042 001a 0133     		adds	r3, r3, #1
 1043 001c A360     		str	r3, [r4, #8]
 1044              		.loc 1 376 0
 1045 001e A161     		str	r1, [r4, #24]
 1046              		.loc 1 377 0
 1047 0020 8142     		cmp	r1, r0
 1048              		.loc 1 376 0
 1049 0022 1578     		ldrb	r5, [r2]	@ zero_extendqisi2
 1050              	.LVL103:
 1051              		.loc 1 377 0
 1052 0024 01D3     		bcc	.L82
 1053              		.loc 1 378 0
 1054 0026 E368     		ldr	r3, [r4, #12]
 1055 0028 A361     		str	r3, [r4, #24]
 1056              	.L82:
 1057              		.loc 1 381 0
 1058 002a 2046     		mov	r0, r4
 1059 002c 0021     		movs	r1, #0
 1060 002e FFF7FEFF 		bl	chThdDequeueNextI
 1061              	.LVL104:
 1062              		.loc 1 383 0
 1063 0032 2846     		mov	r0, r5
 1064              		.loc 1 384 0
 1065 0034 38BD     		pop	{r3, r4, r5, pc}
 1066              	.LVL105:
 1067              	.L85:
 1068              	.LBB209:
 1069              	.LBB208:
 1070              		.loc 3 390 0
 1071 0036 002B     		cmp	r3, #0
 1072 0038 EDD0     		beq	.L80
 1073              	.LBE208:
 1074              	.LBE209:
 1075              		.loc 1 372 0
 1076 003a 6FF00200 		mvn	r0, #2
 1077              		.loc 1 384 0
 1078 003e 38BD     		pop	{r3, r4, r5, pc}
 1079              		.cfi_endproc
 1080              	.LFE227:
 1081              		.size	chOQGetI, .-chOQGetI
 1082              		.section	.text.chOQWriteTimeout,"ax",%progbits
 1083              		.align	1
ARM GAS  /var/folders/km/q6jdms0143g2bddz5bhvdfd00000gn/T//ccDlEoV8.s 			page 20


 1084              		.p2align 4,,15
 1085              		.global	chOQWriteTimeout
 1086              		.syntax unified
 1087              		.thumb
 1088              		.thumb_func
 1089              		.fpu fpv4-sp-d16
 1090              		.type	chOQWriteTimeout, %function
 1091              	chOQWriteTimeout:
 1092              	.LFB228:
 1093              		.loc 1 411 0
 1094              		.cfi_startproc
 1095              		@ args = 0, pretend = 0, frame = 8
 1096              		@ frame_needed = 0, uses_anonymous_args = 0
 1097              	.LVL106:
 1098 0000 2DE9F04F 		push	{r4, r5, r6, r7, r8, r9, r10, fp, lr}
 1099              		.cfi_def_cfa_offset 36
 1100              		.cfi_offset 4, -36
 1101              		.cfi_offset 5, -32
 1102              		.cfi_offset 6, -28
 1103              		.cfi_offset 7, -24
 1104              		.cfi_offset 8, -20
 1105              		.cfi_offset 9, -16
 1106              		.cfi_offset 10, -12
 1107              		.cfi_offset 11, -8
 1108              		.cfi_offset 14, -4
 1109 0004 83B0     		sub	sp, sp, #12
 1110              		.cfi_def_cfa_offset 48
 1111              		.loc 1 411 0
 1112 0006 0446     		mov	r4, r0
 1113 0008 0D46     		mov	r5, r1
 1114 000a 0193     		str	r3, [sp, #4]
 1115              		.loc 1 412 0
 1116 000c D0F81C90 		ldr	r9, [r0, #28]
 1117              	.LVL107:
 1118              		.loc 1 415 0
 1119 0010 1646     		mov	r6, r2
 1120 0012 002A     		cmp	r2, #0
 1121 0014 5CD0     		beq	.L106
 1122              	.LVL108:
 1123              	.L87:
 1124              	.LBB232:
 1125              	.LBB233:
 1126              	.LBB234:
 1127              	.LBB235:
 1128              	.LBB236:
 1129              		.loc 4 546 0
 1130 0016 4FF0200A 		mov	r10, #32
 1131              		.syntax unified
 1132              	@ 546 "../../lib/ChibiOS/os/ext/CMSIS/include/core_cmFunc.h" 1
 1133 001a 8AF31188 		MSR basepri, r10
 1134              	@ 0 "" 2
 1135              	.LVL109:
 1136              		.thumb
 1137              		.syntax unified
 1138              	.LBE236:
 1139              	.LBE235:
 1140              	.LBE234:
ARM GAS  /var/folders/km/q6jdms0143g2bddz5bhvdfd00000gn/T//ccDlEoV8.s 			page 21


 1141              		.loc 5 349 0
 1142 001e FFF7FEFF 		bl	_stats_start_measure_crit_thd
 1143              	.LVL110:
 1144              		.loc 5 350 0
 1145 0022 FFF7FEFF 		bl	_dbg_check_lock
 1146              	.LVL111:
 1147              	.LBE233:
 1148              	.LBE232:
 1149              		.loc 1 413 0
 1150 0026 4FF00008 		mov	r8, #0
 1151 002a 2D4F     		ldr	r7, .L109
 1152              	.LBB237:
 1153              	.LBB238:
 1154              	.LBB239:
 1155              	.LBB240:
 1156              	.LBB241:
 1157              		.loc 4 546 0
 1158 002c C346     		mov	fp, r8
 1159              	.LVL112:
 1160              	.L88:
 1161              	.LBE241:
 1162              	.LBE240:
 1163              	.LBE239:
 1164              	.LBE238:
 1165              	.LBE237:
 1166              	.LBB246:
 1167              	.LBB247:
 1168              		.loc 3 405 0
 1169 002e FFF7FEFF 		bl	chDbgCheckClassI
 1170              	.LVL113:
 1171              		.loc 3 407 0
 1172 0032 A368     		ldr	r3, [r4, #8]
 1173              	.LBE247:
 1174              	.LBE246:
 1175              		.loc 1 419 0
 1176 0034 002B     		cmp	r3, #0
 1177 0036 32D0     		beq	.L92
 1178              	.L107:
 1179              		.loc 1 427 0
 1180 0038 6269     		ldr	r2, [r4, #20]
 1181              		.loc 1 426 0
 1182 003a 013B     		subs	r3, r3, #1
 1183              		.loc 1 427 0
 1184 003c 511C     		adds	r1, r2, #1
 1185 003e 6161     		str	r1, [r4, #20]
 1186              		.loc 1 426 0
 1187 0040 A360     		str	r3, [r4, #8]
 1188              		.loc 1 427 0
 1189 0042 2B78     		ldrb	r3, [r5]	@ zero_extendqisi2
 1190 0044 1370     		strb	r3, [r2]
 1191              		.loc 1 428 0
 1192 0046 D4E90432 		ldrd	r3, r2, [r4, #16]
 1193 004a 9A42     		cmp	r2, r3
 1194              		.loc 1 429 0
 1195 004c 24BF     		itt	cs
 1196 004e E368     		ldrcs	r3, [r4, #12]
 1197 0050 6361     		strcs	r3, [r4, #20]
ARM GAS  /var/folders/km/q6jdms0143g2bddz5bhvdfd00000gn/T//ccDlEoV8.s 			page 22


 1198              		.loc 1 427 0
 1199 0052 0135     		adds	r5, r5, #1
 1200              	.LVL114:
 1201              		.loc 1 432 0
 1202 0054 B9F1000F 		cmp	r9, #0
 1203 0058 01D0     		beq	.L94
 1204              		.loc 1 433 0
 1205 005a 2046     		mov	r0, r4
 1206 005c C847     		blx	r9
 1207              	.LVL115:
 1208              	.L94:
 1209              	.LBB249:
 1210              	.LBB245:
 1211              		.loc 5 360 0
 1212 005e FFF7FEFF 		bl	_dbg_check_unlock
 1213              	.LVL116:
 1214              		.loc 5 361 0
 1215 0062 FFF7FEFF 		bl	_stats_stop_measure_crit_thd
 1216              	.LVL117:
 1217              		.loc 5 367 0
 1218 0066 3B68     		ldr	r3, [r7]
 1219 0068 BB42     		cmp	r3, r7
 1220 006a 07D0     		beq	.L95
 1221 006c BA69     		ldr	r2, [r7, #24]
 1222 006e 9B68     		ldr	r3, [r3, #8]
 1223 0070 9268     		ldr	r2, [r2, #8]
 1224 0072 9A42     		cmp	r2, r3
 1225 0074 02D2     		bcs	.L95
 1226 0076 1B48     		ldr	r0, .L109+4
 1227 0078 FFF7FEFF 		bl	chSysHalt
 1228              	.LVL118:
 1229              	.L95:
 1230              	.LBB244:
 1231              	.LBB243:
 1232              	.LBB242:
 1233              		.loc 4 546 0
 1234              		.syntax unified
 1235              	@ 546 "../../lib/ChibiOS/os/ext/CMSIS/include/core_cmFunc.h" 1
 1236 007c 8BF31188 		MSR basepri, fp
 1237              	@ 0 "" 2
 1238              	.LVL119:
 1239              		.thumb
 1240              		.syntax unified
 1241              	.LBE242:
 1242              	.LBE243:
 1243              	.LBE244:
 1244              	.LBE245:
 1245              	.LBE249:
 1246              		.loc 1 438 0
 1247 0080 013E     		subs	r6, r6, #1
 1248              	.LVL120:
 1249              		.loc 1 437 0
 1250 0082 08F10108 		add	r8, r8, #1
 1251              	.LVL121:
 1252              		.loc 1 438 0
 1253 0086 1FD0     		beq	.L86
 1254              	.LVL122:
ARM GAS  /var/folders/km/q6jdms0143g2bddz5bhvdfd00000gn/T//ccDlEoV8.s 			page 23


 1255              	.LBB250:
 1256              	.LBB251:
 1257              	.LBB252:
 1258              	.LBB253:
 1259              	.LBB254:
 1260              		.loc 4 546 0
 1261              		.syntax unified
 1262              	@ 546 "../../lib/ChibiOS/os/ext/CMSIS/include/core_cmFunc.h" 1
 1263 0088 8AF31188 		MSR basepri, r10
 1264              	@ 0 "" 2
 1265              	.LVL123:
 1266              		.thumb
 1267              		.syntax unified
 1268              	.LBE254:
 1269              	.LBE253:
 1270              	.LBE252:
 1271              		.loc 5 349 0
 1272 008c FFF7FEFF 		bl	_stats_start_measure_crit_thd
 1273              	.LVL124:
 1274              		.loc 5 350 0
 1275 0090 FFF7FEFF 		bl	_dbg_check_lock
 1276              	.LVL125:
 1277              	.LBE251:
 1278              	.LBE250:
 1279              	.LBB255:
 1280              	.LBB248:
 1281              		.loc 3 405 0
 1282 0094 FFF7FEFF 		bl	chDbgCheckClassI
 1283              	.LVL126:
 1284              		.loc 3 407 0
 1285 0098 A368     		ldr	r3, [r4, #8]
 1286              	.LBE248:
 1287              	.LBE255:
 1288              		.loc 1 419 0
 1289 009a 002B     		cmp	r3, #0
 1290 009c CCD1     		bne	.L107
 1291              	.L92:
 1292              		.loc 1 420 0
 1293 009e 0199     		ldr	r1, [sp, #4]
 1294 00a0 2046     		mov	r0, r4
 1295 00a2 FFF7FEFF 		bl	chThdEnqueueTimeoutS
 1296              	.LVL127:
 1297 00a6 0028     		cmp	r0, #0
 1298 00a8 C1D0     		beq	.L88
 1299              	.LBB256:
 1300              	.LBB257:
 1301              		.loc 5 360 0
 1302 00aa FFF7FEFF 		bl	_dbg_check_unlock
 1303              	.LVL128:
 1304              		.loc 5 361 0
 1305 00ae FFF7FEFF 		bl	_stats_stop_measure_crit_thd
 1306              	.LVL129:
 1307              		.loc 5 367 0
 1308 00b2 3B68     		ldr	r3, [r7]
 1309 00b4 BB42     		cmp	r3, r7
 1310 00b6 04D0     		beq	.L90
 1311 00b8 BA69     		ldr	r2, [r7, #24]
ARM GAS  /var/folders/km/q6jdms0143g2bddz5bhvdfd00000gn/T//ccDlEoV8.s 			page 24


 1312 00ba 9B68     		ldr	r3, [r3, #8]
 1313 00bc 9268     		ldr	r2, [r2, #8]
 1314 00be 9A42     		cmp	r2, r3
 1315 00c0 0AD3     		bcc	.L108
 1316              	.L90:
 1317              	.LVL130:
 1318              	.LBB258:
 1319              	.LBB259:
 1320              	.LBB260:
 1321              		.loc 4 546 0
 1322 00c2 0023     		movs	r3, #0
 1323              		.syntax unified
 1324              	@ 546 "../../lib/ChibiOS/os/ext/CMSIS/include/core_cmFunc.h" 1
 1325 00c4 83F31188 		MSR basepri, r3
 1326              	@ 0 "" 2
 1327              	.LVL131:
 1328              		.thumb
 1329              		.syntax unified
 1330              	.L86:
 1331              	.LBE260:
 1332              	.LBE259:
 1333              	.LBE258:
 1334              	.LBE257:
 1335              	.LBE256:
 1336              		.loc 1 443 0
 1337 00c8 4046     		mov	r0, r8
 1338 00ca 03B0     		add	sp, sp, #12
 1339              		.cfi_remember_state
 1340              		.cfi_def_cfa_offset 36
 1341              		@ sp needed
 1342 00cc BDE8F08F 		pop	{r4, r5, r6, r7, r8, r9, r10, fp, pc}
 1343              	.LVL132:
 1344              	.L106:
 1345              		.cfi_restore_state
 1346              		.loc 1 415 0 discriminator 2
 1347 00d0 0548     		ldr	r0, .L109+8
 1348              	.LVL133:
 1349 00d2 FFF7FEFF 		bl	chSysHalt
 1350              	.LVL134:
 1351 00d6 9EE7     		b	.L87
 1352              	.LVL135:
 1353              	.L108:
 1354              	.LBB262:
 1355              	.LBB261:
 1356              		.loc 5 367 0
 1357 00d8 0248     		ldr	r0, .L109+4
 1358 00da FFF7FEFF 		bl	chSysHalt
 1359              	.LVL136:
 1360 00de F0E7     		b	.L90
 1361              	.L110:
 1362              		.align	2
 1363              	.L109:
 1364 00e0 00000000 		.word	ch
 1365 00e4 00000000 		.word	.LANCHOR0
 1366 00e8 00000000 		.word	.LANCHOR2
 1367              	.LBE261:
 1368              	.LBE262:
ARM GAS  /var/folders/km/q6jdms0143g2bddz5bhvdfd00000gn/T//ccDlEoV8.s 			page 25


 1369              		.cfi_endproc
 1370              	.LFE228:
 1371              		.size	chOQWriteTimeout, .-chOQWriteTimeout
 1372              		.section	.rodata.__func__.7153,"a",%progbits
 1373              		.align	2
 1374              		.set	.LANCHOR0,. + 0
 1375              		.type	__func__.7153, %object
 1376              		.size	__func__.7153, 12
 1377              	__func__.7153:
 1378 0000 63685379 		.ascii	"chSysUnlock\000"
 1378      73556E6C 
 1378      6F636B00 
 1379              		.section	.rodata.__func__.7877,"a",%progbits
 1380              		.align	2
 1381              		.set	.LANCHOR1,. + 0
 1382              		.type	__func__.7877, %object
 1383              		.size	__func__.7877, 16
 1384              	__func__.7877:
 1385 0000 63684951 		.ascii	"chIQReadTimeout\000"
 1385      52656164 
 1385      54696D65 
 1385      6F757400 
 1386              		.section	.rodata.__func__.7913,"a",%progbits
 1387              		.align	2
 1388              		.set	.LANCHOR2,. + 0
 1389              		.type	__func__.7913, %object
 1390              		.size	__func__.7913, 17
 1391              	__func__.7913:
 1392 0000 63684F51 		.ascii	"chOQWriteTimeout\000"
 1392      57726974 
 1392      6554696D 
 1392      656F7574 
 1392      00
 1393              		.text
 1394              	.Letext0:
 1395              		.file 6 "/Applications/Eclipse_e-puck2.app/Contents/Eclipse_e-puck2/Tools/gcc-arm-none-eabi-7-2017
 1396              		.file 7 "/Applications/Eclipse_e-puck2.app/Contents/Eclipse_e-puck2/Tools/gcc-arm-none-eabi-7-2017
 1397              		.file 8 "/Applications/Eclipse_e-puck2.app/Contents/Eclipse_e-puck2/Tools/gcc-arm-none-eabi-7-2017
 1398              		.file 9 "../../lib/ChibiOS/os/rt/ports/ARMCMx/compilers/GCC/chtypes.h"
 1399              		.file 10 "../../lib/ChibiOS/os/rt/include/chsystypes.h"
 1400              		.file 11 "../../lib/ChibiOS/os/ext/CMSIS/include/core_cm4.h"
 1401              		.file 12 "../../lib/ChibiOS/os/ext/CMSIS/ST/system_stm32f4xx.h"
 1402              		.file 13 "../../lib/ChibiOS/os/rt/ports/ARMCMx/chcore.h"
 1403              		.file 14 "../../lib/ChibiOS/os/rt/ports/ARMCMx/chcore_v7m.h"
 1404              		.file 15 "../../lib/ChibiOS/os/rt/include/chdebug.h"
 1405              		.file 16 "../../lib/ChibiOS/os/rt/include/chtm.h"
 1406              		.file 17 "../../lib/ChibiOS/os/rt/include/chstats.h"
 1407              		.file 18 "../../lib/ChibiOS/os/rt/include/chsem.h"
 1408              		.file 19 "../../lib/ChibiOS/os/rt/include/chmtx.h"
 1409              		.file 20 "../../lib/ChibiOS/os/rt/include/chregistry.h"
 1410              		.file 21 "../../lib/ChibiOS/os/rt/include/chthreads.h"