ARM GAS  /var/folders/km/q6jdms0143g2bddz5bhvdfd00000gn/T//cc3nPvG7.s 			page 1


   1              		.cpu cortex-m4
   2              		.eabi_attribute 27, 1
   3              		.eabi_attribute 28, 1
   4              		.eabi_attribute 20, 1
   5              		.eabi_attribute 21, 1
   6              		.eabi_attribute 23, 3
   7              		.eabi_attribute 24, 1
   8              		.eabi_attribute 25, 1
   9              		.eabi_attribute 26, 1
  10              		.eabi_attribute 30, 2
  11              		.eabi_attribute 34, 1
  12              		.eabi_attribute 18, 4
  13              		.file	"imu.c"
  14              		.text
  15              	.Ltext0:
  16              		.cfi_sections	.debug_frame
  17              		.section	.text.imu_compute_units,"ax",%progbits
  18              		.align	1
  19              		.p2align 4,,15
  20              		.global	imu_compute_units
  21              		.syntax unified
  22              		.thumb
  23              		.thumb_func
  24              		.fpu fpv4-sp-d16
  25              		.type	imu_compute_units, %function
  26              	imu_compute_units:
  27              	.LFB256:
  28              		.file 1 "imu.c"
  29              		.loc 1 31 0
  30              		.cfi_startproc
  31              		@ args = 0, pretend = 0, frame = 0
  32              		@ frame_needed = 0, uses_anonymous_args = 0
  33              		@ link register save eliminated.
  34              	.LVL0:
  35 0000 1549     		ldr	r1, .L6
  36              	.LBB38:
  37              		.loc 1 34 0
  38 0002 DFED165A 		vldr.32	s11, .L6+4
  39 0006 9FED166A 		vldr.32	s12, .L6+8
  40              		.loc 1 36 0
  41 000a DFED166A 		vldr.32	s13, .L6+12
  42 000e A1F12800 		sub	r0, r1, #40
  43              	.LBE38:
  44              		.loc 1 31 0
  45 0012 70B4     		push	{r4, r5, r6}
  46              		.cfi_def_cfa_offset 12
  47              		.cfi_offset 4, -12
  48              		.cfi_offset 5, -8
  49              		.cfi_offset 6, -4
  50 0014 00F10C06 		add	r6, r0, #12
  51              	.LVL1:
  52              	.L2:
  53              	.LBB39:
  54              		.loc 1 33 0 discriminator 3
  55 0018 31F9023B 		ldrsh	r3, [r1], #2
  56 001c B1F90A50 		ldrsh	r5, [r1, #10]
  57              		.loc 1 35 0 discriminator 3
ARM GAS  /var/folders/km/q6jdms0143g2bddz5bhvdfd00000gn/T//cc3nPvG7.s 			page 2


  58 0020 B1F90420 		ldrsh	r2, [r1, #4]
  59 0024 B1F91040 		ldrsh	r4, [r1, #16]
  60              		.loc 1 33 0 discriminator 3
  61 0028 5B1B     		subs	r3, r3, r5
  62 002a 07EE903A 		vmov	s15, r3	@ int
  63              		.loc 1 34 0 discriminator 3
  64 002e F8EEE77A 		vcvt.f32.s32	s15, s15
  65              		.loc 1 35 0 discriminator 3
  66 0032 131B     		subs	r3, r2, r4
  67 0034 07EE103A 		vmov	s14, r3	@ int
  68              		.loc 1 34 0 discriminator 3
  69 0038 67EEA57A 		vmul.f32	s15, s15, s11
  70              		.loc 1 36 0 discriminator 3
  71 003c B8EEC77A 		vcvt.f32.s32	s14, s14
  72              		.loc 1 34 0 discriminator 3
  73 0040 67EE867A 		vmul.f32	s15, s15, s12
  74              		.loc 1 36 0 discriminator 3
  75 0044 27EE267A 		vmul.f32	s14, s14, s13
  76              		.loc 1 33 0 discriminator 3
  77 0048 E0EC017A 		vstmia.32	r0!, {s15}
  78              		.loc 1 32 0 discriminator 3
  79 004c 8642     		cmp	r6, r0
  80              		.loc 1 35 0 discriminator 3
  81 004e 80ED027A 		vstr.32	s14, [r0, #8]
  82              		.loc 1 32 0 discriminator 3
  83 0052 E1D1     		bne	.L2
  84              	.LBE39:
  85              		.loc 1 38 0
  86 0054 70BC     		pop	{r4, r5, r6}
  87              		.cfi_restore 6
  88              		.cfi_restore 5
  89              		.cfi_restore 4
  90              		.cfi_def_cfa_offset 0
  91 0056 7047     		bx	lr
  92              	.L7:
  93              		.align	2
  94              	.L6:
  95 0058 28000000 		.word	.LANCHOR0+40
  96 005c 0AE81C41 		.word	1092413450
  97 0060 00008038 		.word	947912704
  98 0064 58A00B39 		.word	957063256
  99              		.cfi_endproc
 100              	.LFE256:
 101              		.size	imu_compute_units, .-imu_compute_units
 102              		.section	.text.imu_reader_thd,"ax",%progbits
 103              		.align	1
 104              		.p2align 4,,15
 105              		.syntax unified
 106              		.thumb
 107              		.thumb_func
 108              		.fpu fpv4-sp-d16
 109              		.type	imu_reader_thd, %function
 110              	imu_reader_thd:
 111              	.LFB257:
 112              		.loc 1 43 0
 113              		.cfi_startproc
 114              		@ args = 0, pretend = 0, frame = 120
ARM GAS  /var/folders/km/q6jdms0143g2bddz5bhvdfd00000gn/T//cc3nPvG7.s 			page 3


 115              		@ frame_needed = 0, uses_anonymous_args = 0
 116              	.LVL2:
 117 0000 2DE9F043 		push	{r4, r5, r6, r7, r8, r9, lr}
 118              		.cfi_def_cfa_offset 28
 119              		.cfi_offset 4, -28
 120              		.cfi_offset 5, -24
 121              		.cfi_offset 6, -20
 122              		.cfi_offset 7, -16
 123              		.cfi_offset 8, -12
 124              		.cfi_offset 9, -8
 125              		.cfi_offset 14, -4
 126              	.LBB60:
 127              	.LBB61:
 128              		.file 2 "../../lib/ChibiOS/os/rt/include/chregistry.h"
 129              		.loc 2 135 0
 130 0004 2F4C     		ldr	r4, .L19
 131 0006 3049     		ldr	r1, .L19+4
 132 0008 A269     		ldr	r2, [r4, #24]
 133              	.LBE61:
 134              	.LBE60:
 135              		.loc 1 51 0
 136 000a 304B     		ldr	r3, .L19+8
 137              	.LBB63:
 138              	.LBB62:
 139              		.loc 2 135 0
 140 000c 9161     		str	r1, [r2, #24]
 141              	.LVL3:
 142              	.LBE62:
 143              	.LBE63:
 144              		.loc 1 43 0
 145 000e A1B0     		sub	sp, sp, #132
 146              		.cfi_def_cfa_offset 160
 147              		.loc 1 49 0
 148 0010 04A8     		add	r0, sp, #16
 149              	.LVL4:
 150              		.loc 1 50 0
 151 0012 02AD     		add	r5, sp, #8
 152              		.loc 1 51 0
 153 0014 5022     		movs	r2, #80
 154 0016 0146     		mov	r1, r0
 155 0018 0092     		str	r2, [sp]
 156              		.loc 1 49 0
 157 001a CDE90400 		strd	r0, r0, [sp, #16]
 158              		.loc 1 51 0
 159 001e 2A46     		mov	r2, r5
 160 0020 09A8     		add	r0, sp, #36
 161              		.loc 1 50 0
 162 0022 CDE90255 		strd	r5, r5, [sp, #8]
 163              		.loc 1 49 0
 164 0026 0025     		movs	r5, #0
 165 0028 CDE90655 		strd	r5, r5, [sp, #24]
 166 002c 0895     		str	r5, [sp, #32]
 167              		.loc 1 51 0
 168 002e FFF7FEFF 		bl	messagebus_topic_init
 169              	.LVL5:
 170              		.loc 1 52 0
 171 0032 274A     		ldr	r2, .L19+12
ARM GAS  /var/folders/km/q6jdms0143g2bddz5bhvdfd00000gn/T//cc3nPvG7.s 			page 4


 172 0034 2748     		ldr	r0, .L19+16
 173 0036 09A9     		add	r1, sp, #36
 174 0038 FFF7FEFF 		bl	messagebus_advertise_topic
 175              	.LVL6:
 176              	.LBB64:
 177              	.LBB65:
 178              		.file 3 "../../lib/ChibiOS/os/rt/include/chthreads.h"
 179              		.loc 3 233 0
 180 003c A369     		ldr	r3, [r4, #24]
 181              	.LBE65:
 182              	.LBE64:
 183              		.loc 1 56 0
 184 003e 93F82130 		ldrb	r3, [r3, #33]	@ zero_extendqisi2
 185 0042 5A07     		lsls	r2, r3, #29
 186 0044 3AD4     		bmi	.L8
 187              		.loc 1 61 0
 188 0046 DFF89880 		ldr	r8, .L19+28
 189 004a 234F     		ldr	r7, .L19+20
 190              	.LBB67:
 191              	.LBB68:
 192              	.LBB69:
 193              	.LBB70:
 194              		.file 4 "../../lib/ChibiOS/os/rt/include/chsys.h"
 195              		.loc 4 367 0
 196 004c DFF89490 		ldr	r9, .L19+32
 197              	.LBE70:
 198              	.LBE69:
 199              	.LBE68:
 200              	.LBE67:
 201              		.loc 1 67 0
 202 0050 A8F14C06 		sub	r6, r8, #76
 203 0054 0DE0     		b	.L12
 204              	.L11:
 205 0056 5022     		movs	r2, #80
 206 0058 3146     		mov	r1, r6
 207 005a 09A8     		add	r0, sp, #36
 208 005c FFF7FEFF 		bl	messagebus_topic_publish
 209              	.LVL7:
 210              		.loc 1 69 0
 211 0060 291D     		adds	r1, r5, #4
 212 0062 2846     		mov	r0, r5
 213 0064 FFF7FEFF 		bl	chThdSleepUntilWindowed
 214              	.LVL8:
 215              	.LBB84:
 216              	.LBB66:
 217              		.loc 3 233 0
 218 0068 A369     		ldr	r3, [r4, #24]
 219              	.LBE66:
 220              	.LBE84:
 221              		.loc 1 56 0
 222 006a 93F82130 		ldrb	r3, [r3, #33]	@ zero_extendqisi2
 223 006e 5B07     		lsls	r3, r3, #29
 224 0070 24D4     		bmi	.L8
 225              	.L12:
 226              	.LVL9:
 227              	.LBB85:
 228              	.LBB83:
ARM GAS  /var/folders/km/q6jdms0143g2bddz5bhvdfd00000gn/T//cc3nPvG7.s 			page 5


 229              	.LBB75:
 230              	.LBB76:
 231              	.LBB77:
 232              	.LBB78:
 233              	.LBB79:
 234              		.file 5 "../../lib/ChibiOS/os/ext/CMSIS/include/core_cmFunc.h"
 235              		.loc 5 546 0
 236 0072 2023     		movs	r3, #32
 237              		.syntax unified
 238              	@ 546 "../../lib/ChibiOS/os/ext/CMSIS/include/core_cmFunc.h" 1
 239 0074 83F31188 		MSR basepri, r3
 240              	@ 0 "" 2
 241              	.LVL10:
 242              		.thumb
 243              		.syntax unified
 244              	.LBE79:
 245              	.LBE78:
 246              	.LBE77:
 247              		.loc 4 349 0
 248 0078 FFF7FEFF 		bl	_stats_start_measure_crit_thd
 249              	.LVL11:
 250              		.loc 4 350 0
 251 007c FFF7FEFF 		bl	_dbg_check_lock
 252              	.LVL12:
 253              	.LBE76:
 254              	.LBE75:
 255              	.LBB80:
 256              	.LBB81:
 257              		.file 6 "../../lib/ChibiOS/os/rt/include/chvt.h"
 258              		.loc 6 231 0
 259 0080 A56A     		ldr	r5, [r4, #40]
 260              	.LBE81:
 261              	.LBE80:
 262              	.LBB82:
 263              	.LBB74:
 264              		.loc 4 360 0
 265 0082 FFF7FEFF 		bl	_dbg_check_unlock
 266              	.LVL13:
 267              		.loc 4 361 0
 268 0086 FFF7FEFF 		bl	_stats_stop_measure_crit_thd
 269              	.LVL14:
 270              		.loc 4 367 0
 271 008a 2368     		ldr	r3, [r4]
 272 008c A342     		cmp	r3, r4
 273 008e 07D0     		beq	.L10
 274 0090 A269     		ldr	r2, [r4, #24]
 275 0092 9B68     		ldr	r3, [r3, #8]
 276 0094 9268     		ldr	r2, [r2, #8]
 277 0096 9A42     		cmp	r2, r3
 278 0098 02D2     		bcs	.L10
 279 009a 4846     		mov	r0, r9
 280 009c FFF7FEFF 		bl	chSysHalt
 281              	.LVL15:
 282              	.L10:
 283              	.LBB71:
 284              	.LBB72:
 285              	.LBB73:
ARM GAS  /var/folders/km/q6jdms0143g2bddz5bhvdfd00000gn/T//cc3nPvG7.s 			page 6


 286              		.loc 5 546 0
 287 00a0 0023     		movs	r3, #0
 288              		.syntax unified
 289              	@ 546 "../../lib/ChibiOS/os/ext/CMSIS/include/core_cmFunc.h" 1
 290 00a2 83F31188 		MSR basepri, r3
 291              	@ 0 "" 2
 292              	.LVL16:
 293              		.thumb
 294              		.syntax unified
 295              	.LBE73:
 296              	.LBE72:
 297              	.LBE71:
 298              	.LBE74:
 299              	.LBE82:
 300              	.LBE83:
 301              	.LBE85:
 302              		.loc 1 59 0
 303 00a6 3B78     		ldrb	r3, [r7]	@ zero_extendqisi2
 304 00a8 002B     		cmp	r3, #0
 305 00aa D4D0     		beq	.L11
 306              		.loc 1 61 0
 307 00ac 0B49     		ldr	r1, .L19+24
 308 00ae 4246     		mov	r2, r8
 309 00b0 881D     		adds	r0, r1, #6
 310 00b2 FFF7FEFF 		bl	mpu9250_read
 311              	.LVL17:
 312              		.loc 1 63 0
 313 00b6 FFF7FEFF 		bl	imu_compute_units
 314              	.LVL18:
 315 00ba CCE7     		b	.L11
 316              	.L8:
 317              		.loc 1 72 0
 318 00bc 21B0     		add	sp, sp, #132
 319              		.cfi_def_cfa_offset 28
 320              		@ sp needed
 321 00be BDE8F083 		pop	{r4, r5, r6, r7, r8, r9, pc}
 322              	.L20:
 323 00c2 00BF     		.align	2
 324              	.L19:
 325 00c4 00000000 		.word	ch
 326 00c8 00000000 		.word	.LANCHOR1
 327 00cc 00000000 		.word	.LANCHOR0
 328 00d0 00000000 		.word	.LC0
 329 00d4 00000000 		.word	bus
 330 00d8 00000000 		.word	.LANCHOR3
 331 00dc 28000000 		.word	.LANCHOR0+40
 332 00e0 4C000000 		.word	.LANCHOR0+76
 333 00e4 00000000 		.word	.LANCHOR2
 334              		.cfi_endproc
 335              	.LFE257:
 336              		.size	imu_reader_thd, .-imu_reader_thd
 337              		.section	.text.imu_start,"ax",%progbits
 338              		.align	1
 339              		.p2align 4,,15
 340              		.global	imu_start
 341              		.syntax unified
 342              		.thumb
ARM GAS  /var/folders/km/q6jdms0143g2bddz5bhvdfd00000gn/T//cc3nPvG7.s 			page 7


 343              		.thumb_func
 344              		.fpu fpv4-sp-d16
 345              		.type	imu_start, %function
 346              	imu_start:
 347              	.LFB258:
 348              		.loc 1 80 0
 349              		.cfi_startproc
 350              		@ args = 0, pretend = 0, frame = 0
 351              		@ frame_needed = 0, uses_anonymous_args = 0
 352              	.LVL19:
 353 0000 00B5     		push	{lr}
 354              		.cfi_def_cfa_offset 4
 355              		.cfi_offset 14, -4
 356              		.loc 1 83 0
 357 0002 4FF4C840 		mov	r0, #25600
 358              		.loc 1 80 0
 359 0006 83B0     		sub	sp, sp, #12
 360              		.cfi_def_cfa_offset 16
 361              		.loc 1 83 0
 362 0008 FFF7FEFF 		bl	mpu9250_setup
 363              	.LVL20:
 364              		.loc 1 94 0
 365 000c 10B9     		cbnz	r0, .L22
 366              		.loc 1 95 0
 367 000e 084B     		ldr	r3, .L24
 368 0010 0122     		movs	r2, #1
 369 0012 1A70     		strb	r2, [r3]
 370              	.L22:
 371              		.loc 1 99 0
 372 0014 0023     		movs	r3, #0
 373 0016 0093     		str	r3, [sp]
 374 0018 4022     		movs	r2, #64
 375 001a 064B     		ldr	r3, .L24+4
 376 001c 0648     		ldr	r0, .L24+8
 377              	.LVL21:
 378 001e 4FF4AF61 		mov	r1, #1400
 379 0022 FFF7FEFF 		bl	chThdCreateStatic
 380              	.LVL22:
 381 0026 054B     		ldr	r3, .L24+12
 382 0028 1860     		str	r0, [r3]
 383              		.loc 1 100 0
 384 002a 03B0     		add	sp, sp, #12
 385              		.cfi_def_cfa_offset 4
 386              		@ sp needed
 387 002c 5DF804FB 		ldr	pc, [sp], #4
 388              	.L25:
 389              		.align	2
 390              	.L24:
 391 0030 00000000 		.word	.LANCHOR3
 392 0034 00000000 		.word	imu_reader_thd
 393 0038 00000000 		.word	.LANCHOR4
 394 003c 00000000 		.word	.LANCHOR5
 395              		.cfi_endproc
 396              	.LFE258:
 397              		.size	imu_start, .-imu_start
 398              		.section	.text.imu_stop,"ax",%progbits
 399              		.align	1
ARM GAS  /var/folders/km/q6jdms0143g2bddz5bhvdfd00000gn/T//cc3nPvG7.s 			page 8


 400              		.p2align 4,,15
 401              		.global	imu_stop
 402              		.syntax unified
 403              		.thumb
 404              		.thumb_func
 405              		.fpu fpv4-sp-d16
 406              		.type	imu_stop, %function
 407              	imu_stop:
 408              	.LFB259:
 409              		.loc 1 102 0
 410              		.cfi_startproc
 411              		@ args = 0, pretend = 0, frame = 0
 412              		@ frame_needed = 0, uses_anonymous_args = 0
 413 0000 10B5     		push	{r4, lr}
 414              		.cfi_def_cfa_offset 8
 415              		.cfi_offset 4, -8
 416              		.cfi_offset 14, -4
 417              		.loc 1 103 0
 418 0002 054C     		ldr	r4, .L28
 419 0004 2068     		ldr	r0, [r4]
 420 0006 FFF7FEFF 		bl	chThdTerminate
 421              	.LVL23:
 422              		.loc 1 104 0
 423 000a 2068     		ldr	r0, [r4]
 424 000c FFF7FEFF 		bl	chThdWait
 425              	.LVL24:
 426              		.loc 1 105 0
 427 0010 0023     		movs	r3, #0
 428 0012 2360     		str	r3, [r4]
 429              		.loc 1 106 0
 430 0014 10BD     		pop	{r4, pc}
 431              	.L29:
 432 0016 00BF     		.align	2
 433              	.L28:
 434 0018 00000000 		.word	.LANCHOR5
 435              		.cfi_endproc
 436              	.LFE259:
 437              		.size	imu_stop, .-imu_stop
 438              		.section	.text.imu_compute_offset,"ax",%progbits
 439              		.align	1
 440              		.p2align 4,,15
 441              		.global	imu_compute_offset
 442              		.syntax unified
 443              		.thumb
 444              		.thumb_func
 445              		.fpu fpv4-sp-d16
 446              		.type	imu_compute_offset, %function
 447              	imu_compute_offset:
 448              	.LFB260:
 449              		.loc 1 108 0
 450              		.cfi_startproc
 451              		@ args = 0, pretend = 0, frame = 24
 452              		@ frame_needed = 0, uses_anonymous_args = 0
 453              	.LVL25:
 454 0000 2DE9F047 		push	{r4, r5, r6, r7, r8, r9, r10, lr}
 455              		.cfi_def_cfa_offset 32
 456              		.cfi_offset 4, -32
ARM GAS  /var/folders/km/q6jdms0143g2bddz5bhvdfd00000gn/T//cc3nPvG7.s 			page 9


 457              		.cfi_offset 5, -28
 458              		.cfi_offset 6, -24
 459              		.cfi_offset 7, -20
 460              		.cfi_offset 8, -16
 461              		.cfi_offset 9, -12
 462              		.cfi_offset 10, -8
 463              		.cfi_offset 14, -4
 464 0004 86B0     		sub	sp, sp, #24
 465              		.cfi_def_cfa_offset 56
 466              		.loc 1 111 0
 467 0006 0022     		movs	r2, #0
 468              		.loc 1 112 0
 469 0008 03AC     		add	r4, sp, #12
 470              		.loc 1 111 0
 471 000a CDE90022 		strd	r2, r2, [sp]
 472              		.loc 1 112 0
 473 000e CDE90222 		strd	r2, r2, [sp, #8]
 474 0012 C4E90122 		strd	r2, r2, [r4, #4]
 475              	.LVL26:
 476              	.LBB86:
 477              		.loc 1 115 0
 478 0016 8846     		mov	r8, r1
 479 0018 0029     		cmp	r1, #0
 480 001a 4DD0     		beq	.L37
 481              		.loc 1 117 0
 482 001c 284F     		ldr	r7, .L40
 483 001e 0646     		mov	r6, r0
 484              		.loc 1 115 0
 485 0020 9146     		mov	r9, r2
 486 0022 9246     		mov	r10, r2
 487 0024 1546     		mov	r5, r2
 488              	.LVL27:
 489              	.L34:
 490              		.loc 1 117 0
 491 0026 3046     		mov	r0, r6
 492 0028 5022     		movs	r2, #80
 493 002a 3946     		mov	r1, r7
 494 002c FFF7FEFF 		bl	messagebus_topic_wait
 495              	.LVL28:
 496 0030 2448     		ldr	r0, .L40+4
 497 0032 6B46     		mov	r3, sp
 498 0034 A446     		mov	ip, r4
 499              	.LVL29:
 500              	.L33:
 501              	.LBB87:
 502              		.loc 1 119 0 discriminator 3
 503 0036 30F9021B 		ldrsh	r1, [r0], #2
 504 003a 5144     		add	r1, r1, r10
 505              		.loc 1 120 0 discriminator 3
 506 003c B0F90420 		ldrsh	r2, [r0, #4]
 507              		.loc 1 119 0 discriminator 3
 508 0040 43F8041B 		str	r1, [r3], #4
 509              		.loc 1 120 0 discriminator 3
 510 0044 4A44     		add	r2, r2, r9
 511              		.loc 1 118 0 discriminator 3
 512 0046 A342     		cmp	r3, r4
 513              		.loc 1 120 0 discriminator 3
ARM GAS  /var/folders/km/q6jdms0143g2bddz5bhvdfd00000gn/T//cc3nPvG7.s 			page 10


 514 0048 4CF8042B 		str	r2, [ip], #4
 515              		.loc 1 118 0 discriminator 3
 516 004c 04D0     		beq	.L32
 517 004e D3F800A0 		ldr	r10, [r3]
 518 0052 DCF80090 		ldr	r9, [ip]
 519 0056 EEE7     		b	.L33
 520              	.L32:
 521              	.LBE87:
 522              		.loc 1 115 0 discriminator 2
 523 0058 0135     		adds	r5, r5, #1
 524              	.LVL30:
 525 005a ADB2     		uxth	r5, r5
 526              	.LVL31:
 527 005c A845     		cmp	r8, r5
 528 005e DDF800A0 		ldr	r10, [sp]
 529 0062 DDF80C90 		ldr	r9, [sp, #12]
 530 0066 DED1     		bne	.L34
 531              	.LVL32:
 532              	.L31:
 533 0068 1748     		ldr	r0, .L40+8
 534 006a 6B46     		mov	r3, sp
 535 006c 2546     		mov	r5, r4
 536              	.L36:
 537              	.LBE86:
 538              	.LBB88:
 539              		.loc 1 126 0 discriminator 3
 540 006e 9AFBF8F1 		sdiv	r1, r10, r8
 541 0072 43F8041B 		str	r1, [r3], #4
 542              		.loc 1 127 0 discriminator 3
 543 0076 99FBF8F2 		sdiv	r2, r9, r8
 544              		.loc 1 129 0 discriminator 3
 545 007a 20F8021B 		strh	r1, [r0], #2	@ movhi
 546              		.loc 1 125 0 discriminator 3
 547 007e 9C42     		cmp	r4, r3
 548              		.loc 1 130 0 discriminator 3
 549 0080 8280     		strh	r2, [r0, #4]	@ movhi
 550              	.LVL33:
 551              		.loc 1 127 0 discriminator 3
 552 0082 45F8042B 		str	r2, [r5], #4
 553              		.loc 1 125 0 discriminator 3
 554 0086 04D0     		beq	.L35
 555 0088 D3F800A0 		ldr	r10, [r3]
 556 008c D5F80090 		ldr	r9, [r5]
 557 0090 EDE7     		b	.L36
 558              	.L35:
 559              	.LBE88:
 560              		.loc 1 134 0
 561 0092 0B4B     		ldr	r3, .L40
 562 0094 9FED0D7A 		vldr.32	s14, .L40+12
 563 0098 B3F93820 		ldrsh	r2, [r3, #56]
 564 009c 07EE902A 		vmov	s15, r2	@ int
 565 00a0 F8EEE77A 		vcvt.f32.s32	s15, s15
 566 00a4 77EE877A 		vadd.f32	s15, s15, s14
 567 00a8 FDEEE77A 		vcvt.s32.f32	s15, s15
 568 00ac 17EE902A 		vmov	r2, s15	@ int
 569 00b0 1A87     		strh	r2, [r3, #56]	@ movhi
 570              		.loc 1 135 0
ARM GAS  /var/folders/km/q6jdms0143g2bddz5bhvdfd00000gn/T//cc3nPvG7.s 			page 11


 571 00b2 06B0     		add	sp, sp, #24
 572              		.cfi_remember_state
 573              		.cfi_def_cfa_offset 32
 574              		@ sp needed
 575 00b4 BDE8F087 		pop	{r4, r5, r6, r7, r8, r9, r10, pc}
 576              	.LVL34:
 577              	.L37:
 578              		.cfi_restore_state
 579              	.LBB89:
 580              		.loc 1 115 0
 581 00b8 8946     		mov	r9, r1
 582 00ba 8A46     		mov	r10, r1
 583 00bc D4E7     		b	.L31
 584              	.L41:
 585 00be 00BF     		.align	2
 586              	.L40:
 587 00c0 00000000 		.word	.LANCHOR0
 588 00c4 28000000 		.word	.LANCHOR0+40
 589 00c8 34000000 		.word	.LANCHOR0+52
 590 00cc 00008046 		.word	1182793728
 591              	.LBE89:
 592              		.cfi_endproc
 593              	.LFE260:
 594              		.size	imu_compute_offset, .-imu_compute_offset
 595              		.section	.text.get_acc,"ax",%progbits
 596              		.align	1
 597              		.p2align 4,,15
 598              		.global	get_acc
 599              		.syntax unified
 600              		.thumb
 601              		.thumb_func
 602              		.fpu fpv4-sp-d16
 603              		.type	get_acc, %function
 604              	get_acc:
 605              	.LFB261:
 606              		.loc 1 137 0
 607              		.cfi_startproc
 608              		@ args = 0, pretend = 0, frame = 0
 609              		@ frame_needed = 0, uses_anonymous_args = 0
 610              		@ link register save eliminated.
 611              	.LVL35:
 612              		.loc 1 138 0
 613 0000 0228     		cmp	r0, #2
 614              		.loc 1 139 0
 615 0002 9DBF     		ittte	ls
 616 0004 1430     		addls	r0, r0, #20
 617              	.LVL36:
 618 0006 024B     		ldrls	r3, .L45
 619 0008 33F91000 		ldrshls	r0, [r3, r0, lsl #1]
 620              		.loc 1 141 0
 621 000c 0020     		movhi	r0, #0
 622              		.loc 1 142 0
 623 000e 7047     		bx	lr
 624              	.L46:
 625              		.align	2
 626              	.L45:
 627 0010 00000000 		.word	.LANCHOR0
ARM GAS  /var/folders/km/q6jdms0143g2bddz5bhvdfd00000gn/T//cc3nPvG7.s 			page 12


 628              		.cfi_endproc
 629              	.LFE261:
 630              		.size	get_acc, .-get_acc
 631              		.section	.text.get_acc_all,"ax",%progbits
 632              		.align	1
 633              		.p2align 4,,15
 634              		.global	get_acc_all
 635              		.syntax unified
 636              		.thumb
 637              		.thumb_func
 638              		.fpu fpv4-sp-d16
 639              		.type	get_acc_all, %function
 640              	get_acc_all:
 641              	.LFB262:
 642              		.loc 1 144 0
 643              		.cfi_startproc
 644              		@ args = 0, pretend = 0, frame = 0
 645              		@ frame_needed = 0, uses_anonymous_args = 0
 646              		@ link register save eliminated.
 647              	.LVL37:
 648              		.loc 1 145 0
 649 0000 054B     		ldr	r3, .L48
 650 0002 B3F92820 		ldrsh	r2, [r3, #40]
 651 0006 0280     		strh	r2, [r0]	@ movhi
 652              		.loc 1 146 0
 653 0008 B3F92A20 		ldrsh	r2, [r3, #42]
 654 000c 4280     		strh	r2, [r0, #2]	@ movhi
 655              		.loc 1 147 0
 656 000e B3F92C30 		ldrsh	r3, [r3, #44]
 657 0012 8380     		strh	r3, [r0, #4]	@ movhi
 658              		.loc 1 148 0
 659 0014 7047     		bx	lr
 660              	.L49:
 661 0016 00BF     		.align	2
 662              	.L48:
 663 0018 00000000 		.word	.LANCHOR0
 664              		.cfi_endproc
 665              	.LFE262:
 666              		.size	get_acc_all, .-get_acc_all
 667              		.section	.text.get_acc_offset,"ax",%progbits
 668              		.align	1
 669              		.p2align 4,,15
 670              		.global	get_acc_offset
 671              		.syntax unified
 672              		.thumb
 673              		.thumb_func
 674              		.fpu fpv4-sp-d16
 675              		.type	get_acc_offset, %function
 676              	get_acc_offset:
 677              	.LFB263:
 678              		.loc 1 151 0
 679              		.cfi_startproc
 680              		@ args = 0, pretend = 0, frame = 0
 681              		@ frame_needed = 0, uses_anonymous_args = 0
 682              		@ link register save eliminated.
 683              	.LVL38:
 684              		.loc 1 152 0
ARM GAS  /var/folders/km/q6jdms0143g2bddz5bhvdfd00000gn/T//cc3nPvG7.s 			page 13


 685 0000 0228     		cmp	r0, #2
 686              		.loc 1 153 0
 687 0002 9DBF     		ittte	ls
 688 0004 034B     		ldrls	r3, .L53
 689 0006 03EB4000 		addls	r0, r3, r0, lsl #1
 690              	.LVL39:
 691 000a B0F93400 		ldrshls	r0, [r0, #52]
 692              		.loc 1 155 0
 693 000e 0020     		movhi	r0, #0
 694              		.loc 1 156 0
 695 0010 7047     		bx	lr
 696              	.L54:
 697 0012 00BF     		.align	2
 698              	.L53:
 699 0014 00000000 		.word	.LANCHOR0
 700              		.cfi_endproc
 701              	.LFE263:
 702              		.size	get_acc_offset, .-get_acc_offset
 703              		.section	.text.get_acceleration,"ax",%progbits
 704              		.align	1
 705              		.p2align 4,,15
 706              		.global	get_acceleration
 707              		.syntax unified
 708              		.thumb
 709              		.thumb_func
 710              		.fpu fpv4-sp-d16
 711              		.type	get_acceleration, %function
 712              	get_acceleration:
 713              	.LFB264:
 714              		.loc 1 158 0
 715              		.cfi_startproc
 716              		@ args = 0, pretend = 0, frame = 0
 717              		@ frame_needed = 0, uses_anonymous_args = 0
 718              		@ link register save eliminated.
 719              	.LVL40:
 720              		.loc 1 159 0
 721 0000 0228     		cmp	r0, #2
 722              		.loc 1 160 0
 723 0002 9DBF     		ittte	ls
 724 0004 034B     		ldrls	r3, .L58
 725 0006 03EB8000 		addls	r0, r3, r0, lsl #2
 726              	.LVL41:
 727 000a 90ED000A 		vldrls.32	s0, [r0]
 728              		.loc 1 162 0
 729 000e 9FED020A 		vldrhi.32	s0, .L58+4
 730              		.loc 1 163 0
 731 0012 7047     		bx	lr
 732              	.L59:
 733              		.align	2
 734              	.L58:
 735 0014 00000000 		.word	.LANCHOR0
 736 0018 00000000 		.word	0
 737              		.cfi_endproc
 738              	.LFE264:
 739              		.size	get_acceleration, .-get_acceleration
 740              		.section	.text.get_gyro,"ax",%progbits
 741              		.align	1
ARM GAS  /var/folders/km/q6jdms0143g2bddz5bhvdfd00000gn/T//cc3nPvG7.s 			page 14


 742              		.p2align 4,,15
 743              		.global	get_gyro
 744              		.syntax unified
 745              		.thumb
 746              		.thumb_func
 747              		.fpu fpv4-sp-d16
 748              		.type	get_gyro, %function
 749              	get_gyro:
 750              	.LFB265:
 751              		.loc 1 166 0
 752              		.cfi_startproc
 753              		@ args = 0, pretend = 0, frame = 0
 754              		@ frame_needed = 0, uses_anonymous_args = 0
 755              		@ link register save eliminated.
 756              	.LVL42:
 757              		.loc 1 167 0
 758 0000 0228     		cmp	r0, #2
 759              		.loc 1 168 0
 760 0002 9DBF     		ittte	ls
 761 0004 034B     		ldrls	r3, .L63
 762 0006 03EB4000 		addls	r0, r3, r0, lsl #1
 763              	.LVL43:
 764 000a B0F92E00 		ldrshls	r0, [r0, #46]
 765              		.loc 1 170 0
 766 000e 0020     		movhi	r0, #0
 767              		.loc 1 171 0
 768 0010 7047     		bx	lr
 769              	.L64:
 770 0012 00BF     		.align	2
 771              	.L63:
 772 0014 00000000 		.word	.LANCHOR0
 773              		.cfi_endproc
 774              	.LFE265:
 775              		.size	get_gyro, .-get_gyro
 776              		.section	.text.get_gyro_all,"ax",%progbits
 777              		.align	1
 778              		.p2align 4,,15
 779              		.global	get_gyro_all
 780              		.syntax unified
 781              		.thumb
 782              		.thumb_func
 783              		.fpu fpv4-sp-d16
 784              		.type	get_gyro_all, %function
 785              	get_gyro_all:
 786              	.LFB266:
 787              		.loc 1 173 0
 788              		.cfi_startproc
 789              		@ args = 0, pretend = 0, frame = 0
 790              		@ frame_needed = 0, uses_anonymous_args = 0
 791              		@ link register save eliminated.
 792              	.LVL44:
 793              		.loc 1 174 0
 794 0000 054B     		ldr	r3, .L66
 795 0002 B3F92E20 		ldrsh	r2, [r3, #46]
 796 0006 0280     		strh	r2, [r0]	@ movhi
 797              		.loc 1 175 0
 798 0008 B3F93020 		ldrsh	r2, [r3, #48]
ARM GAS  /var/folders/km/q6jdms0143g2bddz5bhvdfd00000gn/T//cc3nPvG7.s 			page 15


 799 000c 4280     		strh	r2, [r0, #2]	@ movhi
 800              		.loc 1 176 0
 801 000e B3F93230 		ldrsh	r3, [r3, #50]
 802 0012 8380     		strh	r3, [r0, #4]	@ movhi
 803              		.loc 1 177 0
 804 0014 7047     		bx	lr
 805              	.L67:
 806 0016 00BF     		.align	2
 807              	.L66:
 808 0018 00000000 		.word	.LANCHOR0
 809              		.cfi_endproc
 810              	.LFE266:
 811              		.size	get_gyro_all, .-get_gyro_all
 812              		.section	.text.get_gyro_offset,"ax",%progbits
 813              		.align	1
 814              		.p2align 4,,15
 815              		.global	get_gyro_offset
 816              		.syntax unified
 817              		.thumb
 818              		.thumb_func
 819              		.fpu fpv4-sp-d16
 820              		.type	get_gyro_offset, %function
 821              	get_gyro_offset:
 822              	.LFB267:
 823              		.loc 1 179 0
 824              		.cfi_startproc
 825              		@ args = 0, pretend = 0, frame = 0
 826              		@ frame_needed = 0, uses_anonymous_args = 0
 827              		@ link register save eliminated.
 828              	.LVL45:
 829              		.loc 1 180 0
 830 0000 0228     		cmp	r0, #2
 831              		.loc 1 181 0
 832 0002 9DBF     		ittte	ls
 833 0004 034B     		ldrls	r3, .L71
 834 0006 03EB4000 		addls	r0, r3, r0, lsl #1
 835              	.LVL46:
 836 000a B0F93A00 		ldrshls	r0, [r0, #58]
 837              		.loc 1 183 0
 838 000e 0020     		movhi	r0, #0
 839              		.loc 1 184 0
 840 0010 7047     		bx	lr
 841              	.L72:
 842 0012 00BF     		.align	2
 843              	.L71:
 844 0014 00000000 		.word	.LANCHOR0
 845              		.cfi_endproc
 846              	.LFE267:
 847              		.size	get_gyro_offset, .-get_gyro_offset
 848              		.section	.text.get_gyro_rate,"ax",%progbits
 849              		.align	1
 850              		.p2align 4,,15
 851              		.global	get_gyro_rate
 852              		.syntax unified
 853              		.thumb
 854              		.thumb_func
 855              		.fpu fpv4-sp-d16
ARM GAS  /var/folders/km/q6jdms0143g2bddz5bhvdfd00000gn/T//cc3nPvG7.s 			page 16


 856              		.type	get_gyro_rate, %function
 857              	get_gyro_rate:
 858              	.LFB268:
 859              		.loc 1 186 0
 860              		.cfi_startproc
 861              		@ args = 0, pretend = 0, frame = 0
 862              		@ frame_needed = 0, uses_anonymous_args = 0
 863              		@ link register save eliminated.
 864              	.LVL47:
 865              		.loc 1 187 0
 866 0000 0228     		cmp	r0, #2
 867              		.loc 1 188 0
 868 0002 9DBF     		ittte	ls
 869 0004 034B     		ldrls	r3, .L76
 870 0006 03EB8000 		addls	r0, r3, r0, lsl #2
 871              	.LVL48:
 872 000a 90ED030A 		vldrls.32	s0, [r0, #12]
 873              		.loc 1 190 0
 874 000e 9FED020A 		vldrhi.32	s0, .L76+4
 875              		.loc 1 191 0
 876 0012 7047     		bx	lr
 877              	.L77:
 878              		.align	2
 879              	.L76:
 880 0014 00000000 		.word	.LANCHOR0
 881 0018 00000000 		.word	0
 882              		.cfi_endproc
 883              	.LFE268:
 884              		.size	get_gyro_rate, .-get_gyro_rate
 885              		.section	.text.get_temperature,"ax",%progbits
 886              		.align	1
 887              		.p2align 4,,15
 888              		.global	get_temperature
 889              		.syntax unified
 890              		.thumb
 891              		.thumb_func
 892              		.fpu fpv4-sp-d16
 893              		.type	get_temperature, %function
 894              	get_temperature:
 895              	.LFB269:
 896              		.loc 1 193 0
 897              		.cfi_startproc
 898              		@ args = 0, pretend = 0, frame = 0
 899              		@ frame_needed = 0, uses_anonymous_args = 0
 900              		@ link register save eliminated.
 901              		.loc 1 194 0
 902 0000 014B     		ldr	r3, .L79
 903              		.loc 1 195 0
 904 0002 93ED060A 		vldr.32	s0, [r3, #24]
 905 0006 7047     		bx	lr
 906              	.L80:
 907              		.align	2
 908              	.L79:
 909 0008 00000000 		.word	.LANCHOR0
 910              		.cfi_endproc
 911              	.LFE269:
 912              		.size	get_temperature, .-get_temperature
ARM GAS  /var/folders/km/q6jdms0143g2bddz5bhvdfd00000gn/T//cc3nPvG7.s 			page 17


 913              		.section	.bss.imuThd,"aw",%nobits
 914              		.align	2
 915              		.set	.LANCHOR5,. + 0
 916              		.type	imuThd, %object
 917              		.size	imuThd, 4
 918              	imuThd:
 919 0000 00000000 		.space	4
 920              		.section	.bss.imu_configured,"aw",%nobits
 921              		.set	.LANCHOR3,. + 0
 922              		.type	imu_configured, %object
 923              		.size	imu_configured, 1
 924              	imu_configured:
 925 0000 00       		.space	1
 926              		.section	.bss.imu_reader_thd_wa.10145,"aw",%nobits
 927              		.align	3
 928              		.set	.LANCHOR4,. + 0
 929              		.type	imu_reader_thd_wa.10145, %object
 930              		.size	imu_reader_thd_wa.10145, 1400
 931              	imu_reader_thd_wa.10145:
 932 0000 00000000 		.space	1400
 932      00000000 
 932      00000000 
 932      00000000 
 932      00000000 
 933              		.section	.bss.imu_values,"aw",%nobits
 934              		.align	2
 935              		.set	.LANCHOR0,. + 0
 936              		.type	imu_values, %object
 937              		.size	imu_values, 80
 938              	imu_values:
 939 0000 00000000 		.space	80
 939      00000000 
 939      00000000 
 939      00000000 
 939      00000000 
 940              		.section	.rodata.__FUNCTION__.10133,"a",%progbits
 941              		.align	2
 942              		.set	.LANCHOR1,. + 0
 943              		.type	__FUNCTION__.10133, %object
 944              		.size	__FUNCTION__.10133, 15
 945              	__FUNCTION__.10133:
 946 0000 696D755F 		.ascii	"imu_reader_thd\000"
 946      72656164 
 946      65725F74 
 946      686400
 947              		.section	.rodata.__func__.7153,"a",%progbits
 948              		.align	2
 949              		.set	.LANCHOR2,. + 0
 950              		.type	__func__.7153, %object
 951              		.size	__func__.7153, 12
 952              	__func__.7153:
 953 0000 63685379 		.ascii	"chSysUnlock\000"
 953      73556E6C 
 953      6F636B00 
 954              		.section	.rodata.imu_reader_thd.str1.4,"aMS",%progbits,1
 955              		.align	2
 956              	.LC0:
ARM GAS  /var/folders/km/q6jdms0143g2bddz5bhvdfd00000gn/T//cc3nPvG7.s 			page 18


 957 0000 2F696D75 		.ascii	"/imu\000"
 957      00
 958              		.text
 959              	.Letext0:
 960              		.file 7 "/Applications/Eclipse_e-puck2.app/Contents/Eclipse_e-puck2/Tools/gcc-arm-none-eabi-7-2017
 961              		.file 8 "/Applications/Eclipse_e-puck2.app/Contents/Eclipse_e-puck2/Tools/gcc-arm-none-eabi-7-2017
 962              		.file 9 "/Applications/Eclipse_e-puck2.app/Contents/Eclipse_e-puck2/Tools/gcc-arm-none-eabi-7-2017
 963              		.file 10 "../../lib/ChibiOS/os/rt/ports/ARMCMx/compilers/GCC/chtypes.h"
 964              		.file 11 "../../lib/ChibiOS/os/rt/include/chsystypes.h"
 965              		.file 12 "../../lib/ChibiOS/os/rt/include/chschd.h"
 966              		.file 13 "../../lib/ChibiOS/os/ext/CMSIS/include/core_cm4.h"
 967              		.file 14 "../../lib/ChibiOS/os/ext/CMSIS/ST/system_stm32f4xx.h"
 968              		.file 15 "../../lib/ChibiOS/os/ext/CMSIS/ST/stm32f407xx.h"
 969              		.file 16 "../../lib/ChibiOS/os/rt/ports/ARMCMx/chcore.h"
 970              		.file 17 "../../lib/ChibiOS/os/rt/ports/ARMCMx/chcore_v7m.h"
 971              		.file 18 "../../lib/ChibiOS/os/rt/include/chdebug.h"
 972              		.file 19 "../../lib/ChibiOS/os/rt/include/chtm.h"
 973              		.file 20 "../../lib/ChibiOS/os/rt/include/chstats.h"
 974              		.file 21 "../../lib/ChibiOS/os/rt/include/chsem.h"
 975              		.file 22 "../../lib/ChibiOS/os/rt/include/chmtx.h"
 976              		.file 23 "../../lib/ChibiOS/os/rt/include/chcond.h"
 977              		.file 24 "../../lib/ChibiOS/os/rt/include/chevents.h"
 978              		.file 25 "../../lib/ChibiOS/os/rt/include/chqueues.h"
 979              		.file 26 "../../lib/ChibiOS/os/hal/ports/STM32/STM32F4xx/stm32_dma.h"
 980              		.file 27 "../../lib/ChibiOS/os/hal/ports/STM32/LLD/GPIOv2/pal_lld.h"
 981              		.file 28 "../../lib/ChibiOS/os/hal/include/gpt.h"
 982              		.file 29 "../../lib/ChibiOS/os/hal/ports/STM32/LLD/TIMv1/gpt_lld.h"
 983              		.file 30 "../../lib/ChibiOS/os/hal/ports/STM32/LLD/TIMv1/stm32_tim.h"
 984              		.file 31 "../../lib/ChibiOS/os/hal/include/i2c.h"
 985              		.file 32 "../../lib/ChibiOS/os/hal/ports/STM32/LLD/I2Cv1/i2c_lld.h"
 986              		.file 33 "../../lib/ChibiOS/os/hal/include/serial.h"
 987              		.file 34 "../../lib/ChibiOS/os/hal/ports/STM32/LLD/USARTv1/serial_lld.h"
 988              		.file 35 "../../lib/ChibiOS/os/hal/include/usb.h"
 989              		.file 36 "../../lib/ChibiOS/os/hal/ports/STM32/LLD/OTGv1/usb_lld.h"
 990              		.file 37 "../../lib/ChibiOS/os/hal/ports/STM32/LLD/OTGv1/stm32_otg.h"
 991              		.file 38 "/Applications/Eclipse_e-puck2.app/Contents/Eclipse_e-puck2/Tools/gcc-arm-none-eabi-7-201
 992              		.file 39 "/Applications/Eclipse_e-puck2.app/Contents/Eclipse_e-puck2/Tools/gcc-arm-none-eabi-7-201
 993              		.file 40 "/Applications/Eclipse_e-puck2.app/Contents/Eclipse_e-puck2/Tools/gcc-arm-none-eabi-7-201
 994              		.file 41 "/Applications/Eclipse_e-puck2.app/Contents/Eclipse_e-puck2/Tools/gcc-arm-none-eabi-7-201
 995              		.file 42 "/Applications/Eclipse_e-puck2.app/Contents/Eclipse_e-puck2/Tools/gcc-arm-none-eabi-7-201
 996              		.file 43 "../../lib/msgbus/messagebus.h"
 997              		.file 44 "./mpu9250.h"
 998              		.file 45 "./imu.h"