ARM GAS  /var/folders/km/q6jdms0143g2bddz5bhvdfd00000gn/T//cc64RHRd.s 			page 1


   1              		.cpu cortex-m4
   2              		.eabi_attribute 27, 1
   3              		.eabi_attribute 28, 1
   4              		.eabi_attribute 20, 1
   5              		.eabi_attribute 21, 1
   6              		.eabi_attribute 23, 3
   7              		.eabi_attribute 24, 1
   8              		.eabi_attribute 25, 1
   9              		.eabi_attribute 26, 1
  10              		.eabi_attribute 30, 2
  11              		.eabi_attribute 34, 1
  12              		.eabi_attribute 18, 4
  13              		.file	"nvic.c"
  14              		.text
  15              	.Ltext0:
  16              		.cfi_sections	.debug_frame
  17              		.section	.text.nvicEnableVector,"ax",%progbits
  18              		.align	1
  19              		.p2align 4,,15
  20              		.global	nvicEnableVector
  21              		.syntax unified
  22              		.thumb
  23              		.thumb_func
  24              		.fpu fpv4-sp-d16
  25              		.type	nvicEnableVector, %function
  26              	nvicEnableVector:
  27              	.LFB256:
  28              		.file 1 "../../lib/ChibiOS/os/hal/ports/common/ARMCMx/nvic.c"
  29              		.loc 1 57 0
  30              		.cfi_startproc
  31              		@ args = 0, pretend = 0, frame = 0
  32              		@ frame_needed = 0, uses_anonymous_args = 0
  33              		@ link register save eliminated.
  34              	.LVL0:
  35              		.loc 1 60 0
  36 0000 4309     		lsrs	r3, r0, #5
  37              		.loc 1 57 0
  38 0002 10B4     		push	{r4}
  39              		.cfi_def_cfa_offset 4
  40              		.cfi_offset 4, -4
  41 0004 9B00     		lsls	r3, r3, #2
  42              		.loc 1 59 0
  43 0006 00F16044 		add	r4, r0, #-536870912
  44 000a 04F56144 		add	r4, r4, #57600
  45 000e 03F16043 		add	r3, r3, #-536870912
  46 0012 0901     		lsls	r1, r1, #4
  47              	.LVL1:
  48 0014 03F56143 		add	r3, r3, #57600
  49              		.loc 1 60 0
  50 0018 00F01F00 		and	r0, r0, #31
  51              	.LVL2:
  52 001c 0122     		movs	r2, #1
  53              		.loc 1 59 0
  54 001e C9B2     		uxtb	r1, r1
  55 0020 84F80013 		strb	r1, [r4, #768]
  56              		.loc 1 60 0
  57 0024 02FA00F0 		lsl	r0, r2, r0
ARM GAS  /var/folders/km/q6jdms0143g2bddz5bhvdfd00000gn/T//cc64RHRd.s 			page 2


  58 0028 C3F88001 		str	r0, [r3, #384]
  59              		.loc 1 62 0
  60 002c 5DF8044B 		ldr	r4, [sp], #4
  61              		.cfi_restore 4
  62              		.cfi_def_cfa_offset 0
  63              	.LVL3:
  64              		.loc 1 61 0
  65 0030 1860     		str	r0, [r3]
  66              		.loc 1 62 0
  67 0032 7047     		bx	lr
  68              		.cfi_endproc
  69              	.LFE256:
  70              		.size	nvicEnableVector, .-nvicEnableVector
  71              		.section	.text.nvicDisableVector,"ax",%progbits
  72              		.align	1
  73              		.p2align 4,,15
  74              		.global	nvicDisableVector
  75              		.syntax unified
  76              		.thumb
  77              		.thumb_func
  78              		.fpu fpv4-sp-d16
  79              		.type	nvicDisableVector, %function
  80              	nvicDisableVector:
  81              	.LFB257:
  82              		.loc 1 69 0
  83              		.cfi_startproc
  84              		@ args = 0, pretend = 0, frame = 0
  85              		@ frame_needed = 0, uses_anonymous_args = 0
  86              		@ link register save eliminated.
  87              	.LVL4:
  88              		.loc 1 71 0
  89 0000 0849     		ldr	r1, .L6
  90 0002 4309     		lsrs	r3, r0, #5
  91              		.loc 1 69 0
  92 0004 10B4     		push	{r4}
  93              		.cfi_def_cfa_offset 4
  94              		.cfi_offset 4, -4
  95              		.loc 1 71 0
  96 0006 2033     		adds	r3, r3, #32
  97 0008 00F01F04 		and	r4, r0, #31
  98 000c 0122     		movs	r2, #1
  99              		.loc 1 72 0
 100 000e 0844     		add	r0, r0, r1
 101              	.LVL5:
 102              		.loc 1 71 0
 103 0010 A240     		lsls	r2, r2, r4
 104              		.loc 1 72 0
 105 0012 0024     		movs	r4, #0
 106              		.loc 1 71 0
 107 0014 41F82320 		str	r2, [r1, r3, lsl #2]
 108              		.loc 1 72 0
 109 0018 80F80043 		strb	r4, [r0, #768]
 110              		.loc 1 73 0
 111 001c 5DF8044B 		ldr	r4, [sp], #4
 112              		.cfi_restore 4
 113              		.cfi_def_cfa_offset 0
 114 0020 7047     		bx	lr
ARM GAS  /var/folders/km/q6jdms0143g2bddz5bhvdfd00000gn/T//cc64RHRd.s 			page 3


 115              	.L7:
 116 0022 00BF     		.align	2
 117              	.L6:
 118 0024 00E100E0 		.word	-536813312
 119              		.cfi_endproc
 120              	.LFE257:
 121              		.size	nvicDisableVector, .-nvicDisableVector
 122              		.section	.text.nvicSetSystemHandlerPriority,"ax",%progbits
 123              		.align	1
 124              		.p2align 4,,15
 125              		.global	nvicSetSystemHandlerPriority
 126              		.syntax unified
 127              		.thumb
 128              		.thumb_func
 129              		.fpu fpv4-sp-d16
 130              		.type	nvicSetSystemHandlerPriority, %function
 131              	nvicSetSystemHandlerPriority:
 132              	.LFB258:
 133              		.loc 1 81 0
 134              		.cfi_startproc
 135              		@ args = 0, pretend = 0, frame = 0
 136              		@ frame_needed = 0, uses_anonymous_args = 0
 137              	.LVL6:
 138              		.loc 1 83 0
 139 0000 0C28     		cmp	r0, #12
 140              		.loc 1 81 0
 141 0002 38B5     		push	{r3, r4, r5, lr}
 142              		.cfi_def_cfa_offset 16
 143              		.cfi_offset 3, -16
 144              		.cfi_offset 4, -12
 145              		.cfi_offset 5, -8
 146              		.cfi_offset 14, -4
 147              		.loc 1 81 0
 148 0004 0446     		mov	r4, r0
 149 0006 0D46     		mov	r5, r1
 150              		.loc 1 83 0
 151 0008 02D9     		bls	.L9
 152              		.loc 1 83 0 is_stmt 0 discriminator 2
 153 000a 0548     		ldr	r0, .L11
 154              	.LVL7:
 155 000c FFF7FEFF 		bl	chSysHalt
 156              	.LVL8:
 157              	.L9:
 158              		.loc 1 85 0 is_stmt 1
 159 0010 04F16040 		add	r0, r4, #-536870912
 160 0014 00F56D40 		add	r0, r0, #60672
 161 0018 2D01     		lsls	r5, r5, #4
 162              	.LVL9:
 163 001a EDB2     		uxtb	r5, r5
 164 001c 0576     		strb	r5, [r0, #24]
 165              		.loc 1 86 0
 166 001e 38BD     		pop	{r3, r4, r5, pc}
 167              	.LVL10:
 168              	.L12:
 169              		.align	2
 170              	.L11:
 171 0020 00000000 		.word	.LANCHOR0
ARM GAS  /var/folders/km/q6jdms0143g2bddz5bhvdfd00000gn/T//cc64RHRd.s 			page 4


 172              		.cfi_endproc
 173              	.LFE258:
 174              		.size	nvicSetSystemHandlerPriority, .-nvicSetSystemHandlerPriority
 175              		.section	.text.nvicClearPending,"ax",%progbits
 176              		.align	1
 177              		.p2align 4,,15
 178              		.global	nvicClearPending
 179              		.syntax unified
 180              		.thumb
 181              		.thumb_func
 182              		.fpu fpv4-sp-d16
 183              		.type	nvicClearPending, %function
 184              	nvicClearPending:
 185              	.LFB259:
 186              		.loc 1 93 0
 187              		.cfi_startproc
 188              		@ args = 0, pretend = 0, frame = 0
 189              		@ frame_needed = 0, uses_anonymous_args = 0
 190              		@ link register save eliminated.
 191              	.LVL11:
 192              		.loc 1 95 0
 193 0000 4309     		lsrs	r3, r0, #5
 194 0002 6033     		adds	r3, r3, #96
 195 0004 00F01F00 		and	r0, r0, #31
 196              	.LVL12:
 197 0008 0122     		movs	r2, #1
 198 000a 0349     		ldr	r1, .L14
 199 000c 02FA00F0 		lsl	r0, r2, r0
 200 0010 41F82300 		str	r0, [r1, r3, lsl #2]
 201              		.loc 1 96 0
 202 0014 7047     		bx	lr
 203              	.L15:
 204 0016 00BF     		.align	2
 205              	.L14:
 206 0018 00E100E0 		.word	-536813312
 207              		.cfi_endproc
 208              	.LFE259:
 209              		.size	nvicClearPending, .-nvicClearPending
 210              		.section	.rodata.__func__.8891,"a",%progbits
 211              		.align	2
 212              		.set	.LANCHOR0,. + 0
 213              		.type	__func__.8891, %object
 214              		.size	__func__.8891, 29
 215              	__func__.8891:
 216 0000 6E766963 		.ascii	"nvicSetSystemHandlerPriority\000"
 216      53657453 
 216      79737465 
 216      6D48616E 
 216      646C6572 
 217              		.text
 218              	.Letext0:
 219              		.file 2 "/Applications/Eclipse_e-puck2.app/Contents/Eclipse_e-puck2/Tools/gcc-arm-none-eabi-7-2017
 220              		.file 3 "/Applications/Eclipse_e-puck2.app/Contents/Eclipse_e-puck2/Tools/gcc-arm-none-eabi-7-2017
 221              		.file 4 "/Applications/Eclipse_e-puck2.app/Contents/Eclipse_e-puck2/Tools/gcc-arm-none-eabi-7-2017
 222              		.file 5 "../../lib/ChibiOS/os/rt/ports/ARMCMx/compilers/GCC/chtypes.h"
 223              		.file 6 "../../lib/ChibiOS/os/rt/include/chsystypes.h"
 224              		.file 7 "../../lib/ChibiOS/os/rt/include/chschd.h"
ARM GAS  /var/folders/km/q6jdms0143g2bddz5bhvdfd00000gn/T//cc64RHRd.s 			page 5


 225              		.file 8 "../../lib/ChibiOS/os/ext/CMSIS/include/core_cm4.h"
 226              		.file 9 "../../lib/ChibiOS/os/ext/CMSIS/ST/system_stm32f4xx.h"
 227              		.file 10 "../../lib/ChibiOS/os/ext/CMSIS/ST/stm32f407xx.h"
 228              		.file 11 "../../lib/ChibiOS/os/rt/ports/ARMCMx/chcore.h"
 229              		.file 12 "../../lib/ChibiOS/os/rt/ports/ARMCMx/chcore_v7m.h"
 230              		.file 13 "../../lib/ChibiOS/os/rt/include/chdebug.h"
 231              		.file 14 "../../lib/ChibiOS/os/rt/include/chtm.h"
 232              		.file 15 "../../lib/ChibiOS/os/rt/include/chstats.h"
 233              		.file 16 "../../lib/ChibiOS/os/rt/include/chsem.h"
 234              		.file 17 "../../lib/ChibiOS/os/rt/include/chmtx.h"
 235              		.file 18 "../../lib/ChibiOS/os/rt/include/chregistry.h"
 236              		.file 19 "../../lib/ChibiOS/os/rt/include/chevents.h"
 237              		.file 20 "../../lib/ChibiOS/os/rt/include/chqueues.h"
 238              		.file 21 "../../lib/ChibiOS/os/hal/ports/STM32/STM32F4xx/stm32_dma.h"
 239              		.file 22 "../../lib/ChibiOS/os/hal/ports/STM32/LLD/GPIOv2/pal_lld.h"
 240              		.file 23 "../../lib/ChibiOS/os/hal/include/gpt.h"
 241              		.file 24 "../../lib/ChibiOS/os/hal/ports/STM32/LLD/TIMv1/gpt_lld.h"
 242              		.file 25 "../../lib/ChibiOS/os/hal/ports/STM32/LLD/TIMv1/stm32_tim.h"
 243              		.file 26 "../../lib/ChibiOS/os/hal/include/i2c.h"
 244              		.file 27 "../../lib/ChibiOS/os/hal/ports/STM32/LLD/I2Cv1/i2c_lld.h"
 245              		.file 28 "../../lib/ChibiOS/os/hal/include/serial.h"
 246              		.file 29 "../../lib/ChibiOS/os/hal/ports/STM32/LLD/USARTv1/serial_lld.h"
 247              		.file 30 "../../lib/ChibiOS/os/hal/include/usb.h"
 248              		.file 31 "../../lib/ChibiOS/os/hal/ports/STM32/LLD/OTGv1/usb_lld.h"
 249              		.file 32 "../../lib/ChibiOS/os/hal/ports/STM32/LLD/OTGv1/stm32_otg.h"
 250              		.file 33 "../../lib/ChibiOS/os/rt/include/chsys.h"