ARM GAS  /var/folders/km/q6jdms0143g2bddz5bhvdfd00000gn/T//cc7XJKxH.s 			page 1


   1              		.cpu cortex-m4
   2              		.eabi_attribute 27, 1
   3              		.eabi_attribute 28, 1
   4              		.eabi_attribute 20, 1
   5              		.eabi_attribute 21, 1
   6              		.eabi_attribute 23, 3
   7              		.eabi_attribute 24, 1
   8              		.eabi_attribute 25, 1
   9              		.eabi_attribute 26, 1
  10              		.eabi_attribute 30, 2
  11              		.eabi_attribute 34, 1
  12              		.eabi_attribute 18, 4
  13              		.file	"pal.c"
  14              		.text
  15              	.Ltext0:
  16              		.cfi_sections	.debug_frame
  17              		.section	.text.palReadBus,"ax",%progbits
  18              		.align	1
  19              		.p2align 4,,15
  20              		.global	palReadBus
  21              		.syntax unified
  22              		.thumb
  23              		.thumb_func
  24              		.fpu fpv4-sp-d16
  25              		.type	palReadBus, %function
  26              	palReadBus:
  27              	.LFB256:
  28              		.file 1 "../../lib/ChibiOS/os/hal/src/pal.c"
  29              		.loc 1 65 0
  30              		.cfi_startproc
  31              		@ args = 0, pretend = 0, frame = 0
  32              		@ frame_needed = 0, uses_anonymous_args = 0
  33              	.LVL0:
  34 0000 10B5     		push	{r4, lr}
  35              		.cfi_def_cfa_offset 8
  36              		.cfi_offset 4, -8
  37              		.cfi_offset 14, -4
  38              		.loc 1 67 0
  39 0002 0446     		mov	r4, r0
  40 0004 10B1     		cbz	r0, .L2
  41              		.loc 1 67 0 is_stmt 0 discriminator 3
  42 0006 8268     		ldr	r2, [r0, #8]
  43 0008 0F2A     		cmp	r2, #15
  44 000a 03D9     		bls	.L3
  45              	.L2:
  46              		.loc 1 67 0 discriminator 4
  47 000c 0448     		ldr	r0, .L9
  48              	.LVL1:
  49 000e FFF7FEFF 		bl	chSysHalt
  50              	.LVL2:
  51 0012 A268     		ldr	r2, [r4, #8]
  52              	.L3:
  53              		.loc 1 69 0 is_stmt 1
  54 0014 D4E90030 		ldrd	r3, r0, [r4]
  55 0018 1B69     		ldr	r3, [r3, #16]
  56 001a D340     		lsrs	r3, r3, r2
  57              		.loc 1 70 0
ARM GAS  /var/folders/km/q6jdms0143g2bddz5bhvdfd00000gn/T//cc7XJKxH.s 			page 2


  58 001c 1840     		ands	r0, r0, r3
  59 001e 10BD     		pop	{r4, pc}
  60              	.LVL3:
  61              	.L10:
  62              		.align	2
  63              	.L9:
  64 0020 00000000 		.word	.LANCHOR0
  65              		.cfi_endproc
  66              	.LFE256:
  67              		.size	palReadBus, .-palReadBus
  68              		.section	.text.palWriteBus,"ax",%progbits
  69              		.align	1
  70              		.p2align 4,,15
  71              		.global	palWriteBus
  72              		.syntax unified
  73              		.thumb
  74              		.thumb_func
  75              		.fpu fpv4-sp-d16
  76              		.type	palWriteBus, %function
  77              	palWriteBus:
  78              	.LFB257:
  79              		.loc 1 90 0
  80              		.cfi_startproc
  81              		@ args = 0, pretend = 0, frame = 0
  82              		@ frame_needed = 0, uses_anonymous_args = 0
  83              	.LVL4:
  84 0000 38B5     		push	{r3, r4, r5, lr}
  85              		.cfi_def_cfa_offset 16
  86              		.cfi_offset 3, -16
  87              		.cfi_offset 4, -12
  88              		.cfi_offset 5, -8
  89              		.cfi_offset 14, -4
  90              		.loc 1 90 0
  91 0002 0D46     		mov	r5, r1
  92              		.loc 1 92 0
  93 0004 0446     		mov	r4, r0
  94 0006 10B1     		cbz	r0, .L12
  95              		.loc 1 92 0 is_stmt 0 discriminator 3
  96 0008 8068     		ldr	r0, [r0, #8]
  97              	.LVL5:
  98 000a 0F28     		cmp	r0, #15
  99 000c 03D9     		bls	.L13
 100              	.L12:
 101              		.loc 1 92 0 discriminator 4
 102 000e 0848     		ldr	r0, .L18
 103 0010 FFF7FEFF 		bl	chSysHalt
 104              	.LVL6:
 105 0014 A068     		ldr	r0, [r4, #8]
 106              	.L13:
 107              		.loc 1 94 0 is_stmt 1
 108 0016 D4E90043 		ldrd	r4, r3, [r4]
 109              	.LVL7:
 110 001a 00F11001 		add	r1, r0, #16
 111 001e 23EA0502 		bic	r2, r3, r5
 112 0022 2B40     		ands	r3, r3, r5
 113 0024 8340     		lsls	r3, r3, r0
 114 0026 02FA01F1 		lsl	r1, r2, r1
ARM GAS  /var/folders/km/q6jdms0143g2bddz5bhvdfd00000gn/T//cc7XJKxH.s 			page 3


 115 002a 0B43     		orrs	r3, r3, r1
 116 002c A361     		str	r3, [r4, #24]
 117              		.loc 1 95 0
 118 002e 38BD     		pop	{r3, r4, r5, pc}
 119              	.LVL8:
 120              	.L19:
 121              		.align	2
 122              	.L18:
 123 0030 00000000 		.word	.LANCHOR1
 124              		.cfi_endproc
 125              	.LFE257:
 126              		.size	palWriteBus, .-palWriteBus
 127              		.section	.text.palSetBusMode,"ax",%progbits
 128              		.align	1
 129              		.p2align 4,,15
 130              		.global	palSetBusMode
 131              		.syntax unified
 132              		.thumb
 133              		.thumb_func
 134              		.fpu fpv4-sp-d16
 135              		.type	palSetBusMode, %function
 136              	palSetBusMode:
 137              	.LFB258:
 138              		.loc 1 113 0
 139              		.cfi_startproc
 140              		@ args = 0, pretend = 0, frame = 0
 141              		@ frame_needed = 0, uses_anonymous_args = 0
 142              	.LVL9:
 143 0000 70B5     		push	{r4, r5, r6, lr}
 144              		.cfi_def_cfa_offset 16
 145              		.cfi_offset 4, -16
 146              		.cfi_offset 5, -12
 147              		.cfi_offset 6, -8
 148              		.cfi_offset 14, -4
 149              		.loc 1 113 0
 150 0002 0E46     		mov	r6, r1
 151              		.loc 1 115 0
 152 0004 0446     		mov	r4, r0
 153 0006 10B1     		cbz	r0, .L21
 154              		.loc 1 115 0 is_stmt 0 discriminator 3
 155 0008 8168     		ldr	r1, [r0, #8]
 156              	.LVL10:
 157 000a 0F29     		cmp	r1, #15
 158 000c 03D9     		bls	.L22
 159              	.L21:
 160              		.loc 1 115 0 discriminator 4
 161 000e 0648     		ldr	r0, .L27
 162              	.LVL11:
 163 0010 FFF7FEFF 		bl	chSysHalt
 164              	.LVL12:
 165 0014 A168     		ldr	r1, [r4, #8]
 166              	.L22:
 167              		.loc 1 117 0 is_stmt 1
 168 0016 D4E90005 		ldrd	r0, r5, [r4]
 169 001a 3246     		mov	r2, r6
 170 001c 05FA01F1 		lsl	r1, r5, r1
 171              		.loc 1 118 0
ARM GAS  /var/folders/km/q6jdms0143g2bddz5bhvdfd00000gn/T//cc7XJKxH.s 			page 4


 172 0020 BDE87040 		pop	{r4, r5, r6, lr}
 173              		.cfi_restore 14
 174              		.cfi_restore 6
 175              		.cfi_restore 5
 176              		.cfi_restore 4
 177              		.cfi_def_cfa_offset 0
 178              	.LVL13:
 179              		.loc 1 117 0
 180 0024 FFF7FEBF 		b	_pal_lld_setgroupmode
 181              	.LVL14:
 182              	.L28:
 183              		.align	2
 184              	.L27:
 185 0028 00000000 		.word	.LANCHOR2
 186              		.cfi_endproc
 187              	.LFE258:
 188              		.size	palSetBusMode, .-palSetBusMode
 189              		.section	.rodata.__func__.8883,"a",%progbits
 190              		.align	2
 191              		.set	.LANCHOR0,. + 0
 192              		.type	__func__.8883, %object
 193              		.size	__func__.8883, 11
 194              	__func__.8883:
 195 0000 70616C52 		.ascii	"palReadBus\000"
 195      65616442 
 195      757300
 196              		.section	.rodata.__func__.8888,"a",%progbits
 197              		.align	2
 198              		.set	.LANCHOR1,. + 0
 199              		.type	__func__.8888, %object
 200              		.size	__func__.8888, 12
 201              	__func__.8888:
 202 0000 70616C57 		.ascii	"palWriteBus\000"
 202      72697465 
 202      42757300 
 203              		.section	.rodata.__func__.8893,"a",%progbits
 204              		.align	2
 205              		.set	.LANCHOR2,. + 0
 206              		.type	__func__.8893, %object
 207              		.size	__func__.8893, 14
 208              	__func__.8893:
 209 0000 70616C53 		.ascii	"palSetBusMode\000"
 209      65744275 
 209      734D6F64 
 209      6500
 210              		.text
 211              	.Letext0:
 212              		.file 2 "/Applications/Eclipse_e-puck2.app/Contents/Eclipse_e-puck2/Tools/gcc-arm-none-eabi-7-2017
 213              		.file 3 "/Applications/Eclipse_e-puck2.app/Contents/Eclipse_e-puck2/Tools/gcc-arm-none-eabi-7-2017
 214              		.file 4 "/Applications/Eclipse_e-puck2.app/Contents/Eclipse_e-puck2/Tools/gcc-arm-none-eabi-7-2017
 215              		.file 5 "/Applications/Eclipse_e-puck2.app/Contents/Eclipse_e-puck2/Tools/gcc-arm-none-eabi-7-2017
 216              		.file 6 "../../lib/ChibiOS/os/rt/ports/ARMCMx/compilers/GCC/chtypes.h"
 217              		.file 7 "../../lib/ChibiOS/os/rt/include/chsystypes.h"
 218              		.file 8 "../../lib/ChibiOS/os/rt/include/chschd.h"
 219              		.file 9 "../../lib/ChibiOS/os/ext/CMSIS/include/core_cm4.h"
 220              		.file 10 "../../lib/ChibiOS/os/ext/CMSIS/ST/system_stm32f4xx.h"
 221              		.file 11 "../../lib/ChibiOS/os/ext/CMSIS/ST/stm32f407xx.h"
ARM GAS  /var/folders/km/q6jdms0143g2bddz5bhvdfd00000gn/T//cc7XJKxH.s 			page 5


 222              		.file 12 "../../lib/ChibiOS/os/rt/ports/ARMCMx/chcore.h"
 223              		.file 13 "../../lib/ChibiOS/os/rt/ports/ARMCMx/chcore_v7m.h"
 224              		.file 14 "../../lib/ChibiOS/os/rt/include/chdebug.h"
 225              		.file 15 "../../lib/ChibiOS/os/rt/include/chtm.h"
 226              		.file 16 "../../lib/ChibiOS/os/rt/include/chstats.h"
 227              		.file 17 "../../lib/ChibiOS/os/rt/include/chsem.h"
 228              		.file 18 "../../lib/ChibiOS/os/rt/include/chmtx.h"
 229              		.file 19 "../../lib/ChibiOS/os/rt/include/chregistry.h"
 230              		.file 20 "../../lib/ChibiOS/os/rt/include/chevents.h"
 231              		.file 21 "../../lib/ChibiOS/os/rt/include/chqueues.h"
 232              		.file 22 "../../lib/ChibiOS/os/hal/ports/STM32/STM32F4xx/stm32_dma.h"
 233              		.file 23 "../../lib/ChibiOS/os/hal/ports/STM32/LLD/GPIOv2/pal_lld.h"
 234              		.file 24 "../../lib/ChibiOS/os/hal/include/pal.h"
 235              		.file 25 "../../lib/ChibiOS/os/hal/include/gpt.h"
 236              		.file 26 "../../lib/ChibiOS/os/hal/ports/STM32/LLD/TIMv1/gpt_lld.h"
 237              		.file 27 "../../lib/ChibiOS/os/hal/ports/STM32/LLD/TIMv1/stm32_tim.h"
 238              		.file 28 "../../lib/ChibiOS/os/hal/include/i2c.h"
 239              		.file 29 "../../lib/ChibiOS/os/hal/ports/STM32/LLD/I2Cv1/i2c_lld.h"
 240              		.file 30 "../../lib/ChibiOS/os/hal/include/serial.h"
 241              		.file 31 "../../lib/ChibiOS/os/hal/ports/STM32/LLD/USARTv1/serial_lld.h"
 242              		.file 32 "../../lib/ChibiOS/os/hal/include/usb.h"
 243              		.file 33 "../../lib/ChibiOS/os/hal/ports/STM32/LLD/OTGv1/usb_lld.h"
 244              		.file 34 "../../lib/ChibiOS/os/hal/ports/STM32/LLD/OTGv1/stm32_otg.h"
 245              		.file 35 "../../lib/ChibiOS/os/rt/include/chsys.h"