ARM GAS  /var/folders/km/q6jdms0143g2bddz5bhvdfd00000gn/T//ccBOdTcB.s 			page 1


   1              		.cpu cortex-m4
   2              		.eabi_attribute 27, 1
   3              		.eabi_attribute 28, 1
   4              		.eabi_attribute 20, 1
   5              		.eabi_attribute 21, 1
   6              		.eabi_attribute 23, 3
   7              		.eabi_attribute 24, 1
   8              		.eabi_attribute 25, 1
   9              		.eabi_attribute 26, 1
  10              		.eabi_attribute 30, 2
  11              		.eabi_attribute 34, 1
  12              		.eabi_attribute 18, 4
  13              		.file	"st_lld.c"
  14              		.text
  15              	.Ltext0:
  16              		.cfi_sections	.debug_frame
  17              		.section	.text.SysTick_Handler,"ax",%progbits
  18              		.align	1
  19              		.p2align 4,,15
  20              		.global	SysTick_Handler
  21              		.syntax unified
  22              		.thumb
  23              		.thumb_func
  24              		.fpu fpv4-sp-d16
  25              		.type	SysTick_Handler, %function
  26              	SysTick_Handler:
  27              	.LFB256:
  28              		.file 1 "../../lib/ChibiOS/os/hal/ports/STM32/LLD/TIMv1/st_lld.c"
  29              		.loc 1 154 0
  30              		.cfi_startproc
  31              		@ args = 0, pretend = 0, frame = 0
  32              		@ frame_needed = 0, uses_anonymous_args = 0
  33 0000 08B5     		push	{r3, lr}
  34              		.cfi_def_cfa_offset 8
  35              		.cfi_offset 3, -8
  36              		.cfi_offset 14, -4
  37              		.loc 1 156 0
  38 0002 FFF7FEFF 		bl	_stats_increase_irq
  39              	.LVL0:
  40 0006 FFF7FEFF 		bl	_dbg_check_enter_isr
  41              	.LVL1:
  42              	.LBB54:
  43              	.LBB55:
  44              	.LBB56:
  45              	.LBB57:
  46              	.LBB58:
  47              	.LBB59:
  48              	.LBB60:
  49              		.file 2 "../../lib/ChibiOS/os/ext/CMSIS/include/core_cmFunc.h"
  50              		.loc 2 546 0
  51 000a 2023     		movs	r3, #32
  52              		.syntax unified
  53              	@ 546 "../../lib/ChibiOS/os/ext/CMSIS/include/core_cmFunc.h" 1
  54 000c 83F31188 		MSR basepri, r3
  55              	@ 0 "" 2
  56              	.LVL2:
  57              		.thumb
ARM GAS  /var/folders/km/q6jdms0143g2bddz5bhvdfd00000gn/T//ccBOdTcB.s 			page 2


  58              		.syntax unified
  59              	.LBE60:
  60              	.LBE59:
  61              	.LBE58:
  62              	.LBE57:
  63              		.file 3 "../../lib/ChibiOS/os/rt/include/chsys.h"
  64              		.loc 3 389 0
  65 0010 FFF7FEFF 		bl	_stats_start_measure_crit_isr
  66              	.LVL3:
  67              		.loc 3 390 0
  68 0014 FFF7FEFF 		bl	_dbg_check_lock_from_isr
  69              	.LVL4:
  70              	.LBE56:
  71              	.LBE55:
  72              	.LBE54:
  73              	.LBB61:
  74              	.LBB62:
  75              		.file 4 "../../lib/ChibiOS/os/hal/osal/rt/osal.h"
  76              		.loc 4 539 0
  77 0018 FFF7FEFF 		bl	chSysTimerHandlerI
  78              	.LVL5:
  79              	.LBE62:
  80              	.LBE61:
  81              	.LBB63:
  82              	.LBB64:
  83              	.LBB65:
  84              		.loc 3 408 0
  85 001c FFF7FEFF 		bl	_dbg_check_unlock_from_isr
  86              	.LVL6:
  87              		.loc 3 409 0
  88 0020 FFF7FEFF 		bl	_stats_stop_measure_crit_isr
  89              	.LVL7:
  90              	.LBB66:
  91              	.LBB67:
  92              	.LBB68:
  93              	.LBB69:
  94              		.loc 2 546 0
  95 0024 0023     		movs	r3, #0
  96              		.syntax unified
  97              	@ 546 "../../lib/ChibiOS/os/ext/CMSIS/include/core_cmFunc.h" 1
  98 0026 83F31188 		MSR basepri, r3
  99              	@ 0 "" 2
 100              	.LVL8:
 101              		.thumb
 102              		.syntax unified
 103              	.LBE69:
 104              	.LBE68:
 105              	.LBE67:
 106              	.LBE66:
 107              	.LBE65:
 108              	.LBE64:
 109              	.LBE63:
 110              		.loc 1 162 0
 111 002a FFF7FEFF 		bl	_dbg_check_leave_isr
 112              	.LVL9:
 113              		.loc 1 163 0
 114 002e BDE80840 		pop	{r3, lr}
ARM GAS  /var/folders/km/q6jdms0143g2bddz5bhvdfd00000gn/T//ccBOdTcB.s 			page 3


 115              		.cfi_restore 14
 116              		.cfi_restore 3
 117              		.cfi_def_cfa_offset 0
 118              		.loc 1 162 0
 119 0032 FFF7FEBF 		b	_port_irq_epilogue
 120              	.LVL10:
 121              		.cfi_endproc
 122              	.LFE256:
 123              		.size	SysTick_Handler, .-SysTick_Handler
 124 0036 00BF     		.section	.text.st_lld_init,"ax",%progbits
 125              		.align	1
 126              		.p2align 4,,15
 127              		.global	st_lld_init
 128              		.syntax unified
 129              		.thumb
 130              		.thumb_func
 131              		.fpu fpv4-sp-d16
 132              		.type	st_lld_init, %function
 133              	st_lld_init:
 134              	.LFB257:
 135              		.loc 1 201 0
 136              		.cfi_startproc
 137              		@ args = 0, pretend = 0, frame = 0
 138              		@ frame_needed = 0, uses_anonymous_args = 0
 139              		@ link register save eliminated.
 140              		.loc 1 229 0
 141 0000 054B     		ldr	r3, .L5
 142 0002 064A     		ldr	r2, .L5+4
 143 0004 5A60     		str	r2, [r3, #4]
 144              		.loc 1 230 0
 145 0006 0021     		movs	r1, #0
 146              		.loc 1 231 0
 147 0008 0722     		movs	r2, #7
 148              		.loc 1 230 0
 149 000a 9960     		str	r1, [r3, #8]
 150              		.loc 1 236 0
 151 000c 0B20     		movs	r0, #11
 152 000e 0821     		movs	r1, #8
 153              		.loc 1 231 0
 154 0010 1A60     		str	r2, [r3]
 155              		.loc 1 236 0
 156 0012 FFF7FEBF 		b	nvicSetSystemHandlerPriority
 157              	.LVL11:
 158              	.L6:
 159 0016 00BF     		.align	2
 160              	.L5:
 161 0018 10E000E0 		.word	-536813552
 162 001c 3F900200 		.word	167999
 163              		.cfi_endproc
 164              	.LFE257:
 165              		.size	st_lld_init, .-st_lld_init
 166              		.text
 167              	.Letext0:
 168              		.file 5 "/Applications/Eclipse_e-puck2.app/Contents/Eclipse_e-puck2/Tools/gcc-arm-none-eabi-7-2017
 169              		.file 6 "/Applications/Eclipse_e-puck2.app/Contents/Eclipse_e-puck2/Tools/gcc-arm-none-eabi-7-2017
 170              		.file 7 "/Applications/Eclipse_e-puck2.app/Contents/Eclipse_e-puck2/Tools/gcc-arm-none-eabi-7-2017
 171              		.file 8 "../../lib/ChibiOS/os/rt/ports/ARMCMx/compilers/GCC/chtypes.h"
ARM GAS  /var/folders/km/q6jdms0143g2bddz5bhvdfd00000gn/T//ccBOdTcB.s 			page 4


 172              		.file 9 "../../lib/ChibiOS/os/rt/include/chsystypes.h"
 173              		.file 10 "../../lib/ChibiOS/os/rt/include/chschd.h"
 174              		.file 11 "../../lib/ChibiOS/os/ext/CMSIS/include/core_cm4.h"
 175              		.file 12 "../../lib/ChibiOS/os/ext/CMSIS/ST/system_stm32f4xx.h"
 176              		.file 13 "../../lib/ChibiOS/os/ext/CMSIS/ST/stm32f407xx.h"
 177              		.file 14 "../../lib/ChibiOS/os/rt/ports/ARMCMx/chcore.h"
 178              		.file 15 "../../lib/ChibiOS/os/rt/ports/ARMCMx/chcore_v7m.h"
 179              		.file 16 "../../lib/ChibiOS/os/rt/include/chdebug.h"
 180              		.file 17 "../../lib/ChibiOS/os/rt/include/chtm.h"
 181              		.file 18 "../../lib/ChibiOS/os/rt/include/chstats.h"
 182              		.file 19 "../../lib/ChibiOS/os/rt/include/chsem.h"
 183              		.file 20 "../../lib/ChibiOS/os/rt/include/chmtx.h"
 184              		.file 21 "../../lib/ChibiOS/os/rt/include/chregistry.h"
 185              		.file 22 "../../lib/ChibiOS/os/rt/include/chevents.h"
 186              		.file 23 "../../lib/ChibiOS/os/rt/include/chqueues.h"
 187              		.file 24 "../../lib/ChibiOS/os/hal/ports/STM32/STM32F4xx/stm32_dma.h"
 188              		.file 25 "../../lib/ChibiOS/os/hal/ports/STM32/LLD/GPIOv2/pal_lld.h"
 189              		.file 26 "../../lib/ChibiOS/os/hal/include/gpt.h"
 190              		.file 27 "../../lib/ChibiOS/os/hal/ports/STM32/LLD/TIMv1/gpt_lld.h"
 191              		.file 28 "../../lib/ChibiOS/os/hal/ports/STM32/LLD/TIMv1/stm32_tim.h"
 192              		.file 29 "../../lib/ChibiOS/os/hal/include/i2c.h"
 193              		.file 30 "../../lib/ChibiOS/os/hal/ports/STM32/LLD/I2Cv1/i2c_lld.h"
 194              		.file 31 "../../lib/ChibiOS/os/hal/include/serial.h"
 195              		.file 32 "../../lib/ChibiOS/os/hal/ports/STM32/LLD/USARTv1/serial_lld.h"
 196              		.file 33 "../../lib/ChibiOS/os/hal/include/usb.h"
 197              		.file 34 "../../lib/ChibiOS/os/hal/ports/STM32/LLD/OTGv1/usb_lld.h"
 198              		.file 35 "../../lib/ChibiOS/os/hal/ports/STM32/LLD/OTGv1/stm32_otg.h"
 199              		.file 36 "../../lib/ChibiOS/os/hal/ports/common/ARMCMx/nvic.h"