ARM GAS  /var/folders/km/q6jdms0143g2bddz5bhvdfd00000gn/T//ccsbzoXS.s 			page 1


   1              		.cpu cortex-m4
   2              		.eabi_attribute 27, 1
   3              		.eabi_attribute 28, 1
   4              		.eabi_attribute 20, 1
   5              		.eabi_attribute 21, 1
   6              		.eabi_attribute 23, 3
   7              		.eabi_attribute 24, 1
   8              		.eabi_attribute 25, 1
   9              		.eabi_attribute 26, 1
  10              		.eabi_attribute 30, 2
  11              		.eabi_attribute 34, 1
  12              		.eabi_attribute 18, 4
  13              		.file	"stm32_dma.c"
  14              		.text
  15              	.Ltext0:
  16              		.cfi_sections	.debug_frame
  17              		.section	.text.Vector6C,"ax",%progbits
  18              		.align	1
  19              		.p2align 4,,15
  20              		.global	Vector6C
  21              		.syntax unified
  22              		.thumb
  23              		.thumb_func
  24              		.fpu fpv4-sp-d16
  25              		.type	Vector6C, %function
  26              	Vector6C:
  27              	.LFB256:
  28              		.file 1 "../../lib/ChibiOS/os/hal/ports/STM32/STM32F4xx/stm32_dma.c"
  29              		.loc 1 127 0
  30              		.cfi_startproc
  31              		@ args = 0, pretend = 0, frame = 0
  32              		@ frame_needed = 0, uses_anonymous_args = 0
  33 0000 08B5     		push	{r3, lr}
  34              		.cfi_def_cfa_offset 8
  35              		.cfi_offset 3, -8
  36              		.cfi_offset 14, -4
  37              		.loc 1 130 0
  38 0002 FFF7FEFF 		bl	_stats_increase_irq
  39              	.LVL0:
  40 0006 FFF7FEFF 		bl	_dbg_check_enter_isr
  41              	.LVL1:
  42              		.loc 1 132 0
  43 000a 084B     		ldr	r3, .L8
  44              		.loc 1 134 0
  45 000c 084A     		ldr	r2, .L8+4
  46              		.loc 1 132 0
  47 000e 1968     		ldr	r1, [r3]
  48 0010 01F03D01 		and	r1, r1, #61
  49              	.LVL2:
  50              		.loc 1 133 0
  51 0014 9960     		str	r1, [r3, #8]
  52              		.loc 1 134 0
  53 0016 1368     		ldr	r3, [r2]
  54 0018 0BB1     		cbz	r3, .L2
  55              		.loc 1 135 0
  56 001a 5068     		ldr	r0, [r2, #4]
  57 001c 9847     		blx	r3
ARM GAS  /var/folders/km/q6jdms0143g2bddz5bhvdfd00000gn/T//ccsbzoXS.s 			page 2


  58              	.LVL3:
  59              	.L2:
  60              		.loc 1 137 0
  61 001e FFF7FEFF 		bl	_dbg_check_leave_isr
  62              	.LVL4:
  63              		.loc 1 138 0
  64 0022 BDE80840 		pop	{r3, lr}
  65              		.cfi_restore 14
  66              		.cfi_restore 3
  67              		.cfi_def_cfa_offset 0
  68              		.loc 1 137 0
  69 0026 FFF7FEBF 		b	_port_irq_epilogue
  70              	.LVL5:
  71              	.L9:
  72 002a 00BF     		.align	2
  73              	.L8:
  74 002c 00600240 		.word	1073897472
  75 0030 00000000 		.word	.LANCHOR0
  76              		.cfi_endproc
  77              	.LFE256:
  78              		.size	Vector6C, .-Vector6C
  79              		.section	.text.Vector70,"ax",%progbits
  80              		.align	1
  81              		.p2align 4,,15
  82              		.global	Vector70
  83              		.syntax unified
  84              		.thumb
  85              		.thumb_func
  86              		.fpu fpv4-sp-d16
  87              		.type	Vector70, %function
  88              	Vector70:
  89              	.LFB257:
  90              		.loc 1 145 0
  91              		.cfi_startproc
  92              		@ args = 0, pretend = 0, frame = 0
  93              		@ frame_needed = 0, uses_anonymous_args = 0
  94 0000 10B5     		push	{r4, lr}
  95              		.cfi_def_cfa_offset 8
  96              		.cfi_offset 4, -8
  97              		.cfi_offset 14, -4
  98              		.loc 1 148 0
  99 0002 FFF7FEFF 		bl	_stats_increase_irq
 100              	.LVL6:
 101 0006 FFF7FEFF 		bl	_dbg_check_enter_isr
 102              	.LVL7:
 103              		.loc 1 150 0
 104 000a 094B     		ldr	r3, .L16
 105              		.loc 1 152 0
 106 000c 0948     		ldr	r0, .L16+4
 107              		.loc 1 150 0
 108 000e 1968     		ldr	r1, [r3]
 109              		.loc 1 152 0
 110 0010 8268     		ldr	r2, [r0, #8]
 111              		.loc 1 150 0
 112 0012 8909     		lsrs	r1, r1, #6
 113 0014 01F03D01 		and	r1, r1, #61
 114              	.LVL8:
ARM GAS  /var/folders/km/q6jdms0143g2bddz5bhvdfd00000gn/T//ccsbzoXS.s 			page 3


 115              		.loc 1 151 0
 116 0018 8C01     		lsls	r4, r1, #6
 117 001a 9C60     		str	r4, [r3, #8]
 118              		.loc 1 152 0
 119 001c 0AB1     		cbz	r2, .L11
 120              		.loc 1 153 0
 121 001e C068     		ldr	r0, [r0, #12]
 122 0020 9047     		blx	r2
 123              	.LVL9:
 124              	.L11:
 125              		.loc 1 155 0
 126 0022 FFF7FEFF 		bl	_dbg_check_leave_isr
 127              	.LVL10:
 128              		.loc 1 156 0
 129 0026 BDE81040 		pop	{r4, lr}
 130              		.cfi_restore 14
 131              		.cfi_restore 4
 132              		.cfi_def_cfa_offset 0
 133              		.loc 1 155 0
 134 002a FFF7FEBF 		b	_port_irq_epilogue
 135              	.LVL11:
 136              	.L17:
 137 002e 00BF     		.align	2
 138              	.L16:
 139 0030 00600240 		.word	1073897472
 140 0034 00000000 		.word	.LANCHOR0
 141              		.cfi_endproc
 142              	.LFE257:
 143              		.size	Vector70, .-Vector70
 144              		.section	.text.Vector74,"ax",%progbits
 145              		.align	1
 146              		.p2align 4,,15
 147              		.global	Vector74
 148              		.syntax unified
 149              		.thumb
 150              		.thumb_func
 151              		.fpu fpv4-sp-d16
 152              		.type	Vector74, %function
 153              	Vector74:
 154              	.LFB258:
 155              		.loc 1 163 0
 156              		.cfi_startproc
 157              		@ args = 0, pretend = 0, frame = 0
 158              		@ frame_needed = 0, uses_anonymous_args = 0
 159 0000 10B5     		push	{r4, lr}
 160              		.cfi_def_cfa_offset 8
 161              		.cfi_offset 4, -8
 162              		.cfi_offset 14, -4
 163              		.loc 1 166 0
 164 0002 FFF7FEFF 		bl	_stats_increase_irq
 165              	.LVL12:
 166 0006 FFF7FEFF 		bl	_dbg_check_enter_isr
 167              	.LVL13:
 168              		.loc 1 168 0
 169 000a 094B     		ldr	r3, .L24
 170              		.loc 1 170 0
 171 000c 0948     		ldr	r0, .L24+4
ARM GAS  /var/folders/km/q6jdms0143g2bddz5bhvdfd00000gn/T//ccsbzoXS.s 			page 4


 172              		.loc 1 168 0
 173 000e 1968     		ldr	r1, [r3]
 174              		.loc 1 170 0
 175 0010 0269     		ldr	r2, [r0, #16]
 176              		.loc 1 168 0
 177 0012 090C     		lsrs	r1, r1, #16
 178 0014 01F03D01 		and	r1, r1, #61
 179              	.LVL14:
 180              		.loc 1 169 0
 181 0018 0C04     		lsls	r4, r1, #16
 182 001a 9C60     		str	r4, [r3, #8]
 183              		.loc 1 170 0
 184 001c 0AB1     		cbz	r2, .L19
 185              		.loc 1 171 0
 186 001e 4069     		ldr	r0, [r0, #20]
 187 0020 9047     		blx	r2
 188              	.LVL15:
 189              	.L19:
 190              		.loc 1 173 0
 191 0022 FFF7FEFF 		bl	_dbg_check_leave_isr
 192              	.LVL16:
 193              		.loc 1 174 0
 194 0026 BDE81040 		pop	{r4, lr}
 195              		.cfi_restore 14
 196              		.cfi_restore 4
 197              		.cfi_def_cfa_offset 0
 198              		.loc 1 173 0
 199 002a FFF7FEBF 		b	_port_irq_epilogue
 200              	.LVL17:
 201              	.L25:
 202 002e 00BF     		.align	2
 203              	.L24:
 204 0030 00600240 		.word	1073897472
 205 0034 00000000 		.word	.LANCHOR0
 206              		.cfi_endproc
 207              	.LFE258:
 208              		.size	Vector74, .-Vector74
 209              		.section	.text.Vector78,"ax",%progbits
 210              		.align	1
 211              		.p2align 4,,15
 212              		.global	Vector78
 213              		.syntax unified
 214              		.thumb
 215              		.thumb_func
 216              		.fpu fpv4-sp-d16
 217              		.type	Vector78, %function
 218              	Vector78:
 219              	.LFB259:
 220              		.loc 1 181 0
 221              		.cfi_startproc
 222              		@ args = 0, pretend = 0, frame = 0
 223              		@ frame_needed = 0, uses_anonymous_args = 0
 224 0000 10B5     		push	{r4, lr}
 225              		.cfi_def_cfa_offset 8
 226              		.cfi_offset 4, -8
 227              		.cfi_offset 14, -4
 228              		.loc 1 184 0
ARM GAS  /var/folders/km/q6jdms0143g2bddz5bhvdfd00000gn/T//ccsbzoXS.s 			page 5


 229 0002 FFF7FEFF 		bl	_stats_increase_irq
 230              	.LVL18:
 231 0006 FFF7FEFF 		bl	_dbg_check_enter_isr
 232              	.LVL19:
 233              		.loc 1 186 0
 234 000a 094B     		ldr	r3, .L32
 235              		.loc 1 188 0
 236 000c 0948     		ldr	r0, .L32+4
 237              		.loc 1 186 0
 238 000e 1968     		ldr	r1, [r3]
 239              		.loc 1 188 0
 240 0010 8269     		ldr	r2, [r0, #24]
 241              		.loc 1 186 0
 242 0012 890D     		lsrs	r1, r1, #22
 243 0014 01F03D01 		and	r1, r1, #61
 244              	.LVL20:
 245              		.loc 1 187 0
 246 0018 8C05     		lsls	r4, r1, #22
 247 001a 9C60     		str	r4, [r3, #8]
 248              		.loc 1 188 0
 249 001c 0AB1     		cbz	r2, .L27
 250              		.loc 1 189 0
 251 001e C069     		ldr	r0, [r0, #28]
 252 0020 9047     		blx	r2
 253              	.LVL21:
 254              	.L27:
 255              		.loc 1 191 0
 256 0022 FFF7FEFF 		bl	_dbg_check_leave_isr
 257              	.LVL22:
 258              		.loc 1 192 0
 259 0026 BDE81040 		pop	{r4, lr}
 260              		.cfi_restore 14
 261              		.cfi_restore 4
 262              		.cfi_def_cfa_offset 0
 263              		.loc 1 191 0
 264 002a FFF7FEBF 		b	_port_irq_epilogue
 265              	.LVL23:
 266              	.L33:
 267 002e 00BF     		.align	2
 268              	.L32:
 269 0030 00600240 		.word	1073897472
 270 0034 00000000 		.word	.LANCHOR0
 271              		.cfi_endproc
 272              	.LFE259:
 273              		.size	Vector78, .-Vector78
 274              		.section	.text.Vector7C,"ax",%progbits
 275              		.align	1
 276              		.p2align 4,,15
 277              		.global	Vector7C
 278              		.syntax unified
 279              		.thumb
 280              		.thumb_func
 281              		.fpu fpv4-sp-d16
 282              		.type	Vector7C, %function
 283              	Vector7C:
 284              	.LFB260:
 285              		.loc 1 199 0
ARM GAS  /var/folders/km/q6jdms0143g2bddz5bhvdfd00000gn/T//ccsbzoXS.s 			page 6


 286              		.cfi_startproc
 287              		@ args = 0, pretend = 0, frame = 0
 288              		@ frame_needed = 0, uses_anonymous_args = 0
 289 0000 08B5     		push	{r3, lr}
 290              		.cfi_def_cfa_offset 8
 291              		.cfi_offset 3, -8
 292              		.cfi_offset 14, -4
 293              		.loc 1 202 0
 294 0002 FFF7FEFF 		bl	_stats_increase_irq
 295              	.LVL24:
 296 0006 FFF7FEFF 		bl	_dbg_check_enter_isr
 297              	.LVL25:
 298              		.loc 1 204 0
 299 000a 084B     		ldr	r3, .L40
 300              		.loc 1 206 0
 301 000c 0848     		ldr	r0, .L40+4
 302              		.loc 1 204 0
 303 000e 5968     		ldr	r1, [r3, #4]
 304              		.loc 1 206 0
 305 0010 026A     		ldr	r2, [r0, #32]
 306              		.loc 1 204 0
 307 0012 01F03D01 		and	r1, r1, #61
 308              	.LVL26:
 309              		.loc 1 205 0
 310 0016 D960     		str	r1, [r3, #12]
 311              		.loc 1 206 0
 312 0018 0AB1     		cbz	r2, .L35
 313              		.loc 1 207 0
 314 001a 406A     		ldr	r0, [r0, #36]
 315 001c 9047     		blx	r2
 316              	.LVL27:
 317              	.L35:
 318              		.loc 1 209 0
 319 001e FFF7FEFF 		bl	_dbg_check_leave_isr
 320              	.LVL28:
 321              		.loc 1 210 0
 322 0022 BDE80840 		pop	{r3, lr}
 323              		.cfi_restore 14
 324              		.cfi_restore 3
 325              		.cfi_def_cfa_offset 0
 326              		.loc 1 209 0
 327 0026 FFF7FEBF 		b	_port_irq_epilogue
 328              	.LVL29:
 329              	.L41:
 330 002a 00BF     		.align	2
 331              	.L40:
 332 002c 00600240 		.word	1073897472
 333 0030 00000000 		.word	.LANCHOR0
 334              		.cfi_endproc
 335              	.LFE260:
 336              		.size	Vector7C, .-Vector7C
 337              		.section	.text.Vector80,"ax",%progbits
 338              		.align	1
 339              		.p2align 4,,15
 340              		.global	Vector80
 341              		.syntax unified
 342              		.thumb
ARM GAS  /var/folders/km/q6jdms0143g2bddz5bhvdfd00000gn/T//ccsbzoXS.s 			page 7


 343              		.thumb_func
 344              		.fpu fpv4-sp-d16
 345              		.type	Vector80, %function
 346              	Vector80:
 347              	.LFB261:
 348              		.loc 1 217 0
 349              		.cfi_startproc
 350              		@ args = 0, pretend = 0, frame = 0
 351              		@ frame_needed = 0, uses_anonymous_args = 0
 352 0000 10B5     		push	{r4, lr}
 353              		.cfi_def_cfa_offset 8
 354              		.cfi_offset 4, -8
 355              		.cfi_offset 14, -4
 356              		.loc 1 220 0
 357 0002 FFF7FEFF 		bl	_stats_increase_irq
 358              	.LVL30:
 359 0006 FFF7FEFF 		bl	_dbg_check_enter_isr
 360              	.LVL31:
 361              		.loc 1 222 0
 362 000a 094B     		ldr	r3, .L48
 363              		.loc 1 224 0
 364 000c 0948     		ldr	r0, .L48+4
 365              		.loc 1 222 0
 366 000e 5968     		ldr	r1, [r3, #4]
 367              		.loc 1 224 0
 368 0010 826A     		ldr	r2, [r0, #40]
 369              		.loc 1 222 0
 370 0012 8909     		lsrs	r1, r1, #6
 371 0014 01F03D01 		and	r1, r1, #61
 372              	.LVL32:
 373              		.loc 1 223 0
 374 0018 8C01     		lsls	r4, r1, #6
 375 001a DC60     		str	r4, [r3, #12]
 376              		.loc 1 224 0
 377 001c 0AB1     		cbz	r2, .L43
 378              		.loc 1 225 0
 379 001e C06A     		ldr	r0, [r0, #44]
 380 0020 9047     		blx	r2
 381              	.LVL33:
 382              	.L43:
 383              		.loc 1 227 0
 384 0022 FFF7FEFF 		bl	_dbg_check_leave_isr
 385              	.LVL34:
 386              		.loc 1 228 0
 387 0026 BDE81040 		pop	{r4, lr}
 388              		.cfi_restore 14
 389              		.cfi_restore 4
 390              		.cfi_def_cfa_offset 0
 391              		.loc 1 227 0
 392 002a FFF7FEBF 		b	_port_irq_epilogue
 393              	.LVL35:
 394              	.L49:
 395 002e 00BF     		.align	2
 396              	.L48:
 397 0030 00600240 		.word	1073897472
 398 0034 00000000 		.word	.LANCHOR0
 399              		.cfi_endproc
ARM GAS  /var/folders/km/q6jdms0143g2bddz5bhvdfd00000gn/T//ccsbzoXS.s 			page 8


 400              	.LFE261:
 401              		.size	Vector80, .-Vector80
 402              		.section	.text.Vector84,"ax",%progbits
 403              		.align	1
 404              		.p2align 4,,15
 405              		.global	Vector84
 406              		.syntax unified
 407              		.thumb
 408              		.thumb_func
 409              		.fpu fpv4-sp-d16
 410              		.type	Vector84, %function
 411              	Vector84:
 412              	.LFB262:
 413              		.loc 1 235 0
 414              		.cfi_startproc
 415              		@ args = 0, pretend = 0, frame = 0
 416              		@ frame_needed = 0, uses_anonymous_args = 0
 417 0000 10B5     		push	{r4, lr}
 418              		.cfi_def_cfa_offset 8
 419              		.cfi_offset 4, -8
 420              		.cfi_offset 14, -4
 421              		.loc 1 238 0
 422 0002 FFF7FEFF 		bl	_stats_increase_irq
 423              	.LVL36:
 424 0006 FFF7FEFF 		bl	_dbg_check_enter_isr
 425              	.LVL37:
 426              		.loc 1 240 0
 427 000a 094B     		ldr	r3, .L56
 428              		.loc 1 242 0
 429 000c 0948     		ldr	r0, .L56+4
 430              		.loc 1 240 0
 431 000e 5968     		ldr	r1, [r3, #4]
 432              		.loc 1 242 0
 433 0010 026B     		ldr	r2, [r0, #48]
 434              		.loc 1 240 0
 435 0012 090C     		lsrs	r1, r1, #16
 436 0014 01F03D01 		and	r1, r1, #61
 437              	.LVL38:
 438              		.loc 1 241 0
 439 0018 0C04     		lsls	r4, r1, #16
 440 001a DC60     		str	r4, [r3, #12]
 441              		.loc 1 242 0
 442 001c 0AB1     		cbz	r2, .L51
 443              		.loc 1 243 0
 444 001e 406B     		ldr	r0, [r0, #52]
 445 0020 9047     		blx	r2
 446              	.LVL39:
 447              	.L51:
 448              		.loc 1 245 0
 449 0022 FFF7FEFF 		bl	_dbg_check_leave_isr
 450              	.LVL40:
 451              		.loc 1 246 0
 452 0026 BDE81040 		pop	{r4, lr}
 453              		.cfi_restore 14
 454              		.cfi_restore 4
 455              		.cfi_def_cfa_offset 0
 456              		.loc 1 245 0
ARM GAS  /var/folders/km/q6jdms0143g2bddz5bhvdfd00000gn/T//ccsbzoXS.s 			page 9


 457 002a FFF7FEBF 		b	_port_irq_epilogue
 458              	.LVL41:
 459              	.L57:
 460 002e 00BF     		.align	2
 461              	.L56:
 462 0030 00600240 		.word	1073897472
 463 0034 00000000 		.word	.LANCHOR0
 464              		.cfi_endproc
 465              	.LFE262:
 466              		.size	Vector84, .-Vector84
 467              		.section	.text.VectorFC,"ax",%progbits
 468              		.align	1
 469              		.p2align 4,,15
 470              		.global	VectorFC
 471              		.syntax unified
 472              		.thumb
 473              		.thumb_func
 474              		.fpu fpv4-sp-d16
 475              		.type	VectorFC, %function
 476              	VectorFC:
 477              	.LFB263:
 478              		.loc 1 253 0
 479              		.cfi_startproc
 480              		@ args = 0, pretend = 0, frame = 0
 481              		@ frame_needed = 0, uses_anonymous_args = 0
 482 0000 10B5     		push	{r4, lr}
 483              		.cfi_def_cfa_offset 8
 484              		.cfi_offset 4, -8
 485              		.cfi_offset 14, -4
 486              		.loc 1 256 0
 487 0002 FFF7FEFF 		bl	_stats_increase_irq
 488              	.LVL42:
 489 0006 FFF7FEFF 		bl	_dbg_check_enter_isr
 490              	.LVL43:
 491              		.loc 1 258 0
 492 000a 094B     		ldr	r3, .L64
 493              		.loc 1 260 0
 494 000c 0948     		ldr	r0, .L64+4
 495              		.loc 1 258 0
 496 000e 5968     		ldr	r1, [r3, #4]
 497              		.loc 1 260 0
 498 0010 826B     		ldr	r2, [r0, #56]
 499              		.loc 1 258 0
 500 0012 890D     		lsrs	r1, r1, #22
 501 0014 01F03D01 		and	r1, r1, #61
 502              	.LVL44:
 503              		.loc 1 259 0
 504 0018 8C05     		lsls	r4, r1, #22
 505 001a DC60     		str	r4, [r3, #12]
 506              		.loc 1 260 0
 507 001c 0AB1     		cbz	r2, .L59
 508              		.loc 1 261 0
 509 001e C06B     		ldr	r0, [r0, #60]
 510 0020 9047     		blx	r2
 511              	.LVL45:
 512              	.L59:
 513              		.loc 1 263 0
ARM GAS  /var/folders/km/q6jdms0143g2bddz5bhvdfd00000gn/T//ccsbzoXS.s 			page 10


 514 0022 FFF7FEFF 		bl	_dbg_check_leave_isr
 515              	.LVL46:
 516              		.loc 1 264 0
 517 0026 BDE81040 		pop	{r4, lr}
 518              		.cfi_restore 14
 519              		.cfi_restore 4
 520              		.cfi_def_cfa_offset 0
 521              		.loc 1 263 0
 522 002a FFF7FEBF 		b	_port_irq_epilogue
 523              	.LVL47:
 524              	.L65:
 525 002e 00BF     		.align	2
 526              	.L64:
 527 0030 00600240 		.word	1073897472
 528 0034 00000000 		.word	.LANCHOR0
 529              		.cfi_endproc
 530              	.LFE263:
 531              		.size	VectorFC, .-VectorFC
 532              		.section	.text.Vector120,"ax",%progbits
 533              		.align	1
 534              		.p2align 4,,15
 535              		.global	Vector120
 536              		.syntax unified
 537              		.thumb
 538              		.thumb_func
 539              		.fpu fpv4-sp-d16
 540              		.type	Vector120, %function
 541              	Vector120:
 542              	.LFB264:
 543              		.loc 1 271 0
 544              		.cfi_startproc
 545              		@ args = 0, pretend = 0, frame = 0
 546              		@ frame_needed = 0, uses_anonymous_args = 0
 547 0000 08B5     		push	{r3, lr}
 548              		.cfi_def_cfa_offset 8
 549              		.cfi_offset 3, -8
 550              		.cfi_offset 14, -4
 551              		.loc 1 274 0
 552 0002 FFF7FEFF 		bl	_stats_increase_irq
 553              	.LVL48:
 554 0006 FFF7FEFF 		bl	_dbg_check_enter_isr
 555              	.LVL49:
 556              		.loc 1 276 0
 557 000a 084B     		ldr	r3, .L72
 558              		.loc 1 278 0
 559 000c 0848     		ldr	r0, .L72+4
 560              		.loc 1 276 0
 561 000e 1968     		ldr	r1, [r3]
 562              		.loc 1 278 0
 563 0010 026C     		ldr	r2, [r0, #64]
 564              		.loc 1 276 0
 565 0012 01F03D01 		and	r1, r1, #61
 566              	.LVL50:
 567              		.loc 1 277 0
 568 0016 9960     		str	r1, [r3, #8]
 569              		.loc 1 278 0
 570 0018 0AB1     		cbz	r2, .L67
ARM GAS  /var/folders/km/q6jdms0143g2bddz5bhvdfd00000gn/T//ccsbzoXS.s 			page 11


 571              		.loc 1 279 0
 572 001a 406C     		ldr	r0, [r0, #68]
 573 001c 9047     		blx	r2
 574              	.LVL51:
 575              	.L67:
 576              		.loc 1 281 0
 577 001e FFF7FEFF 		bl	_dbg_check_leave_isr
 578              	.LVL52:
 579              		.loc 1 282 0
 580 0022 BDE80840 		pop	{r3, lr}
 581              		.cfi_restore 14
 582              		.cfi_restore 3
 583              		.cfi_def_cfa_offset 0
 584              		.loc 1 281 0
 585 0026 FFF7FEBF 		b	_port_irq_epilogue
 586              	.LVL53:
 587              	.L73:
 588 002a 00BF     		.align	2
 589              	.L72:
 590 002c 00640240 		.word	1073898496
 591 0030 00000000 		.word	.LANCHOR0
 592              		.cfi_endproc
 593              	.LFE264:
 594              		.size	Vector120, .-Vector120
 595              		.section	.text.Vector124,"ax",%progbits
 596              		.align	1
 597              		.p2align 4,,15
 598              		.global	Vector124
 599              		.syntax unified
 600              		.thumb
 601              		.thumb_func
 602              		.fpu fpv4-sp-d16
 603              		.type	Vector124, %function
 604              	Vector124:
 605              	.LFB265:
 606              		.loc 1 289 0
 607              		.cfi_startproc
 608              		@ args = 0, pretend = 0, frame = 0
 609              		@ frame_needed = 0, uses_anonymous_args = 0
 610 0000 10B5     		push	{r4, lr}
 611              		.cfi_def_cfa_offset 8
 612              		.cfi_offset 4, -8
 613              		.cfi_offset 14, -4
 614              		.loc 1 292 0
 615 0002 FFF7FEFF 		bl	_stats_increase_irq
 616              	.LVL54:
 617 0006 FFF7FEFF 		bl	_dbg_check_enter_isr
 618              	.LVL55:
 619              		.loc 1 294 0
 620 000a 094B     		ldr	r3, .L80
 621              		.loc 1 296 0
 622 000c 0948     		ldr	r0, .L80+4
 623              		.loc 1 294 0
 624 000e 1968     		ldr	r1, [r3]
 625              		.loc 1 296 0
 626 0010 826C     		ldr	r2, [r0, #72]
 627              		.loc 1 294 0
ARM GAS  /var/folders/km/q6jdms0143g2bddz5bhvdfd00000gn/T//ccsbzoXS.s 			page 12


 628 0012 8909     		lsrs	r1, r1, #6
 629 0014 01F03D01 		and	r1, r1, #61
 630              	.LVL56:
 631              		.loc 1 295 0
 632 0018 8C01     		lsls	r4, r1, #6
 633 001a 9C60     		str	r4, [r3, #8]
 634              		.loc 1 296 0
 635 001c 0AB1     		cbz	r2, .L75
 636              		.loc 1 297 0
 637 001e C06C     		ldr	r0, [r0, #76]
 638 0020 9047     		blx	r2
 639              	.LVL57:
 640              	.L75:
 641              		.loc 1 299 0
 642 0022 FFF7FEFF 		bl	_dbg_check_leave_isr
 643              	.LVL58:
 644              		.loc 1 300 0
 645 0026 BDE81040 		pop	{r4, lr}
 646              		.cfi_restore 14
 647              		.cfi_restore 4
 648              		.cfi_def_cfa_offset 0
 649              		.loc 1 299 0
 650 002a FFF7FEBF 		b	_port_irq_epilogue
 651              	.LVL59:
 652              	.L81:
 653 002e 00BF     		.align	2
 654              	.L80:
 655 0030 00640240 		.word	1073898496
 656 0034 00000000 		.word	.LANCHOR0
 657              		.cfi_endproc
 658              	.LFE265:
 659              		.size	Vector124, .-Vector124
 660              		.section	.text.Vector128,"ax",%progbits
 661              		.align	1
 662              		.p2align 4,,15
 663              		.global	Vector128
 664              		.syntax unified
 665              		.thumb
 666              		.thumb_func
 667              		.fpu fpv4-sp-d16
 668              		.type	Vector128, %function
 669              	Vector128:
 670              	.LFB266:
 671              		.loc 1 307 0
 672              		.cfi_startproc
 673              		@ args = 0, pretend = 0, frame = 0
 674              		@ frame_needed = 0, uses_anonymous_args = 0
 675 0000 10B5     		push	{r4, lr}
 676              		.cfi_def_cfa_offset 8
 677              		.cfi_offset 4, -8
 678              		.cfi_offset 14, -4
 679              		.loc 1 310 0
 680 0002 FFF7FEFF 		bl	_stats_increase_irq
 681              	.LVL60:
 682 0006 FFF7FEFF 		bl	_dbg_check_enter_isr
 683              	.LVL61:
 684              		.loc 1 312 0
ARM GAS  /var/folders/km/q6jdms0143g2bddz5bhvdfd00000gn/T//ccsbzoXS.s 			page 13


 685 000a 094B     		ldr	r3, .L88
 686              		.loc 1 314 0
 687 000c 0948     		ldr	r0, .L88+4
 688              		.loc 1 312 0
 689 000e 1968     		ldr	r1, [r3]
 690              		.loc 1 314 0
 691 0010 026D     		ldr	r2, [r0, #80]
 692              		.loc 1 312 0
 693 0012 090C     		lsrs	r1, r1, #16
 694 0014 01F03D01 		and	r1, r1, #61
 695              	.LVL62:
 696              		.loc 1 313 0
 697 0018 0C04     		lsls	r4, r1, #16
 698 001a 9C60     		str	r4, [r3, #8]
 699              		.loc 1 314 0
 700 001c 0AB1     		cbz	r2, .L83
 701              		.loc 1 315 0
 702 001e 406D     		ldr	r0, [r0, #84]
 703 0020 9047     		blx	r2
 704              	.LVL63:
 705              	.L83:
 706              		.loc 1 317 0
 707 0022 FFF7FEFF 		bl	_dbg_check_leave_isr
 708              	.LVL64:
 709              		.loc 1 318 0
 710 0026 BDE81040 		pop	{r4, lr}
 711              		.cfi_restore 14
 712              		.cfi_restore 4
 713              		.cfi_def_cfa_offset 0
 714              		.loc 1 317 0
 715 002a FFF7FEBF 		b	_port_irq_epilogue
 716              	.LVL65:
 717              	.L89:
 718 002e 00BF     		.align	2
 719              	.L88:
 720 0030 00640240 		.word	1073898496
 721 0034 00000000 		.word	.LANCHOR0
 722              		.cfi_endproc
 723              	.LFE266:
 724              		.size	Vector128, .-Vector128
 725              		.section	.text.Vector12C,"ax",%progbits
 726              		.align	1
 727              		.p2align 4,,15
 728              		.global	Vector12C
 729              		.syntax unified
 730              		.thumb
 731              		.thumb_func
 732              		.fpu fpv4-sp-d16
 733              		.type	Vector12C, %function
 734              	Vector12C:
 735              	.LFB267:
 736              		.loc 1 325 0
 737              		.cfi_startproc
 738              		@ args = 0, pretend = 0, frame = 0
 739              		@ frame_needed = 0, uses_anonymous_args = 0
 740 0000 10B5     		push	{r4, lr}
 741              		.cfi_def_cfa_offset 8
ARM GAS  /var/folders/km/q6jdms0143g2bddz5bhvdfd00000gn/T//ccsbzoXS.s 			page 14


 742              		.cfi_offset 4, -8
 743              		.cfi_offset 14, -4
 744              		.loc 1 328 0
 745 0002 FFF7FEFF 		bl	_stats_increase_irq
 746              	.LVL66:
 747 0006 FFF7FEFF 		bl	_dbg_check_enter_isr
 748              	.LVL67:
 749              		.loc 1 330 0
 750 000a 094B     		ldr	r3, .L96
 751              		.loc 1 332 0
 752 000c 0948     		ldr	r0, .L96+4
 753              		.loc 1 330 0
 754 000e 1968     		ldr	r1, [r3]
 755              		.loc 1 332 0
 756 0010 826D     		ldr	r2, [r0, #88]
 757              		.loc 1 330 0
 758 0012 890D     		lsrs	r1, r1, #22
 759 0014 01F03D01 		and	r1, r1, #61
 760              	.LVL68:
 761              		.loc 1 331 0
 762 0018 8C05     		lsls	r4, r1, #22
 763 001a 9C60     		str	r4, [r3, #8]
 764              		.loc 1 332 0
 765 001c 0AB1     		cbz	r2, .L91
 766              		.loc 1 333 0
 767 001e C06D     		ldr	r0, [r0, #92]
 768 0020 9047     		blx	r2
 769              	.LVL69:
 770              	.L91:
 771              		.loc 1 335 0
 772 0022 FFF7FEFF 		bl	_dbg_check_leave_isr
 773              	.LVL70:
 774              		.loc 1 336 0
 775 0026 BDE81040 		pop	{r4, lr}
 776              		.cfi_restore 14
 777              		.cfi_restore 4
 778              		.cfi_def_cfa_offset 0
 779              		.loc 1 335 0
 780 002a FFF7FEBF 		b	_port_irq_epilogue
 781              	.LVL71:
 782              	.L97:
 783 002e 00BF     		.align	2
 784              	.L96:
 785 0030 00640240 		.word	1073898496
 786 0034 00000000 		.word	.LANCHOR0
 787              		.cfi_endproc
 788              	.LFE267:
 789              		.size	Vector12C, .-Vector12C
 790              		.section	.text.Vector130,"ax",%progbits
 791              		.align	1
 792              		.p2align 4,,15
 793              		.global	Vector130
 794              		.syntax unified
 795              		.thumb
 796              		.thumb_func
 797              		.fpu fpv4-sp-d16
 798              		.type	Vector130, %function
ARM GAS  /var/folders/km/q6jdms0143g2bddz5bhvdfd00000gn/T//ccsbzoXS.s 			page 15


 799              	Vector130:
 800              	.LFB268:
 801              		.loc 1 343 0
 802              		.cfi_startproc
 803              		@ args = 0, pretend = 0, frame = 0
 804              		@ frame_needed = 0, uses_anonymous_args = 0
 805 0000 08B5     		push	{r3, lr}
 806              		.cfi_def_cfa_offset 8
 807              		.cfi_offset 3, -8
 808              		.cfi_offset 14, -4
 809              		.loc 1 346 0
 810 0002 FFF7FEFF 		bl	_stats_increase_irq
 811              	.LVL72:
 812 0006 FFF7FEFF 		bl	_dbg_check_enter_isr
 813              	.LVL73:
 814              		.loc 1 348 0
 815 000a 084B     		ldr	r3, .L104
 816              		.loc 1 350 0
 817 000c 0848     		ldr	r0, .L104+4
 818              		.loc 1 348 0
 819 000e 5968     		ldr	r1, [r3, #4]
 820              		.loc 1 350 0
 821 0010 026E     		ldr	r2, [r0, #96]
 822              		.loc 1 348 0
 823 0012 01F03D01 		and	r1, r1, #61
 824              	.LVL74:
 825              		.loc 1 349 0
 826 0016 D960     		str	r1, [r3, #12]
 827              		.loc 1 350 0
 828 0018 0AB1     		cbz	r2, .L99
 829              		.loc 1 351 0
 830 001a 406E     		ldr	r0, [r0, #100]
 831 001c 9047     		blx	r2
 832              	.LVL75:
 833              	.L99:
 834              		.loc 1 353 0
 835 001e FFF7FEFF 		bl	_dbg_check_leave_isr
 836              	.LVL76:
 837              		.loc 1 354 0
 838 0022 BDE80840 		pop	{r3, lr}
 839              		.cfi_restore 14
 840              		.cfi_restore 3
 841              		.cfi_def_cfa_offset 0
 842              		.loc 1 353 0
 843 0026 FFF7FEBF 		b	_port_irq_epilogue
 844              	.LVL77:
 845              	.L105:
 846 002a 00BF     		.align	2
 847              	.L104:
 848 002c 00640240 		.word	1073898496
 849 0030 00000000 		.word	.LANCHOR0
 850              		.cfi_endproc
 851              	.LFE268:
 852              		.size	Vector130, .-Vector130
 853              		.section	.text.Vector150,"ax",%progbits
 854              		.align	1
 855              		.p2align 4,,15
ARM GAS  /var/folders/km/q6jdms0143g2bddz5bhvdfd00000gn/T//ccsbzoXS.s 			page 16


 856              		.global	Vector150
 857              		.syntax unified
 858              		.thumb
 859              		.thumb_func
 860              		.fpu fpv4-sp-d16
 861              		.type	Vector150, %function
 862              	Vector150:
 863              	.LFB269:
 864              		.loc 1 361 0
 865              		.cfi_startproc
 866              		@ args = 0, pretend = 0, frame = 0
 867              		@ frame_needed = 0, uses_anonymous_args = 0
 868 0000 10B5     		push	{r4, lr}
 869              		.cfi_def_cfa_offset 8
 870              		.cfi_offset 4, -8
 871              		.cfi_offset 14, -4
 872              		.loc 1 364 0
 873 0002 FFF7FEFF 		bl	_stats_increase_irq
 874              	.LVL78:
 875 0006 FFF7FEFF 		bl	_dbg_check_enter_isr
 876              	.LVL79:
 877              		.loc 1 366 0
 878 000a 094B     		ldr	r3, .L112
 879              		.loc 1 368 0
 880 000c 0948     		ldr	r0, .L112+4
 881              		.loc 1 366 0
 882 000e 5968     		ldr	r1, [r3, #4]
 883              		.loc 1 368 0
 884 0010 826E     		ldr	r2, [r0, #104]
 885              		.loc 1 366 0
 886 0012 8909     		lsrs	r1, r1, #6
 887 0014 01F03D01 		and	r1, r1, #61
 888              	.LVL80:
 889              		.loc 1 367 0
 890 0018 8C01     		lsls	r4, r1, #6
 891 001a DC60     		str	r4, [r3, #12]
 892              		.loc 1 368 0
 893 001c 0AB1     		cbz	r2, .L107
 894              		.loc 1 369 0
 895 001e C06E     		ldr	r0, [r0, #108]
 896 0020 9047     		blx	r2
 897              	.LVL81:
 898              	.L107:
 899              		.loc 1 371 0
 900 0022 FFF7FEFF 		bl	_dbg_check_leave_isr
 901              	.LVL82:
 902              		.loc 1 372 0
 903 0026 BDE81040 		pop	{r4, lr}
 904              		.cfi_restore 14
 905              		.cfi_restore 4
 906              		.cfi_def_cfa_offset 0
 907              		.loc 1 371 0
 908 002a FFF7FEBF 		b	_port_irq_epilogue
 909              	.LVL83:
 910              	.L113:
 911 002e 00BF     		.align	2
 912              	.L112:
ARM GAS  /var/folders/km/q6jdms0143g2bddz5bhvdfd00000gn/T//ccsbzoXS.s 			page 17


 913 0030 00640240 		.word	1073898496
 914 0034 00000000 		.word	.LANCHOR0
 915              		.cfi_endproc
 916              	.LFE269:
 917              		.size	Vector150, .-Vector150
 918              		.section	.text.Vector154,"ax",%progbits
 919              		.align	1
 920              		.p2align 4,,15
 921              		.global	Vector154
 922              		.syntax unified
 923              		.thumb
 924              		.thumb_func
 925              		.fpu fpv4-sp-d16
 926              		.type	Vector154, %function
 927              	Vector154:
 928              	.LFB270:
 929              		.loc 1 379 0
 930              		.cfi_startproc
 931              		@ args = 0, pretend = 0, frame = 0
 932              		@ frame_needed = 0, uses_anonymous_args = 0
 933 0000 10B5     		push	{r4, lr}
 934              		.cfi_def_cfa_offset 8
 935              		.cfi_offset 4, -8
 936              		.cfi_offset 14, -4
 937              		.loc 1 382 0
 938 0002 FFF7FEFF 		bl	_stats_increase_irq
 939              	.LVL84:
 940 0006 FFF7FEFF 		bl	_dbg_check_enter_isr
 941              	.LVL85:
 942              		.loc 1 384 0
 943 000a 094B     		ldr	r3, .L120
 944              		.loc 1 386 0
 945 000c 0948     		ldr	r0, .L120+4
 946              		.loc 1 384 0
 947 000e 5968     		ldr	r1, [r3, #4]
 948              		.loc 1 386 0
 949 0010 026F     		ldr	r2, [r0, #112]
 950              		.loc 1 384 0
 951 0012 090C     		lsrs	r1, r1, #16
 952 0014 01F03D01 		and	r1, r1, #61
 953              	.LVL86:
 954              		.loc 1 385 0
 955 0018 0C04     		lsls	r4, r1, #16
 956 001a DC60     		str	r4, [r3, #12]
 957              		.loc 1 386 0
 958 001c 0AB1     		cbz	r2, .L115
 959              		.loc 1 387 0
 960 001e 406F     		ldr	r0, [r0, #116]
 961 0020 9047     		blx	r2
 962              	.LVL87:
 963              	.L115:
 964              		.loc 1 389 0
 965 0022 FFF7FEFF 		bl	_dbg_check_leave_isr
 966              	.LVL88:
 967              		.loc 1 390 0
 968 0026 BDE81040 		pop	{r4, lr}
 969              		.cfi_restore 14
ARM GAS  /var/folders/km/q6jdms0143g2bddz5bhvdfd00000gn/T//ccsbzoXS.s 			page 18


 970              		.cfi_restore 4
 971              		.cfi_def_cfa_offset 0
 972              		.loc 1 389 0
 973 002a FFF7FEBF 		b	_port_irq_epilogue
 974              	.LVL89:
 975              	.L121:
 976 002e 00BF     		.align	2
 977              	.L120:
 978 0030 00640240 		.word	1073898496
 979 0034 00000000 		.word	.LANCHOR0
 980              		.cfi_endproc
 981              	.LFE270:
 982              		.size	Vector154, .-Vector154
 983              		.section	.text.Vector158,"ax",%progbits
 984              		.align	1
 985              		.p2align 4,,15
 986              		.global	Vector158
 987              		.syntax unified
 988              		.thumb
 989              		.thumb_func
 990              		.fpu fpv4-sp-d16
 991              		.type	Vector158, %function
 992              	Vector158:
 993              	.LFB271:
 994              		.loc 1 397 0
 995              		.cfi_startproc
 996              		@ args = 0, pretend = 0, frame = 0
 997              		@ frame_needed = 0, uses_anonymous_args = 0
 998 0000 10B5     		push	{r4, lr}
 999              		.cfi_def_cfa_offset 8
 1000              		.cfi_offset 4, -8
 1001              		.cfi_offset 14, -4
 1002              		.loc 1 400 0
 1003 0002 FFF7FEFF 		bl	_stats_increase_irq
 1004              	.LVL90:
 1005 0006 FFF7FEFF 		bl	_dbg_check_enter_isr
 1006              	.LVL91:
 1007              		.loc 1 402 0
 1008 000a 094B     		ldr	r3, .L128
 1009              		.loc 1 404 0
 1010 000c 0948     		ldr	r0, .L128+4
 1011              		.loc 1 402 0
 1012 000e 5968     		ldr	r1, [r3, #4]
 1013              		.loc 1 404 0
 1014 0010 826F     		ldr	r2, [r0, #120]
 1015              		.loc 1 402 0
 1016 0012 890D     		lsrs	r1, r1, #22
 1017 0014 01F03D01 		and	r1, r1, #61
 1018              	.LVL92:
 1019              		.loc 1 403 0
 1020 0018 8C05     		lsls	r4, r1, #22
 1021 001a DC60     		str	r4, [r3, #12]
 1022              		.loc 1 404 0
 1023 001c 0AB1     		cbz	r2, .L123
 1024              		.loc 1 405 0
 1025 001e C06F     		ldr	r0, [r0, #124]
 1026 0020 9047     		blx	r2
ARM GAS  /var/folders/km/q6jdms0143g2bddz5bhvdfd00000gn/T//ccsbzoXS.s 			page 19


 1027              	.LVL93:
 1028              	.L123:
 1029              		.loc 1 407 0
 1030 0022 FFF7FEFF 		bl	_dbg_check_leave_isr
 1031              	.LVL94:
 1032              		.loc 1 408 0
 1033 0026 BDE81040 		pop	{r4, lr}
 1034              		.cfi_restore 14
 1035              		.cfi_restore 4
 1036              		.cfi_def_cfa_offset 0
 1037              		.loc 1 407 0
 1038 002a FFF7FEBF 		b	_port_irq_epilogue
 1039              	.LVL95:
 1040              	.L129:
 1041 002e 00BF     		.align	2
 1042              	.L128:
 1043 0030 00640240 		.word	1073898496
 1044 0034 00000000 		.word	.LANCHOR0
 1045              		.cfi_endproc
 1046              	.LFE271:
 1047              		.size	Vector158, .-Vector158
 1048              		.section	.text.dmaInit,"ax",%progbits
 1049              		.align	1
 1050              		.p2align 4,,15
 1051              		.global	dmaInit
 1052              		.syntax unified
 1053              		.thumb
 1054              		.thumb_func
 1055              		.fpu fpv4-sp-d16
 1056              		.type	dmaInit, %function
 1057              	dmaInit:
 1058              	.LFB272:
 1059              		.loc 1 419 0
 1060              		.cfi_startproc
 1061              		@ args = 0, pretend = 0, frame = 0
 1062              		@ frame_needed = 0, uses_anonymous_args = 0
 1063              		@ link register save eliminated.
 1064              		.loc 1 422 0
 1065 0000 0E49     		ldr	r1, .L136
 1066 0002 0F4A     		ldr	r2, .L136+4
 1067 0004 0F48     		ldr	r0, .L136+8
 1068 0006 0023     		movs	r3, #0
 1069              		.loc 1 419 0
 1070 0008 10B4     		push	{r4}
 1071              		.cfi_def_cfa_offset 4
 1072              		.cfi_offset 4, -4
 1073              		.loc 1 422 0
 1074 000a 0B60     		str	r3, [r1]
 1075              	.LVL96:
 1076 000c 0E4C     		ldr	r4, .L136+12
 1077              		.loc 1 424 0
 1078 000e 1946     		mov	r1, r3
 1079 0010 01E0     		b	.L132
 1080              	.LVL97:
 1081              	.L135:
 1082 0012 52F80C0C 		ldr	r0, [r2, #-12]
 1083              	.LVL98:
ARM GAS  /var/folders/km/q6jdms0143g2bddz5bhvdfd00000gn/T//ccsbzoXS.s 			page 20


 1084              	.L132:
 1085              		.loc 1 424 0 is_stmt 0 discriminator 3
 1086 0016 0160     		str	r1, [r0]
 1087              		.loc 1 425 0 is_stmt 1 discriminator 3
 1088 0018 44F83310 		str	r1, [r4, r3, lsl #3]
 1089              		.loc 1 423 0 discriminator 3
 1090 001c 0133     		adds	r3, r3, #1
 1091              	.LVL99:
 1092 001e 102B     		cmp	r3, #16
 1093 0020 02F10C02 		add	r2, r2, #12
 1094 0024 F5D1     		bne	.L135
 1095              		.loc 1 427 0
 1096 0026 0949     		ldr	r1, .L136+16
 1097              		.loc 1 429 0
 1098 0028 094A     		ldr	r2, .L136+20
 1099              		.loc 1 431 0
 1100 002a 5DF8044B 		ldr	r4, [sp], #4
 1101              		.cfi_restore 4
 1102              		.cfi_def_cfa_offset 0
 1103              		.loc 1 427 0
 1104 002e 4FF0FF33 		mov	r3, #-1
 1105              	.LVL100:
 1106 0032 8B60     		str	r3, [r1, #8]
 1107              		.loc 1 428 0
 1108 0034 CB60     		str	r3, [r1, #12]
 1109              		.loc 1 429 0
 1110 0036 9360     		str	r3, [r2, #8]
 1111              		.loc 1 430 0
 1112 0038 D360     		str	r3, [r2, #12]
 1113              		.loc 1 431 0
 1114 003a 7047     		bx	lr
 1115              	.L137:
 1116              		.align	2
 1117              	.L136:
 1118 003c 00000000 		.word	.LANCHOR1
 1119 0040 0C000000 		.word	.LANCHOR2+12
 1120 0044 10600240 		.word	1073897488
 1121 0048 00000000 		.word	.LANCHOR0
 1122 004c 00600240 		.word	1073897472
 1123 0050 00640240 		.word	1073898496
 1124              		.cfi_endproc
 1125              	.LFE272:
 1126              		.size	dmaInit, .-dmaInit
 1127              		.section	.text.dmaStreamAllocate,"ax",%progbits
 1128              		.align	1
 1129              		.p2align 4,,15
 1130              		.global	dmaStreamAllocate
 1131              		.syntax unified
 1132              		.thumb
 1133              		.thumb_func
 1134              		.fpu fpv4-sp-d16
 1135              		.type	dmaStreamAllocate, %function
 1136              	dmaStreamAllocate:
 1137              	.LFB273:
 1138              		.loc 1 460 0
 1139              		.cfi_startproc
 1140              		@ args = 0, pretend = 0, frame = 16
ARM GAS  /var/folders/km/q6jdms0143g2bddz5bhvdfd00000gn/T//ccsbzoXS.s 			page 21


 1141              		@ frame_needed = 0, uses_anonymous_args = 0
 1142              	.LVL101:
 1143 0000 F0B5     		push	{r4, r5, r6, r7, lr}
 1144              		.cfi_def_cfa_offset 20
 1145              		.cfi_offset 4, -20
 1146              		.cfi_offset 5, -16
 1147              		.cfi_offset 6, -12
 1148              		.cfi_offset 7, -8
 1149              		.cfi_offset 14, -4
 1150              		.loc 1 462 0
 1151 0002 0546     		mov	r5, r0
 1152              		.loc 1 460 0
 1153 0004 85B0     		sub	sp, sp, #20
 1154              		.cfi_def_cfa_offset 40
 1155              		.loc 1 462 0
 1156 0006 0028     		cmp	r0, #0
 1157 0008 3FD0     		beq	.L154
 1158              	.LVL102:
 1159              	.L139:
 1160              		.loc 1 465 0
 1161 000a 254C     		ldr	r4, .L156
 1162 000c 6F7A     		ldrb	r7, [r5, #9]	@ zero_extendqisi2
 1163 000e D4F800C0 		ldr	ip, [r4]
 1164 0012 0120     		movs	r0, #1
 1165 0014 00FA07F6 		lsl	r6, r0, r7
 1166 0018 16EA0C0F 		tst	r6, ip
 1167 001c 2AD1     		bne	.L140
 1168              		.loc 1 469 0
 1169 001e 2148     		ldr	r0, .L156+4
 1170              		.loc 1 471 0
 1171 0020 46EA0C06 		orr	r6, r6, ip
 1172              		.loc 1 470 0
 1173 0024 00EBC70C 		add	ip, r0, r7, lsl #3
 1174              		.loc 1 474 0
 1175 0028 16F0FF0F 		tst	r6, #255
 1176              		.loc 1 471 0
 1177 002c 2660     		str	r6, [r4]
 1178              		.loc 1 469 0
 1179 002e 40F83720 		str	r2, [r0, r7, lsl #3]
 1180              		.loc 1 470 0
 1181 0032 CCF80430 		str	r3, [ip, #4]
 1182              		.loc 1 474 0
 1183 0036 04D0     		beq	.L141
 1184              		.loc 1 475 0
 1185 0038 1B48     		ldr	r0, .L156+8
 1186 003a 036B     		ldr	r3, [r0, #48]
 1187 003c 43F40013 		orr	r3, r3, #2097152
 1188 0040 0363     		str	r3, [r0, #48]
 1189              	.L141:
 1190              		.loc 1 476 0
 1191 0042 16F47F4F 		tst	r6, #65280
 1192 0046 17D1     		bne	.L155
 1193              	.L142:
 1194              		.loc 1 480 0
 1195 0048 2868     		ldr	r0, [r5]
 1196 004a 0368     		ldr	r3, [r0]
 1197 004c 23F01F03 		bic	r3, r3, #31
ARM GAS  /var/folders/km/q6jdms0143g2bddz5bhvdfd00000gn/T//ccsbzoXS.s 			page 22


 1198 0050 0360     		str	r3, [r0]
 1199              	.L143:
 1200              		.loc 1 480 0 is_stmt 0 discriminator 2
 1201 0052 0468     		ldr	r4, [r0]
 1202 0054 14F00104 		ands	r4, r4, #1
 1203 0058 FBD1     		bne	.L143
 1204              		.loc 1 480 0 discriminator 3
 1205 005a 2F7A     		ldrb	r7, [r5, #8]	@ zero_extendqisi2
 1206 005c 6E68     		ldr	r6, [r5, #4]
 1207 005e 3D23     		movs	r3, #61
 1208 0060 BB40     		lsls	r3, r3, r7
 1209              		.loc 1 482 0 is_stmt 1 discriminator 3
 1210 0062 2127     		movs	r7, #33
 1211              		.loc 1 480 0 discriminator 3
 1212 0064 3360     		str	r3, [r6]
 1213              		.loc 1 481 0 discriminator 3
 1214 0066 0460     		str	r4, [r0]
 1215              		.loc 1 482 0 discriminator 3
 1216 0068 4761     		str	r7, [r0, #20]
 1217              		.loc 1 485 0 discriminator 3
 1218 006a 5AB1     		cbz	r2, .L145
 1219              		.loc 1 486 0
 1220 006c A87A     		ldrb	r0, [r5, #10]	@ zero_extendqisi2
 1221 006e FFF7FEFF 		bl	nvicEnableVector
 1222              	.LVL103:
 1223              		.loc 1 488 0
 1224 0072 2046     		mov	r0, r4
 1225              	.L140:
 1226              		.loc 1 489 0
 1227 0074 05B0     		add	sp, sp, #20
 1228              		.cfi_remember_state
 1229              		.cfi_def_cfa_offset 20
 1230              		@ sp needed
 1231 0076 F0BD     		pop	{r4, r5, r6, r7, pc}
 1232              	.LVL104:
 1233              	.L155:
 1234              		.cfi_restore_state
 1235              		.loc 1 477 0
 1236 0078 0B48     		ldr	r0, .L156+8
 1237 007a 036B     		ldr	r3, [r0, #48]
 1238 007c 43F48003 		orr	r3, r3, #4194304
 1239 0080 0363     		str	r3, [r0, #48]
 1240 0082 E1E7     		b	.L142
 1241              	.L145:
 1242              		.loc 1 488 0
 1243 0084 1046     		mov	r0, r2
 1244              		.loc 1 489 0
 1245 0086 05B0     		add	sp, sp, #20
 1246              		.cfi_remember_state
 1247              		.cfi_def_cfa_offset 20
 1248              		@ sp needed
 1249 0088 F0BD     		pop	{r4, r5, r6, r7, pc}
 1250              	.LVL105:
 1251              	.L154:
 1252              		.cfi_restore_state
 1253              		.loc 1 462 0 discriminator 2
 1254 008a 0848     		ldr	r0, .L156+12
ARM GAS  /var/folders/km/q6jdms0143g2bddz5bhvdfd00000gn/T//ccsbzoXS.s 			page 23


 1255              	.LVL106:
 1256 008c 0191     		str	r1, [sp, #4]
 1257 008e CDE90223 		strd	r2, r3, [sp, #8]
 1258 0092 FFF7FEFF 		bl	chSysHalt
 1259              	.LVL107:
 1260 0096 DDE90223 		ldrd	r2, r3, [sp, #8]
 1261 009a 0199     		ldr	r1, [sp, #4]
 1262 009c B5E7     		b	.L139
 1263              	.L157:
 1264 009e 00BF     		.align	2
 1265              	.L156:
 1266 00a0 00000000 		.word	.LANCHOR1
 1267 00a4 00000000 		.word	.LANCHOR0
 1268 00a8 00380240 		.word	1073887232
 1269 00ac 00000000 		.word	.LANCHOR3
 1270              		.cfi_endproc
 1271              	.LFE273:
 1272              		.size	dmaStreamAllocate, .-dmaStreamAllocate
 1273              		.section	.text.dmaStreamRelease,"ax",%progbits
 1274              		.align	1
 1275              		.p2align 4,,15
 1276              		.global	dmaStreamRelease
 1277              		.syntax unified
 1278              		.thumb
 1279              		.thumb_func
 1280              		.fpu fpv4-sp-d16
 1281              		.type	dmaStreamRelease, %function
 1282              	dmaStreamRelease:
 1283              	.LFB274:
 1284              		.loc 1 504 0
 1285              		.cfi_startproc
 1286              		@ args = 0, pretend = 0, frame = 0
 1287              		@ frame_needed = 0, uses_anonymous_args = 0
 1288              	.LVL108:
 1289 0000 38B5     		push	{r3, r4, r5, lr}
 1290              		.cfi_def_cfa_offset 16
 1291              		.cfi_offset 3, -16
 1292              		.cfi_offset 4, -12
 1293              		.cfi_offset 5, -8
 1294              		.cfi_offset 14, -4
 1295              		.loc 1 506 0
 1296 0002 0446     		mov	r4, r0
 1297 0004 28B3     		cbz	r0, .L164
 1298              	.LVL109:
 1299              	.L159:
 1300              		.loc 1 509 0 discriminator 1
 1301 0006 154D     		ldr	r5, .L166
 1302 0008 617A     		ldrb	r1, [r4, #9]	@ zero_extendqisi2
 1303 000a 2A68     		ldr	r2, [r5]
 1304 000c 0123     		movs	r3, #1
 1305 000e 8B40     		lsls	r3, r3, r1
 1306 0010 1342     		tst	r3, r2
 1307 0012 1AD0     		beq	.L165
 1308              	.L160:
 1309              		.loc 1 513 0
 1310 0014 A07A     		ldrb	r0, [r4, #10]	@ zero_extendqisi2
 1311 0016 FFF7FEFF 		bl	nvicDisableVector
ARM GAS  /var/folders/km/q6jdms0143g2bddz5bhvdfd00000gn/T//ccsbzoXS.s 			page 24


 1312              	.LVL110:
 1313              		.loc 1 516 0
 1314 001a 617A     		ldrb	r1, [r4, #9]	@ zero_extendqisi2
 1315 001c 2B68     		ldr	r3, [r5]
 1316 001e 0122     		movs	r2, #1
 1317 0020 8A40     		lsls	r2, r2, r1
 1318 0022 23EA0203 		bic	r3, r3, r2
 1319              		.loc 1 519 0
 1320 0026 13F0FF0F 		tst	r3, #255
 1321              		.loc 1 516 0
 1322 002a 2B60     		str	r3, [r5]
 1323              		.loc 1 519 0
 1324 002c 04D1     		bne	.L161
 1325              		.loc 1 520 0
 1326 002e 0C49     		ldr	r1, .L166+4
 1327 0030 0A6B     		ldr	r2, [r1, #48]
 1328 0032 22F40012 		bic	r2, r2, #2097152
 1329 0036 0A63     		str	r2, [r1, #48]
 1330              	.L161:
 1331              		.loc 1 521 0
 1332 0038 13F47F4F 		tst	r3, #65280
 1333 003c 04D1     		bne	.L158
 1334              		.loc 1 522 0
 1335 003e 084A     		ldr	r2, .L166+4
 1336 0040 136B     		ldr	r3, [r2, #48]
 1337 0042 23F48003 		bic	r3, r3, #4194304
 1338 0046 1363     		str	r3, [r2, #48]
 1339              	.L158:
 1340              		.loc 1 523 0
 1341 0048 38BD     		pop	{r3, r4, r5, pc}
 1342              	.LVL111:
 1343              	.L165:
 1344              		.loc 1 509 0 discriminator 2
 1345 004a 0648     		ldr	r0, .L166+8
 1346 004c FFF7FEFF 		bl	chSysHalt
 1347              	.LVL112:
 1348 0050 E0E7     		b	.L160
 1349              	.LVL113:
 1350              	.L164:
 1351              		.loc 1 506 0 discriminator 2
 1352 0052 0448     		ldr	r0, .L166+8
 1353              	.LVL114:
 1354 0054 FFF7FEFF 		bl	chSysHalt
 1355              	.LVL115:
 1356 0058 D5E7     		b	.L159
 1357              	.L167:
 1358 005a 00BF     		.align	2
 1359              	.L166:
 1360 005c 00000000 		.word	.LANCHOR1
 1361 0060 00380240 		.word	1073887232
 1362 0064 00000000 		.word	.LANCHOR4
 1363              		.cfi_endproc
 1364              	.LFE274:
 1365              		.size	dmaStreamRelease, .-dmaStreamRelease
 1366              		.global	_stm32_dma_streams
 1367              		.section	.bss.dma_isr_redir,"aw",%nobits
 1368              		.align	2
ARM GAS  /var/folders/km/q6jdms0143g2bddz5bhvdfd00000gn/T//ccsbzoXS.s 			page 25


 1369              		.set	.LANCHOR0,. + 0
 1370              		.type	dma_isr_redir, %object
 1371              		.size	dma_isr_redir, 128
 1372              	dma_isr_redir:
 1373 0000 00000000 		.space	128
 1373      00000000 
 1373      00000000 
 1373      00000000 
 1373      00000000 
 1374              		.section	.bss.dma_streams_mask,"aw",%nobits
 1375              		.align	2
 1376              		.set	.LANCHOR1,. + 0
 1377              		.type	dma_streams_mask, %object
 1378              		.size	dma_streams_mask, 4
 1379              	dma_streams_mask:
 1380 0000 00000000 		.space	4
 1381              		.section	.rodata.__func__.8964,"a",%progbits
 1382              		.align	2
 1383              		.set	.LANCHOR3,. + 0
 1384              		.type	__func__.8964, %object
 1385              		.size	__func__.8964, 18
 1386              	__func__.8964:
 1387 0000 646D6153 		.ascii	"dmaStreamAllocate\000"
 1387      74726561 
 1387      6D416C6C 
 1387      6F636174 
 1387      6500
 1388              		.section	.rodata.__func__.8971,"a",%progbits
 1389              		.align	2
 1390              		.set	.LANCHOR4,. + 0
 1391              		.type	__func__.8971, %object
 1392              		.size	__func__.8971, 17
 1393              	__func__.8971:
 1394 0000 646D6153 		.ascii	"dmaStreamRelease\000"
 1394      74726561 
 1394      6D52656C 
 1394      65617365 
 1394      00
 1395              		.section	.rodata._stm32_dma_streams,"a",%progbits
 1396              		.align	2
 1397              		.set	.LANCHOR2,. + 0
 1398              		.type	_stm32_dma_streams, %object
 1399              		.size	_stm32_dma_streams, 192
 1400              	_stm32_dma_streams:
 1401 0000 10600240 		.word	1073897488
 1402 0004 08600240 		.word	1073897480
 1403 0008 00       		.byte	0
 1404 0009 00       		.byte	0
 1405 000a 0B       		.byte	11
 1406 000b 00       		.space	1
 1407 000c 28600240 		.word	1073897512
 1408 0010 08600240 		.word	1073897480
 1409 0014 06       		.byte	6
 1410 0015 01       		.byte	1
 1411 0016 0C       		.byte	12
 1412 0017 00       		.space	1
 1413 0018 40600240 		.word	1073897536
ARM GAS  /var/folders/km/q6jdms0143g2bddz5bhvdfd00000gn/T//ccsbzoXS.s 			page 26


 1414 001c 08600240 		.word	1073897480
 1415 0020 10       		.byte	16
 1416 0021 02       		.byte	2
 1417 0022 0D       		.byte	13
 1418 0023 00       		.space	1
 1419 0024 58600240 		.word	1073897560
 1420 0028 08600240 		.word	1073897480
 1421 002c 16       		.byte	22
 1422 002d 03       		.byte	3
 1423 002e 0E       		.byte	14
 1424 002f 00       		.space	1
 1425 0030 70600240 		.word	1073897584
 1426 0034 0C600240 		.word	1073897484
 1427 0038 00       		.byte	0
 1428 0039 04       		.byte	4
 1429 003a 0F       		.byte	15
 1430 003b 00       		.space	1
 1431 003c 88600240 		.word	1073897608
 1432 0040 0C600240 		.word	1073897484
 1433 0044 06       		.byte	6
 1434 0045 05       		.byte	5
 1435 0046 10       		.byte	16
 1436 0047 00       		.space	1
 1437 0048 A0600240 		.word	1073897632
 1438 004c 0C600240 		.word	1073897484
 1439 0050 10       		.byte	16
 1440 0051 06       		.byte	6
 1441 0052 11       		.byte	17
 1442 0053 00       		.space	1
 1443 0054 B8600240 		.word	1073897656
 1444 0058 0C600240 		.word	1073897484
 1445 005c 16       		.byte	22
 1446 005d 07       		.byte	7
 1447 005e 2F       		.byte	47
 1448 005f 00       		.space	1
 1449 0060 10640240 		.word	1073898512
 1450 0064 08640240 		.word	1073898504
 1451 0068 00       		.byte	0
 1452 0069 08       		.byte	8
 1453 006a 38       		.byte	56
 1454 006b 00       		.space	1
 1455 006c 28640240 		.word	1073898536
 1456 0070 08640240 		.word	1073898504
 1457 0074 06       		.byte	6
 1458 0075 09       		.byte	9
 1459 0076 39       		.byte	57
 1460 0077 00       		.space	1
 1461 0078 40640240 		.word	1073898560
 1462 007c 08640240 		.word	1073898504
 1463 0080 10       		.byte	16
 1464 0081 0A       		.byte	10
 1465 0082 3A       		.byte	58
 1466 0083 00       		.space	1
 1467 0084 58640240 		.word	1073898584
 1468 0088 08640240 		.word	1073898504
 1469 008c 16       		.byte	22
 1470 008d 0B       		.byte	11
ARM GAS  /var/folders/km/q6jdms0143g2bddz5bhvdfd00000gn/T//ccsbzoXS.s 			page 27


 1471 008e 3B       		.byte	59
 1472 008f 00       		.space	1
 1473 0090 70640240 		.word	1073898608
 1474 0094 0C640240 		.word	1073898508
 1475 0098 00       		.byte	0
 1476 0099 0C       		.byte	12
 1477 009a 3C       		.byte	60
 1478 009b 00       		.space	1
 1479 009c 88640240 		.word	1073898632
 1480 00a0 0C640240 		.word	1073898508
 1481 00a4 06       		.byte	6
 1482 00a5 0D       		.byte	13
 1483 00a6 44       		.byte	68
 1484 00a7 00       		.space	1
 1485 00a8 A0640240 		.word	1073898656
 1486 00ac 0C640240 		.word	1073898508
 1487 00b0 10       		.byte	16
 1488 00b1 0E       		.byte	14
 1489 00b2 45       		.byte	69
 1490 00b3 00       		.space	1
 1491 00b4 B8640240 		.word	1073898680
 1492 00b8 0C640240 		.word	1073898508
 1493 00bc 16       		.byte	22
 1494 00bd 0F       		.byte	15
 1495 00be 46       		.byte	70
 1496 00bf 00       		.space	1
 1497              		.text
 1498              	.Letext0:
 1499              		.file 2 "/Applications/Eclipse_e-puck2.app/Contents/Eclipse_e-puck2/Tools/gcc-arm-none-eabi-7-2017
 1500              		.file 3 "/Applications/Eclipse_e-puck2.app/Contents/Eclipse_e-puck2/Tools/gcc-arm-none-eabi-7-2017
 1501              		.file 4 "/Applications/Eclipse_e-puck2.app/Contents/Eclipse_e-puck2/Tools/gcc-arm-none-eabi-7-2017
 1502              		.file 5 "../../lib/ChibiOS/os/rt/ports/ARMCMx/compilers/GCC/chtypes.h"
 1503              		.file 6 "../../lib/ChibiOS/os/rt/include/chsystypes.h"
 1504              		.file 7 "../../lib/ChibiOS/os/rt/include/chschd.h"
 1505              		.file 8 "../../lib/ChibiOS/os/ext/CMSIS/include/core_cm4.h"
 1506              		.file 9 "../../lib/ChibiOS/os/ext/CMSIS/ST/system_stm32f4xx.h"
 1507              		.file 10 "../../lib/ChibiOS/os/ext/CMSIS/ST/stm32f407xx.h"
 1508              		.file 11 "../../lib/ChibiOS/os/rt/ports/ARMCMx/chcore.h"
 1509              		.file 12 "../../lib/ChibiOS/os/rt/ports/ARMCMx/chcore_v7m.h"
 1510              		.file 13 "../../lib/ChibiOS/os/rt/include/chdebug.h"
 1511              		.file 14 "../../lib/ChibiOS/os/rt/include/chtm.h"
 1512              		.file 15 "../../lib/ChibiOS/os/rt/include/chstats.h"
 1513              		.file 16 "../../lib/ChibiOS/os/rt/include/chsem.h"
 1514              		.file 17 "../../lib/ChibiOS/os/rt/include/chmtx.h"
 1515              		.file 18 "../../lib/ChibiOS/os/rt/include/chregistry.h"
 1516              		.file 19 "../../lib/ChibiOS/os/rt/include/chevents.h"
 1517              		.file 20 "../../lib/ChibiOS/os/rt/include/chqueues.h"
 1518              		.file 21 "../../lib/ChibiOS/os/hal/ports/STM32/STM32F4xx/stm32_dma.h"
 1519              		.file 22 "../../lib/ChibiOS/os/hal/ports/STM32/LLD/GPIOv2/pal_lld.h"
 1520              		.file 23 "../../lib/ChibiOS/os/hal/include/gpt.h"
 1521              		.file 24 "../../lib/ChibiOS/os/hal/ports/STM32/LLD/TIMv1/gpt_lld.h"
 1522              		.file 25 "../../lib/ChibiOS/os/hal/ports/STM32/LLD/TIMv1/stm32_tim.h"
 1523              		.file 26 "../../lib/ChibiOS/os/hal/include/i2c.h"
 1524              		.file 27 "../../lib/ChibiOS/os/hal/ports/STM32/LLD/I2Cv1/i2c_lld.h"
 1525              		.file 28 "../../lib/ChibiOS/os/hal/include/serial.h"
 1526              		.file 29 "../../lib/ChibiOS/os/hal/ports/STM32/LLD/USARTv1/serial_lld.h"
 1527              		.file 30 "../../lib/ChibiOS/os/hal/include/usb.h"
ARM GAS  /var/folders/km/q6jdms0143g2bddz5bhvdfd00000gn/T//ccsbzoXS.s 			page 28


 1528              		.file 31 "../../lib/ChibiOS/os/hal/ports/STM32/LLD/OTGv1/usb_lld.h"
 1529              		.file 32 "../../lib/ChibiOS/os/hal/ports/STM32/LLD/OTGv1/stm32_otg.h"
 1530              		.file 33 "../../lib/ChibiOS/os/hal/ports/common/ARMCMx/nvic.h"
 1531              		.file 34 "../../lib/ChibiOS/os/rt/include/chsys.h"