
build/Chibi.elf:     file format elf32-littlearm


Disassembly of section .text:

080001c0 <Reset_Handler>:
 80001c0:	b672      	cpsid	i
 80001c2:	482e      	ldr	r0, [pc, #184]	; (800027c <endfiniloop+0x4>)
 80001c4:	f380 8809 	msr	PSP, r0
 80001c8:	f240 0000 	movw	r0, #0
 80001cc:	f2cc 0000 	movt	r0, #49152	; 0xc000
 80001d0:	f64e 7134 	movw	r1, #61236	; 0xef34
 80001d4:	f2ce 0100 	movt	r1, #57344	; 0xe000
 80001d8:	6008      	str	r0, [r1, #0]
 80001da:	f240 0000 	movw	r0, #0
 80001de:	f2c0 00f0 	movt	r0, #240	; 0xf0
 80001e2:	f64e 5188 	movw	r1, #60808	; 0xed88
 80001e6:	f2ce 0100 	movt	r1, #57344	; 0xe000
 80001ea:	6008      	str	r0, [r1, #0]
 80001ec:	f04f 0000 	mov.w	r0, #0
 80001f0:	eee1 0a10 	vmsr	fpscr, r0
 80001f4:	f64e 713c 	movw	r1, #61244	; 0xef3c
 80001f8:	f2ce 0100 	movt	r1, #57344	; 0xe000
 80001fc:	6008      	str	r0, [r1, #0]
 80001fe:	2006      	movs	r0, #6
 8000200:	f380 8814 	msr	CONTROL, r0
 8000204:	f3bf 8f6f 	isb	sy
 8000208:	f004 fd72 	bl	8004cf0 <__early_init>
 800020c:	f04f 3055 	mov.w	r0, #1431655765	; 0x55555555
 8000210:	491b      	ldr	r1, [pc, #108]	; (8000280 <endfiniloop+0x8>)
 8000212:	4a1c      	ldr	r2, [pc, #112]	; (8000284 <endfiniloop+0xc>)

08000214 <msloop>:
 8000214:	4291      	cmp	r1, r2
 8000216:	bf3c      	itt	cc
 8000218:	f841 0b04 	strcc.w	r0, [r1], #4
 800021c:	e7fa      	bcc.n	8000214 <msloop>
 800021e:	491a      	ldr	r1, [pc, #104]	; (8000288 <endfiniloop+0x10>)
 8000220:	4a16      	ldr	r2, [pc, #88]	; (800027c <endfiniloop+0x4>)

08000222 <psloop>:
 8000222:	4291      	cmp	r1, r2
 8000224:	bf3c      	itt	cc
 8000226:	f841 0b04 	strcc.w	r0, [r1], #4
 800022a:	e7fa      	bcc.n	8000222 <psloop>
 800022c:	4917      	ldr	r1, [pc, #92]	; (800028c <endfiniloop+0x14>)
 800022e:	4a18      	ldr	r2, [pc, #96]	; (8000290 <endfiniloop+0x18>)
 8000230:	4b18      	ldr	r3, [pc, #96]	; (8000294 <endfiniloop+0x1c>)

08000232 <dloop>:
 8000232:	429a      	cmp	r2, r3
 8000234:	bf3e      	ittt	cc
 8000236:	f851 0b04 	ldrcc.w	r0, [r1], #4
 800023a:	f842 0b04 	strcc.w	r0, [r2], #4
 800023e:	e7f8      	bcc.n	8000232 <dloop>
 8000240:	2000      	movs	r0, #0
 8000242:	4915      	ldr	r1, [pc, #84]	; (8000298 <endfiniloop+0x20>)
 8000244:	4a15      	ldr	r2, [pc, #84]	; (800029c <endfiniloop+0x24>)

08000246 <bloop>:
 8000246:	4291      	cmp	r1, r2
 8000248:	bf3c      	itt	cc
 800024a:	f841 0b04 	strcc.w	r0, [r1], #4
 800024e:	e7fa      	bcc.n	8000246 <bloop>
 8000250:	f000 feb6 	bl	8000fc0 <__late_init>
 8000254:	4c12      	ldr	r4, [pc, #72]	; (80002a0 <endfiniloop+0x28>)
 8000256:	4d13      	ldr	r5, [pc, #76]	; (80002a4 <endfiniloop+0x2c>)

08000258 <initloop>:
 8000258:	42ac      	cmp	r4, r5
 800025a:	da03      	bge.n	8000264 <endinitloop>
 800025c:	f854 1b04 	ldr.w	r1, [r4], #4
 8000260:	4788      	blx	r1
 8000262:	e7f9      	b.n	8000258 <initloop>

08000264 <endinitloop>:
 8000264:	f005 fa84 	bl	8005770 <main>
 8000268:	4c0f      	ldr	r4, [pc, #60]	; (80002a8 <endfiniloop+0x30>)
 800026a:	4d10      	ldr	r5, [pc, #64]	; (80002ac <endfiniloop+0x34>)

0800026c <finiloop>:
 800026c:	42ac      	cmp	r4, r5
 800026e:	da03      	bge.n	8000278 <endfiniloop>
 8000270:	f854 1b04 	ldr.w	r1, [r4], #4
 8000274:	4788      	blx	r1
 8000276:	e7f9      	b.n	800026c <finiloop>

08000278 <endfiniloop>:
 8000278:	f000 beaa 	b.w	8000fd0 <__default_exit>
 800027c:	20000800 	.word	0x20000800
 8000280:	20000000 	.word	0x20000000
 8000284:	20000400 	.word	0x20000400
 8000288:	20000400 	.word	0x20000400
 800028c:	08006760 	.word	0x08006760
 8000290:	20000800 	.word	0x20000800
 8000294:	2000082c 	.word	0x2000082c
 8000298:	20000830 	.word	0x20000830
 800029c:	20001878 	.word	0x20001878
 80002a0:	080001c0 	.word	0x080001c0
 80002a4:	080001c0 	.word	0x080001c0
 80002a8:	080001c0 	.word	0x080001c0
 80002ac:	080001c0 	.word	0x080001c0

080002b0 <_port_switch>:
 80002b0:	e92d 4ff0 	stmdb	sp!, {r4, r5, r6, r7, r8, r9, sl, fp, lr}
 80002b4:	ed2d 8a10 	vpush	{s16-s31}
 80002b8:	f8c1 d00c 	str.w	sp, [r1, #12]
 80002bc:	f8d0 d00c 	ldr.w	sp, [r0, #12]
 80002c0:	ecbd 8a10 	vpop	{s16-s31}
 80002c4:	e8bd 8ff0 	ldmia.w	sp!, {r4, r5, r6, r7, r8, r9, sl, fp, pc}

080002c8 <_port_thread_start>:
 80002c8:	f000 ff7a 	bl	80011c0 <_dbg_check_unlock>
 80002cc:	f001 fcc8 	bl	8001c60 <_stats_stop_measure_crit_thd>
 80002d0:	2300      	movs	r3, #0
 80002d2:	f383 8811 	msr	BASEPRI, r3
 80002d6:	4628      	mov	r0, r5
 80002d8:	47a0      	blx	r4
 80002da:	2000      	movs	r0, #0
 80002dc:	f001 fb80 	bl	80019e0 <chThdExit>

080002e0 <_port_switch_from_isr>:
 80002e0:	f001 fcb6 	bl	8001c50 <_stats_start_measure_crit_thd>
 80002e4:	f000 ff5c 	bl	80011a0 <_dbg_check_lock>
 80002e8:	f001 fa2a 	bl	8001740 <chSchDoReschedule>
 80002ec:	f000 ff68 	bl	80011c0 <_dbg_check_unlock>
 80002f0:	f001 fcb6 	bl	8001c60 <_stats_stop_measure_crit_thd>

080002f4 <_port_exit_from_isr>:
 80002f4:	df00      	svc	0
 80002f6:	e7fe      	b.n	80002f6 <_port_exit_from_isr+0x2>
	...

08000300 <__aeabi_drsub>:
 8000300:	f081 4100 	eor.w	r1, r1, #2147483648	; 0x80000000
 8000304:	e002      	b.n	800030c <__adddf3>
 8000306:	bf00      	nop

08000308 <__aeabi_dsub>:
 8000308:	f083 4300 	eor.w	r3, r3, #2147483648	; 0x80000000

0800030c <__adddf3>:
 800030c:	b530      	push	{r4, r5, lr}
 800030e:	ea4f 0441 	mov.w	r4, r1, lsl #1
 8000312:	ea4f 0543 	mov.w	r5, r3, lsl #1
 8000316:	ea94 0f05 	teq	r4, r5
 800031a:	bf08      	it	eq
 800031c:	ea90 0f02 	teqeq	r0, r2
 8000320:	bf1f      	itttt	ne
 8000322:	ea54 0c00 	orrsne.w	ip, r4, r0
 8000326:	ea55 0c02 	orrsne.w	ip, r5, r2
 800032a:	ea7f 5c64 	mvnsne.w	ip, r4, asr #21
 800032e:	ea7f 5c65 	mvnsne.w	ip, r5, asr #21
 8000332:	f000 80e2 	beq.w	80004fa <__adddf3+0x1ee>
 8000336:	ea4f 5454 	mov.w	r4, r4, lsr #21
 800033a:	ebd4 5555 	rsbs	r5, r4, r5, lsr #21
 800033e:	bfb8      	it	lt
 8000340:	426d      	neglt	r5, r5
 8000342:	dd0c      	ble.n	800035e <__adddf3+0x52>
 8000344:	442c      	add	r4, r5
 8000346:	ea80 0202 	eor.w	r2, r0, r2
 800034a:	ea81 0303 	eor.w	r3, r1, r3
 800034e:	ea82 0000 	eor.w	r0, r2, r0
 8000352:	ea83 0101 	eor.w	r1, r3, r1
 8000356:	ea80 0202 	eor.w	r2, r0, r2
 800035a:	ea81 0303 	eor.w	r3, r1, r3
 800035e:	2d36      	cmp	r5, #54	; 0x36
 8000360:	bf88      	it	hi
 8000362:	bd30      	pophi	{r4, r5, pc}
 8000364:	f011 4f00 	tst.w	r1, #2147483648	; 0x80000000
 8000368:	ea4f 3101 	mov.w	r1, r1, lsl #12
 800036c:	f44f 1c80 	mov.w	ip, #1048576	; 0x100000
 8000370:	ea4c 3111 	orr.w	r1, ip, r1, lsr #12
 8000374:	d002      	beq.n	800037c <__adddf3+0x70>
 8000376:	4240      	negs	r0, r0
 8000378:	eb61 0141 	sbc.w	r1, r1, r1, lsl #1
 800037c:	f013 4f00 	tst.w	r3, #2147483648	; 0x80000000
 8000380:	ea4f 3303 	mov.w	r3, r3, lsl #12
 8000384:	ea4c 3313 	orr.w	r3, ip, r3, lsr #12
 8000388:	d002      	beq.n	8000390 <__adddf3+0x84>
 800038a:	4252      	negs	r2, r2
 800038c:	eb63 0343 	sbc.w	r3, r3, r3, lsl #1
 8000390:	ea94 0f05 	teq	r4, r5
 8000394:	f000 80a7 	beq.w	80004e6 <__adddf3+0x1da>
 8000398:	f1a4 0401 	sub.w	r4, r4, #1
 800039c:	f1d5 0e20 	rsbs	lr, r5, #32
 80003a0:	db0d      	blt.n	80003be <__adddf3+0xb2>
 80003a2:	fa02 fc0e 	lsl.w	ip, r2, lr
 80003a6:	fa22 f205 	lsr.w	r2, r2, r5
 80003aa:	1880      	adds	r0, r0, r2
 80003ac:	f141 0100 	adc.w	r1, r1, #0
 80003b0:	fa03 f20e 	lsl.w	r2, r3, lr
 80003b4:	1880      	adds	r0, r0, r2
 80003b6:	fa43 f305 	asr.w	r3, r3, r5
 80003ba:	4159      	adcs	r1, r3
 80003bc:	e00e      	b.n	80003dc <__adddf3+0xd0>
 80003be:	f1a5 0520 	sub.w	r5, r5, #32
 80003c2:	f10e 0e20 	add.w	lr, lr, #32
 80003c6:	2a01      	cmp	r2, #1
 80003c8:	fa03 fc0e 	lsl.w	ip, r3, lr
 80003cc:	bf28      	it	cs
 80003ce:	f04c 0c02 	orrcs.w	ip, ip, #2
 80003d2:	fa43 f305 	asr.w	r3, r3, r5
 80003d6:	18c0      	adds	r0, r0, r3
 80003d8:	eb51 71e3 	adcs.w	r1, r1, r3, asr #31
 80003dc:	f001 4500 	and.w	r5, r1, #2147483648	; 0x80000000
 80003e0:	d507      	bpl.n	80003f2 <__adddf3+0xe6>
 80003e2:	f04f 0e00 	mov.w	lr, #0
 80003e6:	f1dc 0c00 	rsbs	ip, ip, #0
 80003ea:	eb7e 0000 	sbcs.w	r0, lr, r0
 80003ee:	eb6e 0101 	sbc.w	r1, lr, r1
 80003f2:	f5b1 1f80 	cmp.w	r1, #1048576	; 0x100000
 80003f6:	d31b      	bcc.n	8000430 <__adddf3+0x124>
 80003f8:	f5b1 1f00 	cmp.w	r1, #2097152	; 0x200000
 80003fc:	d30c      	bcc.n	8000418 <__adddf3+0x10c>
 80003fe:	0849      	lsrs	r1, r1, #1
 8000400:	ea5f 0030 	movs.w	r0, r0, rrx
 8000404:	ea4f 0c3c 	mov.w	ip, ip, rrx
 8000408:	f104 0401 	add.w	r4, r4, #1
 800040c:	ea4f 5244 	mov.w	r2, r4, lsl #21
 8000410:	f512 0f80 	cmn.w	r2, #4194304	; 0x400000
 8000414:	f080 809a 	bcs.w	800054c <__adddf3+0x240>
 8000418:	f1bc 4f00 	cmp.w	ip, #2147483648	; 0x80000000
 800041c:	bf08      	it	eq
 800041e:	ea5f 0c50 	movseq.w	ip, r0, lsr #1
 8000422:	f150 0000 	adcs.w	r0, r0, #0
 8000426:	eb41 5104 	adc.w	r1, r1, r4, lsl #20
 800042a:	ea41 0105 	orr.w	r1, r1, r5
 800042e:	bd30      	pop	{r4, r5, pc}
 8000430:	ea5f 0c4c 	movs.w	ip, ip, lsl #1
 8000434:	4140      	adcs	r0, r0
 8000436:	eb41 0101 	adc.w	r1, r1, r1
 800043a:	f411 1f80 	tst.w	r1, #1048576	; 0x100000
 800043e:	f1a4 0401 	sub.w	r4, r4, #1
 8000442:	d1e9      	bne.n	8000418 <__adddf3+0x10c>
 8000444:	f091 0f00 	teq	r1, #0
 8000448:	bf04      	itt	eq
 800044a:	4601      	moveq	r1, r0
 800044c:	2000      	moveq	r0, #0
 800044e:	fab1 f381 	clz	r3, r1
 8000452:	bf08      	it	eq
 8000454:	3320      	addeq	r3, #32
 8000456:	f1a3 030b 	sub.w	r3, r3, #11
 800045a:	f1b3 0220 	subs.w	r2, r3, #32
 800045e:	da0c      	bge.n	800047a <__adddf3+0x16e>
 8000460:	320c      	adds	r2, #12
 8000462:	dd08      	ble.n	8000476 <__adddf3+0x16a>
 8000464:	f102 0c14 	add.w	ip, r2, #20
 8000468:	f1c2 020c 	rsb	r2, r2, #12
 800046c:	fa01 f00c 	lsl.w	r0, r1, ip
 8000470:	fa21 f102 	lsr.w	r1, r1, r2
 8000474:	e00c      	b.n	8000490 <__adddf3+0x184>
 8000476:	f102 0214 	add.w	r2, r2, #20
 800047a:	bfd8      	it	le
 800047c:	f1c2 0c20 	rsble	ip, r2, #32
 8000480:	fa01 f102 	lsl.w	r1, r1, r2
 8000484:	fa20 fc0c 	lsr.w	ip, r0, ip
 8000488:	bfdc      	itt	le
 800048a:	ea41 010c 	orrle.w	r1, r1, ip
 800048e:	4090      	lslle	r0, r2
 8000490:	1ae4      	subs	r4, r4, r3
 8000492:	bfa2      	ittt	ge
 8000494:	eb01 5104 	addge.w	r1, r1, r4, lsl #20
 8000498:	4329      	orrge	r1, r5
 800049a:	bd30      	popge	{r4, r5, pc}
 800049c:	ea6f 0404 	mvn.w	r4, r4
 80004a0:	3c1f      	subs	r4, #31
 80004a2:	da1c      	bge.n	80004de <__adddf3+0x1d2>
 80004a4:	340c      	adds	r4, #12
 80004a6:	dc0e      	bgt.n	80004c6 <__adddf3+0x1ba>
 80004a8:	f104 0414 	add.w	r4, r4, #20
 80004ac:	f1c4 0220 	rsb	r2, r4, #32
 80004b0:	fa20 f004 	lsr.w	r0, r0, r4
 80004b4:	fa01 f302 	lsl.w	r3, r1, r2
 80004b8:	ea40 0003 	orr.w	r0, r0, r3
 80004bc:	fa21 f304 	lsr.w	r3, r1, r4
 80004c0:	ea45 0103 	orr.w	r1, r5, r3
 80004c4:	bd30      	pop	{r4, r5, pc}
 80004c6:	f1c4 040c 	rsb	r4, r4, #12
 80004ca:	f1c4 0220 	rsb	r2, r4, #32
 80004ce:	fa20 f002 	lsr.w	r0, r0, r2
 80004d2:	fa01 f304 	lsl.w	r3, r1, r4
 80004d6:	ea40 0003 	orr.w	r0, r0, r3
 80004da:	4629      	mov	r1, r5
 80004dc:	bd30      	pop	{r4, r5, pc}
 80004de:	fa21 f004 	lsr.w	r0, r1, r4
 80004e2:	4629      	mov	r1, r5
 80004e4:	bd30      	pop	{r4, r5, pc}
 80004e6:	f094 0f00 	teq	r4, #0
 80004ea:	f483 1380 	eor.w	r3, r3, #1048576	; 0x100000
 80004ee:	bf06      	itte	eq
 80004f0:	f481 1180 	eoreq.w	r1, r1, #1048576	; 0x100000
 80004f4:	3401      	addeq	r4, #1
 80004f6:	3d01      	subne	r5, #1
 80004f8:	e74e      	b.n	8000398 <__adddf3+0x8c>
 80004fa:	ea7f 5c64 	mvns.w	ip, r4, asr #21
 80004fe:	bf18      	it	ne
 8000500:	ea7f 5c65 	mvnsne.w	ip, r5, asr #21
 8000504:	d029      	beq.n	800055a <__adddf3+0x24e>
 8000506:	ea94 0f05 	teq	r4, r5
 800050a:	bf08      	it	eq
 800050c:	ea90 0f02 	teqeq	r0, r2
 8000510:	d005      	beq.n	800051e <__adddf3+0x212>
 8000512:	ea54 0c00 	orrs.w	ip, r4, r0
 8000516:	bf04      	itt	eq
 8000518:	4619      	moveq	r1, r3
 800051a:	4610      	moveq	r0, r2
 800051c:	bd30      	pop	{r4, r5, pc}
 800051e:	ea91 0f03 	teq	r1, r3
 8000522:	bf1e      	ittt	ne
 8000524:	2100      	movne	r1, #0
 8000526:	2000      	movne	r0, #0
 8000528:	bd30      	popne	{r4, r5, pc}
 800052a:	ea5f 5c54 	movs.w	ip, r4, lsr #21
 800052e:	d105      	bne.n	800053c <__adddf3+0x230>
 8000530:	0040      	lsls	r0, r0, #1
 8000532:	4149      	adcs	r1, r1
 8000534:	bf28      	it	cs
 8000536:	f041 4100 	orrcs.w	r1, r1, #2147483648	; 0x80000000
 800053a:	bd30      	pop	{r4, r5, pc}
 800053c:	f514 0480 	adds.w	r4, r4, #4194304	; 0x400000
 8000540:	bf3c      	itt	cc
 8000542:	f501 1180 	addcc.w	r1, r1, #1048576	; 0x100000
 8000546:	bd30      	popcc	{r4, r5, pc}
 8000548:	f001 4500 	and.w	r5, r1, #2147483648	; 0x80000000
 800054c:	f045 41fe 	orr.w	r1, r5, #2130706432	; 0x7f000000
 8000550:	f441 0170 	orr.w	r1, r1, #15728640	; 0xf00000
 8000554:	f04f 0000 	mov.w	r0, #0
 8000558:	bd30      	pop	{r4, r5, pc}
 800055a:	ea7f 5c64 	mvns.w	ip, r4, asr #21
 800055e:	bf1a      	itte	ne
 8000560:	4619      	movne	r1, r3
 8000562:	4610      	movne	r0, r2
 8000564:	ea7f 5c65 	mvnseq.w	ip, r5, asr #21
 8000568:	bf1c      	itt	ne
 800056a:	460b      	movne	r3, r1
 800056c:	4602      	movne	r2, r0
 800056e:	ea50 3401 	orrs.w	r4, r0, r1, lsl #12
 8000572:	bf06      	itte	eq
 8000574:	ea52 3503 	orrseq.w	r5, r2, r3, lsl #12
 8000578:	ea91 0f03 	teqeq	r1, r3
 800057c:	f441 2100 	orrne.w	r1, r1, #524288	; 0x80000
 8000580:	bd30      	pop	{r4, r5, pc}
 8000582:	bf00      	nop

08000584 <__aeabi_ui2d>:
 8000584:	f090 0f00 	teq	r0, #0
 8000588:	bf04      	itt	eq
 800058a:	2100      	moveq	r1, #0
 800058c:	4770      	bxeq	lr
 800058e:	b530      	push	{r4, r5, lr}
 8000590:	f44f 6480 	mov.w	r4, #1024	; 0x400
 8000594:	f104 0432 	add.w	r4, r4, #50	; 0x32
 8000598:	f04f 0500 	mov.w	r5, #0
 800059c:	f04f 0100 	mov.w	r1, #0
 80005a0:	e750      	b.n	8000444 <__adddf3+0x138>
 80005a2:	bf00      	nop

080005a4 <__aeabi_i2d>:
 80005a4:	f090 0f00 	teq	r0, #0
 80005a8:	bf04      	itt	eq
 80005aa:	2100      	moveq	r1, #0
 80005ac:	4770      	bxeq	lr
 80005ae:	b530      	push	{r4, r5, lr}
 80005b0:	f44f 6480 	mov.w	r4, #1024	; 0x400
 80005b4:	f104 0432 	add.w	r4, r4, #50	; 0x32
 80005b8:	f010 4500 	ands.w	r5, r0, #2147483648	; 0x80000000
 80005bc:	bf48      	it	mi
 80005be:	4240      	negmi	r0, r0
 80005c0:	f04f 0100 	mov.w	r1, #0
 80005c4:	e73e      	b.n	8000444 <__adddf3+0x138>
 80005c6:	bf00      	nop

080005c8 <__aeabi_f2d>:
 80005c8:	0042      	lsls	r2, r0, #1
 80005ca:	ea4f 01e2 	mov.w	r1, r2, asr #3
 80005ce:	ea4f 0131 	mov.w	r1, r1, rrx
 80005d2:	ea4f 7002 	mov.w	r0, r2, lsl #28
 80005d6:	bf1f      	itttt	ne
 80005d8:	f012 437f 	andsne.w	r3, r2, #4278190080	; 0xff000000
 80005dc:	f093 4f7f 	teqne	r3, #4278190080	; 0xff000000
 80005e0:	f081 5160 	eorne.w	r1, r1, #939524096	; 0x38000000
 80005e4:	4770      	bxne	lr
 80005e6:	f032 427f 	bics.w	r2, r2, #4278190080	; 0xff000000
 80005ea:	bf08      	it	eq
 80005ec:	4770      	bxeq	lr
 80005ee:	f093 4f7f 	teq	r3, #4278190080	; 0xff000000
 80005f2:	bf04      	itt	eq
 80005f4:	f441 2100 	orreq.w	r1, r1, #524288	; 0x80000
 80005f8:	4770      	bxeq	lr
 80005fa:	b530      	push	{r4, r5, lr}
 80005fc:	f44f 7460 	mov.w	r4, #896	; 0x380
 8000600:	f001 4500 	and.w	r5, r1, #2147483648	; 0x80000000
 8000604:	f021 4100 	bic.w	r1, r1, #2147483648	; 0x80000000
 8000608:	e71c      	b.n	8000444 <__adddf3+0x138>
 800060a:	bf00      	nop

0800060c <__aeabi_ul2d>:
 800060c:	ea50 0201 	orrs.w	r2, r0, r1
 8000610:	bf08      	it	eq
 8000612:	4770      	bxeq	lr
 8000614:	b530      	push	{r4, r5, lr}
 8000616:	f04f 0500 	mov.w	r5, #0
 800061a:	e00a      	b.n	8000632 <__aeabi_l2d+0x16>

0800061c <__aeabi_l2d>:
 800061c:	ea50 0201 	orrs.w	r2, r0, r1
 8000620:	bf08      	it	eq
 8000622:	4770      	bxeq	lr
 8000624:	b530      	push	{r4, r5, lr}
 8000626:	f011 4500 	ands.w	r5, r1, #2147483648	; 0x80000000
 800062a:	d502      	bpl.n	8000632 <__aeabi_l2d+0x16>
 800062c:	4240      	negs	r0, r0
 800062e:	eb61 0141 	sbc.w	r1, r1, r1, lsl #1
 8000632:	f44f 6480 	mov.w	r4, #1024	; 0x400
 8000636:	f104 0432 	add.w	r4, r4, #50	; 0x32
 800063a:	ea5f 5c91 	movs.w	ip, r1, lsr #22
 800063e:	f43f aed8 	beq.w	80003f2 <__adddf3+0xe6>
 8000642:	f04f 0203 	mov.w	r2, #3
 8000646:	ea5f 0cdc 	movs.w	ip, ip, lsr #3
 800064a:	bf18      	it	ne
 800064c:	3203      	addne	r2, #3
 800064e:	ea5f 0cdc 	movs.w	ip, ip, lsr #3
 8000652:	bf18      	it	ne
 8000654:	3203      	addne	r2, #3
 8000656:	eb02 02dc 	add.w	r2, r2, ip, lsr #3
 800065a:	f1c2 0320 	rsb	r3, r2, #32
 800065e:	fa00 fc03 	lsl.w	ip, r0, r3
 8000662:	fa20 f002 	lsr.w	r0, r0, r2
 8000666:	fa01 fe03 	lsl.w	lr, r1, r3
 800066a:	ea40 000e 	orr.w	r0, r0, lr
 800066e:	fa21 f102 	lsr.w	r1, r1, r2
 8000672:	4414      	add	r4, r2
 8000674:	e6bd      	b.n	80003f2 <__adddf3+0xe6>
 8000676:	bf00      	nop
	...

08000680 <__aeabi_dmul>:
 8000680:	b570      	push	{r4, r5, r6, lr}
 8000682:	f04f 0cff 	mov.w	ip, #255	; 0xff
 8000686:	f44c 6ce0 	orr.w	ip, ip, #1792	; 0x700
 800068a:	ea1c 5411 	ands.w	r4, ip, r1, lsr #20
 800068e:	bf1d      	ittte	ne
 8000690:	ea1c 5513 	andsne.w	r5, ip, r3, lsr #20
 8000694:	ea94 0f0c 	teqne	r4, ip
 8000698:	ea95 0f0c 	teqne	r5, ip
 800069c:	f000 f8de 	bleq	800085c <__aeabi_dmul+0x1dc>
 80006a0:	442c      	add	r4, r5
 80006a2:	ea81 0603 	eor.w	r6, r1, r3
 80006a6:	ea21 514c 	bic.w	r1, r1, ip, lsl #21
 80006aa:	ea23 534c 	bic.w	r3, r3, ip, lsl #21
 80006ae:	ea50 3501 	orrs.w	r5, r0, r1, lsl #12
 80006b2:	bf18      	it	ne
 80006b4:	ea52 3503 	orrsne.w	r5, r2, r3, lsl #12
 80006b8:	f441 1180 	orr.w	r1, r1, #1048576	; 0x100000
 80006bc:	f443 1380 	orr.w	r3, r3, #1048576	; 0x100000
 80006c0:	d038      	beq.n	8000734 <__aeabi_dmul+0xb4>
 80006c2:	fba0 ce02 	umull	ip, lr, r0, r2
 80006c6:	f04f 0500 	mov.w	r5, #0
 80006ca:	fbe1 e502 	umlal	lr, r5, r1, r2
 80006ce:	f006 4200 	and.w	r2, r6, #2147483648	; 0x80000000
 80006d2:	fbe0 e503 	umlal	lr, r5, r0, r3
 80006d6:	f04f 0600 	mov.w	r6, #0
 80006da:	fbe1 5603 	umlal	r5, r6, r1, r3
 80006de:	f09c 0f00 	teq	ip, #0
 80006e2:	bf18      	it	ne
 80006e4:	f04e 0e01 	orrne.w	lr, lr, #1
 80006e8:	f1a4 04ff 	sub.w	r4, r4, #255	; 0xff
 80006ec:	f5b6 7f00 	cmp.w	r6, #512	; 0x200
 80006f0:	f564 7440 	sbc.w	r4, r4, #768	; 0x300
 80006f4:	d204      	bcs.n	8000700 <__aeabi_dmul+0x80>
 80006f6:	ea5f 0e4e 	movs.w	lr, lr, lsl #1
 80006fa:	416d      	adcs	r5, r5
 80006fc:	eb46 0606 	adc.w	r6, r6, r6
 8000700:	ea42 21c6 	orr.w	r1, r2, r6, lsl #11
 8000704:	ea41 5155 	orr.w	r1, r1, r5, lsr #21
 8000708:	ea4f 20c5 	mov.w	r0, r5, lsl #11
 800070c:	ea40 505e 	orr.w	r0, r0, lr, lsr #21
 8000710:	ea4f 2ece 	mov.w	lr, lr, lsl #11
 8000714:	f1b4 0cfd 	subs.w	ip, r4, #253	; 0xfd
 8000718:	bf88      	it	hi
 800071a:	f5bc 6fe0 	cmphi.w	ip, #1792	; 0x700
 800071e:	d81e      	bhi.n	800075e <__aeabi_dmul+0xde>
 8000720:	f1be 4f00 	cmp.w	lr, #2147483648	; 0x80000000
 8000724:	bf08      	it	eq
 8000726:	ea5f 0e50 	movseq.w	lr, r0, lsr #1
 800072a:	f150 0000 	adcs.w	r0, r0, #0
 800072e:	eb41 5104 	adc.w	r1, r1, r4, lsl #20
 8000732:	bd70      	pop	{r4, r5, r6, pc}
 8000734:	f006 4600 	and.w	r6, r6, #2147483648	; 0x80000000
 8000738:	ea46 0101 	orr.w	r1, r6, r1
 800073c:	ea40 0002 	orr.w	r0, r0, r2
 8000740:	ea81 0103 	eor.w	r1, r1, r3
 8000744:	ebb4 045c 	subs.w	r4, r4, ip, lsr #1
 8000748:	bfc2      	ittt	gt
 800074a:	ebd4 050c 	rsbsgt	r5, r4, ip
 800074e:	ea41 5104 	orrgt.w	r1, r1, r4, lsl #20
 8000752:	bd70      	popgt	{r4, r5, r6, pc}
 8000754:	f441 1180 	orr.w	r1, r1, #1048576	; 0x100000
 8000758:	f04f 0e00 	mov.w	lr, #0
 800075c:	3c01      	subs	r4, #1
 800075e:	f300 80ab 	bgt.w	80008b8 <__aeabi_dmul+0x238>
 8000762:	f114 0f36 	cmn.w	r4, #54	; 0x36
 8000766:	bfde      	ittt	le
 8000768:	2000      	movle	r0, #0
 800076a:	f001 4100 	andle.w	r1, r1, #2147483648	; 0x80000000
 800076e:	bd70      	pople	{r4, r5, r6, pc}
 8000770:	f1c4 0400 	rsb	r4, r4, #0
 8000774:	3c20      	subs	r4, #32
 8000776:	da35      	bge.n	80007e4 <__aeabi_dmul+0x164>
 8000778:	340c      	adds	r4, #12
 800077a:	dc1b      	bgt.n	80007b4 <__aeabi_dmul+0x134>
 800077c:	f104 0414 	add.w	r4, r4, #20
 8000780:	f1c4 0520 	rsb	r5, r4, #32
 8000784:	fa00 f305 	lsl.w	r3, r0, r5
 8000788:	fa20 f004 	lsr.w	r0, r0, r4
 800078c:	fa01 f205 	lsl.w	r2, r1, r5
 8000790:	ea40 0002 	orr.w	r0, r0, r2
 8000794:	f001 4200 	and.w	r2, r1, #2147483648	; 0x80000000
 8000798:	f021 4100 	bic.w	r1, r1, #2147483648	; 0x80000000
 800079c:	eb10 70d3 	adds.w	r0, r0, r3, lsr #31
 80007a0:	fa21 f604 	lsr.w	r6, r1, r4
 80007a4:	eb42 0106 	adc.w	r1, r2, r6
 80007a8:	ea5e 0e43 	orrs.w	lr, lr, r3, lsl #1
 80007ac:	bf08      	it	eq
 80007ae:	ea20 70d3 	biceq.w	r0, r0, r3, lsr #31
 80007b2:	bd70      	pop	{r4, r5, r6, pc}
 80007b4:	f1c4 040c 	rsb	r4, r4, #12
 80007b8:	f1c4 0520 	rsb	r5, r4, #32
 80007bc:	fa00 f304 	lsl.w	r3, r0, r4
 80007c0:	fa20 f005 	lsr.w	r0, r0, r5
 80007c4:	fa01 f204 	lsl.w	r2, r1, r4
 80007c8:	ea40 0002 	orr.w	r0, r0, r2
 80007cc:	f001 4100 	and.w	r1, r1, #2147483648	; 0x80000000
 80007d0:	eb10 70d3 	adds.w	r0, r0, r3, lsr #31
 80007d4:	f141 0100 	adc.w	r1, r1, #0
 80007d8:	ea5e 0e43 	orrs.w	lr, lr, r3, lsl #1
 80007dc:	bf08      	it	eq
 80007de:	ea20 70d3 	biceq.w	r0, r0, r3, lsr #31
 80007e2:	bd70      	pop	{r4, r5, r6, pc}
 80007e4:	f1c4 0520 	rsb	r5, r4, #32
 80007e8:	fa00 f205 	lsl.w	r2, r0, r5
 80007ec:	ea4e 0e02 	orr.w	lr, lr, r2
 80007f0:	fa20 f304 	lsr.w	r3, r0, r4
 80007f4:	fa01 f205 	lsl.w	r2, r1, r5
 80007f8:	ea43 0302 	orr.w	r3, r3, r2
 80007fc:	fa21 f004 	lsr.w	r0, r1, r4
 8000800:	f001 4100 	and.w	r1, r1, #2147483648	; 0x80000000
 8000804:	fa21 f204 	lsr.w	r2, r1, r4
 8000808:	ea20 0002 	bic.w	r0, r0, r2
 800080c:	eb00 70d3 	add.w	r0, r0, r3, lsr #31
 8000810:	ea5e 0e43 	orrs.w	lr, lr, r3, lsl #1
 8000814:	bf08      	it	eq
 8000816:	ea20 70d3 	biceq.w	r0, r0, r3, lsr #31
 800081a:	bd70      	pop	{r4, r5, r6, pc}
 800081c:	f094 0f00 	teq	r4, #0
 8000820:	d10f      	bne.n	8000842 <__aeabi_dmul+0x1c2>
 8000822:	f001 4600 	and.w	r6, r1, #2147483648	; 0x80000000
 8000826:	0040      	lsls	r0, r0, #1
 8000828:	eb41 0101 	adc.w	r1, r1, r1
 800082c:	f411 1f80 	tst.w	r1, #1048576	; 0x100000
 8000830:	bf08      	it	eq
 8000832:	3c01      	subeq	r4, #1
 8000834:	d0f7      	beq.n	8000826 <__aeabi_dmul+0x1a6>
 8000836:	ea41 0106 	orr.w	r1, r1, r6
 800083a:	f095 0f00 	teq	r5, #0
 800083e:	bf18      	it	ne
 8000840:	4770      	bxne	lr
 8000842:	f003 4600 	and.w	r6, r3, #2147483648	; 0x80000000
 8000846:	0052      	lsls	r2, r2, #1
 8000848:	eb43 0303 	adc.w	r3, r3, r3
 800084c:	f413 1f80 	tst.w	r3, #1048576	; 0x100000
 8000850:	bf08      	it	eq
 8000852:	3d01      	subeq	r5, #1
 8000854:	d0f7      	beq.n	8000846 <__aeabi_dmul+0x1c6>
 8000856:	ea43 0306 	orr.w	r3, r3, r6
 800085a:	4770      	bx	lr
 800085c:	ea94 0f0c 	teq	r4, ip
 8000860:	ea0c 5513 	and.w	r5, ip, r3, lsr #20
 8000864:	bf18      	it	ne
 8000866:	ea95 0f0c 	teqne	r5, ip
 800086a:	d00c      	beq.n	8000886 <__aeabi_dmul+0x206>
 800086c:	ea50 0641 	orrs.w	r6, r0, r1, lsl #1
 8000870:	bf18      	it	ne
 8000872:	ea52 0643 	orrsne.w	r6, r2, r3, lsl #1
 8000876:	d1d1      	bne.n	800081c <__aeabi_dmul+0x19c>
 8000878:	ea81 0103 	eor.w	r1, r1, r3
 800087c:	f001 4100 	and.w	r1, r1, #2147483648	; 0x80000000
 8000880:	f04f 0000 	mov.w	r0, #0
 8000884:	bd70      	pop	{r4, r5, r6, pc}
 8000886:	ea50 0641 	orrs.w	r6, r0, r1, lsl #1
 800088a:	bf06      	itte	eq
 800088c:	4610      	moveq	r0, r2
 800088e:	4619      	moveq	r1, r3
 8000890:	ea52 0643 	orrsne.w	r6, r2, r3, lsl #1
 8000894:	d019      	beq.n	80008ca <__aeabi_dmul+0x24a>
 8000896:	ea94 0f0c 	teq	r4, ip
 800089a:	d102      	bne.n	80008a2 <__aeabi_dmul+0x222>
 800089c:	ea50 3601 	orrs.w	r6, r0, r1, lsl #12
 80008a0:	d113      	bne.n	80008ca <__aeabi_dmul+0x24a>
 80008a2:	ea95 0f0c 	teq	r5, ip
 80008a6:	d105      	bne.n	80008b4 <__aeabi_dmul+0x234>
 80008a8:	ea52 3603 	orrs.w	r6, r2, r3, lsl #12
 80008ac:	bf1c      	itt	ne
 80008ae:	4610      	movne	r0, r2
 80008b0:	4619      	movne	r1, r3
 80008b2:	d10a      	bne.n	80008ca <__aeabi_dmul+0x24a>
 80008b4:	ea81 0103 	eor.w	r1, r1, r3
 80008b8:	f001 4100 	and.w	r1, r1, #2147483648	; 0x80000000
 80008bc:	f041 41fe 	orr.w	r1, r1, #2130706432	; 0x7f000000
 80008c0:	f441 0170 	orr.w	r1, r1, #15728640	; 0xf00000
 80008c4:	f04f 0000 	mov.w	r0, #0
 80008c8:	bd70      	pop	{r4, r5, r6, pc}
 80008ca:	f041 41fe 	orr.w	r1, r1, #2130706432	; 0x7f000000
 80008ce:	f441 0178 	orr.w	r1, r1, #16252928	; 0xf80000
 80008d2:	bd70      	pop	{r4, r5, r6, pc}

080008d4 <__aeabi_ddiv>:
 80008d4:	b570      	push	{r4, r5, r6, lr}
 80008d6:	f04f 0cff 	mov.w	ip, #255	; 0xff
 80008da:	f44c 6ce0 	orr.w	ip, ip, #1792	; 0x700
 80008de:	ea1c 5411 	ands.w	r4, ip, r1, lsr #20
 80008e2:	bf1d      	ittte	ne
 80008e4:	ea1c 5513 	andsne.w	r5, ip, r3, lsr #20
 80008e8:	ea94 0f0c 	teqne	r4, ip
 80008ec:	ea95 0f0c 	teqne	r5, ip
 80008f0:	f000 f8a7 	bleq	8000a42 <__aeabi_ddiv+0x16e>
 80008f4:	eba4 0405 	sub.w	r4, r4, r5
 80008f8:	ea81 0e03 	eor.w	lr, r1, r3
 80008fc:	ea52 3503 	orrs.w	r5, r2, r3, lsl #12
 8000900:	ea4f 3101 	mov.w	r1, r1, lsl #12
 8000904:	f000 8088 	beq.w	8000a18 <__aeabi_ddiv+0x144>
 8000908:	ea4f 3303 	mov.w	r3, r3, lsl #12
 800090c:	f04f 5580 	mov.w	r5, #268435456	; 0x10000000
 8000910:	ea45 1313 	orr.w	r3, r5, r3, lsr #4
 8000914:	ea43 6312 	orr.w	r3, r3, r2, lsr #24
 8000918:	ea4f 2202 	mov.w	r2, r2, lsl #8
 800091c:	ea45 1511 	orr.w	r5, r5, r1, lsr #4
 8000920:	ea45 6510 	orr.w	r5, r5, r0, lsr #24
 8000924:	ea4f 2600 	mov.w	r6, r0, lsl #8
 8000928:	f00e 4100 	and.w	r1, lr, #2147483648	; 0x80000000
 800092c:	429d      	cmp	r5, r3
 800092e:	bf08      	it	eq
 8000930:	4296      	cmpeq	r6, r2
 8000932:	f144 04fd 	adc.w	r4, r4, #253	; 0xfd
 8000936:	f504 7440 	add.w	r4, r4, #768	; 0x300
 800093a:	d202      	bcs.n	8000942 <__aeabi_ddiv+0x6e>
 800093c:	085b      	lsrs	r3, r3, #1
 800093e:	ea4f 0232 	mov.w	r2, r2, rrx
 8000942:	1ab6      	subs	r6, r6, r2
 8000944:	eb65 0503 	sbc.w	r5, r5, r3
 8000948:	085b      	lsrs	r3, r3, #1
 800094a:	ea4f 0232 	mov.w	r2, r2, rrx
 800094e:	f44f 1080 	mov.w	r0, #1048576	; 0x100000
 8000952:	f44f 2c00 	mov.w	ip, #524288	; 0x80000
 8000956:	ebb6 0e02 	subs.w	lr, r6, r2
 800095a:	eb75 0e03 	sbcs.w	lr, r5, r3
 800095e:	bf22      	ittt	cs
 8000960:	1ab6      	subcs	r6, r6, r2
 8000962:	4675      	movcs	r5, lr
 8000964:	ea40 000c 	orrcs.w	r0, r0, ip
 8000968:	085b      	lsrs	r3, r3, #1
 800096a:	ea4f 0232 	mov.w	r2, r2, rrx
 800096e:	ebb6 0e02 	subs.w	lr, r6, r2
 8000972:	eb75 0e03 	sbcs.w	lr, r5, r3
 8000976:	bf22      	ittt	cs
 8000978:	1ab6      	subcs	r6, r6, r2
 800097a:	4675      	movcs	r5, lr
 800097c:	ea40 005c 	orrcs.w	r0, r0, ip, lsr #1
 8000980:	085b      	lsrs	r3, r3, #1
 8000982:	ea4f 0232 	mov.w	r2, r2, rrx
 8000986:	ebb6 0e02 	subs.w	lr, r6, r2
 800098a:	eb75 0e03 	sbcs.w	lr, r5, r3
 800098e:	bf22      	ittt	cs
 8000990:	1ab6      	subcs	r6, r6, r2
 8000992:	4675      	movcs	r5, lr
 8000994:	ea40 009c 	orrcs.w	r0, r0, ip, lsr #2
 8000998:	085b      	lsrs	r3, r3, #1
 800099a:	ea4f 0232 	mov.w	r2, r2, rrx
 800099e:	ebb6 0e02 	subs.w	lr, r6, r2
 80009a2:	eb75 0e03 	sbcs.w	lr, r5, r3
 80009a6:	bf22      	ittt	cs
 80009a8:	1ab6      	subcs	r6, r6, r2
 80009aa:	4675      	movcs	r5, lr
 80009ac:	ea40 00dc 	orrcs.w	r0, r0, ip, lsr #3
 80009b0:	ea55 0e06 	orrs.w	lr, r5, r6
 80009b4:	d018      	beq.n	80009e8 <__aeabi_ddiv+0x114>
 80009b6:	ea4f 1505 	mov.w	r5, r5, lsl #4
 80009ba:	ea45 7516 	orr.w	r5, r5, r6, lsr #28
 80009be:	ea4f 1606 	mov.w	r6, r6, lsl #4
 80009c2:	ea4f 03c3 	mov.w	r3, r3, lsl #3
 80009c6:	ea43 7352 	orr.w	r3, r3, r2, lsr #29
 80009ca:	ea4f 02c2 	mov.w	r2, r2, lsl #3
 80009ce:	ea5f 1c1c 	movs.w	ip, ip, lsr #4
 80009d2:	d1c0      	bne.n	8000956 <__aeabi_ddiv+0x82>
 80009d4:	f411 1f80 	tst.w	r1, #1048576	; 0x100000
 80009d8:	d10b      	bne.n	80009f2 <__aeabi_ddiv+0x11e>
 80009da:	ea41 0100 	orr.w	r1, r1, r0
 80009de:	f04f 0000 	mov.w	r0, #0
 80009e2:	f04f 4c00 	mov.w	ip, #2147483648	; 0x80000000
 80009e6:	e7b6      	b.n	8000956 <__aeabi_ddiv+0x82>
 80009e8:	f411 1f80 	tst.w	r1, #1048576	; 0x100000
 80009ec:	bf04      	itt	eq
 80009ee:	4301      	orreq	r1, r0
 80009f0:	2000      	moveq	r0, #0
 80009f2:	f1b4 0cfd 	subs.w	ip, r4, #253	; 0xfd
 80009f6:	bf88      	it	hi
 80009f8:	f5bc 6fe0 	cmphi.w	ip, #1792	; 0x700
 80009fc:	f63f aeaf 	bhi.w	800075e <__aeabi_dmul+0xde>
 8000a00:	ebb5 0c03 	subs.w	ip, r5, r3
 8000a04:	bf04      	itt	eq
 8000a06:	ebb6 0c02 	subseq.w	ip, r6, r2
 8000a0a:	ea5f 0c50 	movseq.w	ip, r0, lsr #1
 8000a0e:	f150 0000 	adcs.w	r0, r0, #0
 8000a12:	eb41 5104 	adc.w	r1, r1, r4, lsl #20
 8000a16:	bd70      	pop	{r4, r5, r6, pc}
 8000a18:	f00e 4e00 	and.w	lr, lr, #2147483648	; 0x80000000
 8000a1c:	ea4e 3111 	orr.w	r1, lr, r1, lsr #12
 8000a20:	eb14 045c 	adds.w	r4, r4, ip, lsr #1
 8000a24:	bfc2      	ittt	gt
 8000a26:	ebd4 050c 	rsbsgt	r5, r4, ip
 8000a2a:	ea41 5104 	orrgt.w	r1, r1, r4, lsl #20
 8000a2e:	bd70      	popgt	{r4, r5, r6, pc}
 8000a30:	f441 1180 	orr.w	r1, r1, #1048576	; 0x100000
 8000a34:	f04f 0e00 	mov.w	lr, #0
 8000a38:	3c01      	subs	r4, #1
 8000a3a:	e690      	b.n	800075e <__aeabi_dmul+0xde>
 8000a3c:	ea45 0e06 	orr.w	lr, r5, r6
 8000a40:	e68d      	b.n	800075e <__aeabi_dmul+0xde>
 8000a42:	ea0c 5513 	and.w	r5, ip, r3, lsr #20
 8000a46:	ea94 0f0c 	teq	r4, ip
 8000a4a:	bf08      	it	eq
 8000a4c:	ea95 0f0c 	teqeq	r5, ip
 8000a50:	f43f af3b 	beq.w	80008ca <__aeabi_dmul+0x24a>
 8000a54:	ea94 0f0c 	teq	r4, ip
 8000a58:	d10a      	bne.n	8000a70 <__aeabi_ddiv+0x19c>
 8000a5a:	ea50 3401 	orrs.w	r4, r0, r1, lsl #12
 8000a5e:	f47f af34 	bne.w	80008ca <__aeabi_dmul+0x24a>
 8000a62:	ea95 0f0c 	teq	r5, ip
 8000a66:	f47f af25 	bne.w	80008b4 <__aeabi_dmul+0x234>
 8000a6a:	4610      	mov	r0, r2
 8000a6c:	4619      	mov	r1, r3
 8000a6e:	e72c      	b.n	80008ca <__aeabi_dmul+0x24a>
 8000a70:	ea95 0f0c 	teq	r5, ip
 8000a74:	d106      	bne.n	8000a84 <__aeabi_ddiv+0x1b0>
 8000a76:	ea52 3503 	orrs.w	r5, r2, r3, lsl #12
 8000a7a:	f43f aefd 	beq.w	8000878 <__aeabi_dmul+0x1f8>
 8000a7e:	4610      	mov	r0, r2
 8000a80:	4619      	mov	r1, r3
 8000a82:	e722      	b.n	80008ca <__aeabi_dmul+0x24a>
 8000a84:	ea50 0641 	orrs.w	r6, r0, r1, lsl #1
 8000a88:	bf18      	it	ne
 8000a8a:	ea52 0643 	orrsne.w	r6, r2, r3, lsl #1
 8000a8e:	f47f aec5 	bne.w	800081c <__aeabi_dmul+0x19c>
 8000a92:	ea50 0441 	orrs.w	r4, r0, r1, lsl #1
 8000a96:	f47f af0d 	bne.w	80008b4 <__aeabi_dmul+0x234>
 8000a9a:	ea52 0543 	orrs.w	r5, r2, r3, lsl #1
 8000a9e:	f47f aeeb 	bne.w	8000878 <__aeabi_dmul+0x1f8>
 8000aa2:	e712      	b.n	80008ca <__aeabi_dmul+0x24a>
	...

08000ab0 <__aeabi_d2iz>:
 8000ab0:	ea4f 0241 	mov.w	r2, r1, lsl #1
 8000ab4:	f512 1200 	adds.w	r2, r2, #2097152	; 0x200000
 8000ab8:	d215      	bcs.n	8000ae6 <__aeabi_d2iz+0x36>
 8000aba:	d511      	bpl.n	8000ae0 <__aeabi_d2iz+0x30>
 8000abc:	f46f 7378 	mvn.w	r3, #992	; 0x3e0
 8000ac0:	ebb3 5262 	subs.w	r2, r3, r2, asr #21
 8000ac4:	d912      	bls.n	8000aec <__aeabi_d2iz+0x3c>
 8000ac6:	ea4f 23c1 	mov.w	r3, r1, lsl #11
 8000aca:	f043 4300 	orr.w	r3, r3, #2147483648	; 0x80000000
 8000ace:	ea43 5350 	orr.w	r3, r3, r0, lsr #21
 8000ad2:	f011 4f00 	tst.w	r1, #2147483648	; 0x80000000
 8000ad6:	fa23 f002 	lsr.w	r0, r3, r2
 8000ada:	bf18      	it	ne
 8000adc:	4240      	negne	r0, r0
 8000ade:	4770      	bx	lr
 8000ae0:	f04f 0000 	mov.w	r0, #0
 8000ae4:	4770      	bx	lr
 8000ae6:	ea50 3001 	orrs.w	r0, r0, r1, lsl #12
 8000aea:	d105      	bne.n	8000af8 <__aeabi_d2iz+0x48>
 8000aec:	f011 4000 	ands.w	r0, r1, #2147483648	; 0x80000000
 8000af0:	bf08      	it	eq
 8000af2:	f06f 4000 	mvneq.w	r0, #2147483648	; 0x80000000
 8000af6:	4770      	bx	lr
 8000af8:	f04f 0000 	mov.w	r0, #0
 8000afc:	4770      	bx	lr
 8000afe:	bf00      	nop

08000b00 <__aeabi_d2f>:
 8000b00:	ea4f 0241 	mov.w	r2, r1, lsl #1
 8000b04:	f1b2 43e0 	subs.w	r3, r2, #1879048192	; 0x70000000
 8000b08:	bf24      	itt	cs
 8000b0a:	f5b3 1c00 	subscs.w	ip, r3, #2097152	; 0x200000
 8000b0e:	f1dc 5cfe 	rsbscs	ip, ip, #532676608	; 0x1fc00000
 8000b12:	d90d      	bls.n	8000b30 <__aeabi_d2f+0x30>
 8000b14:	f001 4c00 	and.w	ip, r1, #2147483648	; 0x80000000
 8000b18:	ea4f 02c0 	mov.w	r2, r0, lsl #3
 8000b1c:	ea4c 7050 	orr.w	r0, ip, r0, lsr #29
 8000b20:	f1b2 4f00 	cmp.w	r2, #2147483648	; 0x80000000
 8000b24:	eb40 0083 	adc.w	r0, r0, r3, lsl #2
 8000b28:	bf08      	it	eq
 8000b2a:	f020 0001 	biceq.w	r0, r0, #1
 8000b2e:	4770      	bx	lr
 8000b30:	f011 4f80 	tst.w	r1, #1073741824	; 0x40000000
 8000b34:	d121      	bne.n	8000b7a <__aeabi_d2f+0x7a>
 8000b36:	f113 7238 	adds.w	r2, r3, #48234496	; 0x2e00000
 8000b3a:	bfbc      	itt	lt
 8000b3c:	f001 4000 	andlt.w	r0, r1, #2147483648	; 0x80000000
 8000b40:	4770      	bxlt	lr
 8000b42:	f441 1180 	orr.w	r1, r1, #1048576	; 0x100000
 8000b46:	ea4f 5252 	mov.w	r2, r2, lsr #21
 8000b4a:	f1c2 0218 	rsb	r2, r2, #24
 8000b4e:	f1c2 0c20 	rsb	ip, r2, #32
 8000b52:	fa10 f30c 	lsls.w	r3, r0, ip
 8000b56:	fa20 f002 	lsr.w	r0, r0, r2
 8000b5a:	bf18      	it	ne
 8000b5c:	f040 0001 	orrne.w	r0, r0, #1
 8000b60:	ea4f 23c1 	mov.w	r3, r1, lsl #11
 8000b64:	ea4f 23d3 	mov.w	r3, r3, lsr #11
 8000b68:	fa03 fc0c 	lsl.w	ip, r3, ip
 8000b6c:	ea40 000c 	orr.w	r0, r0, ip
 8000b70:	fa23 f302 	lsr.w	r3, r3, r2
 8000b74:	ea4f 0343 	mov.w	r3, r3, lsl #1
 8000b78:	e7cc      	b.n	8000b14 <__aeabi_d2f+0x14>
 8000b7a:	ea7f 5362 	mvns.w	r3, r2, asr #21
 8000b7e:	d107      	bne.n	8000b90 <__aeabi_d2f+0x90>
 8000b80:	ea50 3301 	orrs.w	r3, r0, r1, lsl #12
 8000b84:	bf1e      	ittt	ne
 8000b86:	f04f 40fe 	movne.w	r0, #2130706432	; 0x7f000000
 8000b8a:	f440 0040 	orrne.w	r0, r0, #12582912	; 0xc00000
 8000b8e:	4770      	bxne	lr
 8000b90:	f001 4000 	and.w	r0, r1, #2147483648	; 0x80000000
 8000b94:	f040 40fe 	orr.w	r0, r0, #2130706432	; 0x7f000000
 8000b98:	f440 0000 	orr.w	r0, r0, #8388608	; 0x800000
 8000b9c:	4770      	bx	lr
 8000b9e:	bf00      	nop

08000ba0 <memcpy>:
 8000ba0:	4684      	mov	ip, r0
 8000ba2:	ea41 0300 	orr.w	r3, r1, r0
 8000ba6:	f013 0303 	ands.w	r3, r3, #3
 8000baa:	d16d      	bne.n	8000c88 <memcpy+0xe8>
 8000bac:	3a40      	subs	r2, #64	; 0x40
 8000bae:	d341      	bcc.n	8000c34 <memcpy+0x94>
 8000bb0:	f851 3b04 	ldr.w	r3, [r1], #4
 8000bb4:	f840 3b04 	str.w	r3, [r0], #4
 8000bb8:	f851 3b04 	ldr.w	r3, [r1], #4
 8000bbc:	f840 3b04 	str.w	r3, [r0], #4
 8000bc0:	f851 3b04 	ldr.w	r3, [r1], #4
 8000bc4:	f840 3b04 	str.w	r3, [r0], #4
 8000bc8:	f851 3b04 	ldr.w	r3, [r1], #4
 8000bcc:	f840 3b04 	str.w	r3, [r0], #4
 8000bd0:	f851 3b04 	ldr.w	r3, [r1], #4
 8000bd4:	f840 3b04 	str.w	r3, [r0], #4
 8000bd8:	f851 3b04 	ldr.w	r3, [r1], #4
 8000bdc:	f840 3b04 	str.w	r3, [r0], #4
 8000be0:	f851 3b04 	ldr.w	r3, [r1], #4
 8000be4:	f840 3b04 	str.w	r3, [r0], #4
 8000be8:	f851 3b04 	ldr.w	r3, [r1], #4
 8000bec:	f840 3b04 	str.w	r3, [r0], #4
 8000bf0:	f851 3b04 	ldr.w	r3, [r1], #4
 8000bf4:	f840 3b04 	str.w	r3, [r0], #4
 8000bf8:	f851 3b04 	ldr.w	r3, [r1], #4
 8000bfc:	f840 3b04 	str.w	r3, [r0], #4
 8000c00:	f851 3b04 	ldr.w	r3, [r1], #4
 8000c04:	f840 3b04 	str.w	r3, [r0], #4
 8000c08:	f851 3b04 	ldr.w	r3, [r1], #4
 8000c0c:	f840 3b04 	str.w	r3, [r0], #4
 8000c10:	f851 3b04 	ldr.w	r3, [r1], #4
 8000c14:	f840 3b04 	str.w	r3, [r0], #4
 8000c18:	f851 3b04 	ldr.w	r3, [r1], #4
 8000c1c:	f840 3b04 	str.w	r3, [r0], #4
 8000c20:	f851 3b04 	ldr.w	r3, [r1], #4
 8000c24:	f840 3b04 	str.w	r3, [r0], #4
 8000c28:	f851 3b04 	ldr.w	r3, [r1], #4
 8000c2c:	f840 3b04 	str.w	r3, [r0], #4
 8000c30:	3a40      	subs	r2, #64	; 0x40
 8000c32:	d2bd      	bcs.n	8000bb0 <memcpy+0x10>
 8000c34:	3230      	adds	r2, #48	; 0x30
 8000c36:	d311      	bcc.n	8000c5c <memcpy+0xbc>
 8000c38:	f851 3b04 	ldr.w	r3, [r1], #4
 8000c3c:	f840 3b04 	str.w	r3, [r0], #4
 8000c40:	f851 3b04 	ldr.w	r3, [r1], #4
 8000c44:	f840 3b04 	str.w	r3, [r0], #4
 8000c48:	f851 3b04 	ldr.w	r3, [r1], #4
 8000c4c:	f840 3b04 	str.w	r3, [r0], #4
 8000c50:	f851 3b04 	ldr.w	r3, [r1], #4
 8000c54:	f840 3b04 	str.w	r3, [r0], #4
 8000c58:	3a10      	subs	r2, #16
 8000c5a:	d2ed      	bcs.n	8000c38 <memcpy+0x98>
 8000c5c:	320c      	adds	r2, #12
 8000c5e:	d305      	bcc.n	8000c6c <memcpy+0xcc>
 8000c60:	f851 3b04 	ldr.w	r3, [r1], #4
 8000c64:	f840 3b04 	str.w	r3, [r0], #4
 8000c68:	3a04      	subs	r2, #4
 8000c6a:	d2f9      	bcs.n	8000c60 <memcpy+0xc0>
 8000c6c:	3204      	adds	r2, #4
 8000c6e:	d008      	beq.n	8000c82 <memcpy+0xe2>
 8000c70:	07d2      	lsls	r2, r2, #31
 8000c72:	bf1c      	itt	ne
 8000c74:	f811 3b01 	ldrbne.w	r3, [r1], #1
 8000c78:	f800 3b01 	strbne.w	r3, [r0], #1
 8000c7c:	d301      	bcc.n	8000c82 <memcpy+0xe2>
 8000c7e:	880b      	ldrh	r3, [r1, #0]
 8000c80:	8003      	strh	r3, [r0, #0]
 8000c82:	4660      	mov	r0, ip
 8000c84:	4770      	bx	lr
 8000c86:	bf00      	nop
 8000c88:	2a08      	cmp	r2, #8
 8000c8a:	d313      	bcc.n	8000cb4 <memcpy+0x114>
 8000c8c:	078b      	lsls	r3, r1, #30
 8000c8e:	d08d      	beq.n	8000bac <memcpy+0xc>
 8000c90:	f010 0303 	ands.w	r3, r0, #3
 8000c94:	d08a      	beq.n	8000bac <memcpy+0xc>
 8000c96:	f1c3 0304 	rsb	r3, r3, #4
 8000c9a:	1ad2      	subs	r2, r2, r3
 8000c9c:	07db      	lsls	r3, r3, #31
 8000c9e:	bf1c      	itt	ne
 8000ca0:	f811 3b01 	ldrbne.w	r3, [r1], #1
 8000ca4:	f800 3b01 	strbne.w	r3, [r0], #1
 8000ca8:	d380      	bcc.n	8000bac <memcpy+0xc>
 8000caa:	f831 3b02 	ldrh.w	r3, [r1], #2
 8000cae:	f820 3b02 	strh.w	r3, [r0], #2
 8000cb2:	e77b      	b.n	8000bac <memcpy+0xc>
 8000cb4:	3a04      	subs	r2, #4
 8000cb6:	d3d9      	bcc.n	8000c6c <memcpy+0xcc>
 8000cb8:	3a01      	subs	r2, #1
 8000cba:	f811 3b01 	ldrb.w	r3, [r1], #1
 8000cbe:	f800 3b01 	strb.w	r3, [r0], #1
 8000cc2:	d2f9      	bcs.n	8000cb8 <memcpy+0x118>
 8000cc4:	780b      	ldrb	r3, [r1, #0]
 8000cc6:	7003      	strb	r3, [r0, #0]
 8000cc8:	784b      	ldrb	r3, [r1, #1]
 8000cca:	7043      	strb	r3, [r0, #1]
 8000ccc:	788b      	ldrb	r3, [r1, #2]
 8000cce:	7083      	strb	r3, [r0, #2]
 8000cd0:	4660      	mov	r0, ip
 8000cd2:	4770      	bx	lr
	...
 8000ce0:	eba2 0003 	sub.w	r0, r2, r3
 8000ce4:	4770      	bx	lr
 8000ce6:	bf00      	nop

08000ce8 <strcmp>:
 8000ce8:	7802      	ldrb	r2, [r0, #0]
 8000cea:	780b      	ldrb	r3, [r1, #0]
 8000cec:	2a01      	cmp	r2, #1
 8000cee:	bf28      	it	cs
 8000cf0:	429a      	cmpcs	r2, r3
 8000cf2:	d1f5      	bne.n	8000ce0 <memcpy+0x140>
 8000cf4:	e96d 4504 	strd	r4, r5, [sp, #-16]!
 8000cf8:	ea40 0401 	orr.w	r4, r0, r1
 8000cfc:	e9cd 6702 	strd	r6, r7, [sp, #8]
 8000d00:	f06f 0c00 	mvn.w	ip, #0
 8000d04:	ea4f 7244 	mov.w	r2, r4, lsl #29
 8000d08:	b312      	cbz	r2, 8000d50 <strcmp+0x68>
 8000d0a:	ea80 0401 	eor.w	r4, r0, r1
 8000d0e:	f014 0f07 	tst.w	r4, #7
 8000d12:	d16a      	bne.n	8000dea <strcmp+0x102>
 8000d14:	f000 0407 	and.w	r4, r0, #7
 8000d18:	f020 0007 	bic.w	r0, r0, #7
 8000d1c:	f004 0503 	and.w	r5, r4, #3
 8000d20:	f021 0107 	bic.w	r1, r1, #7
 8000d24:	ea4f 05c5 	mov.w	r5, r5, lsl #3
 8000d28:	e8f0 2304 	ldrd	r2, r3, [r0], #16
 8000d2c:	f014 0f04 	tst.w	r4, #4
 8000d30:	e8f1 6704 	ldrd	r6, r7, [r1], #16
 8000d34:	fa0c f405 	lsl.w	r4, ip, r5
 8000d38:	ea62 0204 	orn	r2, r2, r4
 8000d3c:	ea66 0604 	orn	r6, r6, r4
 8000d40:	d00a      	beq.n	8000d58 <strcmp+0x70>
 8000d42:	ea63 0304 	orn	r3, r3, r4
 8000d46:	4662      	mov	r2, ip
 8000d48:	ea67 0704 	orn	r7, r7, r4
 8000d4c:	4666      	mov	r6, ip
 8000d4e:	e003      	b.n	8000d58 <strcmp+0x70>
 8000d50:	e8f0 2304 	ldrd	r2, r3, [r0], #16
 8000d54:	e8f1 6704 	ldrd	r6, r7, [r1], #16
 8000d58:	fa82 f54c 	uadd8	r5, r2, ip
 8000d5c:	ea82 0406 	eor.w	r4, r2, r6
 8000d60:	faa4 f48c 	sel	r4, r4, ip
 8000d64:	bb6c      	cbnz	r4, 8000dc2 <strcmp+0xda>
 8000d66:	fa83 f54c 	uadd8	r5, r3, ip
 8000d6a:	ea83 0507 	eor.w	r5, r3, r7
 8000d6e:	faa5 f58c 	sel	r5, r5, ip
 8000d72:	b995      	cbnz	r5, 8000d9a <strcmp+0xb2>
 8000d74:	e950 2302 	ldrd	r2, r3, [r0, #-8]
 8000d78:	e951 6702 	ldrd	r6, r7, [r1, #-8]
 8000d7c:	fa82 f54c 	uadd8	r5, r2, ip
 8000d80:	ea82 0406 	eor.w	r4, r2, r6
 8000d84:	faa4 f48c 	sel	r4, r4, ip
 8000d88:	fa83 f54c 	uadd8	r5, r3, ip
 8000d8c:	ea83 0507 	eor.w	r5, r3, r7
 8000d90:	faa5 f58c 	sel	r5, r5, ip
 8000d94:	4325      	orrs	r5, r4
 8000d96:	d0db      	beq.n	8000d50 <strcmp+0x68>
 8000d98:	b99c      	cbnz	r4, 8000dc2 <strcmp+0xda>
 8000d9a:	ba2d      	rev	r5, r5
 8000d9c:	fab5 f485 	clz	r4, r5
 8000da0:	f024 0407 	bic.w	r4, r4, #7
 8000da4:	fa27 f104 	lsr.w	r1, r7, r4
 8000da8:	e9dd 6702 	ldrd	r6, r7, [sp, #8]
 8000dac:	fa23 f304 	lsr.w	r3, r3, r4
 8000db0:	f003 00ff 	and.w	r0, r3, #255	; 0xff
 8000db4:	f001 01ff 	and.w	r1, r1, #255	; 0xff
 8000db8:	e8fd 4504 	ldrd	r4, r5, [sp], #16
 8000dbc:	eba0 0001 	sub.w	r0, r0, r1
 8000dc0:	4770      	bx	lr
 8000dc2:	ba24      	rev	r4, r4
 8000dc4:	fab4 f484 	clz	r4, r4
 8000dc8:	f024 0407 	bic.w	r4, r4, #7
 8000dcc:	fa26 f104 	lsr.w	r1, r6, r4
 8000dd0:	e9dd 6702 	ldrd	r6, r7, [sp, #8]
 8000dd4:	fa22 f204 	lsr.w	r2, r2, r4
 8000dd8:	f002 00ff 	and.w	r0, r2, #255	; 0xff
 8000ddc:	f001 01ff 	and.w	r1, r1, #255	; 0xff
 8000de0:	e8fd 4504 	ldrd	r4, r5, [sp], #16
 8000de4:	eba0 0001 	sub.w	r0, r0, r1
 8000de8:	4770      	bx	lr
 8000dea:	f014 0f03 	tst.w	r4, #3
 8000dee:	d13c      	bne.n	8000e6a <strcmp+0x182>
 8000df0:	f010 0403 	ands.w	r4, r0, #3
 8000df4:	d128      	bne.n	8000e48 <strcmp+0x160>
 8000df6:	f850 2b08 	ldr.w	r2, [r0], #8
 8000dfa:	f851 3b08 	ldr.w	r3, [r1], #8
 8000dfe:	fa82 f54c 	uadd8	r5, r2, ip
 8000e02:	ea82 0503 	eor.w	r5, r2, r3
 8000e06:	faa5 f58c 	sel	r5, r5, ip
 8000e0a:	b95d      	cbnz	r5, 8000e24 <strcmp+0x13c>
 8000e0c:	f850 2c04 	ldr.w	r2, [r0, #-4]
 8000e10:	f851 3c04 	ldr.w	r3, [r1, #-4]
 8000e14:	fa82 f54c 	uadd8	r5, r2, ip
 8000e18:	ea82 0503 	eor.w	r5, r2, r3
 8000e1c:	faa5 f58c 	sel	r5, r5, ip
 8000e20:	2d00      	cmp	r5, #0
 8000e22:	d0e8      	beq.n	8000df6 <strcmp+0x10e>
 8000e24:	ba2d      	rev	r5, r5
 8000e26:	fab5 f485 	clz	r4, r5
 8000e2a:	f024 0407 	bic.w	r4, r4, #7
 8000e2e:	fa23 f104 	lsr.w	r1, r3, r4
 8000e32:	fa22 f204 	lsr.w	r2, r2, r4
 8000e36:	f002 00ff 	and.w	r0, r2, #255	; 0xff
 8000e3a:	f001 01ff 	and.w	r1, r1, #255	; 0xff
 8000e3e:	e8fd 4504 	ldrd	r4, r5, [sp], #16
 8000e42:	eba0 0001 	sub.w	r0, r0, r1
 8000e46:	4770      	bx	lr
 8000e48:	ea4f 04c4 	mov.w	r4, r4, lsl #3
 8000e4c:	f020 0003 	bic.w	r0, r0, #3
 8000e50:	f850 2b08 	ldr.w	r2, [r0], #8
 8000e54:	f021 0103 	bic.w	r1, r1, #3
 8000e58:	f851 3b08 	ldr.w	r3, [r1], #8
 8000e5c:	fa0c f404 	lsl.w	r4, ip, r4
 8000e60:	ea62 0204 	orn	r2, r2, r4
 8000e64:	ea63 0304 	orn	r3, r3, r4
 8000e68:	e7c9      	b.n	8000dfe <strcmp+0x116>
 8000e6a:	f010 0403 	ands.w	r4, r0, #3
 8000e6e:	d01a      	beq.n	8000ea6 <strcmp+0x1be>
 8000e70:	eba1 0104 	sub.w	r1, r1, r4
 8000e74:	f020 0003 	bic.w	r0, r0, #3
 8000e78:	07e4      	lsls	r4, r4, #31
 8000e7a:	f850 2b04 	ldr.w	r2, [r0], #4
 8000e7e:	d006      	beq.n	8000e8e <strcmp+0x1a6>
 8000e80:	d20f      	bcs.n	8000ea2 <strcmp+0x1ba>
 8000e82:	788b      	ldrb	r3, [r1, #2]
 8000e84:	fa5f f4a2 	uxtb.w	r4, r2, ror #16
 8000e88:	1ae4      	subs	r4, r4, r3
 8000e8a:	d106      	bne.n	8000e9a <strcmp+0x1b2>
 8000e8c:	b12b      	cbz	r3, 8000e9a <strcmp+0x1b2>
 8000e8e:	78cb      	ldrb	r3, [r1, #3]
 8000e90:	fa5f f4b2 	uxtb.w	r4, r2, ror #24
 8000e94:	1ae4      	subs	r4, r4, r3
 8000e96:	d100      	bne.n	8000e9a <strcmp+0x1b2>
 8000e98:	b91b      	cbnz	r3, 8000ea2 <strcmp+0x1ba>
 8000e9a:	4620      	mov	r0, r4
 8000e9c:	f85d 4b10 	ldr.w	r4, [sp], #16
 8000ea0:	4770      	bx	lr
 8000ea2:	f101 0104 	add.w	r1, r1, #4
 8000ea6:	f850 2b04 	ldr.w	r2, [r0], #4
 8000eaa:	07cc      	lsls	r4, r1, #31
 8000eac:	f021 0103 	bic.w	r1, r1, #3
 8000eb0:	f851 3b04 	ldr.w	r3, [r1], #4
 8000eb4:	d848      	bhi.n	8000f48 <strcmp+0x260>
 8000eb6:	d224      	bcs.n	8000f02 <strcmp+0x21a>
 8000eb8:	f022 447f 	bic.w	r4, r2, #4278190080	; 0xff000000
 8000ebc:	fa82 f54c 	uadd8	r5, r2, ip
 8000ec0:	ea94 2513 	eors.w	r5, r4, r3, lsr #8
 8000ec4:	faa5 f58c 	sel	r5, r5, ip
 8000ec8:	d10a      	bne.n	8000ee0 <strcmp+0x1f8>
 8000eca:	b965      	cbnz	r5, 8000ee6 <strcmp+0x1fe>
 8000ecc:	f851 3b04 	ldr.w	r3, [r1], #4
 8000ed0:	ea84 0402 	eor.w	r4, r4, r2
 8000ed4:	ebb4 6f03 	cmp.w	r4, r3, lsl #24
 8000ed8:	d10e      	bne.n	8000ef8 <strcmp+0x210>
 8000eda:	f850 2b04 	ldr.w	r2, [r0], #4
 8000ede:	e7eb      	b.n	8000eb8 <strcmp+0x1d0>
 8000ee0:	ea4f 2313 	mov.w	r3, r3, lsr #8
 8000ee4:	e055      	b.n	8000f92 <strcmp+0x2aa>
 8000ee6:	f035 457f 	bics.w	r5, r5, #4278190080	; 0xff000000
 8000eea:	d14d      	bne.n	8000f88 <strcmp+0x2a0>
 8000eec:	7808      	ldrb	r0, [r1, #0]
 8000eee:	e8fd 4504 	ldrd	r4, r5, [sp], #16
 8000ef2:	f1c0 0000 	rsb	r0, r0, #0
 8000ef6:	4770      	bx	lr
 8000ef8:	ea4f 6212 	mov.w	r2, r2, lsr #24
 8000efc:	f003 03ff 	and.w	r3, r3, #255	; 0xff
 8000f00:	e047      	b.n	8000f92 <strcmp+0x2aa>
 8000f02:	ea02 441c 	and.w	r4, r2, ip, lsr #16
 8000f06:	fa82 f54c 	uadd8	r5, r2, ip
 8000f0a:	ea94 4513 	eors.w	r5, r4, r3, lsr #16
 8000f0e:	faa5 f58c 	sel	r5, r5, ip
 8000f12:	d10a      	bne.n	8000f2a <strcmp+0x242>
 8000f14:	b965      	cbnz	r5, 8000f30 <strcmp+0x248>
 8000f16:	f851 3b04 	ldr.w	r3, [r1], #4
 8000f1a:	ea84 0402 	eor.w	r4, r4, r2
 8000f1e:	ebb4 4f03 	cmp.w	r4, r3, lsl #16
 8000f22:	d10c      	bne.n	8000f3e <strcmp+0x256>
 8000f24:	f850 2b04 	ldr.w	r2, [r0], #4
 8000f28:	e7eb      	b.n	8000f02 <strcmp+0x21a>
 8000f2a:	ea4f 4313 	mov.w	r3, r3, lsr #16
 8000f2e:	e030      	b.n	8000f92 <strcmp+0x2aa>
 8000f30:	ea15 451c 	ands.w	r5, r5, ip, lsr #16
 8000f34:	d128      	bne.n	8000f88 <strcmp+0x2a0>
 8000f36:	880b      	ldrh	r3, [r1, #0]
 8000f38:	ea4f 4212 	mov.w	r2, r2, lsr #16
 8000f3c:	e029      	b.n	8000f92 <strcmp+0x2aa>
 8000f3e:	ea4f 4212 	mov.w	r2, r2, lsr #16
 8000f42:	ea03 431c 	and.w	r3, r3, ip, lsr #16
 8000f46:	e024      	b.n	8000f92 <strcmp+0x2aa>
 8000f48:	f002 04ff 	and.w	r4, r2, #255	; 0xff
 8000f4c:	fa82 f54c 	uadd8	r5, r2, ip
 8000f50:	ea94 6513 	eors.w	r5, r4, r3, lsr #24
 8000f54:	faa5 f58c 	sel	r5, r5, ip
 8000f58:	d10a      	bne.n	8000f70 <strcmp+0x288>
 8000f5a:	b965      	cbnz	r5, 8000f76 <strcmp+0x28e>
 8000f5c:	f851 3b04 	ldr.w	r3, [r1], #4
 8000f60:	ea84 0402 	eor.w	r4, r4, r2
 8000f64:	ebb4 2f03 	cmp.w	r4, r3, lsl #8
 8000f68:	d109      	bne.n	8000f7e <strcmp+0x296>
 8000f6a:	f850 2b04 	ldr.w	r2, [r0], #4
 8000f6e:	e7eb      	b.n	8000f48 <strcmp+0x260>
 8000f70:	ea4f 6313 	mov.w	r3, r3, lsr #24
 8000f74:	e00d      	b.n	8000f92 <strcmp+0x2aa>
 8000f76:	f015 0fff 	tst.w	r5, #255	; 0xff
 8000f7a:	d105      	bne.n	8000f88 <strcmp+0x2a0>
 8000f7c:	680b      	ldr	r3, [r1, #0]
 8000f7e:	ea4f 2212 	mov.w	r2, r2, lsr #8
 8000f82:	f023 437f 	bic.w	r3, r3, #4278190080	; 0xff000000
 8000f86:	e004      	b.n	8000f92 <strcmp+0x2aa>
 8000f88:	f04f 0000 	mov.w	r0, #0
 8000f8c:	e8fd 4504 	ldrd	r4, r5, [sp], #16
 8000f90:	4770      	bx	lr
 8000f92:	ba12      	rev	r2, r2
 8000f94:	ba1b      	rev	r3, r3
 8000f96:	fa82 f44c 	uadd8	r4, r2, ip
 8000f9a:	ea82 0403 	eor.w	r4, r2, r3
 8000f9e:	faa4 f58c 	sel	r5, r4, ip
 8000fa2:	fab5 f485 	clz	r4, r5
 8000fa6:	fa02 f204 	lsl.w	r2, r2, r4
 8000faa:	fa03 f304 	lsl.w	r3, r3, r4
 8000fae:	ea4f 6012 	mov.w	r0, r2, lsr #24
 8000fb2:	e8fd 4504 	ldrd	r4, r5, [sp], #16
 8000fb6:	eba0 6013 	sub.w	r0, r0, r3, lsr #24
 8000fba:	4770      	bx	lr
 8000fbc:	0000      	movs	r0, r0
	...

08000fc0 <__late_init>:
 8000fc0:	4770      	bx	lr
 8000fc2:	bf00      	nop
	...

08000fd0 <__default_exit>:
 8000fd0:	e7fe      	b.n	8000fd0 <__default_exit>
 8000fd2:	bf00      	nop
	...

08000fe0 <_unhandled_exception>:
 8000fe0:	b508      	push	{r3, lr}
 8000fe2:	4802      	ldr	r0, [pc, #8]	; (8000fec <_unhandled_exception+0xc>)
 8000fe4:	f000 f86c 	bl	80010c0 <chSysHalt>
 8000fe8:	e7fe      	b.n	8000fe8 <_unhandled_exception+0x8>
 8000fea:	bf00      	nop
 8000fec:	08005f10 	.word	0x08005f10

08000ff0 <_idle_thread>:
 8000ff0:	e7fe      	b.n	8000ff0 <_idle_thread>
 8000ff2:	bf00      	nop
	...

08001000 <chSysInit>:
 8001000:	4b25      	ldr	r3, [pc, #148]	; (8001098 <chSysInit+0x98>)
 8001002:	4a26      	ldr	r2, [pc, #152]	; (800109c <chSysInit+0x9c>)
 8001004:	4826      	ldr	r0, [pc, #152]	; (80010a0 <chSysInit+0xa0>)
 8001006:	b5f0      	push	{r4, r5, r6, r7, lr}
 8001008:	2400      	movs	r4, #0
 800100a:	609c      	str	r4, [r3, #8]
 800100c:	68d9      	ldr	r1, [r3, #12]
 800100e:	f64f 05ff 	movw	r5, #63743	; 0xf8ff
 8001012:	4029      	ands	r1, r5
 8001014:	430a      	orrs	r2, r1
 8001016:	60da      	str	r2, [r3, #12]
 8001018:	68c2      	ldr	r2, [r0, #12]
 800101a:	4922      	ldr	r1, [pc, #136]	; (80010a4 <chSysInit+0xa4>)
 800101c:	4d22      	ldr	r5, [pc, #136]	; (80010a8 <chSysInit+0xa8>)
 800101e:	f042 7280 	orr.w	r2, r2, #16777216	; 0x1000000
 8001022:	60c2      	str	r2, [r0, #12]
 8001024:	680a      	ldr	r2, [r1, #0]
 8001026:	f042 0201 	orr.w	r2, r2, #1
 800102a:	600a      	str	r2, [r1, #0]
 800102c:	2010      	movs	r0, #16
 800102e:	2220      	movs	r2, #32
 8001030:	b083      	sub	sp, #12
 8001032:	77d8      	strb	r0, [r3, #31]
 8001034:	f883 2022 	strb.w	r2, [r3, #34]	; 0x22
 8001038:	f000 f9e2 	bl	8001400 <_scheduler_init>
 800103c:	f000 f978 	bl	8001330 <_vt_init>
 8001040:	f000 fd86 	bl	8001b50 <_tm_init>
 8001044:	f001 fadc 	bl	8002600 <_core_init>
 8001048:	f001 fb32 	bl	80026b0 <_heap_init>
 800104c:	f000 fdc0 	bl	8001bd0 <_stats_init>
 8001050:	f000 f94e 	bl	80012f0 <_dbg_trace_init>
 8001054:	2140      	movs	r1, #64	; 0x40
 8001056:	4628      	mov	r0, r5
 8001058:	f000 fb82 	bl	8001760 <_thread_init>
 800105c:	f5a5 6788 	sub.w	r7, r5, #1088	; 0x440
 8001060:	4b12      	ldr	r3, [pc, #72]	; (80010ac <chSysInit+0xac>)
 8001062:	61c3      	str	r3, [r0, #28]
 8001064:	2601      	movs	r6, #1
 8001066:	f880 6020 	strb.w	r6, [r0, #32]
 800106a:	61b8      	str	r0, [r7, #24]
 800106c:	f000 f888 	bl	8001180 <_dbg_check_enable>
 8001070:	f384 8811 	msr	BASEPRI, r4
 8001074:	b662      	cpsie	i
 8001076:	69bb      	ldr	r3, [r7, #24]
 8001078:	4a0d      	ldr	r2, [pc, #52]	; (80010b0 <chSysInit+0xb0>)
 800107a:	619a      	str	r2, [r3, #24]
 800107c:	f105 00a8 	add.w	r0, r5, #168	; 0xa8
 8001080:	4632      	mov	r2, r6
 8001082:	9400      	str	r4, [sp, #0]
 8001084:	4b0b      	ldr	r3, [pc, #44]	; (80010b4 <chSysInit+0xb4>)
 8001086:	f44f 71c4 	mov.w	r1, #392	; 0x188
 800108a:	f000 fbc9 	bl	8001820 <chThdCreateStatic>
 800108e:	4b0a      	ldr	r3, [pc, #40]	; (80010b8 <chSysInit+0xb8>)
 8001090:	6183      	str	r3, [r0, #24]
 8001092:	b003      	add	sp, #12
 8001094:	bdf0      	pop	{r4, r5, r6, r7, pc}
 8001096:	bf00      	nop
 8001098:	e000ed00 	.word	0xe000ed00
 800109c:	05fa0300 	.word	0x05fa0300
 80010a0:	e000edf0 	.word	0xe000edf0
 80010a4:	e0001000 	.word	0xe0001000
 80010a8:	20000c70 	.word	0x20000c70
 80010ac:	20000400 	.word	0x20000400
 80010b0:	080060a0 	.word	0x080060a0
 80010b4:	08000ff1 	.word	0x08000ff1
 80010b8:	08005f30 	.word	0x08005f30
 80010bc:	00000000 	.word	0x00000000

080010c0 <chSysHalt>:
 80010c0:	b508      	push	{r3, lr}
 80010c2:	4604      	mov	r4, r0
 80010c4:	b672      	cpsid	i
 80010c6:	f004 fab3 	bl	8005630 <panic_handler>
 80010ca:	4b01      	ldr	r3, [pc, #4]	; (80010d0 <chSysHalt+0x10>)
 80010cc:	62dc      	str	r4, [r3, #44]	; 0x2c
 80010ce:	e7fe      	b.n	80010ce <chSysHalt+0xe>
 80010d0:	20000830 	.word	0x20000830
	...

080010e0 <chSysTimerHandlerI>:
 80010e0:	e92d 43f8 	stmdb	sp!, {r3, r4, r5, r6, r7, r8, r9, lr}
 80010e4:	4d1a      	ldr	r5, [pc, #104]	; (8001150 <chSysTimerHandlerI+0x70>)
 80010e6:	f000 f8e3 	bl	80012b0 <chDbgCheckClassI>
 80010ea:	69ab      	ldr	r3, [r5, #24]
 80010ec:	f893 2023 	ldrb.w	r2, [r3, #35]	; 0x23
 80010f0:	b112      	cbz	r2, 80010f8 <chSysTimerHandlerI+0x18>
 80010f2:	3a01      	subs	r2, #1
 80010f4:	f883 2023 	strb.w	r2, [r3, #35]	; 0x23
 80010f8:	6a5a      	ldr	r2, [r3, #36]	; 0x24
 80010fa:	4f16      	ldr	r7, [pc, #88]	; (8001154 <chSysTimerHandlerI+0x74>)
 80010fc:	3201      	adds	r2, #1
 80010fe:	625a      	str	r2, [r3, #36]	; 0x24
 8001100:	f000 f8d6 	bl	80012b0 <chDbgCheckClassI>
 8001104:	6aab      	ldr	r3, [r5, #40]	; 0x28
 8001106:	69ec      	ldr	r4, [r5, #28]
 8001108:	3301      	adds	r3, #1
 800110a:	42bc      	cmp	r4, r7
 800110c:	62ab      	str	r3, [r5, #40]	; 0x28
 800110e:	d01d      	beq.n	800114c <chSysTimerHandlerI+0x6c>
 8001110:	68a6      	ldr	r6, [r4, #8]
 8001112:	3e01      	subs	r6, #1
 8001114:	60a6      	str	r6, [r4, #8]
 8001116:	b9ce      	cbnz	r6, 800114c <chSysTimerHandlerI+0x6c>
 8001118:	f04f 0920 	mov.w	r9, #32
 800111c:	6823      	ldr	r3, [r4, #0]
 800111e:	f8d4 800c 	ldr.w	r8, [r4, #12]
 8001122:	60e6      	str	r6, [r4, #12]
 8001124:	605f      	str	r7, [r3, #4]
 8001126:	61eb      	str	r3, [r5, #28]
 8001128:	f000 f87a 	bl	8001220 <_dbg_check_unlock_from_isr>
 800112c:	f000 fda8 	bl	8001c80 <_stats_stop_measure_crit_isr>
 8001130:	f386 8811 	msr	BASEPRI, r6
 8001134:	6920      	ldr	r0, [r4, #16]
 8001136:	47c0      	blx	r8
 8001138:	f389 8811 	msr	BASEPRI, r9
 800113c:	f000 fd98 	bl	8001c70 <_stats_start_measure_crit_isr>
 8001140:	f000 f856 	bl	80011f0 <_dbg_check_lock_from_isr>
 8001144:	69ec      	ldr	r4, [r5, #28]
 8001146:	68a3      	ldr	r3, [r4, #8]
 8001148:	2b00      	cmp	r3, #0
 800114a:	d0e7      	beq.n	800111c <chSysTimerHandlerI+0x3c>
 800114c:	e8bd 83f8 	ldmia.w	sp!, {r3, r4, r5, r6, r7, r8, r9, pc}
 8001150:	20000830 	.word	0x20000830
 8001154:	2000084c 	.word	0x2000084c
	...

08001160 <chSysPolledDelayX>:
 8001160:	4a03      	ldr	r2, [pc, #12]	; (8001170 <chSysPolledDelayX+0x10>)
 8001162:	6851      	ldr	r1, [r2, #4]
 8001164:	6853      	ldr	r3, [r2, #4]
 8001166:	1a5b      	subs	r3, r3, r1
 8001168:	4298      	cmp	r0, r3
 800116a:	d8fb      	bhi.n	8001164 <chSysPolledDelayX+0x4>
 800116c:	4770      	bx	lr
 800116e:	bf00      	nop
 8001170:	e0001000 	.word	0xe0001000
	...

08001180 <_dbg_check_enable>:
 8001180:	4b04      	ldr	r3, [pc, #16]	; (8001194 <_dbg_check_enable+0x14>)
 8001182:	6b1a      	ldr	r2, [r3, #48]	; 0x30
 8001184:	b90a      	cbnz	r2, 800118a <_dbg_check_enable+0xa>
 8001186:	6b5b      	ldr	r3, [r3, #52]	; 0x34
 8001188:	b113      	cbz	r3, 8001190 <_dbg_check_enable+0x10>
 800118a:	4803      	ldr	r0, [pc, #12]	; (8001198 <_dbg_check_enable+0x18>)
 800118c:	f7ff bf98 	b.w	80010c0 <chSysHalt>
 8001190:	4770      	bx	lr
 8001192:	bf00      	nop
 8001194:	20000830 	.word	0x20000830
 8001198:	08005f40 	.word	0x08005f40
 800119c:	00000000 	.word	0x00000000

080011a0 <_dbg_check_lock>:
 80011a0:	b510      	push	{r4, lr}
 80011a2:	4c05      	ldr	r4, [pc, #20]	; (80011b8 <_dbg_check_lock+0x18>)
 80011a4:	6b23      	ldr	r3, [r4, #48]	; 0x30
 80011a6:	b90b      	cbnz	r3, 80011ac <_dbg_check_lock+0xc>
 80011a8:	6b63      	ldr	r3, [r4, #52]	; 0x34
 80011aa:	b113      	cbz	r3, 80011b2 <_dbg_check_lock+0x12>
 80011ac:	4803      	ldr	r0, [pc, #12]	; (80011bc <_dbg_check_lock+0x1c>)
 80011ae:	f7ff ff87 	bl	80010c0 <chSysHalt>
 80011b2:	2301      	movs	r3, #1
 80011b4:	6363      	str	r3, [r4, #52]	; 0x34
 80011b6:	bd10      	pop	{r4, pc}
 80011b8:	20000830 	.word	0x20000830
 80011bc:	08005f70 	.word	0x08005f70

080011c0 <_dbg_check_unlock>:
 80011c0:	b510      	push	{r4, lr}
 80011c2:	4c07      	ldr	r4, [pc, #28]	; (80011e0 <_dbg_check_unlock+0x20>)
 80011c4:	6b23      	ldr	r3, [r4, #48]	; 0x30
 80011c6:	b92b      	cbnz	r3, 80011d4 <_dbg_check_unlock+0x14>
 80011c8:	6b63      	ldr	r3, [r4, #52]	; 0x34
 80011ca:	2b00      	cmp	r3, #0
 80011cc:	dd02      	ble.n	80011d4 <_dbg_check_unlock+0x14>
 80011ce:	2300      	movs	r3, #0
 80011d0:	6363      	str	r3, [r4, #52]	; 0x34
 80011d2:	bd10      	pop	{r4, pc}
 80011d4:	4803      	ldr	r0, [pc, #12]	; (80011e4 <_dbg_check_unlock+0x24>)
 80011d6:	f7ff ff73 	bl	80010c0 <chSysHalt>
 80011da:	2300      	movs	r3, #0
 80011dc:	6363      	str	r3, [r4, #52]	; 0x34
 80011de:	bd10      	pop	{r4, pc}
 80011e0:	20000830 	.word	0x20000830
 80011e4:	08005f90 	.word	0x08005f90
	...

080011f0 <_dbg_check_lock_from_isr>:
 80011f0:	b510      	push	{r4, lr}
 80011f2:	4c06      	ldr	r4, [pc, #24]	; (800120c <_dbg_check_lock_from_isr+0x1c>)
 80011f4:	6b23      	ldr	r3, [r4, #48]	; 0x30
 80011f6:	2b00      	cmp	r3, #0
 80011f8:	dd01      	ble.n	80011fe <_dbg_check_lock_from_isr+0xe>
 80011fa:	6b63      	ldr	r3, [r4, #52]	; 0x34
 80011fc:	b113      	cbz	r3, 8001204 <_dbg_check_lock_from_isr+0x14>
 80011fe:	4804      	ldr	r0, [pc, #16]	; (8001210 <_dbg_check_lock_from_isr+0x20>)
 8001200:	f7ff ff5e 	bl	80010c0 <chSysHalt>
 8001204:	2301      	movs	r3, #1
 8001206:	6363      	str	r3, [r4, #52]	; 0x34
 8001208:	bd10      	pop	{r4, pc}
 800120a:	bf00      	nop
 800120c:	20000830 	.word	0x20000830
 8001210:	08005f80 	.word	0x08005f80
	...

08001220 <_dbg_check_unlock_from_isr>:
 8001220:	b510      	push	{r4, lr}
 8001222:	4c08      	ldr	r4, [pc, #32]	; (8001244 <_dbg_check_unlock_from_isr+0x24>)
 8001224:	6b23      	ldr	r3, [r4, #48]	; 0x30
 8001226:	2b00      	cmp	r3, #0
 8001228:	dd05      	ble.n	8001236 <_dbg_check_unlock_from_isr+0x16>
 800122a:	6b63      	ldr	r3, [r4, #52]	; 0x34
 800122c:	2b00      	cmp	r3, #0
 800122e:	dd02      	ble.n	8001236 <_dbg_check_unlock_from_isr+0x16>
 8001230:	2300      	movs	r3, #0
 8001232:	6363      	str	r3, [r4, #52]	; 0x34
 8001234:	bd10      	pop	{r4, pc}
 8001236:	4804      	ldr	r0, [pc, #16]	; (8001248 <_dbg_check_unlock_from_isr+0x28>)
 8001238:	f7ff ff42 	bl	80010c0 <chSysHalt>
 800123c:	2300      	movs	r3, #0
 800123e:	6363      	str	r3, [r4, #52]	; 0x34
 8001240:	bd10      	pop	{r4, pc}
 8001242:	bf00      	nop
 8001244:	20000830 	.word	0x20000830
 8001248:	08005fa0 	.word	0x08005fa0
 800124c:	00000000 	.word	0x00000000

08001250 <_dbg_check_enter_isr>:
 8001250:	b510      	push	{r4, lr}
 8001252:	2320      	movs	r3, #32
 8001254:	f383 8811 	msr	BASEPRI, r3
 8001258:	4c07      	ldr	r4, [pc, #28]	; (8001278 <_dbg_check_enter_isr+0x28>)
 800125a:	6b23      	ldr	r3, [r4, #48]	; 0x30
 800125c:	2b00      	cmp	r3, #0
 800125e:	db01      	blt.n	8001264 <_dbg_check_enter_isr+0x14>
 8001260:	6b62      	ldr	r2, [r4, #52]	; 0x34
 8001262:	b11a      	cbz	r2, 800126c <_dbg_check_enter_isr+0x1c>
 8001264:	4805      	ldr	r0, [pc, #20]	; (800127c <_dbg_check_enter_isr+0x2c>)
 8001266:	f7ff ff2b 	bl	80010c0 <chSysHalt>
 800126a:	6b23      	ldr	r3, [r4, #48]	; 0x30
 800126c:	3301      	adds	r3, #1
 800126e:	6323      	str	r3, [r4, #48]	; 0x30
 8001270:	2300      	movs	r3, #0
 8001272:	f383 8811 	msr	BASEPRI, r3
 8001276:	bd10      	pop	{r4, pc}
 8001278:	20000830 	.word	0x20000830
 800127c:	08005f50 	.word	0x08005f50

08001280 <_dbg_check_leave_isr>:
 8001280:	b510      	push	{r4, lr}
 8001282:	2320      	movs	r3, #32
 8001284:	f383 8811 	msr	BASEPRI, r3
 8001288:	4c07      	ldr	r4, [pc, #28]	; (80012a8 <_dbg_check_leave_isr+0x28>)
 800128a:	6b23      	ldr	r3, [r4, #48]	; 0x30
 800128c:	2b00      	cmp	r3, #0
 800128e:	dd01      	ble.n	8001294 <_dbg_check_leave_isr+0x14>
 8001290:	6b62      	ldr	r2, [r4, #52]	; 0x34
 8001292:	b11a      	cbz	r2, 800129c <_dbg_check_leave_isr+0x1c>
 8001294:	4805      	ldr	r0, [pc, #20]	; (80012ac <_dbg_check_leave_isr+0x2c>)
 8001296:	f7ff ff13 	bl	80010c0 <chSysHalt>
 800129a:	6b23      	ldr	r3, [r4, #48]	; 0x30
 800129c:	3b01      	subs	r3, #1
 800129e:	6323      	str	r3, [r4, #48]	; 0x30
 80012a0:	2300      	movs	r3, #0
 80012a2:	f383 8811 	msr	BASEPRI, r3
 80012a6:	bd10      	pop	{r4, pc}
 80012a8:	20000830 	.word	0x20000830
 80012ac:	08005f60 	.word	0x08005f60

080012b0 <chDbgCheckClassI>:
 80012b0:	4b05      	ldr	r3, [pc, #20]	; (80012c8 <chDbgCheckClassI+0x18>)
 80012b2:	6b1a      	ldr	r2, [r3, #48]	; 0x30
 80012b4:	2a00      	cmp	r2, #0
 80012b6:	db03      	blt.n	80012c0 <chDbgCheckClassI+0x10>
 80012b8:	6b5b      	ldr	r3, [r3, #52]	; 0x34
 80012ba:	2b00      	cmp	r3, #0
 80012bc:	dd00      	ble.n	80012c0 <chDbgCheckClassI+0x10>
 80012be:	4770      	bx	lr
 80012c0:	4802      	ldr	r0, [pc, #8]	; (80012cc <chDbgCheckClassI+0x1c>)
 80012c2:	f7ff befd 	b.w	80010c0 <chSysHalt>
 80012c6:	bf00      	nop
 80012c8:	20000830 	.word	0x20000830
 80012cc:	08005fb0 	.word	0x08005fb0

080012d0 <chDbgCheckClassS>:
 80012d0:	4b04      	ldr	r3, [pc, #16]	; (80012e4 <chDbgCheckClassS+0x14>)
 80012d2:	6b1a      	ldr	r2, [r3, #48]	; 0x30
 80012d4:	b91a      	cbnz	r2, 80012de <chDbgCheckClassS+0xe>
 80012d6:	6b5b      	ldr	r3, [r3, #52]	; 0x34
 80012d8:	2b00      	cmp	r3, #0
 80012da:	dd00      	ble.n	80012de <chDbgCheckClassS+0xe>
 80012dc:	4770      	bx	lr
 80012de:	4802      	ldr	r0, [pc, #8]	; (80012e8 <chDbgCheckClassS+0x18>)
 80012e0:	f7ff beee 	b.w	80010c0 <chSysHalt>
 80012e4:	20000830 	.word	0x20000830
 80012e8:	08005fc0 	.word	0x08005fc0
 80012ec:	00000000 	.word	0x00000000

080012f0 <_dbg_trace_init>:
 80012f0:	4b02      	ldr	r3, [pc, #8]	; (80012fc <_dbg_trace_init+0xc>)
 80012f2:	2140      	movs	r1, #64	; 0x40
 80012f4:	185a      	adds	r2, r3, r1
 80012f6:	e9c3 120e 	strd	r1, r2, [r3, #56]	; 0x38
 80012fa:	4770      	bx	lr
 80012fc:	20000830 	.word	0x20000830

08001300 <_dbg_trace>:
 8001300:	4a0a      	ldr	r2, [pc, #40]	; (800132c <_dbg_trace+0x2c>)
 8001302:	b430      	push	{r4, r5}
 8001304:	6bd3      	ldr	r3, [r2, #60]	; 0x3c
 8001306:	6a84      	ldr	r4, [r0, #40]	; 0x28
 8001308:	6991      	ldr	r1, [r2, #24]
 800130a:	6a95      	ldr	r5, [r2, #40]	; 0x28
 800130c:	601d      	str	r5, [r3, #0]
 800130e:	e9c3 1401 	strd	r1, r4, [r3, #4]
 8001312:	f890 1020 	ldrb.w	r1, [r0, #32]
 8001316:	7319      	strb	r1, [r3, #12]
 8001318:	3310      	adds	r3, #16
 800131a:	f502 6188 	add.w	r1, r2, #1088	; 0x440
 800131e:	428b      	cmp	r3, r1
 8001320:	bf28      	it	cs
 8001322:	f102 0340 	addcs.w	r3, r2, #64	; 0x40
 8001326:	63d3      	str	r3, [r2, #60]	; 0x3c
 8001328:	bc30      	pop	{r4, r5}
 800132a:	4770      	bx	lr
 800132c:	20000830 	.word	0x20000830

08001330 <_vt_init>:
 8001330:	4b05      	ldr	r3, [pc, #20]	; (8001348 <_vt_init+0x18>)
 8001332:	f04f 30ff 	mov.w	r0, #4294967295	; 0xffffffff
 8001336:	2100      	movs	r1, #0
 8001338:	f103 021c 	add.w	r2, r3, #28
 800133c:	6258      	str	r0, [r3, #36]	; 0x24
 800133e:	6299      	str	r1, [r3, #40]	; 0x28
 8001340:	e9c3 2207 	strd	r2, r2, [r3, #28]
 8001344:	4770      	bx	lr
 8001346:	bf00      	nop
 8001348:	20000830 	.word	0x20000830
 800134c:	00000000 	.word	0x00000000

08001350 <chVTDoSetI>:
 8001350:	b5f8      	push	{r3, r4, r5, r6, r7, lr}
 8001352:	4605      	mov	r5, r0
 8001354:	460c      	mov	r4, r1
 8001356:	4616      	mov	r6, r2
 8001358:	461f      	mov	r7, r3
 800135a:	f7ff ffa9 	bl	80012b0 <chDbgCheckClassI>
 800135e:	b1d5      	cbz	r5, 8001396 <chVTDoSetI+0x46>
 8001360:	b1ce      	cbz	r6, 8001396 <chVTDoSetI+0x46>
 8001362:	b1c4      	cbz	r4, 8001396 <chVTDoSetI+0x46>
 8001364:	480e      	ldr	r0, [pc, #56]	; (80013a0 <chVTDoSetI+0x50>)
 8001366:	612f      	str	r7, [r5, #16]
 8001368:	69c3      	ldr	r3, [r0, #28]
 800136a:	60ee      	str	r6, [r5, #12]
 800136c:	689a      	ldr	r2, [r3, #8]
 800136e:	4294      	cmp	r4, r2
 8001370:	d904      	bls.n	800137c <chVTDoSetI+0x2c>
 8001372:	681b      	ldr	r3, [r3, #0]
 8001374:	1aa4      	subs	r4, r4, r2
 8001376:	689a      	ldr	r2, [r3, #8]
 8001378:	42a2      	cmp	r2, r4
 800137a:	d3fa      	bcc.n	8001372 <chVTDoSetI+0x22>
 800137c:	685a      	ldr	r2, [r3, #4]
 800137e:	e9c5 3200 	strd	r3, r2, [r5]
 8001382:	6015      	str	r5, [r2, #0]
 8001384:	605d      	str	r5, [r3, #4]
 8001386:	60ac      	str	r4, [r5, #8]
 8001388:	6899      	ldr	r1, [r3, #8]
 800138a:	f04f 32ff 	mov.w	r2, #4294967295	; 0xffffffff
 800138e:	1b09      	subs	r1, r1, r4
 8001390:	6099      	str	r1, [r3, #8]
 8001392:	6242      	str	r2, [r0, #36]	; 0x24
 8001394:	bdf8      	pop	{r3, r4, r5, r6, r7, pc}
 8001396:	4803      	ldr	r0, [pc, #12]	; (80013a4 <chVTDoSetI+0x54>)
 8001398:	f7ff fe92 	bl	80010c0 <chSysHalt>
 800139c:	e7e2      	b.n	8001364 <chVTDoSetI+0x14>
 800139e:	bf00      	nop
 80013a0:	20000830 	.word	0x20000830
 80013a4:	08005fd0 	.word	0x08005fd0
	...

080013b0 <chVTDoResetI>:
 80013b0:	b538      	push	{r3, r4, r5, lr}
 80013b2:	4604      	mov	r4, r0
 80013b4:	f7ff ff7c 	bl	80012b0 <chDbgCheckClassI>
 80013b8:	b1ac      	cbz	r4, 80013e6 <chVTDoResetI+0x36>
 80013ba:	68e3      	ldr	r3, [r4, #12]
 80013bc:	b17b      	cbz	r3, 80013de <chVTDoResetI+0x2e>
 80013be:	6823      	ldr	r3, [r4, #0]
 80013c0:	68a5      	ldr	r5, [r4, #8]
 80013c2:	689a      	ldr	r2, [r3, #8]
 80013c4:	6861      	ldr	r1, [r4, #4]
 80013c6:	480a      	ldr	r0, [pc, #40]	; (80013f0 <chVTDoResetI+0x40>)
 80013c8:	442a      	add	r2, r5
 80013ca:	609a      	str	r2, [r3, #8]
 80013cc:	600b      	str	r3, [r1, #0]
 80013ce:	6825      	ldr	r5, [r4, #0]
 80013d0:	2200      	movs	r2, #0
 80013d2:	f04f 33ff 	mov.w	r3, #4294967295	; 0xffffffff
 80013d6:	6069      	str	r1, [r5, #4]
 80013d8:	60e2      	str	r2, [r4, #12]
 80013da:	6243      	str	r3, [r0, #36]	; 0x24
 80013dc:	bd38      	pop	{r3, r4, r5, pc}
 80013de:	4805      	ldr	r0, [pc, #20]	; (80013f4 <chVTDoResetI+0x44>)
 80013e0:	f7ff fe6e 	bl	80010c0 <chSysHalt>
 80013e4:	e7eb      	b.n	80013be <chVTDoResetI+0xe>
 80013e6:	4803      	ldr	r0, [pc, #12]	; (80013f4 <chVTDoResetI+0x44>)
 80013e8:	f7ff fe6a 	bl	80010c0 <chSysHalt>
 80013ec:	e7e5      	b.n	80013ba <chVTDoResetI+0xa>
 80013ee:	bf00      	nop
 80013f0:	20000830 	.word	0x20000830
 80013f4:	08005fe0 	.word	0x08005fe0
	...

08001400 <_scheduler_init>:
 8001400:	4b03      	ldr	r3, [pc, #12]	; (8001410 <_scheduler_init+0x10>)
 8001402:	2200      	movs	r2, #0
 8001404:	e9c3 3300 	strd	r3, r3, [r3]
 8001408:	e9c3 3304 	strd	r3, r3, [r3, #16]
 800140c:	609a      	str	r2, [r3, #8]
 800140e:	4770      	bx	lr
 8001410:	20000830 	.word	0x20000830
	...

08001420 <chSchReadyI>:
 8001420:	b510      	push	{r4, lr}
 8001422:	4604      	mov	r4, r0
 8001424:	f7ff ff44 	bl	80012b0 <chDbgCheckClassI>
 8001428:	b1c4      	cbz	r4, 800145c <chSchReadyI+0x3c>
 800142a:	f894 3020 	ldrb.w	r3, [r4, #32]
 800142e:	b18b      	cbz	r3, 8001454 <chSchReadyI+0x34>
 8001430:	2b0f      	cmp	r3, #15
 8001432:	d00f      	beq.n	8001454 <chSchReadyI+0x34>
 8001434:	2200      	movs	r2, #0
 8001436:	68a1      	ldr	r1, [r4, #8]
 8001438:	4b0a      	ldr	r3, [pc, #40]	; (8001464 <chSchReadyI+0x44>)
 800143a:	f884 2020 	strb.w	r2, [r4, #32]
 800143e:	681b      	ldr	r3, [r3, #0]
 8001440:	689a      	ldr	r2, [r3, #8]
 8001442:	428a      	cmp	r2, r1
 8001444:	d2fb      	bcs.n	800143e <chSchReadyI+0x1e>
 8001446:	685a      	ldr	r2, [r3, #4]
 8001448:	4620      	mov	r0, r4
 800144a:	e9c4 3200 	strd	r3, r2, [r4]
 800144e:	6014      	str	r4, [r2, #0]
 8001450:	605c      	str	r4, [r3, #4]
 8001452:	bd10      	pop	{r4, pc}
 8001454:	4804      	ldr	r0, [pc, #16]	; (8001468 <chSchReadyI+0x48>)
 8001456:	f7ff fe33 	bl	80010c0 <chSysHalt>
 800145a:	e7eb      	b.n	8001434 <chSchReadyI+0x14>
 800145c:	4802      	ldr	r0, [pc, #8]	; (8001468 <chSchReadyI+0x48>)
 800145e:	f7ff fe2f 	bl	80010c0 <chSysHalt>
 8001462:	e7e2      	b.n	800142a <chSchReadyI+0xa>
 8001464:	20000830 	.word	0x20000830
 8001468:	08005ff0 	.word	0x08005ff0
 800146c:	00000000 	.word	0x00000000

08001470 <wakeup>:
 8001470:	b538      	push	{r3, r4, r5, lr}
 8001472:	4604      	mov	r4, r0
 8001474:	2320      	movs	r3, #32
 8001476:	f383 8811 	msr	BASEPRI, r3
 800147a:	f000 fbf9 	bl	8001c70 <_stats_start_measure_crit_isr>
 800147e:	f7ff feb7 	bl	80011f0 <_dbg_check_lock_from_isr>
 8001482:	f894 3020 	ldrb.w	r3, [r4, #32]
 8001486:	2b07      	cmp	r3, #7
 8001488:	d810      	bhi.n	80014ac <wakeup+0x3c>
 800148a:	e8df f003 	tbb	[pc, r3]
 800148e:	0f15      	.short	0x0f15
 8001490:	040a1d0f 	.word	0x040a1d0f
 8001494:	0a0f      	.short	0x0a0f
 8001496:	6aa5      	ldr	r5, [r4, #40]	; 0x28
 8001498:	f7ff ff0a 	bl	80012b0 <chDbgCheckClassI>
 800149c:	68ab      	ldr	r3, [r5, #8]
 800149e:	3301      	adds	r3, #1
 80014a0:	60ab      	str	r3, [r5, #8]
 80014a2:	e9d4 2300 	ldrd	r2, r3, [r4]
 80014a6:	601a      	str	r2, [r3, #0]
 80014a8:	6822      	ldr	r2, [r4, #0]
 80014aa:	6053      	str	r3, [r2, #4]
 80014ac:	f04f 33ff 	mov.w	r3, #4294967295	; 0xffffffff
 80014b0:	62a3      	str	r3, [r4, #40]	; 0x28
 80014b2:	4620      	mov	r0, r4
 80014b4:	f7ff ffb4 	bl	8001420 <chSchReadyI>
 80014b8:	f7ff feb2 	bl	8001220 <_dbg_check_unlock_from_isr>
 80014bc:	f000 fbe0 	bl	8001c80 <_stats_stop_measure_crit_isr>
 80014c0:	2300      	movs	r3, #0
 80014c2:	f383 8811 	msr	BASEPRI, r3
 80014c6:	bd38      	pop	{r3, r4, r5, pc}
 80014c8:	6aa3      	ldr	r3, [r4, #40]	; 0x28
 80014ca:	2200      	movs	r2, #0
 80014cc:	601a      	str	r2, [r3, #0]
 80014ce:	f04f 33ff 	mov.w	r3, #4294967295	; 0xffffffff
 80014d2:	62a3      	str	r3, [r4, #40]	; 0x28
 80014d4:	4620      	mov	r0, r4
 80014d6:	f7ff ffa3 	bl	8001420 <chSchReadyI>
 80014da:	e7ed      	b.n	80014b8 <wakeup+0x48>
 80014dc:	0000      	movs	r0, r0
	...

080014e0 <chSchGoSleepS>:
 80014e0:	b570      	push	{r4, r5, r6, lr}
 80014e2:	4c14      	ldr	r4, [pc, #80]	; (8001534 <chSchGoSleepS+0x54>)
 80014e4:	4606      	mov	r6, r0
 80014e6:	f7ff fef3 	bl	80012d0 <chDbgCheckClassS>
 80014ea:	69a5      	ldr	r5, [r4, #24]
 80014ec:	6823      	ldr	r3, [r4, #0]
 80014ee:	f885 6020 	strb.w	r6, [r5, #32]
 80014f2:	2214      	movs	r2, #20
 80014f4:	f885 2023 	strb.w	r2, [r5, #35]	; 0x23
 80014f8:	681a      	ldr	r2, [r3, #0]
 80014fa:	6022      	str	r2, [r4, #0]
 80014fc:	2101      	movs	r1, #1
 80014fe:	6054      	str	r4, [r2, #4]
 8001500:	4628      	mov	r0, r5
 8001502:	f883 1020 	strb.w	r1, [r3, #32]
 8001506:	61a3      	str	r3, [r4, #24]
 8001508:	f7ff fefa 	bl	8001300 <_dbg_trace>
 800150c:	4629      	mov	r1, r5
 800150e:	69a0      	ldr	r0, [r4, #24]
 8001510:	f000 fb86 	bl	8001c20 <_stats_ctxswc>
 8001514:	f3ef 8309 	mrs	r3, PSP
 8001518:	69ea      	ldr	r2, [r5, #28]
 800151a:	3b64      	subs	r3, #100	; 0x64
 800151c:	429a      	cmp	r2, r3
 800151e:	d902      	bls.n	8001526 <chSchGoSleepS+0x46>
 8001520:	4805      	ldr	r0, [pc, #20]	; (8001538 <chSchGoSleepS+0x58>)
 8001522:	f7ff fdcd 	bl	80010c0 <chSysHalt>
 8001526:	4629      	mov	r1, r5
 8001528:	69a0      	ldr	r0, [r4, #24]
 800152a:	e8bd 4070 	ldmia.w	sp!, {r4, r5, r6, lr}
 800152e:	f7fe bebf 	b.w	80002b0 <_port_switch>
 8001532:	bf00      	nop
 8001534:	20000830 	.word	0x20000830
 8001538:	08006000 	.word	0x08006000
 800153c:	00000000 	.word	0x00000000

08001540 <chSchGoSleepTimeoutS>:
 8001540:	b570      	push	{r4, r5, r6, lr}
 8001542:	460d      	mov	r5, r1
 8001544:	b086      	sub	sp, #24
 8001546:	4606      	mov	r6, r0
 8001548:	f7ff fec2 	bl	80012d0 <chDbgCheckClassS>
 800154c:	1c6b      	adds	r3, r5, #1
 800154e:	d014      	beq.n	800157a <chSchGoSleepTimeoutS+0x3a>
 8001550:	4c0e      	ldr	r4, [pc, #56]	; (800158c <chSchGoSleepTimeoutS+0x4c>)
 8001552:	4a0f      	ldr	r2, [pc, #60]	; (8001590 <chSchGoSleepTimeoutS+0x50>)
 8001554:	69a3      	ldr	r3, [r4, #24]
 8001556:	4629      	mov	r1, r5
 8001558:	a801      	add	r0, sp, #4
 800155a:	f7ff fef9 	bl	8001350 <chVTDoSetI>
 800155e:	4630      	mov	r0, r6
 8001560:	f7ff ffbe 	bl	80014e0 <chSchGoSleepS>
 8001564:	f7ff fea4 	bl	80012b0 <chDbgCheckClassI>
 8001568:	9b04      	ldr	r3, [sp, #16]
 800156a:	b113      	cbz	r3, 8001572 <chSchGoSleepTimeoutS+0x32>
 800156c:	a801      	add	r0, sp, #4
 800156e:	f7ff ff1f 	bl	80013b0 <chVTDoResetI>
 8001572:	69a3      	ldr	r3, [r4, #24]
 8001574:	6a98      	ldr	r0, [r3, #40]	; 0x28
 8001576:	b006      	add	sp, #24
 8001578:	bd70      	pop	{r4, r5, r6, pc}
 800157a:	4c04      	ldr	r4, [pc, #16]	; (800158c <chSchGoSleepTimeoutS+0x4c>)
 800157c:	4630      	mov	r0, r6
 800157e:	f7ff ffaf 	bl	80014e0 <chSchGoSleepS>
 8001582:	69a3      	ldr	r3, [r4, #24]
 8001584:	6a98      	ldr	r0, [r3, #40]	; 0x28
 8001586:	b006      	add	sp, #24
 8001588:	bd70      	pop	{r4, r5, r6, pc}
 800158a:	bf00      	nop
 800158c:	20000830 	.word	0x20000830
 8001590:	08001471 	.word	0x08001471
	...

080015a0 <chSchWakeupS>:
 80015a0:	b570      	push	{r4, r5, r6, lr}
 80015a2:	4d19      	ldr	r5, [pc, #100]	; (8001608 <chSchWakeupS+0x68>)
 80015a4:	4604      	mov	r4, r0
 80015a6:	460e      	mov	r6, r1
 80015a8:	f7ff fe92 	bl	80012d0 <chDbgCheckClassS>
 80015ac:	69a8      	ldr	r0, [r5, #24]
 80015ae:	68a2      	ldr	r2, [r4, #8]
 80015b0:	6883      	ldr	r3, [r0, #8]
 80015b2:	62a6      	str	r6, [r4, #40]	; 0x28
 80015b4:	429a      	cmp	r2, r3
 80015b6:	d918      	bls.n	80015ea <chSchWakeupS+0x4a>
 80015b8:	f7ff ff32 	bl	8001420 <chSchReadyI>
 80015bc:	2301      	movs	r3, #1
 80015be:	4606      	mov	r6, r0
 80015c0:	f884 3020 	strb.w	r3, [r4, #32]
 80015c4:	61ac      	str	r4, [r5, #24]
 80015c6:	f7ff fe9b 	bl	8001300 <_dbg_trace>
 80015ca:	4631      	mov	r1, r6
 80015cc:	4620      	mov	r0, r4
 80015ce:	f000 fb27 	bl	8001c20 <_stats_ctxswc>
 80015d2:	f3ef 8309 	mrs	r3, PSP
 80015d6:	69f2      	ldr	r2, [r6, #28]
 80015d8:	3b64      	subs	r3, #100	; 0x64
 80015da:	429a      	cmp	r2, r3
 80015dc:	d80a      	bhi.n	80015f4 <chSchWakeupS+0x54>
 80015de:	4631      	mov	r1, r6
 80015e0:	4620      	mov	r0, r4
 80015e2:	e8bd 4070 	ldmia.w	sp!, {r4, r5, r6, lr}
 80015e6:	f7fe be63 	b.w	80002b0 <_port_switch>
 80015ea:	4620      	mov	r0, r4
 80015ec:	e8bd 4070 	ldmia.w	sp!, {r4, r5, r6, lr}
 80015f0:	f7ff bf16 	b.w	8001420 <chSchReadyI>
 80015f4:	4805      	ldr	r0, [pc, #20]	; (800160c <chSchWakeupS+0x6c>)
 80015f6:	f7ff fd63 	bl	80010c0 <chSysHalt>
 80015fa:	4631      	mov	r1, r6
 80015fc:	4620      	mov	r0, r4
 80015fe:	e8bd 4070 	ldmia.w	sp!, {r4, r5, r6, lr}
 8001602:	f7fe be55 	b.w	80002b0 <_port_switch>
 8001606:	bf00      	nop
 8001608:	20000830 	.word	0x20000830
 800160c:	08006000 	.word	0x08006000

08001610 <chSchIsPreemptionRequired>:
 8001610:	4a08      	ldr	r2, [pc, #32]	; (8001634 <chSchIsPreemptionRequired+0x24>)
 8001612:	6993      	ldr	r3, [r2, #24]
 8001614:	6811      	ldr	r1, [r2, #0]
 8001616:	f893 2023 	ldrb.w	r2, [r3, #35]	; 0x23
 800161a:	6888      	ldr	r0, [r1, #8]
 800161c:	689b      	ldr	r3, [r3, #8]
 800161e:	b922      	cbnz	r2, 800162a <chSchIsPreemptionRequired+0x1a>
 8001620:	4298      	cmp	r0, r3
 8001622:	bf34      	ite	cc
 8001624:	2000      	movcc	r0, #0
 8001626:	2001      	movcs	r0, #1
 8001628:	4770      	bx	lr
 800162a:	4298      	cmp	r0, r3
 800162c:	bf94      	ite	ls
 800162e:	2000      	movls	r0, #0
 8001630:	2001      	movhi	r0, #1
 8001632:	4770      	bx	lr
 8001634:	20000830 	.word	0x20000830
	...

08001640 <chSchDoRescheduleBehind>:
 8001640:	b538      	push	{r3, r4, r5, lr}
 8001642:	4c13      	ldr	r4, [pc, #76]	; (8001690 <chSchDoRescheduleBehind+0x50>)
 8001644:	6823      	ldr	r3, [r4, #0]
 8001646:	69a5      	ldr	r5, [r4, #24]
 8001648:	681a      	ldr	r2, [r3, #0]
 800164a:	6022      	str	r2, [r4, #0]
 800164c:	2114      	movs	r1, #20
 800164e:	2001      	movs	r0, #1
 8001650:	6054      	str	r4, [r2, #4]
 8001652:	f883 0020 	strb.w	r0, [r3, #32]
 8001656:	f885 1023 	strb.w	r1, [r5, #35]	; 0x23
 800165a:	4628      	mov	r0, r5
 800165c:	61a3      	str	r3, [r4, #24]
 800165e:	f7ff fedf 	bl	8001420 <chSchReadyI>
 8001662:	4628      	mov	r0, r5
 8001664:	f7ff fe4c 	bl	8001300 <_dbg_trace>
 8001668:	4629      	mov	r1, r5
 800166a:	69a0      	ldr	r0, [r4, #24]
 800166c:	f000 fad8 	bl	8001c20 <_stats_ctxswc>
 8001670:	f3ef 8309 	mrs	r3, PSP
 8001674:	69ea      	ldr	r2, [r5, #28]
 8001676:	3b64      	subs	r3, #100	; 0x64
 8001678:	429a      	cmp	r2, r3
 800167a:	d902      	bls.n	8001682 <chSchDoRescheduleBehind+0x42>
 800167c:	4805      	ldr	r0, [pc, #20]	; (8001694 <chSchDoRescheduleBehind+0x54>)
 800167e:	f7ff fd1f 	bl	80010c0 <chSysHalt>
 8001682:	4629      	mov	r1, r5
 8001684:	69a0      	ldr	r0, [r4, #24]
 8001686:	e8bd 4038 	ldmia.w	sp!, {r3, r4, r5, lr}
 800168a:	f7fe be11 	b.w	80002b0 <_port_switch>
 800168e:	bf00      	nop
 8001690:	20000830 	.word	0x20000830
 8001694:	08006000 	.word	0x08006000
	...

080016a0 <chSchDoRescheduleAhead>:
 80016a0:	4b17      	ldr	r3, [pc, #92]	; (8001700 <chSchDoRescheduleAhead+0x60>)
 80016a2:	681a      	ldr	r2, [r3, #0]
 80016a4:	b570      	push	{r4, r5, r6, lr}
 80016a6:	6810      	ldr	r0, [r2, #0]
 80016a8:	699c      	ldr	r4, [r3, #24]
 80016aa:	6018      	str	r0, [r3, #0]
 80016ac:	68a1      	ldr	r1, [r4, #8]
 80016ae:	6043      	str	r3, [r0, #4]
 80016b0:	2601      	movs	r6, #1
 80016b2:	2000      	movs	r0, #0
 80016b4:	f882 6020 	strb.w	r6, [r2, #32]
 80016b8:	461d      	mov	r5, r3
 80016ba:	619a      	str	r2, [r3, #24]
 80016bc:	f884 0020 	strb.w	r0, [r4, #32]
 80016c0:	681b      	ldr	r3, [r3, #0]
 80016c2:	689a      	ldr	r2, [r3, #8]
 80016c4:	4291      	cmp	r1, r2
 80016c6:	d3fb      	bcc.n	80016c0 <chSchDoRescheduleAhead+0x20>
 80016c8:	685a      	ldr	r2, [r3, #4]
 80016ca:	4620      	mov	r0, r4
 80016cc:	e9c4 3200 	strd	r3, r2, [r4]
 80016d0:	6014      	str	r4, [r2, #0]
 80016d2:	605c      	str	r4, [r3, #4]
 80016d4:	f7ff fe14 	bl	8001300 <_dbg_trace>
 80016d8:	4621      	mov	r1, r4
 80016da:	69a8      	ldr	r0, [r5, #24]
 80016dc:	f000 faa0 	bl	8001c20 <_stats_ctxswc>
 80016e0:	f3ef 8309 	mrs	r3, PSP
 80016e4:	69e2      	ldr	r2, [r4, #28]
 80016e6:	3b64      	subs	r3, #100	; 0x64
 80016e8:	429a      	cmp	r2, r3
 80016ea:	d902      	bls.n	80016f2 <chSchDoRescheduleAhead+0x52>
 80016ec:	4805      	ldr	r0, [pc, #20]	; (8001704 <chSchDoRescheduleAhead+0x64>)
 80016ee:	f7ff fce7 	bl	80010c0 <chSysHalt>
 80016f2:	4621      	mov	r1, r4
 80016f4:	69a8      	ldr	r0, [r5, #24]
 80016f6:	e8bd 4070 	ldmia.w	sp!, {r4, r5, r6, lr}
 80016fa:	f7fe bdd9 	b.w	80002b0 <_port_switch>
 80016fe:	bf00      	nop
 8001700:	20000830 	.word	0x20000830
 8001704:	08006000 	.word	0x08006000
	...

08001710 <chSchRescheduleS>:
 8001710:	b508      	push	{r3, lr}
 8001712:	f7ff fddd 	bl	80012d0 <chDbgCheckClassS>
 8001716:	f7ff fdcb 	bl	80012b0 <chDbgCheckClassI>
 800171a:	4b06      	ldr	r3, [pc, #24]	; (8001734 <chSchRescheduleS+0x24>)
 800171c:	681a      	ldr	r2, [r3, #0]
 800171e:	699b      	ldr	r3, [r3, #24]
 8001720:	6892      	ldr	r2, [r2, #8]
 8001722:	689b      	ldr	r3, [r3, #8]
 8001724:	429a      	cmp	r2, r3
 8001726:	d800      	bhi.n	800172a <chSchRescheduleS+0x1a>
 8001728:	bd08      	pop	{r3, pc}
 800172a:	e8bd 4008 	ldmia.w	sp!, {r3, lr}
 800172e:	f7ff bfb7 	b.w	80016a0 <chSchDoRescheduleAhead>
 8001732:	bf00      	nop
 8001734:	20000830 	.word	0x20000830
	...

08001740 <chSchDoReschedule>:
 8001740:	4b04      	ldr	r3, [pc, #16]	; (8001754 <chSchDoReschedule+0x14>)
 8001742:	699b      	ldr	r3, [r3, #24]
 8001744:	f893 3023 	ldrb.w	r3, [r3, #35]	; 0x23
 8001748:	b10b      	cbz	r3, 800174e <chSchDoReschedule+0xe>
 800174a:	f7ff bfa9 	b.w	80016a0 <chSchDoRescheduleAhead>
 800174e:	f7ff bf77 	b.w	8001640 <chSchDoRescheduleBehind>
 8001752:	bf00      	nop
 8001754:	20000830 	.word	0x20000830
	...

08001760 <_thread_init>:
 8001760:	b570      	push	{r4, r5, r6, lr}
 8001762:	4a15      	ldr	r2, [pc, #84]	; (80017b8 <_thread_init+0x58>)
 8001764:	4604      	mov	r4, r0
 8001766:	2314      	movs	r3, #20
 8001768:	6950      	ldr	r0, [r2, #20]
 800176a:	6461      	str	r1, [r4, #68]	; 0x44
 800176c:	60a1      	str	r1, [r4, #8]
 800176e:	f884 3023 	strb.w	r3, [r4, #35]	; 0x23
 8001772:	2502      	movs	r5, #2
 8001774:	2300      	movs	r3, #0
 8001776:	2101      	movs	r1, #1
 8001778:	8425      	strh	r5, [r4, #32]
 800177a:	f884 1022 	strb.w	r1, [r4, #34]	; 0x22
 800177e:	e9c4 330f 	strd	r3, r3, [r4, #60]	; 0x3c
 8001782:	f104 0168 	add.w	r1, r4, #104	; 0x68
 8001786:	6263      	str	r3, [r4, #36]	; 0x24
 8001788:	61a3      	str	r3, [r4, #24]
 800178a:	f104 0550 	add.w	r5, r4, #80	; 0x50
 800178e:	f104 0330 	add.w	r3, r4, #48	; 0x30
 8001792:	f104 062c 	add.w	r6, r4, #44	; 0x2c
 8001796:	6122      	str	r2, [r4, #16]
 8001798:	6160      	str	r0, [r4, #20]
 800179a:	6104      	str	r4, [r0, #16]
 800179c:	61e1      	str	r1, [r4, #28]
 800179e:	4628      	mov	r0, r5
 80017a0:	e9c4 330c 	strd	r3, r3, [r4, #48]	; 0x30
 80017a4:	62e6      	str	r6, [r4, #44]	; 0x2c
 80017a6:	6154      	str	r4, [r2, #20]
 80017a8:	f000 f992 	bl	8001ad0 <chTMObjectInit>
 80017ac:	4628      	mov	r0, r5
 80017ae:	f000 f99f 	bl	8001af0 <chTMStartMeasurementX>
 80017b2:	4620      	mov	r0, r4
 80017b4:	bd70      	pop	{r4, r5, r6, pc}
 80017b6:	bf00      	nop
 80017b8:	20000830 	.word	0x20000830
 80017bc:	00000000 	.word	0x00000000

080017c0 <_thread_memfill>:
 80017c0:	4288      	cmp	r0, r1
 80017c2:	d203      	bcs.n	80017cc <_thread_memfill+0xc>
 80017c4:	f800 2b01 	strb.w	r2, [r0], #1
 80017c8:	4281      	cmp	r1, r0
 80017ca:	d1fb      	bne.n	80017c4 <_thread_memfill+0x4>
 80017cc:	4770      	bx	lr
 80017ce:	bf00      	nop

080017d0 <chThdCreateI>:
 80017d0:	e92d 41f0 	stmdb	sp!, {r4, r5, r6, r7, r8, lr}
 80017d4:	4605      	mov	r5, r0
 80017d6:	460c      	mov	r4, r1
 80017d8:	4616      	mov	r6, r2
 80017da:	461f      	mov	r7, r3
 80017dc:	f8dd 8018 	ldr.w	r8, [sp, #24]
 80017e0:	f7ff fd66 	bl	80012b0 <chDbgCheckClassI>
 80017e4:	b115      	cbz	r5, 80017ec <chThdCreateI+0x1c>
 80017e6:	f5b4 7fbc 	cmp.w	r4, #376	; 0x178
 80017ea:	d210      	bcs.n	800180e <chThdCreateI+0x3e>
 80017ec:	480a      	ldr	r0, [pc, #40]	; (8001818 <chThdCreateI+0x48>)
 80017ee:	f7ff fc67 	bl	80010c0 <chSysHalt>
 80017f2:	f1a4 0364 	sub.w	r3, r4, #100	; 0x64
 80017f6:	442b      	add	r3, r5
 80017f8:	4a08      	ldr	r2, [pc, #32]	; (800181c <chThdCreateI+0x4c>)
 80017fa:	60eb      	str	r3, [r5, #12]
 80017fc:	4631      	mov	r1, r6
 80017fe:	e9c3 7810 	strd	r7, r8, [r3, #64]	; 0x40
 8001802:	4628      	mov	r0, r5
 8001804:	661a      	str	r2, [r3, #96]	; 0x60
 8001806:	e8bd 41f0 	ldmia.w	sp!, {r4, r5, r6, r7, r8, lr}
 800180a:	f7ff bfa9 	b.w	8001760 <_thread_init>
 800180e:	2e7f      	cmp	r6, #127	; 0x7f
 8001810:	d8ec      	bhi.n	80017ec <chThdCreateI+0x1c>
 8001812:	2f00      	cmp	r7, #0
 8001814:	d1ed      	bne.n	80017f2 <chThdCreateI+0x22>
 8001816:	e7e9      	b.n	80017ec <chThdCreateI+0x1c>
 8001818:	08006050 	.word	0x08006050
 800181c:	080002c9 	.word	0x080002c9

08001820 <chThdCreateStatic>:
 8001820:	e92d 4ff0 	stmdb	sp!, {r4, r5, r6, r7, r8, r9, sl, fp, lr}
 8001824:	b083      	sub	sp, #12
 8001826:	4680      	mov	r8, r0
 8001828:	9f0c      	ldr	r7, [sp, #48]	; 0x30
 800182a:	4689      	mov	r9, r1
 800182c:	4692      	mov	sl, r2
 800182e:	469b      	mov	fp, r3
 8001830:	f100 0668 	add.w	r6, r0, #104	; 0x68
 8001834:	4604      	mov	r4, r0
 8001836:	25ff      	movs	r5, #255	; 0xff
 8001838:	f804 5b01 	strb.w	r5, [r4], #1
 800183c:	42a6      	cmp	r6, r4
 800183e:	d1fb      	bne.n	8001838 <chThdCreateStatic+0x18>
 8001840:	eb08 0509 	add.w	r5, r8, r9
 8001844:	42a5      	cmp	r5, r4
 8001846:	d904      	bls.n	8001852 <chThdCreateStatic+0x32>
 8001848:	2655      	movs	r6, #85	; 0x55
 800184a:	f804 6b01 	strb.w	r6, [r4], #1
 800184e:	42a5      	cmp	r5, r4
 8001850:	d1fb      	bne.n	800184a <chThdCreateStatic+0x2a>
 8001852:	2320      	movs	r3, #32
 8001854:	f383 8811 	msr	BASEPRI, r3
 8001858:	f000 f9fa 	bl	8001c50 <_stats_start_measure_crit_thd>
 800185c:	f7ff fca0 	bl	80011a0 <_dbg_check_lock>
 8001860:	465b      	mov	r3, fp
 8001862:	4652      	mov	r2, sl
 8001864:	4649      	mov	r1, r9
 8001866:	9700      	str	r7, [sp, #0]
 8001868:	4640      	mov	r0, r8
 800186a:	f7ff ffb1 	bl	80017d0 <chThdCreateI>
 800186e:	2100      	movs	r1, #0
 8001870:	4604      	mov	r4, r0
 8001872:	f7ff fe95 	bl	80015a0 <chSchWakeupS>
 8001876:	f7ff fca3 	bl	80011c0 <_dbg_check_unlock>
 800187a:	f000 f9f1 	bl	8001c60 <_stats_stop_measure_crit_thd>
 800187e:	4b0a      	ldr	r3, [pc, #40]	; (80018a8 <chThdCreateStatic+0x88>)
 8001880:	681a      	ldr	r2, [r3, #0]
 8001882:	429a      	cmp	r2, r3
 8001884:	d004      	beq.n	8001890 <chThdCreateStatic+0x70>
 8001886:	6999      	ldr	r1, [r3, #24]
 8001888:	6893      	ldr	r3, [r2, #8]
 800188a:	688a      	ldr	r2, [r1, #8]
 800188c:	429a      	cmp	r2, r3
 800188e:	d306      	bcc.n	800189e <chThdCreateStatic+0x7e>
 8001890:	2300      	movs	r3, #0
 8001892:	f383 8811 	msr	BASEPRI, r3
 8001896:	4620      	mov	r0, r4
 8001898:	b003      	add	sp, #12
 800189a:	e8bd 8ff0 	ldmia.w	sp!, {r4, r5, r6, r7, r8, r9, sl, fp, pc}
 800189e:	4803      	ldr	r0, [pc, #12]	; (80018ac <chThdCreateStatic+0x8c>)
 80018a0:	f7ff fc0e 	bl	80010c0 <chSysHalt>
 80018a4:	e7f4      	b.n	8001890 <chThdCreateStatic+0x70>
 80018a6:	bf00      	nop
 80018a8:	20000830 	.word	0x20000830
 80018ac:	08006010 	.word	0x08006010

080018b0 <chThdSleep>:
 80018b0:	b510      	push	{r4, lr}
 80018b2:	2320      	movs	r3, #32
 80018b4:	4604      	mov	r4, r0
 80018b6:	f383 8811 	msr	BASEPRI, r3
 80018ba:	f000 f9c9 	bl	8001c50 <_stats_start_measure_crit_thd>
 80018be:	f7ff fc6f 	bl	80011a0 <_dbg_check_lock>
 80018c2:	b914      	cbnz	r4, 80018ca <chThdSleep+0x1a>
 80018c4:	480f      	ldr	r0, [pc, #60]	; (8001904 <chThdSleep+0x54>)
 80018c6:	f7ff fbfb 	bl	80010c0 <chSysHalt>
 80018ca:	4621      	mov	r1, r4
 80018cc:	2008      	movs	r0, #8
 80018ce:	f7ff fe37 	bl	8001540 <chSchGoSleepTimeoutS>
 80018d2:	f7ff fc75 	bl	80011c0 <_dbg_check_unlock>
 80018d6:	f000 f9c3 	bl	8001c60 <_stats_stop_measure_crit_thd>
 80018da:	4b0b      	ldr	r3, [pc, #44]	; (8001908 <chThdSleep+0x58>)
 80018dc:	681a      	ldr	r2, [r3, #0]
 80018de:	429a      	cmp	r2, r3
 80018e0:	d004      	beq.n	80018ec <chThdSleep+0x3c>
 80018e2:	6999      	ldr	r1, [r3, #24]
 80018e4:	6893      	ldr	r3, [r2, #8]
 80018e6:	688a      	ldr	r2, [r1, #8]
 80018e8:	429a      	cmp	r2, r3
 80018ea:	d303      	bcc.n	80018f4 <chThdSleep+0x44>
 80018ec:	2300      	movs	r3, #0
 80018ee:	f383 8811 	msr	BASEPRI, r3
 80018f2:	bd10      	pop	{r4, pc}
 80018f4:	4805      	ldr	r0, [pc, #20]	; (800190c <chThdSleep+0x5c>)
 80018f6:	f7ff fbe3 	bl	80010c0 <chSysHalt>
 80018fa:	2300      	movs	r3, #0
 80018fc:	f383 8811 	msr	BASEPRI, r3
 8001900:	bd10      	pop	{r4, pc}
 8001902:	bf00      	nop
 8001904:	08006020 	.word	0x08006020
 8001908:	20000830 	.word	0x20000830
 800190c:	08006010 	.word	0x08006010

08001910 <chThdSleepUntilWindowed>:
 8001910:	b570      	push	{r4, r5, r6, lr}
 8001912:	2320      	movs	r3, #32
 8001914:	4604      	mov	r4, r0
 8001916:	460e      	mov	r6, r1
 8001918:	f383 8811 	msr	BASEPRI, r3
 800191c:	4d16      	ldr	r5, [pc, #88]	; (8001978 <chThdSleepUntilWindowed+0x68>)
 800191e:	f000 f997 	bl	8001c50 <_stats_start_measure_crit_thd>
 8001922:	f7ff fc3d 	bl	80011a0 <_dbg_check_lock>
 8001926:	6aa9      	ldr	r1, [r5, #40]	; 0x28
 8001928:	1b33      	subs	r3, r6, r4
 800192a:	1b0c      	subs	r4, r1, r4
 800192c:	429c      	cmp	r4, r3
 800192e:	d318      	bcc.n	8001962 <chThdSleepUntilWindowed+0x52>
 8001930:	f7ff fc46 	bl	80011c0 <_dbg_check_unlock>
 8001934:	f000 f994 	bl	8001c60 <_stats_stop_measure_crit_thd>
 8001938:	682b      	ldr	r3, [r5, #0]
 800193a:	42ab      	cmp	r3, r5
 800193c:	d004      	beq.n	8001948 <chThdSleepUntilWindowed+0x38>
 800193e:	69aa      	ldr	r2, [r5, #24]
 8001940:	689b      	ldr	r3, [r3, #8]
 8001942:	6892      	ldr	r2, [r2, #8]
 8001944:	429a      	cmp	r2, r3
 8001946:	d304      	bcc.n	8001952 <chThdSleepUntilWindowed+0x42>
 8001948:	2300      	movs	r3, #0
 800194a:	f383 8811 	msr	BASEPRI, r3
 800194e:	4630      	mov	r0, r6
 8001950:	bd70      	pop	{r4, r5, r6, pc}
 8001952:	480a      	ldr	r0, [pc, #40]	; (800197c <chThdSleepUntilWindowed+0x6c>)
 8001954:	f7ff fbb4 	bl	80010c0 <chSysHalt>
 8001958:	2300      	movs	r3, #0
 800195a:	f383 8811 	msr	BASEPRI, r3
 800195e:	4630      	mov	r0, r6
 8001960:	bd70      	pop	{r4, r5, r6, pc}
 8001962:	1a74      	subs	r4, r6, r1
 8001964:	d102      	bne.n	800196c <chThdSleepUntilWindowed+0x5c>
 8001966:	4806      	ldr	r0, [pc, #24]	; (8001980 <chThdSleepUntilWindowed+0x70>)
 8001968:	f7ff fbaa 	bl	80010c0 <chSysHalt>
 800196c:	4621      	mov	r1, r4
 800196e:	2008      	movs	r0, #8
 8001970:	f7ff fde6 	bl	8001540 <chSchGoSleepTimeoutS>
 8001974:	e7dc      	b.n	8001930 <chThdSleepUntilWindowed+0x20>
 8001976:	bf00      	nop
 8001978:	20000830 	.word	0x20000830
 800197c:	08006010 	.word	0x08006010
 8001980:	08006020 	.word	0x08006020
	...

08001990 <chThdExitS>:
 8001990:	b538      	push	{r3, r4, r5, lr}
 8001992:	4b10      	ldr	r3, [pc, #64]	; (80019d4 <chThdExitS+0x44>)
 8001994:	699c      	ldr	r4, [r3, #24]
 8001996:	6ae3      	ldr	r3, [r4, #44]	; 0x2c
 8001998:	62a0      	str	r0, [r4, #40]	; 0x28
 800199a:	f104 052c 	add.w	r5, r4, #44	; 0x2c
 800199e:	42ab      	cmp	r3, r5
 80019a0:	d007      	beq.n	80019b2 <chThdExitS+0x22>
 80019a2:	681a      	ldr	r2, [r3, #0]
 80019a4:	62e2      	str	r2, [r4, #44]	; 0x2c
 80019a6:	4618      	mov	r0, r3
 80019a8:	f7ff fd3a 	bl	8001420 <chSchReadyI>
 80019ac:	6ae3      	ldr	r3, [r4, #44]	; 0x2c
 80019ae:	42ab      	cmp	r3, r5
 80019b0:	d1f7      	bne.n	80019a2 <chThdExitS+0x12>
 80019b2:	f894 3021 	ldrb.w	r3, [r4, #33]	; 0x21
 80019b6:	079b      	lsls	r3, r3, #30
 80019b8:	d104      	bne.n	80019c4 <chThdExitS+0x34>
 80019ba:	e9d4 2304 	ldrd	r2, r3, [r4, #16]
 80019be:	611a      	str	r2, [r3, #16]
 80019c0:	6922      	ldr	r2, [r4, #16]
 80019c2:	6153      	str	r3, [r2, #20]
 80019c4:	200f      	movs	r0, #15
 80019c6:	f7ff fd8b 	bl	80014e0 <chSchGoSleepS>
 80019ca:	4803      	ldr	r0, [pc, #12]	; (80019d8 <chThdExitS+0x48>)
 80019cc:	e8bd 4038 	ldmia.w	sp!, {r3, r4, r5, lr}
 80019d0:	f7ff bb76 	b.w	80010c0 <chSysHalt>
 80019d4:	20000830 	.word	0x20000830
 80019d8:	08006060 	.word	0x08006060
 80019dc:	00000000 	.word	0x00000000

080019e0 <chThdExit>:
 80019e0:	b510      	push	{r4, lr}
 80019e2:	2320      	movs	r3, #32
 80019e4:	4604      	mov	r4, r0
 80019e6:	f383 8811 	msr	BASEPRI, r3
 80019ea:	f000 f931 	bl	8001c50 <_stats_start_measure_crit_thd>
 80019ee:	f7ff fbd7 	bl	80011a0 <_dbg_check_lock>
 80019f2:	4620      	mov	r0, r4
 80019f4:	e8bd 4010 	ldmia.w	sp!, {r4, lr}
 80019f8:	f7ff bfca 	b.w	8001990 <chThdExitS>
 80019fc:	0000      	movs	r0, r0
	...

08001a00 <chThdSuspendTimeoutS>:
 8001a00:	4a0a      	ldr	r2, [pc, #40]	; (8001a2c <chThdSuspendTimeoutS+0x2c>)
 8001a02:	6803      	ldr	r3, [r0, #0]
 8001a04:	b570      	push	{r4, r5, r6, lr}
 8001a06:	4604      	mov	r4, r0
 8001a08:	6996      	ldr	r6, [r2, #24]
 8001a0a:	460d      	mov	r5, r1
 8001a0c:	b113      	cbz	r3, 8001a14 <chThdSuspendTimeoutS+0x14>
 8001a0e:	4808      	ldr	r0, [pc, #32]	; (8001a30 <chThdSuspendTimeoutS+0x30>)
 8001a10:	f7ff fb56 	bl	80010c0 <chSysHalt>
 8001a14:	b13d      	cbz	r5, 8001a26 <chThdSuspendTimeoutS+0x26>
 8001a16:	6026      	str	r6, [r4, #0]
 8001a18:	4629      	mov	r1, r5
 8001a1a:	62b4      	str	r4, [r6, #40]	; 0x28
 8001a1c:	2003      	movs	r0, #3
 8001a1e:	e8bd 4070 	ldmia.w	sp!, {r4, r5, r6, lr}
 8001a22:	f7ff bd8d 	b.w	8001540 <chSchGoSleepTimeoutS>
 8001a26:	f04f 30ff 	mov.w	r0, #4294967295	; 0xffffffff
 8001a2a:	bd70      	pop	{r4, r5, r6, pc}
 8001a2c:	20000830 	.word	0x20000830
 8001a30:	08006070 	.word	0x08006070
	...

08001a40 <chThdResumeI>:
 8001a40:	b570      	push	{r4, r5, r6, lr}
 8001a42:	6804      	ldr	r4, [r0, #0]
 8001a44:	b18c      	cbz	r4, 8001a6a <chThdResumeI+0x2a>
 8001a46:	f894 3020 	ldrb.w	r3, [r4, #32]
 8001a4a:	2b03      	cmp	r3, #3
 8001a4c:	460e      	mov	r6, r1
 8001a4e:	4605      	mov	r5, r0
 8001a50:	d107      	bne.n	8001a62 <chThdResumeI+0x22>
 8001a52:	2300      	movs	r3, #0
 8001a54:	602b      	str	r3, [r5, #0]
 8001a56:	4620      	mov	r0, r4
 8001a58:	62a6      	str	r6, [r4, #40]	; 0x28
 8001a5a:	e8bd 4070 	ldmia.w	sp!, {r4, r5, r6, lr}
 8001a5e:	f7ff bcdf 	b.w	8001420 <chSchReadyI>
 8001a62:	4802      	ldr	r0, [pc, #8]	; (8001a6c <chThdResumeI+0x2c>)
 8001a64:	f7ff fb2c 	bl	80010c0 <chSysHalt>
 8001a68:	e7f3      	b.n	8001a52 <chThdResumeI+0x12>
 8001a6a:	bd70      	pop	{r4, r5, r6, pc}
 8001a6c:	08006090 	.word	0x08006090

08001a70 <chThdEnqueueTimeoutS>:
 8001a70:	b169      	cbz	r1, 8001a8e <chThdEnqueueTimeoutS+0x1e>
 8001a72:	4b08      	ldr	r3, [pc, #32]	; (8001a94 <chThdEnqueueTimeoutS+0x24>)
 8001a74:	b410      	push	{r4}
 8001a76:	4602      	mov	r2, r0
 8001a78:	6844      	ldr	r4, [r0, #4]
 8001a7a:	699b      	ldr	r3, [r3, #24]
 8001a7c:	2004      	movs	r0, #4
 8001a7e:	e9c3 2400 	strd	r2, r4, [r3]
 8001a82:	6023      	str	r3, [r4, #0]
 8001a84:	6053      	str	r3, [r2, #4]
 8001a86:	f85d 4b04 	ldr.w	r4, [sp], #4
 8001a8a:	f7ff bd59 	b.w	8001540 <chSchGoSleepTimeoutS>
 8001a8e:	f04f 30ff 	mov.w	r0, #4294967295	; 0xffffffff
 8001a92:	4770      	bx	lr
 8001a94:	20000830 	.word	0x20000830
	...

08001aa0 <chThdDequeueNextI>:
 8001aa0:	b538      	push	{r3, r4, r5, lr}
 8001aa2:	6804      	ldr	r4, [r0, #0]
 8001aa4:	42a0      	cmp	r0, r4
 8001aa6:	d010      	beq.n	8001aca <chThdDequeueNextI+0x2a>
 8001aa8:	6823      	ldr	r3, [r4, #0]
 8001aaa:	6003      	str	r3, [r0, #0]
 8001aac:	6058      	str	r0, [r3, #4]
 8001aae:	f894 3020 	ldrb.w	r3, [r4, #32]
 8001ab2:	2b04      	cmp	r3, #4
 8001ab4:	460d      	mov	r5, r1
 8001ab6:	d002      	beq.n	8001abe <chThdDequeueNextI+0x1e>
 8001ab8:	4804      	ldr	r0, [pc, #16]	; (8001acc <chThdDequeueNextI+0x2c>)
 8001aba:	f7ff fb01 	bl	80010c0 <chSysHalt>
 8001abe:	62a5      	str	r5, [r4, #40]	; 0x28
 8001ac0:	4620      	mov	r0, r4
 8001ac2:	e8bd 4038 	ldmia.w	sp!, {r3, r4, r5, lr}
 8001ac6:	f7ff bcab 	b.w	8001420 <chSchReadyI>
 8001aca:	bd38      	pop	{r3, r4, r5, pc}
 8001acc:	08006030 	.word	0x08006030

08001ad0 <chTMObjectInit>:
 8001ad0:	2200      	movs	r2, #0
 8001ad2:	2300      	movs	r3, #0
 8001ad4:	e9c0 2304 	strd	r2, r3, [r0, #16]
 8001ad8:	2300      	movs	r3, #0
 8001ada:	f04f 32ff 	mov.w	r2, #4294967295	; 0xffffffff
 8001ade:	e9c0 2300 	strd	r2, r3, [r0]
 8001ae2:	e9c0 3302 	strd	r3, r3, [r0, #8]
 8001ae6:	4770      	bx	lr
	...

08001af0 <chTMStartMeasurementX>:
 8001af0:	4b01      	ldr	r3, [pc, #4]	; (8001af8 <chTMStartMeasurementX+0x8>)
 8001af2:	685b      	ldr	r3, [r3, #4]
 8001af4:	6083      	str	r3, [r0, #8]
 8001af6:	4770      	bx	lr
 8001af8:	e0001000 	.word	0xe0001000
 8001afc:	00000000 	.word	0x00000000

08001b00 <chTMStopMeasurementX>:
 8001b00:	4b0f      	ldr	r3, [pc, #60]	; (8001b40 <chTMStopMeasurementX+0x40>)
 8001b02:	4a10      	ldr	r2, [pc, #64]	; (8001b44 <chTMStopMeasurementX+0x44>)
 8001b04:	685b      	ldr	r3, [r3, #4]
 8001b06:	68c1      	ldr	r1, [r0, #12]
 8001b08:	b4f0      	push	{r4, r5, r6, r7}
 8001b0a:	6884      	ldr	r4, [r0, #8]
 8001b0c:	f8d2 64a8 	ldr.w	r6, [r2, #1192]	; 0x4a8
 8001b10:	6842      	ldr	r2, [r0, #4]
 8001b12:	1b1b      	subs	r3, r3, r4
 8001b14:	e9d0 4504 	ldrd	r4, r5, [r0, #16]
 8001b18:	1b9b      	subs	r3, r3, r6
 8001b1a:	18e6      	adds	r6, r4, r3
 8001b1c:	f145 0700 	adc.w	r7, r5, #0
 8001b20:	3101      	adds	r1, #1
 8001b22:	4293      	cmp	r3, r2
 8001b24:	e9c0 3102 	strd	r3, r1, [r0, #8]
 8001b28:	e9c0 6704 	strd	r6, r7, [r0, #16]
 8001b2c:	d805      	bhi.n	8001b3a <chTMStopMeasurementX+0x3a>
 8001b2e:	6802      	ldr	r2, [r0, #0]
 8001b30:	4293      	cmp	r3, r2
 8001b32:	bf38      	it	cc
 8001b34:	6003      	strcc	r3, [r0, #0]
 8001b36:	bcf0      	pop	{r4, r5, r6, r7}
 8001b38:	4770      	bx	lr
 8001b3a:	6043      	str	r3, [r0, #4]
 8001b3c:	bcf0      	pop	{r4, r5, r6, r7}
 8001b3e:	4770      	bx	lr
 8001b40:	e0001000 	.word	0xe0001000
 8001b44:	20000830 	.word	0x20000830
	...

08001b50 <_tm_init>:
 8001b50:	b510      	push	{r4, lr}
 8001b52:	4c0d      	ldr	r4, [pc, #52]	; (8001b88 <_tm_init+0x38>)
 8001b54:	b086      	sub	sp, #24
 8001b56:	2300      	movs	r3, #0
 8001b58:	f04f 31ff 	mov.w	r1, #4294967295	; 0xffffffff
 8001b5c:	2200      	movs	r2, #0
 8001b5e:	4668      	mov	r0, sp
 8001b60:	f8c4 34a8 	str.w	r3, [r4, #1192]	; 0x4a8
 8001b64:	e9cd 3301 	strd	r3, r3, [sp, #4]
 8001b68:	9303      	str	r3, [sp, #12]
 8001b6a:	2300      	movs	r3, #0
 8001b6c:	e9cd 2304 	strd	r2, r3, [sp, #16]
 8001b70:	9100      	str	r1, [sp, #0]
 8001b72:	f7ff ffbd 	bl	8001af0 <chTMStartMeasurementX>
 8001b76:	4668      	mov	r0, sp
 8001b78:	f7ff ffc2 	bl	8001b00 <chTMStopMeasurementX>
 8001b7c:	9b02      	ldr	r3, [sp, #8]
 8001b7e:	f8c4 34a8 	str.w	r3, [r4, #1192]	; 0x4a8
 8001b82:	b006      	add	sp, #24
 8001b84:	bd10      	pop	{r4, pc}
 8001b86:	bf00      	nop
 8001b88:	20000830 	.word	0x20000830
 8001b8c:	00000000 	.word	0x00000000

08001b90 <chTMChainMeasurementToX>:
 8001b90:	4b0e      	ldr	r3, [pc, #56]	; (8001bcc <chTMChainMeasurementToX+0x3c>)
 8001b92:	6842      	ldr	r2, [r0, #4]
 8001b94:	685b      	ldr	r3, [r3, #4]
 8001b96:	b4f0      	push	{r4, r5, r6, r7}
 8001b98:	608b      	str	r3, [r1, #8]
 8001b9a:	e9d0 6102 	ldrd	r6, r1, [r0, #8]
 8001b9e:	e9d0 4504 	ldrd	r4, r5, [r0, #16]
 8001ba2:	1b9b      	subs	r3, r3, r6
 8001ba4:	18e6      	adds	r6, r4, r3
 8001ba6:	f145 0700 	adc.w	r7, r5, #0
 8001baa:	3101      	adds	r1, #1
 8001bac:	4293      	cmp	r3, r2
 8001bae:	e9c0 3102 	strd	r3, r1, [r0, #8]
 8001bb2:	e9c0 6704 	strd	r6, r7, [r0, #16]
 8001bb6:	d805      	bhi.n	8001bc4 <chTMChainMeasurementToX+0x34>
 8001bb8:	6802      	ldr	r2, [r0, #0]
 8001bba:	4293      	cmp	r3, r2
 8001bbc:	bf38      	it	cc
 8001bbe:	6003      	strcc	r3, [r0, #0]
 8001bc0:	bcf0      	pop	{r4, r5, r6, r7}
 8001bc2:	4770      	bx	lr
 8001bc4:	6043      	str	r3, [r0, #4]
 8001bc6:	bcf0      	pop	{r4, r5, r6, r7}
 8001bc8:	4770      	bx	lr
 8001bca:	bf00      	nop
 8001bcc:	e0001000 	.word	0xe0001000

08001bd0 <_stats_init>:
 8001bd0:	b510      	push	{r4, lr}
 8001bd2:	4c08      	ldr	r4, [pc, #32]	; (8001bf4 <_stats_init+0x24>)
 8001bd4:	2300      	movs	r3, #0
 8001bd6:	f504 6097 	add.w	r0, r4, #1208	; 0x4b8
 8001bda:	f8c4 34b0 	str.w	r3, [r4, #1200]	; 0x4b0
 8001bde:	f8c4 34b4 	str.w	r3, [r4, #1204]	; 0x4b4
 8001be2:	f7ff ff75 	bl	8001ad0 <chTMObjectInit>
 8001be6:	f504 609a 	add.w	r0, r4, #1232	; 0x4d0
 8001bea:	e8bd 4010 	ldmia.w	sp!, {r4, lr}
 8001bee:	f7ff bf6f 	b.w	8001ad0 <chTMObjectInit>
 8001bf2:	bf00      	nop
 8001bf4:	20000830 	.word	0x20000830
	...

08001c00 <_stats_increase_irq>:
 8001c00:	4a03      	ldr	r2, [pc, #12]	; (8001c10 <_stats_increase_irq+0x10>)
 8001c02:	f8d2 34b0 	ldr.w	r3, [r2, #1200]	; 0x4b0
 8001c06:	3301      	adds	r3, #1
 8001c08:	f8c2 34b0 	str.w	r3, [r2, #1200]	; 0x4b0
 8001c0c:	4770      	bx	lr
 8001c0e:	bf00      	nop
 8001c10:	20000830 	.word	0x20000830
	...

08001c20 <_stats_ctxswc>:
 8001c20:	4a07      	ldr	r2, [pc, #28]	; (8001c40 <_stats_ctxswc+0x20>)
 8001c22:	f8d2 34b4 	ldr.w	r3, [r2, #1204]	; 0x4b4
 8001c26:	b410      	push	{r4}
 8001c28:	f101 0450 	add.w	r4, r1, #80	; 0x50
 8001c2c:	3301      	adds	r3, #1
 8001c2e:	f100 0150 	add.w	r1, r0, #80	; 0x50
 8001c32:	4620      	mov	r0, r4
 8001c34:	f85d 4b04 	ldr.w	r4, [sp], #4
 8001c38:	f8c2 34b4 	str.w	r3, [r2, #1204]	; 0x4b4
 8001c3c:	f7ff bfa8 	b.w	8001b90 <chTMChainMeasurementToX>
 8001c40:	20000830 	.word	0x20000830
	...

08001c50 <_stats_start_measure_crit_thd>:
 8001c50:	4801      	ldr	r0, [pc, #4]	; (8001c58 <_stats_start_measure_crit_thd+0x8>)
 8001c52:	f7ff bf4d 	b.w	8001af0 <chTMStartMeasurementX>
 8001c56:	bf00      	nop
 8001c58:	20000ce8 	.word	0x20000ce8
 8001c5c:	00000000 	.word	0x00000000

08001c60 <_stats_stop_measure_crit_thd>:
 8001c60:	4801      	ldr	r0, [pc, #4]	; (8001c68 <_stats_stop_measure_crit_thd+0x8>)
 8001c62:	f7ff bf4d 	b.w	8001b00 <chTMStopMeasurementX>
 8001c66:	bf00      	nop
 8001c68:	20000ce8 	.word	0x20000ce8
 8001c6c:	00000000 	.word	0x00000000

08001c70 <_stats_start_measure_crit_isr>:
 8001c70:	4801      	ldr	r0, [pc, #4]	; (8001c78 <_stats_start_measure_crit_isr+0x8>)
 8001c72:	f7ff bf3d 	b.w	8001af0 <chTMStartMeasurementX>
 8001c76:	bf00      	nop
 8001c78:	20000d00 	.word	0x20000d00
 8001c7c:	00000000 	.word	0x00000000

08001c80 <_stats_stop_measure_crit_isr>:
 8001c80:	4801      	ldr	r0, [pc, #4]	; (8001c88 <_stats_stop_measure_crit_isr+0x8>)
 8001c82:	f7ff bf3d 	b.w	8001b00 <chTMStopMeasurementX>
 8001c86:	bf00      	nop
 8001c88:	20000d00 	.word	0x20000d00
 8001c8c:	00000000 	.word	0x00000000

08001c90 <chMtxObjectInit>:
 8001c90:	b510      	push	{r4, lr}
 8001c92:	4604      	mov	r4, r0
 8001c94:	b128      	cbz	r0, 8001ca2 <chMtxObjectInit+0x12>
 8001c96:	2300      	movs	r3, #0
 8001c98:	e9c4 4400 	strd	r4, r4, [r4]
 8001c9c:	60a3      	str	r3, [r4, #8]
 8001c9e:	6123      	str	r3, [r4, #16]
 8001ca0:	bd10      	pop	{r4, pc}
 8001ca2:	4802      	ldr	r0, [pc, #8]	; (8001cac <chMtxObjectInit+0x1c>)
 8001ca4:	f7ff fa0c 	bl	80010c0 <chSysHalt>
 8001ca8:	e7f5      	b.n	8001c96 <chMtxObjectInit+0x6>
 8001caa:	bf00      	nop
 8001cac:	080060d0 	.word	0x080060d0

08001cb0 <chMtxLockS>:
 8001cb0:	b5f8      	push	{r3, r4, r5, r6, r7, lr}
 8001cb2:	4b52      	ldr	r3, [pc, #328]	; (8001dfc <chMtxLockS+0x14c>)
 8001cb4:	4604      	mov	r4, r0
 8001cb6:	699d      	ldr	r5, [r3, #24]
 8001cb8:	f7ff fb0a 	bl	80012d0 <chDbgCheckClassS>
 8001cbc:	2c00      	cmp	r4, #0
 8001cbe:	d076      	beq.n	8001dae <chMtxLockS+0xfe>
 8001cc0:	68a0      	ldr	r0, [r4, #8]
 8001cc2:	6923      	ldr	r3, [r4, #16]
 8001cc4:	2800      	cmp	r0, #0
 8001cc6:	d039      	beq.n	8001d3c <chMtxLockS+0x8c>
 8001cc8:	2b00      	cmp	r3, #0
 8001cca:	f340 8088 	ble.w	8001dde <chMtxLockS+0x12e>
 8001cce:	4285      	cmp	r5, r0
 8001cd0:	d069      	beq.n	8001da6 <chMtxLockS+0xf6>
 8001cd2:	68aa      	ldr	r2, [r5, #8]
 8001cd4:	6883      	ldr	r3, [r0, #8]
 8001cd6:	429a      	cmp	r2, r3
 8001cd8:	d908      	bls.n	8001cec <chMtxLockS+0x3c>
 8001cda:	f890 3020 	ldrb.w	r3, [r0, #32]
 8001cde:	6082      	str	r2, [r0, #8]
 8001ce0:	2b06      	cmp	r3, #6
 8001ce2:	d036      	beq.n	8001d52 <chMtxLockS+0xa2>
 8001ce4:	2b07      	cmp	r3, #7
 8001ce6:	d066      	beq.n	8001db6 <chMtxLockS+0x106>
 8001ce8:	2b00      	cmp	r3, #0
 8001cea:	d051      	beq.n	8001d90 <chMtxLockS+0xe0>
 8001cec:	4626      	mov	r6, r4
 8001cee:	4623      	mov	r3, r4
 8001cf0:	e003      	b.n	8001cfa <chMtxLockS+0x4a>
 8001cf2:	6899      	ldr	r1, [r3, #8]
 8001cf4:	68aa      	ldr	r2, [r5, #8]
 8001cf6:	4291      	cmp	r1, r2
 8001cf8:	d329      	bcc.n	8001d4e <chMtxLockS+0x9e>
 8001cfa:	681b      	ldr	r3, [r3, #0]
 8001cfc:	429c      	cmp	r4, r3
 8001cfe:	d1f8      	bne.n	8001cf2 <chMtxLockS+0x42>
 8001d00:	6873      	ldr	r3, [r6, #4]
 8001d02:	2006      	movs	r0, #6
 8001d04:	e9c5 6300 	strd	r6, r3, [r5]
 8001d08:	601d      	str	r5, [r3, #0]
 8001d0a:	6075      	str	r5, [r6, #4]
 8001d0c:	62ac      	str	r4, [r5, #40]	; 0x28
 8001d0e:	f7ff fbe7 	bl	80014e0 <chSchGoSleepS>
 8001d12:	68a3      	ldr	r3, [r4, #8]
 8001d14:	42ab      	cmp	r3, r5
 8001d16:	d002      	beq.n	8001d1e <chMtxLockS+0x6e>
 8001d18:	4839      	ldr	r0, [pc, #228]	; (8001e00 <chMtxLockS+0x150>)
 8001d1a:	f7ff f9d1 	bl	80010c0 <chSysHalt>
 8001d1e:	6c2b      	ldr	r3, [r5, #64]	; 0x40
 8001d20:	42a3      	cmp	r3, r4
 8001d22:	d002      	beq.n	8001d2a <chMtxLockS+0x7a>
 8001d24:	4836      	ldr	r0, [pc, #216]	; (8001e00 <chMtxLockS+0x150>)
 8001d26:	f7ff f9cb 	bl	80010c0 <chSysHalt>
 8001d2a:	6923      	ldr	r3, [r4, #16]
 8001d2c:	2b01      	cmp	r3, #1
 8001d2e:	d100      	bne.n	8001d32 <chMtxLockS+0x82>
 8001d30:	bdf8      	pop	{r3, r4, r5, r6, r7, pc}
 8001d32:	4833      	ldr	r0, [pc, #204]	; (8001e00 <chMtxLockS+0x150>)
 8001d34:	e8bd 40f8 	ldmia.w	sp!, {r3, r4, r5, r6, r7, lr}
 8001d38:	f7ff b9c2 	b.w	80010c0 <chSysHalt>
 8001d3c:	2b00      	cmp	r3, #0
 8001d3e:	d153      	bne.n	8001de8 <chMtxLockS+0x138>
 8001d40:	6c2a      	ldr	r2, [r5, #64]	; 0x40
 8001d42:	60a5      	str	r5, [r4, #8]
 8001d44:	3301      	adds	r3, #1
 8001d46:	e9c4 2303 	strd	r2, r3, [r4, #12]
 8001d4a:	642c      	str	r4, [r5, #64]	; 0x40
 8001d4c:	bdf8      	pop	{r3, r4, r5, r6, r7, pc}
 8001d4e:	461e      	mov	r6, r3
 8001d50:	e7d6      	b.n	8001d00 <chMtxLockS+0x50>
 8001d52:	e9d0 1300 	ldrd	r1, r3, [r0]
 8001d56:	6019      	str	r1, [r3, #0]
 8001d58:	6a86      	ldr	r6, [r0, #40]	; 0x28
 8001d5a:	6801      	ldr	r1, [r0, #0]
 8001d5c:	4637      	mov	r7, r6
 8001d5e:	604b      	str	r3, [r1, #4]
 8001d60:	4633      	mov	r3, r6
 8001d62:	e002      	b.n	8001d6a <chMtxLockS+0xba>
 8001d64:	6899      	ldr	r1, [r3, #8]
 8001d66:	4291      	cmp	r1, r2
 8001d68:	d343      	bcc.n	8001df2 <chMtxLockS+0x142>
 8001d6a:	681b      	ldr	r3, [r3, #0]
 8001d6c:	429e      	cmp	r6, r3
 8001d6e:	d1f9      	bne.n	8001d64 <chMtxLockS+0xb4>
 8001d70:	687b      	ldr	r3, [r7, #4]
 8001d72:	68aa      	ldr	r2, [r5, #8]
 8001d74:	e9c0 7300 	strd	r7, r3, [r0]
 8001d78:	6018      	str	r0, [r3, #0]
 8001d7a:	6078      	str	r0, [r7, #4]
 8001d7c:	68b0      	ldr	r0, [r6, #8]
 8001d7e:	6883      	ldr	r3, [r0, #8]
 8001d80:	4293      	cmp	r3, r2
 8001d82:	d2b3      	bcs.n	8001cec <chMtxLockS+0x3c>
 8001d84:	f890 3020 	ldrb.w	r3, [r0, #32]
 8001d88:	6082      	str	r2, [r0, #8]
 8001d8a:	2b06      	cmp	r3, #6
 8001d8c:	d1aa      	bne.n	8001ce4 <chMtxLockS+0x34>
 8001d8e:	e7e0      	b.n	8001d52 <chMtxLockS+0xa2>
 8001d90:	e9d0 2300 	ldrd	r2, r3, [r0]
 8001d94:	2101      	movs	r1, #1
 8001d96:	f880 1020 	strb.w	r1, [r0, #32]
 8001d9a:	601a      	str	r2, [r3, #0]
 8001d9c:	6802      	ldr	r2, [r0, #0]
 8001d9e:	6053      	str	r3, [r2, #4]
 8001da0:	f7ff fb3e 	bl	8001420 <chSchReadyI>
 8001da4:	e7a2      	b.n	8001cec <chMtxLockS+0x3c>
 8001da6:	6923      	ldr	r3, [r4, #16]
 8001da8:	3301      	adds	r3, #1
 8001daa:	6123      	str	r3, [r4, #16]
 8001dac:	bdf8      	pop	{r3, r4, r5, r6, r7, pc}
 8001dae:	4814      	ldr	r0, [pc, #80]	; (8001e00 <chMtxLockS+0x150>)
 8001db0:	f7ff f986 	bl	80010c0 <chSysHalt>
 8001db4:	e784      	b.n	8001cc0 <chMtxLockS+0x10>
 8001db6:	e9d0 1300 	ldrd	r1, r3, [r0]
 8001dba:	6019      	str	r1, [r3, #0]
 8001dbc:	6a86      	ldr	r6, [r0, #40]	; 0x28
 8001dbe:	6801      	ldr	r1, [r0, #0]
 8001dc0:	604b      	str	r3, [r1, #4]
 8001dc2:	4633      	mov	r3, r6
 8001dc4:	e002      	b.n	8001dcc <chMtxLockS+0x11c>
 8001dc6:	6899      	ldr	r1, [r3, #8]
 8001dc8:	4291      	cmp	r1, r2
 8001dca:	d314      	bcc.n	8001df6 <chMtxLockS+0x146>
 8001dcc:	681b      	ldr	r3, [r3, #0]
 8001dce:	429e      	cmp	r6, r3
 8001dd0:	d1f9      	bne.n	8001dc6 <chMtxLockS+0x116>
 8001dd2:	6873      	ldr	r3, [r6, #4]
 8001dd4:	e9c0 6300 	strd	r6, r3, [r0]
 8001dd8:	6018      	str	r0, [r3, #0]
 8001dda:	6070      	str	r0, [r6, #4]
 8001ddc:	e786      	b.n	8001cec <chMtxLockS+0x3c>
 8001dde:	4808      	ldr	r0, [pc, #32]	; (8001e00 <chMtxLockS+0x150>)
 8001de0:	f7ff f96e 	bl	80010c0 <chSysHalt>
 8001de4:	68a0      	ldr	r0, [r4, #8]
 8001de6:	e772      	b.n	8001cce <chMtxLockS+0x1e>
 8001de8:	4805      	ldr	r0, [pc, #20]	; (8001e00 <chMtxLockS+0x150>)
 8001dea:	f7ff f969 	bl	80010c0 <chSysHalt>
 8001dee:	6923      	ldr	r3, [r4, #16]
 8001df0:	e7a6      	b.n	8001d40 <chMtxLockS+0x90>
 8001df2:	461f      	mov	r7, r3
 8001df4:	e7bc      	b.n	8001d70 <chMtxLockS+0xc0>
 8001df6:	461e      	mov	r6, r3
 8001df8:	e7eb      	b.n	8001dd2 <chMtxLockS+0x122>
 8001dfa:	bf00      	nop
 8001dfc:	20000830 	.word	0x20000830
 8001e00:	080060e0 	.word	0x080060e0
	...

08001e10 <chMtxLock>:
 8001e10:	b510      	push	{r4, lr}
 8001e12:	2320      	movs	r3, #32
 8001e14:	4604      	mov	r4, r0
 8001e16:	f383 8811 	msr	BASEPRI, r3
 8001e1a:	f7ff ff19 	bl	8001c50 <_stats_start_measure_crit_thd>
 8001e1e:	f7ff f9bf 	bl	80011a0 <_dbg_check_lock>
 8001e22:	4620      	mov	r0, r4
 8001e24:	f7ff ff44 	bl	8001cb0 <chMtxLockS>
 8001e28:	f7ff f9ca 	bl	80011c0 <_dbg_check_unlock>
 8001e2c:	f7ff ff18 	bl	8001c60 <_stats_stop_measure_crit_thd>
 8001e30:	4b09      	ldr	r3, [pc, #36]	; (8001e58 <chMtxLock+0x48>)
 8001e32:	681a      	ldr	r2, [r3, #0]
 8001e34:	429a      	cmp	r2, r3
 8001e36:	d004      	beq.n	8001e42 <chMtxLock+0x32>
 8001e38:	6999      	ldr	r1, [r3, #24]
 8001e3a:	6893      	ldr	r3, [r2, #8]
 8001e3c:	688a      	ldr	r2, [r1, #8]
 8001e3e:	429a      	cmp	r2, r3
 8001e40:	d303      	bcc.n	8001e4a <chMtxLock+0x3a>
 8001e42:	2300      	movs	r3, #0
 8001e44:	f383 8811 	msr	BASEPRI, r3
 8001e48:	bd10      	pop	{r4, pc}
 8001e4a:	4804      	ldr	r0, [pc, #16]	; (8001e5c <chMtxLock+0x4c>)
 8001e4c:	f7ff f938 	bl	80010c0 <chSysHalt>
 8001e50:	2300      	movs	r3, #0
 8001e52:	f383 8811 	msr	BASEPRI, r3
 8001e56:	bd10      	pop	{r4, pc}
 8001e58:	20000830 	.word	0x20000830
 8001e5c:	080060c0 	.word	0x080060c0

08001e60 <chMtxUnlock>:
 8001e60:	e92d 41f0 	stmdb	sp!, {r4, r5, r6, r7, r8, lr}
 8001e64:	4f38      	ldr	r7, [pc, #224]	; (8001f48 <chMtxUnlock+0xe8>)
 8001e66:	4605      	mov	r5, r0
 8001e68:	69be      	ldr	r6, [r7, #24]
 8001e6a:	2800      	cmp	r0, #0
 8001e6c:	d062      	beq.n	8001f34 <chMtxUnlock+0xd4>
 8001e6e:	2320      	movs	r3, #32
 8001e70:	f383 8811 	msr	BASEPRI, r3
 8001e74:	f7ff feec 	bl	8001c50 <_stats_start_measure_crit_thd>
 8001e78:	f7ff f992 	bl	80011a0 <_dbg_check_lock>
 8001e7c:	6c33      	ldr	r3, [r6, #64]	; 0x40
 8001e7e:	2b00      	cmp	r3, #0
 8001e80:	d05c      	beq.n	8001f3c <chMtxUnlock+0xdc>
 8001e82:	689b      	ldr	r3, [r3, #8]
 8001e84:	42b3      	cmp	r3, r6
 8001e86:	d002      	beq.n	8001e8e <chMtxUnlock+0x2e>
 8001e88:	4830      	ldr	r0, [pc, #192]	; (8001f4c <chMtxUnlock+0xec>)
 8001e8a:	f7ff f919 	bl	80010c0 <chSysHalt>
 8001e8e:	692b      	ldr	r3, [r5, #16]
 8001e90:	2b00      	cmp	r3, #0
 8001e92:	dd47      	ble.n	8001f24 <chMtxUnlock+0xc4>
 8001e94:	3b01      	subs	r3, #1
 8001e96:	612b      	str	r3, [r5, #16]
 8001e98:	bb5b      	cbnz	r3, 8001ef2 <chMtxUnlock+0x92>
 8001e9a:	6c33      	ldr	r3, [r6, #64]	; 0x40
 8001e9c:	42ab      	cmp	r3, r5
 8001e9e:	d002      	beq.n	8001ea6 <chMtxUnlock+0x46>
 8001ea0:	482a      	ldr	r0, [pc, #168]	; (8001f4c <chMtxUnlock+0xec>)
 8001ea2:	f7ff f90d 	bl	80010c0 <chSysHalt>
 8001ea6:	68eb      	ldr	r3, [r5, #12]
 8001ea8:	6433      	str	r3, [r6, #64]	; 0x40
 8001eaa:	f7ff fa11 	bl	80012d0 <chDbgCheckClassS>
 8001eae:	682b      	ldr	r3, [r5, #0]
 8001eb0:	429d      	cmp	r5, r3
 8001eb2:	d03c      	beq.n	8001f2e <chMtxUnlock+0xce>
 8001eb4:	e9d6 4810 	ldrd	r4, r8, [r6, #64]	; 0x40
 8001eb8:	b164      	cbz	r4, 8001ed4 <chMtxUnlock+0x74>
 8001eba:	f7ff fa09 	bl	80012d0 <chDbgCheckClassS>
 8001ebe:	6823      	ldr	r3, [r4, #0]
 8001ec0:	429c      	cmp	r4, r3
 8001ec2:	d003      	beq.n	8001ecc <chMtxUnlock+0x6c>
 8001ec4:	689b      	ldr	r3, [r3, #8]
 8001ec6:	4598      	cmp	r8, r3
 8001ec8:	bf38      	it	cc
 8001eca:	4698      	movcc	r8, r3
 8001ecc:	68e4      	ldr	r4, [r4, #12]
 8001ece:	2c00      	cmp	r4, #0
 8001ed0:	d1f3      	bne.n	8001eba <chMtxUnlock+0x5a>
 8001ed2:	682b      	ldr	r3, [r5, #0]
 8001ed4:	6c19      	ldr	r1, [r3, #64]	; 0x40
 8001ed6:	681a      	ldr	r2, [r3, #0]
 8001ed8:	f8c6 8008 	str.w	r8, [r6, #8]
 8001edc:	2001      	movs	r0, #1
 8001ede:	6128      	str	r0, [r5, #16]
 8001ee0:	602a      	str	r2, [r5, #0]
 8001ee2:	4618      	mov	r0, r3
 8001ee4:	6055      	str	r5, [r2, #4]
 8001ee6:	e9c5 3102 	strd	r3, r1, [r5, #8]
 8001eea:	2100      	movs	r1, #0
 8001eec:	641d      	str	r5, [r3, #64]	; 0x40
 8001eee:	f7ff fb57 	bl	80015a0 <chSchWakeupS>
 8001ef2:	f7ff f965 	bl	80011c0 <_dbg_check_unlock>
 8001ef6:	f7ff feb3 	bl	8001c60 <_stats_stop_measure_crit_thd>
 8001efa:	683b      	ldr	r3, [r7, #0]
 8001efc:	42bb      	cmp	r3, r7
 8001efe:	d004      	beq.n	8001f0a <chMtxUnlock+0xaa>
 8001f00:	69ba      	ldr	r2, [r7, #24]
 8001f02:	689b      	ldr	r3, [r3, #8]
 8001f04:	6892      	ldr	r2, [r2, #8]
 8001f06:	429a      	cmp	r2, r3
 8001f08:	d304      	bcc.n	8001f14 <chMtxUnlock+0xb4>
 8001f0a:	2300      	movs	r3, #0
 8001f0c:	f383 8811 	msr	BASEPRI, r3
 8001f10:	e8bd 81f0 	ldmia.w	sp!, {r4, r5, r6, r7, r8, pc}
 8001f14:	480e      	ldr	r0, [pc, #56]	; (8001f50 <chMtxUnlock+0xf0>)
 8001f16:	f7ff f8d3 	bl	80010c0 <chSysHalt>
 8001f1a:	2300      	movs	r3, #0
 8001f1c:	f383 8811 	msr	BASEPRI, r3
 8001f20:	e8bd 81f0 	ldmia.w	sp!, {r4, r5, r6, r7, r8, pc}
 8001f24:	4809      	ldr	r0, [pc, #36]	; (8001f4c <chMtxUnlock+0xec>)
 8001f26:	f7ff f8cb 	bl	80010c0 <chSysHalt>
 8001f2a:	692b      	ldr	r3, [r5, #16]
 8001f2c:	e7b2      	b.n	8001e94 <chMtxUnlock+0x34>
 8001f2e:	2300      	movs	r3, #0
 8001f30:	60ab      	str	r3, [r5, #8]
 8001f32:	e7de      	b.n	8001ef2 <chMtxUnlock+0x92>
 8001f34:	4805      	ldr	r0, [pc, #20]	; (8001f4c <chMtxUnlock+0xec>)
 8001f36:	f7ff f8c3 	bl	80010c0 <chSysHalt>
 8001f3a:	e798      	b.n	8001e6e <chMtxUnlock+0xe>
 8001f3c:	4803      	ldr	r0, [pc, #12]	; (8001f4c <chMtxUnlock+0xec>)
 8001f3e:	f7ff f8bf 	bl	80010c0 <chSysHalt>
 8001f42:	6c33      	ldr	r3, [r6, #64]	; 0x40
 8001f44:	e79d      	b.n	8001e82 <chMtxUnlock+0x22>
 8001f46:	bf00      	nop
 8001f48:	20000830 	.word	0x20000830
 8001f4c:	080060f0 	.word	0x080060f0
 8001f50:	080060c0 	.word	0x080060c0
	...

08001f60 <chMtxUnlockS>:
 8001f60:	b5f8      	push	{r3, r4, r5, r6, r7, lr}
 8001f62:	4b2a      	ldr	r3, [pc, #168]	; (800200c <chMtxUnlockS+0xac>)
 8001f64:	4605      	mov	r5, r0
 8001f66:	699e      	ldr	r6, [r3, #24]
 8001f68:	f7ff f9b2 	bl	80012d0 <chDbgCheckClassS>
 8001f6c:	2d00      	cmp	r5, #0
 8001f6e:	d048      	beq.n	8002002 <chMtxUnlockS+0xa2>
 8001f70:	6c33      	ldr	r3, [r6, #64]	; 0x40
 8001f72:	2b00      	cmp	r3, #0
 8001f74:	d040      	beq.n	8001ff8 <chMtxUnlockS+0x98>
 8001f76:	689b      	ldr	r3, [r3, #8]
 8001f78:	42b3      	cmp	r3, r6
 8001f7a:	d002      	beq.n	8001f82 <chMtxUnlockS+0x22>
 8001f7c:	4824      	ldr	r0, [pc, #144]	; (8002010 <chMtxUnlockS+0xb0>)
 8001f7e:	f7ff f89f 	bl	80010c0 <chSysHalt>
 8001f82:	692b      	ldr	r3, [r5, #16]
 8001f84:	2b00      	cmp	r3, #0
 8001f86:	dd32      	ble.n	8001fee <chMtxUnlockS+0x8e>
 8001f88:	3b01      	subs	r3, #1
 8001f8a:	612b      	str	r3, [r5, #16]
 8001f8c:	2b00      	cmp	r3, #0
 8001f8e:	d12d      	bne.n	8001fec <chMtxUnlockS+0x8c>
 8001f90:	6c33      	ldr	r3, [r6, #64]	; 0x40
 8001f92:	42ab      	cmp	r3, r5
 8001f94:	d002      	beq.n	8001f9c <chMtxUnlockS+0x3c>
 8001f96:	481e      	ldr	r0, [pc, #120]	; (8002010 <chMtxUnlockS+0xb0>)
 8001f98:	f7ff f892 	bl	80010c0 <chSysHalt>
 8001f9c:	68eb      	ldr	r3, [r5, #12]
 8001f9e:	6433      	str	r3, [r6, #64]	; 0x40
 8001fa0:	f7ff f996 	bl	80012d0 <chDbgCheckClassS>
 8001fa4:	682b      	ldr	r3, [r5, #0]
 8001fa6:	429d      	cmp	r5, r3
 8001fa8:	d01e      	beq.n	8001fe8 <chMtxUnlockS+0x88>
 8001faa:	e9d6 4710 	ldrd	r4, r7, [r6, #64]	; 0x40
 8001fae:	b164      	cbz	r4, 8001fca <chMtxUnlockS+0x6a>
 8001fb0:	f7ff f98e 	bl	80012d0 <chDbgCheckClassS>
 8001fb4:	6823      	ldr	r3, [r4, #0]
 8001fb6:	429c      	cmp	r4, r3
 8001fb8:	d003      	beq.n	8001fc2 <chMtxUnlockS+0x62>
 8001fba:	689b      	ldr	r3, [r3, #8]
 8001fbc:	429f      	cmp	r7, r3
 8001fbe:	bf38      	it	cc
 8001fc0:	461f      	movcc	r7, r3
 8001fc2:	68e4      	ldr	r4, [r4, #12]
 8001fc4:	2c00      	cmp	r4, #0
 8001fc6:	d1f3      	bne.n	8001fb0 <chMtxUnlockS+0x50>
 8001fc8:	682b      	ldr	r3, [r5, #0]
 8001fca:	6c19      	ldr	r1, [r3, #64]	; 0x40
 8001fcc:	681a      	ldr	r2, [r3, #0]
 8001fce:	60b7      	str	r7, [r6, #8]
 8001fd0:	2001      	movs	r0, #1
 8001fd2:	6128      	str	r0, [r5, #16]
 8001fd4:	602a      	str	r2, [r5, #0]
 8001fd6:	4618      	mov	r0, r3
 8001fd8:	6055      	str	r5, [r2, #4]
 8001fda:	e9c5 3102 	strd	r3, r1, [r5, #8]
 8001fde:	641d      	str	r5, [r3, #64]	; 0x40
 8001fe0:	e8bd 40f8 	ldmia.w	sp!, {r3, r4, r5, r6, r7, lr}
 8001fe4:	f7ff ba1c 	b.w	8001420 <chSchReadyI>
 8001fe8:	2300      	movs	r3, #0
 8001fea:	60ab      	str	r3, [r5, #8]
 8001fec:	bdf8      	pop	{r3, r4, r5, r6, r7, pc}
 8001fee:	4808      	ldr	r0, [pc, #32]	; (8002010 <chMtxUnlockS+0xb0>)
 8001ff0:	f7ff f866 	bl	80010c0 <chSysHalt>
 8001ff4:	692b      	ldr	r3, [r5, #16]
 8001ff6:	e7c7      	b.n	8001f88 <chMtxUnlockS+0x28>
 8001ff8:	4805      	ldr	r0, [pc, #20]	; (8002010 <chMtxUnlockS+0xb0>)
 8001ffa:	f7ff f861 	bl	80010c0 <chSysHalt>
 8001ffe:	6c33      	ldr	r3, [r6, #64]	; 0x40
 8002000:	e7b9      	b.n	8001f76 <chMtxUnlockS+0x16>
 8002002:	4803      	ldr	r0, [pc, #12]	; (8002010 <chMtxUnlockS+0xb0>)
 8002004:	f7ff f85c 	bl	80010c0 <chSysHalt>
 8002008:	e7b2      	b.n	8001f70 <chMtxUnlockS+0x10>
 800200a:	bf00      	nop
 800200c:	20000830 	.word	0x20000830
 8002010:	08006100 	.word	0x08006100
	...

08002020 <chCondBroadcastI>:
 8002020:	b538      	push	{r3, r4, r5, lr}
 8002022:	4604      	mov	r4, r0
 8002024:	f7ff f944 	bl	80012b0 <chDbgCheckClassI>
 8002028:	b17c      	cbz	r4, 800204a <chCondBroadcastI+0x2a>
 800202a:	6823      	ldr	r3, [r4, #0]
 800202c:	42a3      	cmp	r3, r4
 800202e:	d00b      	beq.n	8002048 <chCondBroadcastI+0x28>
 8002030:	f06f 0501 	mvn.w	r5, #1
 8002034:	681a      	ldr	r2, [r3, #0]
 8002036:	6022      	str	r2, [r4, #0]
 8002038:	4618      	mov	r0, r3
 800203a:	6054      	str	r4, [r2, #4]
 800203c:	f7ff f9f0 	bl	8001420 <chSchReadyI>
 8002040:	6823      	ldr	r3, [r4, #0]
 8002042:	6285      	str	r5, [r0, #40]	; 0x28
 8002044:	42a3      	cmp	r3, r4
 8002046:	d1f5      	bne.n	8002034 <chCondBroadcastI+0x14>
 8002048:	bd38      	pop	{r3, r4, r5, pc}
 800204a:	4802      	ldr	r0, [pc, #8]	; (8002054 <chCondBroadcastI+0x34>)
 800204c:	f7ff f838 	bl	80010c0 <chSysHalt>
 8002050:	e7eb      	b.n	800202a <chCondBroadcastI+0xa>
 8002052:	bf00      	nop
 8002054:	08006120 	.word	0x08006120
	...

08002060 <chCondBroadcast>:
 8002060:	b510      	push	{r4, lr}
 8002062:	2320      	movs	r3, #32
 8002064:	4604      	mov	r4, r0
 8002066:	f383 8811 	msr	BASEPRI, r3
 800206a:	f7ff fdf1 	bl	8001c50 <_stats_start_measure_crit_thd>
 800206e:	f7ff f897 	bl	80011a0 <_dbg_check_lock>
 8002072:	4620      	mov	r0, r4
 8002074:	f7ff ffd4 	bl	8002020 <chCondBroadcastI>
 8002078:	f7ff fb4a 	bl	8001710 <chSchRescheduleS>
 800207c:	f7ff f8a0 	bl	80011c0 <_dbg_check_unlock>
 8002080:	f7ff fdee 	bl	8001c60 <_stats_stop_measure_crit_thd>
 8002084:	4b09      	ldr	r3, [pc, #36]	; (80020ac <chCondBroadcast+0x4c>)
 8002086:	681a      	ldr	r2, [r3, #0]
 8002088:	429a      	cmp	r2, r3
 800208a:	d004      	beq.n	8002096 <chCondBroadcast+0x36>
 800208c:	6999      	ldr	r1, [r3, #24]
 800208e:	6893      	ldr	r3, [r2, #8]
 8002090:	688a      	ldr	r2, [r1, #8]
 8002092:	429a      	cmp	r2, r3
 8002094:	d303      	bcc.n	800209e <chCondBroadcast+0x3e>
 8002096:	2300      	movs	r3, #0
 8002098:	f383 8811 	msr	BASEPRI, r3
 800209c:	bd10      	pop	{r4, pc}
 800209e:	4804      	ldr	r0, [pc, #16]	; (80020b0 <chCondBroadcast+0x50>)
 80020a0:	f7ff f80e 	bl	80010c0 <chSysHalt>
 80020a4:	2300      	movs	r3, #0
 80020a6:	f383 8811 	msr	BASEPRI, r3
 80020aa:	bd10      	pop	{r4, pc}
 80020ac:	20000830 	.word	0x20000830
 80020b0:	08006110 	.word	0x08006110
	...

080020c0 <chCondWaitS>:
 80020c0:	b5f8      	push	{r3, r4, r5, r6, r7, lr}
 80020c2:	4e18      	ldr	r6, [pc, #96]	; (8002124 <chCondWaitS+0x64>)
 80020c4:	4605      	mov	r5, r0
 80020c6:	69b4      	ldr	r4, [r6, #24]
 80020c8:	f7ff f902 	bl	80012d0 <chDbgCheckClassS>
 80020cc:	b32d      	cbz	r5, 800211a <chCondWaitS+0x5a>
 80020ce:	6c23      	ldr	r3, [r4, #64]	; 0x40
 80020d0:	b1fb      	cbz	r3, 8002112 <chCondWaitS+0x52>
 80020d2:	69b3      	ldr	r3, [r6, #24]
 80020d4:	6c1f      	ldr	r7, [r3, #64]	; 0x40
 80020d6:	4638      	mov	r0, r7
 80020d8:	f7ff ff42 	bl	8001f60 <chMtxUnlockS>
 80020dc:	462e      	mov	r6, r5
 80020de:	62a5      	str	r5, [r4, #40]	; 0x28
 80020e0:	462b      	mov	r3, r5
 80020e2:	e003      	b.n	80020ec <chCondWaitS+0x2c>
 80020e4:	6899      	ldr	r1, [r3, #8]
 80020e6:	68a2      	ldr	r2, [r4, #8]
 80020e8:	4291      	cmp	r1, r2
 80020ea:	d310      	bcc.n	800210e <chCondWaitS+0x4e>
 80020ec:	681b      	ldr	r3, [r3, #0]
 80020ee:	429d      	cmp	r5, r3
 80020f0:	d1f8      	bne.n	80020e4 <chCondWaitS+0x24>
 80020f2:	6873      	ldr	r3, [r6, #4]
 80020f4:	2007      	movs	r0, #7
 80020f6:	e9c4 6300 	strd	r6, r3, [r4]
 80020fa:	601c      	str	r4, [r3, #0]
 80020fc:	6074      	str	r4, [r6, #4]
 80020fe:	f7ff f9ef 	bl	80014e0 <chSchGoSleepS>
 8002102:	6aa4      	ldr	r4, [r4, #40]	; 0x28
 8002104:	4638      	mov	r0, r7
 8002106:	f7ff fdd3 	bl	8001cb0 <chMtxLockS>
 800210a:	4620      	mov	r0, r4
 800210c:	bdf8      	pop	{r3, r4, r5, r6, r7, pc}
 800210e:	461e      	mov	r6, r3
 8002110:	e7ef      	b.n	80020f2 <chCondWaitS+0x32>
 8002112:	4805      	ldr	r0, [pc, #20]	; (8002128 <chCondWaitS+0x68>)
 8002114:	f7fe ffd4 	bl	80010c0 <chSysHalt>
 8002118:	e7db      	b.n	80020d2 <chCondWaitS+0x12>
 800211a:	4803      	ldr	r0, [pc, #12]	; (8002128 <chCondWaitS+0x68>)
 800211c:	f7fe ffd0 	bl	80010c0 <chSysHalt>
 8002120:	e7d5      	b.n	80020ce <chCondWaitS+0xe>
 8002122:	bf00      	nop
 8002124:	20000830 	.word	0x20000830
 8002128:	08006140 	.word	0x08006140
 800212c:	00000000 	.word	0x00000000

08002130 <chCondWait>:
 8002130:	b510      	push	{r4, lr}
 8002132:	2320      	movs	r3, #32
 8002134:	4604      	mov	r4, r0
 8002136:	f383 8811 	msr	BASEPRI, r3
 800213a:	f7ff fd89 	bl	8001c50 <_stats_start_measure_crit_thd>
 800213e:	f7ff f82f 	bl	80011a0 <_dbg_check_lock>
 8002142:	4620      	mov	r0, r4
 8002144:	f7ff ffbc 	bl	80020c0 <chCondWaitS>
 8002148:	4604      	mov	r4, r0
 800214a:	f7ff f839 	bl	80011c0 <_dbg_check_unlock>
 800214e:	f7ff fd87 	bl	8001c60 <_stats_stop_measure_crit_thd>
 8002152:	4b0b      	ldr	r3, [pc, #44]	; (8002180 <chCondWait+0x50>)
 8002154:	681a      	ldr	r2, [r3, #0]
 8002156:	429a      	cmp	r2, r3
 8002158:	d004      	beq.n	8002164 <chCondWait+0x34>
 800215a:	6999      	ldr	r1, [r3, #24]
 800215c:	6893      	ldr	r3, [r2, #8]
 800215e:	688a      	ldr	r2, [r1, #8]
 8002160:	429a      	cmp	r2, r3
 8002162:	d304      	bcc.n	800216e <chCondWait+0x3e>
 8002164:	2300      	movs	r3, #0
 8002166:	f383 8811 	msr	BASEPRI, r3
 800216a:	4620      	mov	r0, r4
 800216c:	bd10      	pop	{r4, pc}
 800216e:	4805      	ldr	r0, [pc, #20]	; (8002184 <chCondWait+0x54>)
 8002170:	f7fe ffa6 	bl	80010c0 <chSysHalt>
 8002174:	2300      	movs	r3, #0
 8002176:	f383 8811 	msr	BASEPRI, r3
 800217a:	4620      	mov	r0, r4
 800217c:	bd10      	pop	{r4, pc}
 800217e:	bf00      	nop
 8002180:	20000830 	.word	0x20000830
 8002184:	08006110 	.word	0x08006110
	...

08002190 <chEvtSignalI>:
 8002190:	b538      	push	{r3, r4, r5, lr}
 8002192:	4604      	mov	r4, r0
 8002194:	460d      	mov	r5, r1
 8002196:	f7ff f88b 	bl	80012b0 <chDbgCheckClassI>
 800219a:	b1bc      	cbz	r4, 80021cc <chEvtSignalI+0x3c>
 800219c:	6be1      	ldr	r1, [r4, #60]	; 0x3c
 800219e:	f894 3020 	ldrb.w	r3, [r4, #32]
 80021a2:	4329      	orrs	r1, r5
 80021a4:	2b0a      	cmp	r3, #10
 80021a6:	63e1      	str	r1, [r4, #60]	; 0x3c
 80021a8:	d00c      	beq.n	80021c4 <chEvtSignalI+0x34>
 80021aa:	2b0b      	cmp	r3, #11
 80021ac:	d000      	beq.n	80021b0 <chEvtSignalI+0x20>
 80021ae:	bd38      	pop	{r3, r4, r5, pc}
 80021b0:	6aa3      	ldr	r3, [r4, #40]	; 0x28
 80021b2:	438b      	bics	r3, r1
 80021b4:	d1fb      	bne.n	80021ae <chEvtSignalI+0x1e>
 80021b6:	2300      	movs	r3, #0
 80021b8:	62a3      	str	r3, [r4, #40]	; 0x28
 80021ba:	4620      	mov	r0, r4
 80021bc:	e8bd 4038 	ldmia.w	sp!, {r3, r4, r5, lr}
 80021c0:	f7ff b92e 	b.w	8001420 <chSchReadyI>
 80021c4:	6aa3      	ldr	r3, [r4, #40]	; 0x28
 80021c6:	4219      	tst	r1, r3
 80021c8:	d1f5      	bne.n	80021b6 <chEvtSignalI+0x26>
 80021ca:	e7f0      	b.n	80021ae <chEvtSignalI+0x1e>
 80021cc:	4801      	ldr	r0, [pc, #4]	; (80021d4 <chEvtSignalI+0x44>)
 80021ce:	f7fe ff77 	bl	80010c0 <chSysHalt>
 80021d2:	e7e3      	b.n	800219c <chEvtSignalI+0xc>
 80021d4:	08006170 	.word	0x08006170
	...

080021e0 <chEvtBroadcastFlagsI>:
 80021e0:	b570      	push	{r4, r5, r6, lr}
 80021e2:	4606      	mov	r6, r0
 80021e4:	460d      	mov	r5, r1
 80021e6:	f7ff f863 	bl	80012b0 <chDbgCheckClassI>
 80021ea:	b18e      	cbz	r6, 8002210 <chEvtBroadcastFlagsI+0x30>
 80021ec:	6834      	ldr	r4, [r6, #0]
 80021ee:	42a6      	cmp	r6, r4
 80021f0:	d00d      	beq.n	800220e <chEvtBroadcastFlagsI+0x2e>
 80021f2:	68e3      	ldr	r3, [r4, #12]
 80021f4:	432b      	orrs	r3, r5
 80021f6:	60e3      	str	r3, [r4, #12]
 80021f8:	b115      	cbz	r5, 8002200 <chEvtBroadcastFlagsI+0x20>
 80021fa:	6922      	ldr	r2, [r4, #16]
 80021fc:	4213      	tst	r3, r2
 80021fe:	d003      	beq.n	8002208 <chEvtBroadcastFlagsI+0x28>
 8002200:	e9d4 0101 	ldrd	r0, r1, [r4, #4]
 8002204:	f7ff ffc4 	bl	8002190 <chEvtSignalI>
 8002208:	6824      	ldr	r4, [r4, #0]
 800220a:	42a6      	cmp	r6, r4
 800220c:	d1f1      	bne.n	80021f2 <chEvtBroadcastFlagsI+0x12>
 800220e:	bd70      	pop	{r4, r5, r6, pc}
 8002210:	4801      	ldr	r0, [pc, #4]	; (8002218 <chEvtBroadcastFlagsI+0x38>)
 8002212:	f7fe ff55 	bl	80010c0 <chSysHalt>
 8002216:	e7e9      	b.n	80021ec <chEvtBroadcastFlagsI+0xc>
 8002218:	08006150 	.word	0x08006150
 800221c:	00000000 	.word	0x00000000

08002220 <chIQObjectInit>:
 8002220:	b430      	push	{r4, r5}
 8002222:	9c02      	ldr	r4, [sp, #8]
 8002224:	6204      	str	r4, [r0, #32]
 8002226:	2500      	movs	r5, #0
 8002228:	440a      	add	r2, r1
 800222a:	6085      	str	r5, [r0, #8]
 800222c:	6102      	str	r2, [r0, #16]
 800222e:	e9c0 0000 	strd	r0, r0, [r0]
 8002232:	60c1      	str	r1, [r0, #12]
 8002234:	e9c0 1105 	strd	r1, r1, [r0, #20]
 8002238:	61c3      	str	r3, [r0, #28]
 800223a:	bc30      	pop	{r4, r5}
 800223c:	4770      	bx	lr
 800223e:	bf00      	nop

08002240 <chIQPutI>:
 8002240:	b538      	push	{r3, r4, r5, lr}
 8002242:	4604      	mov	r4, r0
 8002244:	460d      	mov	r5, r1
 8002246:	f7ff f833 	bl	80012b0 <chDbgCheckClassI>
 800224a:	f7ff f831 	bl	80012b0 <chDbgCheckClassI>
 800224e:	e9d4 2305 	ldrd	r2, r3, [r4, #20]
 8002252:	429a      	cmp	r2, r3
 8002254:	68a3      	ldr	r3, [r4, #8]
 8002256:	d010      	beq.n	800227a <chIQPutI+0x3a>
 8002258:	3301      	adds	r3, #1
 800225a:	1c51      	adds	r1, r2, #1
 800225c:	60a3      	str	r3, [r4, #8]
 800225e:	6161      	str	r1, [r4, #20]
 8002260:	7015      	strb	r5, [r2, #0]
 8002262:	e9d4 3204 	ldrd	r3, r2, [r4, #16]
 8002266:	429a      	cmp	r2, r3
 8002268:	d301      	bcc.n	800226e <chIQPutI+0x2e>
 800226a:	68e3      	ldr	r3, [r4, #12]
 800226c:	6163      	str	r3, [r4, #20]
 800226e:	4620      	mov	r0, r4
 8002270:	2100      	movs	r1, #0
 8002272:	f7ff fc15 	bl	8001aa0 <chThdDequeueNextI>
 8002276:	2000      	movs	r0, #0
 8002278:	bd38      	pop	{r3, r4, r5, pc}
 800227a:	2b00      	cmp	r3, #0
 800227c:	d0ec      	beq.n	8002258 <chIQPutI+0x18>
 800227e:	f06f 0003 	mvn.w	r0, #3
 8002282:	bd38      	pop	{r3, r4, r5, pc}
	...

08002290 <chIQGetTimeout>:
 8002290:	b570      	push	{r4, r5, r6, lr}
 8002292:	2320      	movs	r3, #32
 8002294:	4604      	mov	r4, r0
 8002296:	460e      	mov	r6, r1
 8002298:	f383 8811 	msr	BASEPRI, r3
 800229c:	f7ff fcd8 	bl	8001c50 <_stats_start_measure_crit_thd>
 80022a0:	f7fe ff7e 	bl	80011a0 <_dbg_check_lock>
 80022a4:	69e3      	ldr	r3, [r4, #28]
 80022a6:	b133      	cbz	r3, 80022b6 <chIQGetTimeout+0x26>
 80022a8:	4620      	mov	r0, r4
 80022aa:	4798      	blx	r3
 80022ac:	e003      	b.n	80022b6 <chIQGetTimeout+0x26>
 80022ae:	f7ff fbdf 	bl	8001a70 <chThdEnqueueTimeoutS>
 80022b2:	1e05      	subs	r5, r0, #0
 80022b4:	db12      	blt.n	80022dc <chIQGetTimeout+0x4c>
 80022b6:	f7fe fffb 	bl	80012b0 <chDbgCheckClassI>
 80022ba:	68a3      	ldr	r3, [r4, #8]
 80022bc:	4631      	mov	r1, r6
 80022be:	4620      	mov	r0, r4
 80022c0:	2b00      	cmp	r3, #0
 80022c2:	d0f4      	beq.n	80022ae <chIQGetTimeout+0x1e>
 80022c4:	69a1      	ldr	r1, [r4, #24]
 80022c6:	6920      	ldr	r0, [r4, #16]
 80022c8:	1c4a      	adds	r2, r1, #1
 80022ca:	3b01      	subs	r3, #1
 80022cc:	4282      	cmp	r2, r0
 80022ce:	60a3      	str	r3, [r4, #8]
 80022d0:	61a2      	str	r2, [r4, #24]
 80022d2:	bf28      	it	cs
 80022d4:	68e3      	ldrcs	r3, [r4, #12]
 80022d6:	780d      	ldrb	r5, [r1, #0]
 80022d8:	bf28      	it	cs
 80022da:	61a3      	strcs	r3, [r4, #24]
 80022dc:	f7fe ff70 	bl	80011c0 <_dbg_check_unlock>
 80022e0:	f7ff fcbe 	bl	8001c60 <_stats_stop_measure_crit_thd>
 80022e4:	4b0a      	ldr	r3, [pc, #40]	; (8002310 <chIQGetTimeout+0x80>)
 80022e6:	681a      	ldr	r2, [r3, #0]
 80022e8:	429a      	cmp	r2, r3
 80022ea:	d004      	beq.n	80022f6 <chIQGetTimeout+0x66>
 80022ec:	6999      	ldr	r1, [r3, #24]
 80022ee:	6893      	ldr	r3, [r2, #8]
 80022f0:	688a      	ldr	r2, [r1, #8]
 80022f2:	429a      	cmp	r2, r3
 80022f4:	d304      	bcc.n	8002300 <chIQGetTimeout+0x70>
 80022f6:	2300      	movs	r3, #0
 80022f8:	f383 8811 	msr	BASEPRI, r3
 80022fc:	4628      	mov	r0, r5
 80022fe:	bd70      	pop	{r4, r5, r6, pc}
 8002300:	4804      	ldr	r0, [pc, #16]	; (8002314 <chIQGetTimeout+0x84>)
 8002302:	f7fe fedd 	bl	80010c0 <chSysHalt>
 8002306:	2300      	movs	r3, #0
 8002308:	f383 8811 	msr	BASEPRI, r3
 800230c:	4628      	mov	r0, r5
 800230e:	bd70      	pop	{r4, r5, r6, pc}
 8002310:	20000830 	.word	0x20000830
 8002314:	08006180 	.word	0x08006180
	...

08002320 <chIQReadTimeout>:
 8002320:	e92d 4ff8 	stmdb	sp!, {r3, r4, r5, r6, r7, r8, r9, sl, fp, lr}
 8002324:	4604      	mov	r4, r0
 8002326:	4689      	mov	r9, r1
 8002328:	461d      	mov	r5, r3
 800232a:	f8d0 801c 	ldr.w	r8, [r0, #28]
 800232e:	4692      	mov	sl, r2
 8002330:	2a00      	cmp	r2, #0
 8002332:	d059      	beq.n	80023e8 <chIQReadTimeout+0xc8>
 8002334:	f04f 0b20 	mov.w	fp, #32
 8002338:	f38b 8811 	msr	BASEPRI, fp
 800233c:	f7ff fc88 	bl	8001c50 <_stats_start_measure_crit_thd>
 8002340:	f7fe ff2e 	bl	80011a0 <_dbg_check_lock>
 8002344:	4e2a      	ldr	r6, [pc, #168]	; (80023f0 <chIQReadTimeout+0xd0>)
 8002346:	2700      	movs	r7, #0
 8002348:	f1b8 0f00 	cmp.w	r8, #0
 800234c:	d005      	beq.n	800235a <chIQReadTimeout+0x3a>
 800234e:	4620      	mov	r0, r4
 8002350:	47c0      	blx	r8
 8002352:	e002      	b.n	800235a <chIQReadTimeout+0x3a>
 8002354:	f7ff fb8c 	bl	8001a70 <chThdEnqueueTimeoutS>
 8002358:	bb68      	cbnz	r0, 80023b6 <chIQReadTimeout+0x96>
 800235a:	f7fe ffa9 	bl	80012b0 <chDbgCheckClassI>
 800235e:	68a3      	ldr	r3, [r4, #8]
 8002360:	4629      	mov	r1, r5
 8002362:	4620      	mov	r0, r4
 8002364:	2b00      	cmp	r3, #0
 8002366:	d0f5      	beq.n	8002354 <chIQReadTimeout+0x34>
 8002368:	69a2      	ldr	r2, [r4, #24]
 800236a:	3b01      	subs	r3, #1
 800236c:	1c51      	adds	r1, r2, #1
 800236e:	61a1      	str	r1, [r4, #24]
 8002370:	60a3      	str	r3, [r4, #8]
 8002372:	7813      	ldrb	r3, [r2, #0]
 8002374:	f809 3b01 	strb.w	r3, [r9], #1
 8002378:	6923      	ldr	r3, [r4, #16]
 800237a:	69a2      	ldr	r2, [r4, #24]
 800237c:	429a      	cmp	r2, r3
 800237e:	bf24      	itt	cs
 8002380:	68e3      	ldrcs	r3, [r4, #12]
 8002382:	61a3      	strcs	r3, [r4, #24]
 8002384:	f7fe ff1c 	bl	80011c0 <_dbg_check_unlock>
 8002388:	f7ff fc6a 	bl	8001c60 <_stats_stop_measure_crit_thd>
 800238c:	6833      	ldr	r3, [r6, #0]
 800238e:	42b3      	cmp	r3, r6
 8002390:	d004      	beq.n	800239c <chIQReadTimeout+0x7c>
 8002392:	69b2      	ldr	r2, [r6, #24]
 8002394:	689b      	ldr	r3, [r3, #8]
 8002396:	6892      	ldr	r2, [r2, #8]
 8002398:	429a      	cmp	r2, r3
 800239a:	d321      	bcc.n	80023e0 <chIQReadTimeout+0xc0>
 800239c:	2300      	movs	r3, #0
 800239e:	f383 8811 	msr	BASEPRI, r3
 80023a2:	3701      	adds	r7, #1
 80023a4:	45ba      	cmp	sl, r7
 80023a6:	d018      	beq.n	80023da <chIQReadTimeout+0xba>
 80023a8:	f38b 8811 	msr	BASEPRI, fp
 80023ac:	f7ff fc50 	bl	8001c50 <_stats_start_measure_crit_thd>
 80023b0:	f7fe fef6 	bl	80011a0 <_dbg_check_lock>
 80023b4:	e7c8      	b.n	8002348 <chIQReadTimeout+0x28>
 80023b6:	f7fe ff03 	bl	80011c0 <_dbg_check_unlock>
 80023ba:	f7ff fc51 	bl	8001c60 <_stats_stop_measure_crit_thd>
 80023be:	6833      	ldr	r3, [r6, #0]
 80023c0:	42b3      	cmp	r3, r6
 80023c2:	d007      	beq.n	80023d4 <chIQReadTimeout+0xb4>
 80023c4:	69b2      	ldr	r2, [r6, #24]
 80023c6:	689b      	ldr	r3, [r3, #8]
 80023c8:	6892      	ldr	r2, [r2, #8]
 80023ca:	429a      	cmp	r2, r3
 80023cc:	d202      	bcs.n	80023d4 <chIQReadTimeout+0xb4>
 80023ce:	4809      	ldr	r0, [pc, #36]	; (80023f4 <chIQReadTimeout+0xd4>)
 80023d0:	f7fe fe76 	bl	80010c0 <chSysHalt>
 80023d4:	2300      	movs	r3, #0
 80023d6:	f383 8811 	msr	BASEPRI, r3
 80023da:	4638      	mov	r0, r7
 80023dc:	e8bd 8ff8 	ldmia.w	sp!, {r3, r4, r5, r6, r7, r8, r9, sl, fp, pc}
 80023e0:	4804      	ldr	r0, [pc, #16]	; (80023f4 <chIQReadTimeout+0xd4>)
 80023e2:	f7fe fe6d 	bl	80010c0 <chSysHalt>
 80023e6:	e7d9      	b.n	800239c <chIQReadTimeout+0x7c>
 80023e8:	4803      	ldr	r0, [pc, #12]	; (80023f8 <chIQReadTimeout+0xd8>)
 80023ea:	f7fe fe69 	bl	80010c0 <chSysHalt>
 80023ee:	e7a1      	b.n	8002334 <chIQReadTimeout+0x14>
 80023f0:	20000830 	.word	0x20000830
 80023f4:	08006180 	.word	0x08006180
 80023f8:	08006190 	.word	0x08006190
 80023fc:	00000000 	.word	0x00000000

08002400 <chOQObjectInit>:
 8002400:	b430      	push	{r4, r5}
 8002402:	9c02      	ldr	r4, [sp, #8]
 8002404:	6082      	str	r2, [r0, #8]
 8002406:	188d      	adds	r5, r1, r2
 8002408:	e9c0 1503 	strd	r1, r5, [r0, #12]
 800240c:	e9c0 3407 	strd	r3, r4, [r0, #28]
 8002410:	e9c0 0000 	strd	r0, r0, [r0]
 8002414:	e9c0 1105 	strd	r1, r1, [r0, #20]
 8002418:	bc30      	pop	{r4, r5}
 800241a:	4770      	bx	lr
 800241c:	0000      	movs	r0, r0
	...

08002420 <chOQPutTimeout>:
 8002420:	b5f8      	push	{r3, r4, r5, r6, r7, lr}
 8002422:	4604      	mov	r4, r0
 8002424:	460f      	mov	r7, r1
 8002426:	4616      	mov	r6, r2
 8002428:	2320      	movs	r3, #32
 800242a:	f383 8811 	msr	BASEPRI, r3
 800242e:	f7ff fc0f 	bl	8001c50 <_stats_start_measure_crit_thd>
 8002432:	f7fe feb5 	bl	80011a0 <_dbg_check_lock>
 8002436:	e003      	b.n	8002440 <chOQPutTimeout+0x20>
 8002438:	f7ff fb1a 	bl	8001a70 <chThdEnqueueTimeoutS>
 800243c:	1e05      	subs	r5, r0, #0
 800243e:	db27      	blt.n	8002490 <chOQPutTimeout+0x70>
 8002440:	f7fe ff36 	bl	80012b0 <chDbgCheckClassI>
 8002444:	68a3      	ldr	r3, [r4, #8]
 8002446:	4631      	mov	r1, r6
 8002448:	4620      	mov	r0, r4
 800244a:	2b00      	cmp	r3, #0
 800244c:	d0f4      	beq.n	8002438 <chOQPutTimeout+0x18>
 800244e:	6962      	ldr	r2, [r4, #20]
 8002450:	3b01      	subs	r3, #1
 8002452:	1c51      	adds	r1, r2, #1
 8002454:	6161      	str	r1, [r4, #20]
 8002456:	60a3      	str	r3, [r4, #8]
 8002458:	7017      	strb	r7, [r2, #0]
 800245a:	e9d4 3204 	ldrd	r3, r2, [r4, #16]
 800245e:	429a      	cmp	r2, r3
 8002460:	bf24      	itt	cs
 8002462:	68e3      	ldrcs	r3, [r4, #12]
 8002464:	6163      	strcs	r3, [r4, #20]
 8002466:	69e3      	ldr	r3, [r4, #28]
 8002468:	b103      	cbz	r3, 800246c <chOQPutTimeout+0x4c>
 800246a:	4798      	blx	r3
 800246c:	f7fe fea8 	bl	80011c0 <_dbg_check_unlock>
 8002470:	f7ff fbf6 	bl	8001c60 <_stats_stop_measure_crit_thd>
 8002474:	4b13      	ldr	r3, [pc, #76]	; (80024c4 <chOQPutTimeout+0xa4>)
 8002476:	681a      	ldr	r2, [r3, #0]
 8002478:	429a      	cmp	r2, r3
 800247a:	d004      	beq.n	8002486 <chOQPutTimeout+0x66>
 800247c:	6999      	ldr	r1, [r3, #24]
 800247e:	6893      	ldr	r3, [r2, #8]
 8002480:	688a      	ldr	r2, [r1, #8]
 8002482:	429a      	cmp	r2, r3
 8002484:	d319      	bcc.n	80024ba <chOQPutTimeout+0x9a>
 8002486:	2500      	movs	r5, #0
 8002488:	f385 8811 	msr	BASEPRI, r5
 800248c:	4628      	mov	r0, r5
 800248e:	bdf8      	pop	{r3, r4, r5, r6, r7, pc}
 8002490:	f7fe fe96 	bl	80011c0 <_dbg_check_unlock>
 8002494:	f7ff fbe4 	bl	8001c60 <_stats_stop_measure_crit_thd>
 8002498:	4b0a      	ldr	r3, [pc, #40]	; (80024c4 <chOQPutTimeout+0xa4>)
 800249a:	681a      	ldr	r2, [r3, #0]
 800249c:	429a      	cmp	r2, r3
 800249e:	d007      	beq.n	80024b0 <chOQPutTimeout+0x90>
 80024a0:	6999      	ldr	r1, [r3, #24]
 80024a2:	6893      	ldr	r3, [r2, #8]
 80024a4:	688a      	ldr	r2, [r1, #8]
 80024a6:	429a      	cmp	r2, r3
 80024a8:	d202      	bcs.n	80024b0 <chOQPutTimeout+0x90>
 80024aa:	4807      	ldr	r0, [pc, #28]	; (80024c8 <chOQPutTimeout+0xa8>)
 80024ac:	f7fe fe08 	bl	80010c0 <chSysHalt>
 80024b0:	2300      	movs	r3, #0
 80024b2:	f383 8811 	msr	BASEPRI, r3
 80024b6:	4628      	mov	r0, r5
 80024b8:	bdf8      	pop	{r3, r4, r5, r6, r7, pc}
 80024ba:	4803      	ldr	r0, [pc, #12]	; (80024c8 <chOQPutTimeout+0xa8>)
 80024bc:	f7fe fe00 	bl	80010c0 <chSysHalt>
 80024c0:	e7e1      	b.n	8002486 <chOQPutTimeout+0x66>
 80024c2:	bf00      	nop
 80024c4:	20000830 	.word	0x20000830
 80024c8:	08006180 	.word	0x08006180
 80024cc:	00000000 	.word	0x00000000

080024d0 <chOQGetI>:
 80024d0:	b538      	push	{r3, r4, r5, lr}
 80024d2:	4604      	mov	r4, r0
 80024d4:	f7fe feec 	bl	80012b0 <chDbgCheckClassI>
 80024d8:	f7fe feea 	bl	80012b0 <chDbgCheckClassI>
 80024dc:	e9d4 3205 	ldrd	r3, r2, [r4, #20]
 80024e0:	4293      	cmp	r3, r2
 80024e2:	68a3      	ldr	r3, [r4, #8]
 80024e4:	d00f      	beq.n	8002506 <chOQGetI+0x36>
 80024e6:	6920      	ldr	r0, [r4, #16]
 80024e8:	1c51      	adds	r1, r2, #1
 80024ea:	3301      	adds	r3, #1
 80024ec:	60a3      	str	r3, [r4, #8]
 80024ee:	61a1      	str	r1, [r4, #24]
 80024f0:	4281      	cmp	r1, r0
 80024f2:	7815      	ldrb	r5, [r2, #0]
 80024f4:	d301      	bcc.n	80024fa <chOQGetI+0x2a>
 80024f6:	68e3      	ldr	r3, [r4, #12]
 80024f8:	61a3      	str	r3, [r4, #24]
 80024fa:	4620      	mov	r0, r4
 80024fc:	2100      	movs	r1, #0
 80024fe:	f7ff facf 	bl	8001aa0 <chThdDequeueNextI>
 8002502:	4628      	mov	r0, r5
 8002504:	bd38      	pop	{r3, r4, r5, pc}
 8002506:	2b00      	cmp	r3, #0
 8002508:	d0ed      	beq.n	80024e6 <chOQGetI+0x16>
 800250a:	f06f 0002 	mvn.w	r0, #2
 800250e:	bd38      	pop	{r3, r4, r5, pc}

08002510 <chOQWriteTimeout>:
 8002510:	e92d 4ff0 	stmdb	sp!, {r4, r5, r6, r7, r8, r9, sl, fp, lr}
 8002514:	b083      	sub	sp, #12
 8002516:	4604      	mov	r4, r0
 8002518:	460d      	mov	r5, r1
 800251a:	9301      	str	r3, [sp, #4]
 800251c:	f8d0 901c 	ldr.w	r9, [r0, #28]
 8002520:	4616      	mov	r6, r2
 8002522:	2a00      	cmp	r2, #0
 8002524:	d05c      	beq.n	80025e0 <chOQWriteTimeout+0xd0>
 8002526:	f04f 0a20 	mov.w	sl, #32
 800252a:	f38a 8811 	msr	BASEPRI, sl
 800252e:	f7ff fb8f 	bl	8001c50 <_stats_start_measure_crit_thd>
 8002532:	f7fe fe35 	bl	80011a0 <_dbg_check_lock>
 8002536:	f04f 0800 	mov.w	r8, #0
 800253a:	4f2d      	ldr	r7, [pc, #180]	; (80025f0 <chOQWriteTimeout+0xe0>)
 800253c:	46c3      	mov	fp, r8
 800253e:	f7fe feb7 	bl	80012b0 <chDbgCheckClassI>
 8002542:	68a3      	ldr	r3, [r4, #8]
 8002544:	2b00      	cmp	r3, #0
 8002546:	d032      	beq.n	80025ae <chOQWriteTimeout+0x9e>
 8002548:	6962      	ldr	r2, [r4, #20]
 800254a:	3b01      	subs	r3, #1
 800254c:	1c51      	adds	r1, r2, #1
 800254e:	6161      	str	r1, [r4, #20]
 8002550:	60a3      	str	r3, [r4, #8]
 8002552:	782b      	ldrb	r3, [r5, #0]
 8002554:	7013      	strb	r3, [r2, #0]
 8002556:	e9d4 3204 	ldrd	r3, r2, [r4, #16]
 800255a:	429a      	cmp	r2, r3
 800255c:	bf24      	itt	cs
 800255e:	68e3      	ldrcs	r3, [r4, #12]
 8002560:	6163      	strcs	r3, [r4, #20]
 8002562:	3501      	adds	r5, #1
 8002564:	f1b9 0f00 	cmp.w	r9, #0
 8002568:	d001      	beq.n	800256e <chOQWriteTimeout+0x5e>
 800256a:	4620      	mov	r0, r4
 800256c:	47c8      	blx	r9
 800256e:	f7fe fe27 	bl	80011c0 <_dbg_check_unlock>
 8002572:	f7ff fb75 	bl	8001c60 <_stats_stop_measure_crit_thd>
 8002576:	683b      	ldr	r3, [r7, #0]
 8002578:	42bb      	cmp	r3, r7
 800257a:	d007      	beq.n	800258c <chOQWriteTimeout+0x7c>
 800257c:	69ba      	ldr	r2, [r7, #24]
 800257e:	689b      	ldr	r3, [r3, #8]
 8002580:	6892      	ldr	r2, [r2, #8]
 8002582:	429a      	cmp	r2, r3
 8002584:	d202      	bcs.n	800258c <chOQWriteTimeout+0x7c>
 8002586:	481b      	ldr	r0, [pc, #108]	; (80025f4 <chOQWriteTimeout+0xe4>)
 8002588:	f7fe fd9a 	bl	80010c0 <chSysHalt>
 800258c:	f38b 8811 	msr	BASEPRI, fp
 8002590:	3e01      	subs	r6, #1
 8002592:	f108 0801 	add.w	r8, r8, #1
 8002596:	d01f      	beq.n	80025d8 <chOQWriteTimeout+0xc8>
 8002598:	f38a 8811 	msr	BASEPRI, sl
 800259c:	f7ff fb58 	bl	8001c50 <_stats_start_measure_crit_thd>
 80025a0:	f7fe fdfe 	bl	80011a0 <_dbg_check_lock>
 80025a4:	f7fe fe84 	bl	80012b0 <chDbgCheckClassI>
 80025a8:	68a3      	ldr	r3, [r4, #8]
 80025aa:	2b00      	cmp	r3, #0
 80025ac:	d1cc      	bne.n	8002548 <chOQWriteTimeout+0x38>
 80025ae:	9901      	ldr	r1, [sp, #4]
 80025b0:	4620      	mov	r0, r4
 80025b2:	f7ff fa5d 	bl	8001a70 <chThdEnqueueTimeoutS>
 80025b6:	2800      	cmp	r0, #0
 80025b8:	d0c1      	beq.n	800253e <chOQWriteTimeout+0x2e>
 80025ba:	f7fe fe01 	bl	80011c0 <_dbg_check_unlock>
 80025be:	f7ff fb4f 	bl	8001c60 <_stats_stop_measure_crit_thd>
 80025c2:	683b      	ldr	r3, [r7, #0]
 80025c4:	42bb      	cmp	r3, r7
 80025c6:	d004      	beq.n	80025d2 <chOQWriteTimeout+0xc2>
 80025c8:	69ba      	ldr	r2, [r7, #24]
 80025ca:	689b      	ldr	r3, [r3, #8]
 80025cc:	6892      	ldr	r2, [r2, #8]
 80025ce:	429a      	cmp	r2, r3
 80025d0:	d30a      	bcc.n	80025e8 <chOQWriteTimeout+0xd8>
 80025d2:	2300      	movs	r3, #0
 80025d4:	f383 8811 	msr	BASEPRI, r3
 80025d8:	4640      	mov	r0, r8
 80025da:	b003      	add	sp, #12
 80025dc:	e8bd 8ff0 	ldmia.w	sp!, {r4, r5, r6, r7, r8, r9, sl, fp, pc}
 80025e0:	4805      	ldr	r0, [pc, #20]	; (80025f8 <chOQWriteTimeout+0xe8>)
 80025e2:	f7fe fd6d 	bl	80010c0 <chSysHalt>
 80025e6:	e79e      	b.n	8002526 <chOQWriteTimeout+0x16>
 80025e8:	4802      	ldr	r0, [pc, #8]	; (80025f4 <chOQWriteTimeout+0xe4>)
 80025ea:	f7fe fd69 	bl	80010c0 <chSysHalt>
 80025ee:	e7f0      	b.n	80025d2 <chOQWriteTimeout+0xc2>
 80025f0:	20000830 	.word	0x20000830
 80025f4:	08006180 	.word	0x08006180
 80025f8:	080061a0 	.word	0x080061a0
 80025fc:	00000000 	.word	0x00000000

08002600 <_core_init>:
 8002600:	4a05      	ldr	r2, [pc, #20]	; (8002618 <_core_init+0x18>)
 8002602:	4b06      	ldr	r3, [pc, #24]	; (800261c <_core_init+0x1c>)
 8002604:	4806      	ldr	r0, [pc, #24]	; (8002620 <_core_init+0x20>)
 8002606:	4907      	ldr	r1, [pc, #28]	; (8002624 <_core_init+0x24>)
 8002608:	f022 0207 	bic.w	r2, r2, #7
 800260c:	f023 0307 	bic.w	r3, r3, #7
 8002610:	6002      	str	r2, [r0, #0]
 8002612:	600b      	str	r3, [r1, #0]
 8002614:	4770      	bx	lr
 8002616:	bf00      	nop
 8002618:	2000187f 	.word	0x2000187f
 800261c:	20020000 	.word	0x20020000
 8002620:	20000ea4 	.word	0x20000ea4
 8002624:	20000ea0 	.word	0x20000ea0
	...

08002630 <chCoreAlloc>:
 8002630:	b538      	push	{r3, r4, r5, lr}
 8002632:	4604      	mov	r4, r0
 8002634:	2320      	movs	r3, #32
 8002636:	f383 8811 	msr	BASEPRI, r3
 800263a:	f7ff fb09 	bl	8001c50 <_stats_start_measure_crit_thd>
 800263e:	f7fe fdaf 	bl	80011a0 <_dbg_check_lock>
 8002642:	f7fe fe35 	bl	80012b0 <chDbgCheckClassI>
 8002646:	4a13      	ldr	r2, [pc, #76]	; (8002694 <chCoreAlloc+0x64>)
 8002648:	4b13      	ldr	r3, [pc, #76]	; (8002698 <chCoreAlloc+0x68>)
 800264a:	6815      	ldr	r5, [r2, #0]
 800264c:	681b      	ldr	r3, [r3, #0]
 800264e:	1de0      	adds	r0, r4, #7
 8002650:	f020 0007 	bic.w	r0, r0, #7
 8002654:	1b5b      	subs	r3, r3, r5
 8002656:	4298      	cmp	r0, r3
 8002658:	bf9a      	itte	ls
 800265a:	1940      	addls	r0, r0, r5
 800265c:	6010      	strls	r0, [r2, #0]
 800265e:	2500      	movhi	r5, #0
 8002660:	f7fe fdae 	bl	80011c0 <_dbg_check_unlock>
 8002664:	f7ff fafc 	bl	8001c60 <_stats_stop_measure_crit_thd>
 8002668:	4b0c      	ldr	r3, [pc, #48]	; (800269c <chCoreAlloc+0x6c>)
 800266a:	681a      	ldr	r2, [r3, #0]
 800266c:	429a      	cmp	r2, r3
 800266e:	d004      	beq.n	800267a <chCoreAlloc+0x4a>
 8002670:	6999      	ldr	r1, [r3, #24]
 8002672:	6893      	ldr	r3, [r2, #8]
 8002674:	688a      	ldr	r2, [r1, #8]
 8002676:	429a      	cmp	r2, r3
 8002678:	d304      	bcc.n	8002684 <chCoreAlloc+0x54>
 800267a:	2300      	movs	r3, #0
 800267c:	f383 8811 	msr	BASEPRI, r3
 8002680:	4628      	mov	r0, r5
 8002682:	bd38      	pop	{r3, r4, r5, pc}
 8002684:	4806      	ldr	r0, [pc, #24]	; (80026a0 <chCoreAlloc+0x70>)
 8002686:	f7fe fd1b 	bl	80010c0 <chSysHalt>
 800268a:	2300      	movs	r3, #0
 800268c:	f383 8811 	msr	BASEPRI, r3
 8002690:	4628      	mov	r0, r5
 8002692:	bd38      	pop	{r3, r4, r5, pc}
 8002694:	20000ea4 	.word	0x20000ea4
 8002698:	20000ea0 	.word	0x20000ea0
 800269c:	20000830 	.word	0x20000830
 80026a0:	080061c0 	.word	0x080061c0
	...

080026b0 <_heap_init>:
 80026b0:	4b04      	ldr	r3, [pc, #16]	; (80026c4 <_heap_init+0x14>)
 80026b2:	4a05      	ldr	r2, [pc, #20]	; (80026c8 <_heap_init+0x18>)
 80026b4:	601a      	str	r2, [r3, #0]
 80026b6:	f103 0010 	add.w	r0, r3, #16
 80026ba:	2200      	movs	r2, #0
 80026bc:	e9c3 2202 	strd	r2, r2, [r3, #8]
 80026c0:	f7ff bae6 	b.w	8001c90 <chMtxObjectInit>
 80026c4:	20000ea8 	.word	0x20000ea8
 80026c8:	08002631 	.word	0x08002631
 80026cc:	00000000 	.word	0x00000000

080026d0 <SVC_Handler>:
 80026d0:	b480      	push	{r7}
 80026d2:	4a09      	ldr	r2, [pc, #36]	; (80026f8 <SVC_Handler+0x28>)
 80026d4:	6853      	ldr	r3, [r2, #4]
 80026d6:	f023 0301 	bic.w	r3, r3, #1
 80026da:	af00      	add	r7, sp, #0
 80026dc:	6053      	str	r3, [r2, #4]
 80026de:	f3ef 8309 	mrs	r3, PSP
 80026e2:	3368      	adds	r3, #104	; 0x68
 80026e4:	f383 8809 	msr	PSP, r3
 80026e8:	2300      	movs	r3, #0
 80026ea:	f383 8811 	msr	BASEPRI, r3
 80026ee:	46bd      	mov	sp, r7
 80026f0:	f85d 7b04 	ldr.w	r7, [sp], #4
 80026f4:	4770      	bx	lr
 80026f6:	bf00      	nop
 80026f8:	e000ef30 	.word	0xe000ef30
 80026fc:	00000000 	.word	0x00000000

08002700 <_port_irq_epilogue>:
 8002700:	b598      	push	{r3, r4, r7, lr}
 8002702:	2320      	movs	r3, #32
 8002704:	af00      	add	r7, sp, #0
 8002706:	f383 8811 	msr	BASEPRI, r3
 800270a:	4b11      	ldr	r3, [pc, #68]	; (8002750 <_port_irq_epilogue+0x50>)
 800270c:	685b      	ldr	r3, [r3, #4]
 800270e:	f413 6300 	ands.w	r3, r3, #2048	; 0x800
 8002712:	d102      	bne.n	800271a <_port_irq_epilogue+0x1a>
 8002714:	f383 8811 	msr	BASEPRI, r3
 8002718:	bd98      	pop	{r3, r4, r7, pc}
 800271a:	eef1 3a10 	vmrs	r3, fpscr
 800271e:	f3ef 8409 	mrs	r4, PSP
 8002722:	4b0c      	ldr	r3, [pc, #48]	; (8002754 <_port_irq_epilogue+0x54>)
 8002724:	f04f 7280 	mov.w	r2, #16777216	; 0x1000000
 8002728:	68db      	ldr	r3, [r3, #12]
 800272a:	f844 3c08 	str.w	r3, [r4, #-8]
 800272e:	f844 2c4c 	str.w	r2, [r4, #-76]
 8002732:	f1a4 0368 	sub.w	r3, r4, #104	; 0x68
 8002736:	f383 8809 	msr	PSP, r3
 800273a:	f7fe ff69 	bl	8001610 <chSchIsPreemptionRequired>
 800273e:	b118      	cbz	r0, 8002748 <_port_irq_epilogue+0x48>
 8002740:	4b05      	ldr	r3, [pc, #20]	; (8002758 <_port_irq_epilogue+0x58>)
 8002742:	f844 3c50 	str.w	r3, [r4, #-80]
 8002746:	bd98      	pop	{r3, r4, r7, pc}
 8002748:	4b04      	ldr	r3, [pc, #16]	; (800275c <_port_irq_epilogue+0x5c>)
 800274a:	f844 3c50 	str.w	r3, [r4, #-80]
 800274e:	bd98      	pop	{r3, r4, r7, pc}
 8002750:	e000ed00 	.word	0xe000ed00
 8002754:	e000ef30 	.word	0xe000ef30
 8002758:	080002e1 	.word	0x080002e1
 800275c:	080002f4 	.word	0x080002f4

08002760 <halInit>:
 8002760:	b508      	push	{r3, lr}
 8002762:	f001 f8b5 	bl	80038d0 <hal_lld_init>
 8002766:	4809      	ldr	r0, [pc, #36]	; (800278c <halInit+0x2c>)
 8002768:	f001 f95a 	bl	8003a20 <_pal_lld_init>
 800276c:	f000 f810 	bl	8002790 <gptInit>
 8002770:	f000 f8ae 	bl	80028d0 <i2cInit>
 8002774:	f000 fa1c 	bl	8002bb0 <sdInit>
 8002778:	f000 fac2 	bl	8002d00 <usbInit>
 800277c:	f000 fab0 	bl	8002ce0 <sduInit>
 8002780:	f002 fabe 	bl	8004d00 <boardInit>
 8002784:	e8bd 4008 	ldmia.w	sp!, {r3, lr}
 8002788:	f000 bab2 	b.w	8002cf0 <stInit>
 800278c:	08006550 	.word	0x08006550

08002790 <gptInit>:
 8002790:	f002 b8ee 	b.w	8004970 <gpt_lld_init>
	...

080027a0 <gptObjectInit>:
 80027a0:	2201      	movs	r2, #1
 80027a2:	2300      	movs	r3, #0
 80027a4:	7002      	strb	r2, [r0, #0]
 80027a6:	6043      	str	r3, [r0, #4]
 80027a8:	4770      	bx	lr
 80027aa:	bf00      	nop
 80027ac:	0000      	movs	r0, r0
	...

080027b0 <gptStart>:
 80027b0:	b538      	push	{r3, r4, r5, lr}
 80027b2:	460d      	mov	r5, r1
 80027b4:	4604      	mov	r4, r0
 80027b6:	b360      	cbz	r0, 8002812 <gptStart+0x62>
 80027b8:	b359      	cbz	r1, 8002812 <gptStart+0x62>
 80027ba:	2320      	movs	r3, #32
 80027bc:	f383 8811 	msr	BASEPRI, r3
 80027c0:	f7ff fa46 	bl	8001c50 <_stats_start_measure_crit_thd>
 80027c4:	f7fe fcec 	bl	80011a0 <_dbg_check_lock>
 80027c8:	7823      	ldrb	r3, [r4, #0]
 80027ca:	3b01      	subs	r3, #1
 80027cc:	2b01      	cmp	r3, #1
 80027ce:	d902      	bls.n	80027d6 <gptStart+0x26>
 80027d0:	4812      	ldr	r0, [pc, #72]	; (800281c <gptStart+0x6c>)
 80027d2:	f7fe fc75 	bl	80010c0 <chSysHalt>
 80027d6:	4620      	mov	r0, r4
 80027d8:	6065      	str	r5, [r4, #4]
 80027da:	f002 f8d9 	bl	8004990 <gpt_lld_start>
 80027de:	2302      	movs	r3, #2
 80027e0:	7023      	strb	r3, [r4, #0]
 80027e2:	f7fe fced 	bl	80011c0 <_dbg_check_unlock>
 80027e6:	f7ff fa3b 	bl	8001c60 <_stats_stop_measure_crit_thd>
 80027ea:	4b0d      	ldr	r3, [pc, #52]	; (8002820 <gptStart+0x70>)
 80027ec:	681a      	ldr	r2, [r3, #0]
 80027ee:	429a      	cmp	r2, r3
 80027f0:	d004      	beq.n	80027fc <gptStart+0x4c>
 80027f2:	6999      	ldr	r1, [r3, #24]
 80027f4:	6893      	ldr	r3, [r2, #8]
 80027f6:	688a      	ldr	r2, [r1, #8]
 80027f8:	429a      	cmp	r2, r3
 80027fa:	d303      	bcc.n	8002804 <gptStart+0x54>
 80027fc:	2300      	movs	r3, #0
 80027fe:	f383 8811 	msr	BASEPRI, r3
 8002802:	bd38      	pop	{r3, r4, r5, pc}
 8002804:	4807      	ldr	r0, [pc, #28]	; (8002824 <gptStart+0x74>)
 8002806:	f7fe fc5b 	bl	80010c0 <chSysHalt>
 800280a:	2300      	movs	r3, #0
 800280c:	f383 8811 	msr	BASEPRI, r3
 8002810:	bd38      	pop	{r3, r4, r5, pc}
 8002812:	4802      	ldr	r0, [pc, #8]	; (800281c <gptStart+0x6c>)
 8002814:	f7fe fc54 	bl	80010c0 <chSysHalt>
 8002818:	e7cf      	b.n	80027ba <gptStart+0xa>
 800281a:	bf00      	nop
 800281c:	080061e0 	.word	0x080061e0
 8002820:	20000830 	.word	0x20000830
 8002824:	080061d0 	.word	0x080061d0
	...

08002830 <gptStartContinuousI>:
 8002830:	b538      	push	{r3, r4, r5, lr}
 8002832:	4604      	mov	r4, r0
 8002834:	460d      	mov	r5, r1
 8002836:	f7fe fd3b 	bl	80012b0 <chDbgCheckClassI>
 800283a:	b16c      	cbz	r4, 8002858 <gptStartContinuousI+0x28>
 800283c:	7823      	ldrb	r3, [r4, #0]
 800283e:	2b02      	cmp	r3, #2
 8002840:	d002      	beq.n	8002848 <gptStartContinuousI+0x18>
 8002842:	4807      	ldr	r0, [pc, #28]	; (8002860 <gptStartContinuousI+0x30>)
 8002844:	f7fe fc3c 	bl	80010c0 <chSysHalt>
 8002848:	2303      	movs	r3, #3
 800284a:	4629      	mov	r1, r5
 800284c:	7023      	strb	r3, [r4, #0]
 800284e:	4620      	mov	r0, r4
 8002850:	e8bd 4038 	ldmia.w	sp!, {r3, r4, r5, lr}
 8002854:	f002 b8dc 	b.w	8004a10 <gpt_lld_start_timer>
 8002858:	4801      	ldr	r0, [pc, #4]	; (8002860 <gptStartContinuousI+0x30>)
 800285a:	f7fe fc31 	bl	80010c0 <chSysHalt>
 800285e:	e7ed      	b.n	800283c <gptStartContinuousI+0xc>
 8002860:	080061f0 	.word	0x080061f0
	...

08002870 <gptStartContinuous>:
 8002870:	b538      	push	{r3, r4, r5, lr}
 8002872:	4604      	mov	r4, r0
 8002874:	460d      	mov	r5, r1
 8002876:	2320      	movs	r3, #32
 8002878:	f383 8811 	msr	BASEPRI, r3
 800287c:	f7ff f9e8 	bl	8001c50 <_stats_start_measure_crit_thd>
 8002880:	f7fe fc8e 	bl	80011a0 <_dbg_check_lock>
 8002884:	4629      	mov	r1, r5
 8002886:	4620      	mov	r0, r4
 8002888:	f7ff ffd2 	bl	8002830 <gptStartContinuousI>
 800288c:	f7fe fc98 	bl	80011c0 <_dbg_check_unlock>
 8002890:	f7ff f9e6 	bl	8001c60 <_stats_stop_measure_crit_thd>
 8002894:	4b09      	ldr	r3, [pc, #36]	; (80028bc <gptStartContinuous+0x4c>)
 8002896:	681a      	ldr	r2, [r3, #0]
 8002898:	429a      	cmp	r2, r3
 800289a:	d004      	beq.n	80028a6 <gptStartContinuous+0x36>
 800289c:	6999      	ldr	r1, [r3, #24]
 800289e:	6893      	ldr	r3, [r2, #8]
 80028a0:	688a      	ldr	r2, [r1, #8]
 80028a2:	429a      	cmp	r2, r3
 80028a4:	d303      	bcc.n	80028ae <gptStartContinuous+0x3e>
 80028a6:	2300      	movs	r3, #0
 80028a8:	f383 8811 	msr	BASEPRI, r3
 80028ac:	bd38      	pop	{r3, r4, r5, pc}
 80028ae:	4804      	ldr	r0, [pc, #16]	; (80028c0 <gptStartContinuous+0x50>)
 80028b0:	f7fe fc06 	bl	80010c0 <chSysHalt>
 80028b4:	2300      	movs	r3, #0
 80028b6:	f383 8811 	msr	BASEPRI, r3
 80028ba:	bd38      	pop	{r3, r4, r5, pc}
 80028bc:	20000830 	.word	0x20000830
 80028c0:	080061d0 	.word	0x080061d0
	...

080028d0 <i2cInit>:
 80028d0:	f001 bb4e 	b.w	8003f70 <i2c_lld_init>
	...

080028e0 <i2cObjectInit>:
 80028e0:	2201      	movs	r2, #1
 80028e2:	2300      	movs	r3, #0
 80028e4:	7002      	strb	r2, [r0, #0]
 80028e6:	6043      	str	r3, [r0, #4]
 80028e8:	300c      	adds	r0, #12
 80028ea:	f7ff b9d1 	b.w	8001c90 <chMtxObjectInit>
 80028ee:	bf00      	nop

080028f0 <i2cStart>:
 80028f0:	b538      	push	{r3, r4, r5, lr}
 80028f2:	460d      	mov	r5, r1
 80028f4:	4604      	mov	r4, r0
 80028f6:	b370      	cbz	r0, 8002956 <i2cStart+0x66>
 80028f8:	b369      	cbz	r1, 8002956 <i2cStart+0x66>
 80028fa:	7823      	ldrb	r3, [r4, #0]
 80028fc:	1e5a      	subs	r2, r3, #1
 80028fe:	2a01      	cmp	r2, #1
 8002900:	d904      	bls.n	800290c <i2cStart+0x1c>
 8002902:	2b05      	cmp	r3, #5
 8002904:	d002      	beq.n	800290c <i2cStart+0x1c>
 8002906:	4816      	ldr	r0, [pc, #88]	; (8002960 <i2cStart+0x70>)
 8002908:	f7fe fbda 	bl	80010c0 <chSysHalt>
 800290c:	2320      	movs	r3, #32
 800290e:	f383 8811 	msr	BASEPRI, r3
 8002912:	f7ff f99d 	bl	8001c50 <_stats_start_measure_crit_thd>
 8002916:	f7fe fc43 	bl	80011a0 <_dbg_check_lock>
 800291a:	4620      	mov	r0, r4
 800291c:	6065      	str	r5, [r4, #4]
 800291e:	f001 fb3f 	bl	8003fa0 <i2c_lld_start>
 8002922:	2302      	movs	r3, #2
 8002924:	7023      	strb	r3, [r4, #0]
 8002926:	f7fe fc4b 	bl	80011c0 <_dbg_check_unlock>
 800292a:	f7ff f999 	bl	8001c60 <_stats_stop_measure_crit_thd>
 800292e:	4b0d      	ldr	r3, [pc, #52]	; (8002964 <i2cStart+0x74>)
 8002930:	681a      	ldr	r2, [r3, #0]
 8002932:	429a      	cmp	r2, r3
 8002934:	d004      	beq.n	8002940 <i2cStart+0x50>
 8002936:	6999      	ldr	r1, [r3, #24]
 8002938:	6893      	ldr	r3, [r2, #8]
 800293a:	688a      	ldr	r2, [r1, #8]
 800293c:	429a      	cmp	r2, r3
 800293e:	d303      	bcc.n	8002948 <i2cStart+0x58>
 8002940:	2300      	movs	r3, #0
 8002942:	f383 8811 	msr	BASEPRI, r3
 8002946:	bd38      	pop	{r3, r4, r5, pc}
 8002948:	4807      	ldr	r0, [pc, #28]	; (8002968 <i2cStart+0x78>)
 800294a:	f7fe fbb9 	bl	80010c0 <chSysHalt>
 800294e:	2300      	movs	r3, #0
 8002950:	f383 8811 	msr	BASEPRI, r3
 8002954:	bd38      	pop	{r3, r4, r5, pc}
 8002956:	4802      	ldr	r0, [pc, #8]	; (8002960 <i2cStart+0x70>)
 8002958:	f7fe fbb2 	bl	80010c0 <chSysHalt>
 800295c:	e7cd      	b.n	80028fa <i2cStart+0xa>
 800295e:	bf00      	nop
 8002960:	08006220 	.word	0x08006220
 8002964:	20000830 	.word	0x20000830
 8002968:	08006210 	.word	0x08006210
 800296c:	00000000 	.word	0x00000000

08002970 <i2cStop>:
 8002970:	b510      	push	{r4, lr}
 8002972:	4604      	mov	r4, r0
 8002974:	b360      	cbz	r0, 80029d0 <i2cStop+0x60>
 8002976:	7823      	ldrb	r3, [r4, #0]
 8002978:	1e5a      	subs	r2, r3, #1
 800297a:	2a01      	cmp	r2, #1
 800297c:	d904      	bls.n	8002988 <i2cStop+0x18>
 800297e:	2b05      	cmp	r3, #5
 8002980:	d002      	beq.n	8002988 <i2cStop+0x18>
 8002982:	4815      	ldr	r0, [pc, #84]	; (80029d8 <i2cStop+0x68>)
 8002984:	f7fe fb9c 	bl	80010c0 <chSysHalt>
 8002988:	2320      	movs	r3, #32
 800298a:	f383 8811 	msr	BASEPRI, r3
 800298e:	f7ff f95f 	bl	8001c50 <_stats_start_measure_crit_thd>
 8002992:	f7fe fc05 	bl	80011a0 <_dbg_check_lock>
 8002996:	4620      	mov	r0, r4
 8002998:	f001 fc2a 	bl	80041f0 <i2c_lld_stop>
 800299c:	2301      	movs	r3, #1
 800299e:	7023      	strb	r3, [r4, #0]
 80029a0:	f7fe fc0e 	bl	80011c0 <_dbg_check_unlock>
 80029a4:	f7ff f95c 	bl	8001c60 <_stats_stop_measure_crit_thd>
 80029a8:	4b0c      	ldr	r3, [pc, #48]	; (80029dc <i2cStop+0x6c>)
 80029aa:	681a      	ldr	r2, [r3, #0]
 80029ac:	429a      	cmp	r2, r3
 80029ae:	d004      	beq.n	80029ba <i2cStop+0x4a>
 80029b0:	6999      	ldr	r1, [r3, #24]
 80029b2:	6893      	ldr	r3, [r2, #8]
 80029b4:	688a      	ldr	r2, [r1, #8]
 80029b6:	429a      	cmp	r2, r3
 80029b8:	d303      	bcc.n	80029c2 <i2cStop+0x52>
 80029ba:	2300      	movs	r3, #0
 80029bc:	f383 8811 	msr	BASEPRI, r3
 80029c0:	bd10      	pop	{r4, pc}
 80029c2:	4807      	ldr	r0, [pc, #28]	; (80029e0 <i2cStop+0x70>)
 80029c4:	f7fe fb7c 	bl	80010c0 <chSysHalt>
 80029c8:	2300      	movs	r3, #0
 80029ca:	f383 8811 	msr	BASEPRI, r3
 80029ce:	bd10      	pop	{r4, pc}
 80029d0:	4801      	ldr	r0, [pc, #4]	; (80029d8 <i2cStop+0x68>)
 80029d2:	f7fe fb75 	bl	80010c0 <chSysHalt>
 80029d6:	e7ce      	b.n	8002976 <i2cStop+0x6>
 80029d8:	08006230 	.word	0x08006230
 80029dc:	20000830 	.word	0x20000830
 80029e0:	08006210 	.word	0x08006210
	...

080029f0 <i2cGetErrors>:
 80029f0:	b510      	push	{r4, lr}
 80029f2:	4604      	mov	r4, r0
 80029f4:	b108      	cbz	r0, 80029fa <i2cGetErrors+0xa>
 80029f6:	68a0      	ldr	r0, [r4, #8]
 80029f8:	bd10      	pop	{r4, pc}
 80029fa:	4802      	ldr	r0, [pc, #8]	; (8002a04 <i2cGetErrors+0x14>)
 80029fc:	f7fe fb60 	bl	80010c0 <chSysHalt>
 8002a00:	68a0      	ldr	r0, [r4, #8]
 8002a02:	bd10      	pop	{r4, pc}
 8002a04:	08006240 	.word	0x08006240
	...

08002a10 <i2cMasterTransmitTimeout>:
 8002a10:	e92d 46f0 	stmdb	sp!, {r4, r5, r6, r7, r9, sl, lr}
 8002a14:	b085      	sub	sp, #20
 8002a16:	460e      	mov	r6, r1
 8002a18:	4692      	mov	sl, r2
 8002a1a:	4699      	mov	r9, r3
 8002a1c:	9d0d      	ldr	r5, [sp, #52]	; 0x34
 8002a1e:	4604      	mov	r4, r0
 8002a20:	b108      	cbz	r0, 8002a26 <i2cMasterTransmitTimeout+0x16>
 8002a22:	2900      	cmp	r1, #0
 8002a24:	d138      	bne.n	8002a98 <i2cMasterTransmitTimeout+0x88>
 8002a26:	4824      	ldr	r0, [pc, #144]	; (8002ab8 <i2cMasterTransmitTimeout+0xa8>)
 8002a28:	f7fe fb4a 	bl	80010c0 <chSysHalt>
 8002a2c:	7823      	ldrb	r3, [r4, #0]
 8002a2e:	2b02      	cmp	r3, #2
 8002a30:	d002      	beq.n	8002a38 <i2cMasterTransmitTimeout+0x28>
 8002a32:	4821      	ldr	r0, [pc, #132]	; (8002ab8 <i2cMasterTransmitTimeout+0xa8>)
 8002a34:	f7fe fb44 	bl	80010c0 <chSysHalt>
 8002a38:	2320      	movs	r3, #32
 8002a3a:	f383 8811 	msr	BASEPRI, r3
 8002a3e:	f7ff f907 	bl	8001c50 <_stats_start_measure_crit_thd>
 8002a42:	f7fe fbad 	bl	80011a0 <_dbg_check_lock>
 8002a46:	4631      	mov	r1, r6
 8002a48:	9e0e      	ldr	r6, [sp, #56]	; 0x38
 8002a4a:	2003      	movs	r0, #3
 8002a4c:	2700      	movs	r7, #0
 8002a4e:	7020      	strb	r0, [r4, #0]
 8002a50:	60a7      	str	r7, [r4, #8]
 8002a52:	e9cd 5601 	strd	r5, r6, [sp, #4]
 8002a56:	9d0c      	ldr	r5, [sp, #48]	; 0x30
 8002a58:	9500      	str	r5, [sp, #0]
 8002a5a:	4652      	mov	r2, sl
 8002a5c:	464b      	mov	r3, r9
 8002a5e:	4620      	mov	r0, r4
 8002a60:	f001 fc0e 	bl	8004280 <i2c_lld_master_transmit_timeout>
 8002a64:	1c43      	adds	r3, r0, #1
 8002a66:	bf0c      	ite	eq
 8002a68:	2305      	moveq	r3, #5
 8002a6a:	2302      	movne	r3, #2
 8002a6c:	7023      	strb	r3, [r4, #0]
 8002a6e:	4605      	mov	r5, r0
 8002a70:	f7fe fba6 	bl	80011c0 <_dbg_check_unlock>
 8002a74:	f7ff f8f4 	bl	8001c60 <_stats_stop_measure_crit_thd>
 8002a78:	4b10      	ldr	r3, [pc, #64]	; (8002abc <i2cMasterTransmitTimeout+0xac>)
 8002a7a:	681a      	ldr	r2, [r3, #0]
 8002a7c:	429a      	cmp	r2, r3
 8002a7e:	d004      	beq.n	8002a8a <i2cMasterTransmitTimeout+0x7a>
 8002a80:	6999      	ldr	r1, [r3, #24]
 8002a82:	6893      	ldr	r3, [r2, #8]
 8002a84:	688a      	ldr	r2, [r1, #8]
 8002a86:	429a      	cmp	r2, r3
 8002a88:	d312      	bcc.n	8002ab0 <i2cMasterTransmitTimeout+0xa0>
 8002a8a:	2300      	movs	r3, #0
 8002a8c:	f383 8811 	msr	BASEPRI, r3
 8002a90:	4628      	mov	r0, r5
 8002a92:	b005      	add	sp, #20
 8002a94:	e8bd 86f0 	ldmia.w	sp!, {r4, r5, r6, r7, r9, sl, pc}
 8002a98:	2b00      	cmp	r3, #0
 8002a9a:	d0c4      	beq.n	8002a26 <i2cMasterTransmitTimeout+0x16>
 8002a9c:	2a00      	cmp	r2, #0
 8002a9e:	d0c2      	beq.n	8002a26 <i2cMasterTransmitTimeout+0x16>
 8002aa0:	b115      	cbz	r5, 8002aa8 <i2cMasterTransmitTimeout+0x98>
 8002aa2:	9b0c      	ldr	r3, [sp, #48]	; 0x30
 8002aa4:	2b00      	cmp	r3, #0
 8002aa6:	d0be      	beq.n	8002a26 <i2cMasterTransmitTimeout+0x16>
 8002aa8:	9b0e      	ldr	r3, [sp, #56]	; 0x38
 8002aaa:	2b00      	cmp	r3, #0
 8002aac:	d1be      	bne.n	8002a2c <i2cMasterTransmitTimeout+0x1c>
 8002aae:	e7ba      	b.n	8002a26 <i2cMasterTransmitTimeout+0x16>
 8002ab0:	4803      	ldr	r0, [pc, #12]	; (8002ac0 <i2cMasterTransmitTimeout+0xb0>)
 8002ab2:	f7fe fb05 	bl	80010c0 <chSysHalt>
 8002ab6:	e7e8      	b.n	8002a8a <i2cMasterTransmitTimeout+0x7a>
 8002ab8:	08006250 	.word	0x08006250
 8002abc:	20000830 	.word	0x20000830
 8002ac0:	08006210 	.word	0x08006210
	...

08002ad0 <i2cAcquireBus>:
 8002ad0:	b510      	push	{r4, lr}
 8002ad2:	4604      	mov	r4, r0
 8002ad4:	b128      	cbz	r0, 8002ae2 <i2cAcquireBus+0x12>
 8002ad6:	f104 000c 	add.w	r0, r4, #12
 8002ada:	e8bd 4010 	ldmia.w	sp!, {r4, lr}
 8002ade:	f7ff b997 	b.w	8001e10 <chMtxLock>
 8002ae2:	4804      	ldr	r0, [pc, #16]	; (8002af4 <i2cAcquireBus+0x24>)
 8002ae4:	f7fe faec 	bl	80010c0 <chSysHalt>
 8002ae8:	f104 000c 	add.w	r0, r4, #12
 8002aec:	e8bd 4010 	ldmia.w	sp!, {r4, lr}
 8002af0:	f7ff b98e 	b.w	8001e10 <chMtxLock>
 8002af4:	08006270 	.word	0x08006270
	...

08002b00 <i2cReleaseBus>:
 8002b00:	b510      	push	{r4, lr}
 8002b02:	4604      	mov	r4, r0
 8002b04:	b128      	cbz	r0, 8002b12 <i2cReleaseBus+0x12>
 8002b06:	f104 000c 	add.w	r0, r4, #12
 8002b0a:	e8bd 4010 	ldmia.w	sp!, {r4, lr}
 8002b0e:	f7ff b9a7 	b.w	8001e60 <chMtxUnlock>
 8002b12:	4804      	ldr	r0, [pc, #16]	; (8002b24 <i2cReleaseBus+0x24>)
 8002b14:	f7fe fad4 	bl	80010c0 <chSysHalt>
 8002b18:	f104 000c 	add.w	r0, r4, #12
 8002b1c:	e8bd 4010 	ldmia.w	sp!, {r4, lr}
 8002b20:	f7ff b99e 	b.w	8001e60 <chMtxUnlock>
 8002b24:	08006280 	.word	0x08006280
	...

08002b30 <readt>:
 8002b30:	300c      	adds	r0, #12
 8002b32:	f7ff bbf5 	b.w	8002320 <chIQReadTimeout>
 8002b36:	bf00      	nop
	...

08002b40 <read>:
 8002b40:	300c      	adds	r0, #12
 8002b42:	f04f 33ff 	mov.w	r3, #4294967295	; 0xffffffff
 8002b46:	f7ff bbeb 	b.w	8002320 <chIQReadTimeout>
 8002b4a:	bf00      	nop
 8002b4c:	0000      	movs	r0, r0
	...

08002b50 <writet>:
 8002b50:	3030      	adds	r0, #48	; 0x30
 8002b52:	f7ff bcdd 	b.w	8002510 <chOQWriteTimeout>
 8002b56:	bf00      	nop
	...

08002b60 <write>:
 8002b60:	3030      	adds	r0, #48	; 0x30
 8002b62:	f04f 33ff 	mov.w	r3, #4294967295	; 0xffffffff
 8002b66:	f7ff bcd3 	b.w	8002510 <chOQWriteTimeout>
 8002b6a:	bf00      	nop
 8002b6c:	0000      	movs	r0, r0
	...

08002b70 <gett>:
 8002b70:	300c      	adds	r0, #12
 8002b72:	f7ff bb8d 	b.w	8002290 <chIQGetTimeout>
 8002b76:	bf00      	nop
	...

08002b80 <get>:
 8002b80:	300c      	adds	r0, #12
 8002b82:	f04f 31ff 	mov.w	r1, #4294967295	; 0xffffffff
 8002b86:	f7ff bb83 	b.w	8002290 <chIQGetTimeout>
 8002b8a:	bf00      	nop
 8002b8c:	0000      	movs	r0, r0
	...

08002b90 <putt>:
 8002b90:	3030      	adds	r0, #48	; 0x30
 8002b92:	f7ff bc45 	b.w	8002420 <chOQPutTimeout>
 8002b96:	bf00      	nop
	...

08002ba0 <put>:
 8002ba0:	3030      	adds	r0, #48	; 0x30
 8002ba2:	f04f 32ff 	mov.w	r2, #4294967295	; 0xffffffff
 8002ba6:	f7ff bc3b 	b.w	8002420 <chOQPutTimeout>
 8002baa:	bf00      	nop
 8002bac:	0000      	movs	r0, r0
	...

08002bb0 <sdInit>:
 8002bb0:	f002 b846 	b.w	8004c40 <sd_lld_init>
	...

08002bc0 <sdObjectInit>:
 8002bc0:	b570      	push	{r4, r5, r6, lr}
 8002bc2:	4b0e      	ldr	r3, [pc, #56]	; (8002bfc <sdObjectInit+0x3c>)
 8002bc4:	4604      	mov	r4, r0
 8002bc6:	b082      	sub	sp, #8
 8002bc8:	f840 3b04 	str.w	r3, [r0], #4
 8002bcc:	2601      	movs	r6, #1
 8002bce:	9400      	str	r4, [sp, #0]
 8002bd0:	4615      	mov	r5, r2
 8002bd2:	460b      	mov	r3, r1
 8002bd4:	6060      	str	r0, [r4, #4]
 8002bd6:	f104 0154 	add.w	r1, r4, #84	; 0x54
 8002bda:	f104 000c 	add.w	r0, r4, #12
 8002bde:	7226      	strb	r6, [r4, #8]
 8002be0:	2210      	movs	r2, #16
 8002be2:	f7ff fb1d 	bl	8002220 <chIQObjectInit>
 8002be6:	9400      	str	r4, [sp, #0]
 8002be8:	462b      	mov	r3, r5
 8002bea:	f104 0164 	add.w	r1, r4, #100	; 0x64
 8002bee:	f104 0030 	add.w	r0, r4, #48	; 0x30
 8002bf2:	2210      	movs	r2, #16
 8002bf4:	f7ff fc04 	bl	8002400 <chOQObjectInit>
 8002bf8:	b002      	add	sp, #8
 8002bfa:	bd70      	pop	{r4, r5, r6, pc}
 8002bfc:	080062c0 	.word	0x080062c0

08002c00 <sdStart>:
 8002c00:	b538      	push	{r3, r4, r5, lr}
 8002c02:	460d      	mov	r5, r1
 8002c04:	4604      	mov	r4, r0
 8002c06:	b358      	cbz	r0, 8002c60 <sdStart+0x60>
 8002c08:	2320      	movs	r3, #32
 8002c0a:	f383 8811 	msr	BASEPRI, r3
 8002c0e:	f7ff f81f 	bl	8001c50 <_stats_start_measure_crit_thd>
 8002c12:	f7fe fac5 	bl	80011a0 <_dbg_check_lock>
 8002c16:	7a23      	ldrb	r3, [r4, #8]
 8002c18:	3b01      	subs	r3, #1
 8002c1a:	2b01      	cmp	r3, #1
 8002c1c:	d902      	bls.n	8002c24 <sdStart+0x24>
 8002c1e:	4812      	ldr	r0, [pc, #72]	; (8002c68 <sdStart+0x68>)
 8002c20:	f7fe fa4e 	bl	80010c0 <chSysHalt>
 8002c24:	4629      	mov	r1, r5
 8002c26:	4620      	mov	r0, r4
 8002c28:	f002 f81a 	bl	8004c60 <sd_lld_start>
 8002c2c:	2302      	movs	r3, #2
 8002c2e:	7223      	strb	r3, [r4, #8]
 8002c30:	f7fe fac6 	bl	80011c0 <_dbg_check_unlock>
 8002c34:	f7ff f814 	bl	8001c60 <_stats_stop_measure_crit_thd>
 8002c38:	4b0c      	ldr	r3, [pc, #48]	; (8002c6c <sdStart+0x6c>)
 8002c3a:	681a      	ldr	r2, [r3, #0]
 8002c3c:	429a      	cmp	r2, r3
 8002c3e:	d004      	beq.n	8002c4a <sdStart+0x4a>
 8002c40:	6999      	ldr	r1, [r3, #24]
 8002c42:	6893      	ldr	r3, [r2, #8]
 8002c44:	688a      	ldr	r2, [r1, #8]
 8002c46:	429a      	cmp	r2, r3
 8002c48:	d303      	bcc.n	8002c52 <sdStart+0x52>
 8002c4a:	2300      	movs	r3, #0
 8002c4c:	f383 8811 	msr	BASEPRI, r3
 8002c50:	bd38      	pop	{r3, r4, r5, pc}
 8002c52:	4807      	ldr	r0, [pc, #28]	; (8002c70 <sdStart+0x70>)
 8002c54:	f7fe fa34 	bl	80010c0 <chSysHalt>
 8002c58:	2300      	movs	r3, #0
 8002c5a:	f383 8811 	msr	BASEPRI, r3
 8002c5e:	bd38      	pop	{r3, r4, r5, pc}
 8002c60:	4801      	ldr	r0, [pc, #4]	; (8002c68 <sdStart+0x68>)
 8002c62:	f7fe fa2d 	bl	80010c0 <chSysHalt>
 8002c66:	e7cf      	b.n	8002c08 <sdStart+0x8>
 8002c68:	080062a0 	.word	0x080062a0
 8002c6c:	20000830 	.word	0x20000830
 8002c70:	08006290 	.word	0x08006290
	...

08002c80 <sdIncomingDataI>:
 8002c80:	b538      	push	{r3, r4, r5, lr}
 8002c82:	4604      	mov	r4, r0
 8002c84:	460d      	mov	r5, r1
 8002c86:	f7fe fb13 	bl	80012b0 <chDbgCheckClassI>
 8002c8a:	b1e4      	cbz	r4, 8002cc6 <sdIncomingDataI+0x46>
 8002c8c:	f7fe fb10 	bl	80012b0 <chDbgCheckClassI>
 8002c90:	6963      	ldr	r3, [r4, #20]
 8002c92:	b13b      	cbz	r3, 8002ca4 <sdIncomingDataI+0x24>
 8002c94:	4629      	mov	r1, r5
 8002c96:	f104 000c 	add.w	r0, r4, #12
 8002c9a:	f7ff fad1 	bl	8002240 <chIQPutI>
 8002c9e:	2800      	cmp	r0, #0
 8002ca0:	db0b      	blt.n	8002cba <sdIncomingDataI+0x3a>
 8002ca2:	bd38      	pop	{r3, r4, r5, pc}
 8002ca4:	2104      	movs	r1, #4
 8002ca6:	1860      	adds	r0, r4, r1
 8002ca8:	f7ff fa9a 	bl	80021e0 <chEvtBroadcastFlagsI>
 8002cac:	4629      	mov	r1, r5
 8002cae:	f104 000c 	add.w	r0, r4, #12
 8002cb2:	f7ff fac5 	bl	8002240 <chIQPutI>
 8002cb6:	2800      	cmp	r0, #0
 8002cb8:	daf3      	bge.n	8002ca2 <sdIncomingDataI+0x22>
 8002cba:	1d20      	adds	r0, r4, #4
 8002cbc:	2180      	movs	r1, #128	; 0x80
 8002cbe:	e8bd 4038 	ldmia.w	sp!, {r3, r4, r5, lr}
 8002cc2:	f7ff ba8d 	b.w	80021e0 <chEvtBroadcastFlagsI>
 8002cc6:	4802      	ldr	r0, [pc, #8]	; (8002cd0 <sdIncomingDataI+0x50>)
 8002cc8:	f7fe f9fa 	bl	80010c0 <chSysHalt>
 8002ccc:	e7de      	b.n	8002c8c <sdIncomingDataI+0xc>
 8002cce:	bf00      	nop
 8002cd0:	080062b0 	.word	0x080062b0
	...

08002ce0 <sduInit>:
 8002ce0:	4770      	bx	lr
 8002ce2:	bf00      	nop
	...

08002cf0 <stInit>:
 8002cf0:	f001 bec6 	b.w	8004a80 <st_lld_init>
	...

08002d00 <usbInit>:
 8002d00:	f001 bb36 	b.w	8004370 <usb_lld_init>
	...

08002d10 <usbObjectInit>:
 8002d10:	2300      	movs	r3, #0
 8002d12:	2201      	movs	r2, #1
 8002d14:	7002      	strb	r2, [r0, #0]
 8002d16:	61c3      	str	r3, [r0, #28]
 8002d18:	6283      	str	r3, [r0, #40]	; 0x28
 8002d1a:	6203      	str	r3, [r0, #32]
 8002d1c:	62c3      	str	r3, [r0, #44]	; 0x2c
 8002d1e:	6243      	str	r3, [r0, #36]	; 0x24
 8002d20:	6303      	str	r3, [r0, #48]	; 0x30
 8002d22:	e9c0 3301 	strd	r3, r3, [r0, #4]
 8002d26:	4770      	bx	lr
	...

08002d30 <usbStartReceiveI>:
 8002d30:	b570      	push	{r4, r5, r6, lr}
 8002d32:	4604      	mov	r4, r0
 8002d34:	460d      	mov	r5, r1
 8002d36:	f7fe fabb 	bl	80012b0 <chDbgCheckClassI>
 8002d3a:	b184      	cbz	r4, 8002d5e <usbStartReceiveI+0x2e>
 8002d3c:	2001      	movs	r0, #1
 8002d3e:	fa00 f305 	lsl.w	r3, r0, r5
 8002d42:	8962      	ldrh	r2, [r4, #10]
 8002d44:	b29b      	uxth	r3, r3
 8002d46:	ea12 0603 	ands.w	r6, r2, r3
 8002d4a:	d000      	beq.n	8002d4e <usbStartReceiveI+0x1e>
 8002d4c:	bd70      	pop	{r4, r5, r6, pc}
 8002d4e:	4313      	orrs	r3, r2
 8002d50:	4620      	mov	r0, r4
 8002d52:	8163      	strh	r3, [r4, #10]
 8002d54:	4629      	mov	r1, r5
 8002d56:	f001 fd83 	bl	8004860 <usb_lld_start_out>
 8002d5a:	4630      	mov	r0, r6
 8002d5c:	bd70      	pop	{r4, r5, r6, pc}
 8002d5e:	4802      	ldr	r0, [pc, #8]	; (8002d68 <usbStartReceiveI+0x38>)
 8002d60:	f7fe f9ae 	bl	80010c0 <chSysHalt>
 8002d64:	e7ea      	b.n	8002d3c <usbStartReceiveI+0xc>
 8002d66:	bf00      	nop
 8002d68:	080062e0 	.word	0x080062e0
 8002d6c:	00000000 	.word	0x00000000

08002d70 <usbStartTransmitI>:
 8002d70:	b570      	push	{r4, r5, r6, lr}
 8002d72:	4604      	mov	r4, r0
 8002d74:	460d      	mov	r5, r1
 8002d76:	f7fe fa9b 	bl	80012b0 <chDbgCheckClassI>
 8002d7a:	b184      	cbz	r4, 8002d9e <usbStartTransmitI+0x2e>
 8002d7c:	2001      	movs	r0, #1
 8002d7e:	fa00 f305 	lsl.w	r3, r0, r5
 8002d82:	8922      	ldrh	r2, [r4, #8]
 8002d84:	b29b      	uxth	r3, r3
 8002d86:	ea12 0603 	ands.w	r6, r2, r3
 8002d8a:	d000      	beq.n	8002d8e <usbStartTransmitI+0x1e>
 8002d8c:	bd70      	pop	{r4, r5, r6, pc}
 8002d8e:	4313      	orrs	r3, r2
 8002d90:	4620      	mov	r0, r4
 8002d92:	8123      	strh	r3, [r4, #8]
 8002d94:	4629      	mov	r1, r5
 8002d96:	f001 fd73 	bl	8004880 <usb_lld_start_in>
 8002d9a:	4630      	mov	r0, r6
 8002d9c:	bd70      	pop	{r4, r5, r6, pc}
 8002d9e:	4802      	ldr	r0, [pc, #8]	; (8002da8 <usbStartTransmitI+0x38>)
 8002da0:	f7fe f98e 	bl	80010c0 <chSysHalt>
 8002da4:	e7ea      	b.n	8002d7c <usbStartTransmitI+0xc>
 8002da6:	bf00      	nop
 8002da8:	08006300 	.word	0x08006300
 8002dac:	00000000 	.word	0x00000000

08002db0 <_usb_reset>:
 8002db0:	2200      	movs	r2, #0
 8002db2:	2102      	movs	r1, #2
 8002db4:	7001      	strb	r1, [r0, #0]
 8002db6:	64c2      	str	r2, [r0, #76]	; 0x4c
 8002db8:	e9c0 2202 	strd	r2, r2, [r0, #8]
 8002dbc:	e9c0 2204 	strd	r2, r2, [r0, #16]
 8002dc0:	6182      	str	r2, [r0, #24]
 8002dc2:	f880 2034 	strb.w	r2, [r0, #52]	; 0x34
 8002dc6:	f001 bafb 	b.w	80043c0 <usb_lld_reset>
 8002dca:	bf00      	nop
 8002dcc:	0000      	movs	r0, r0
	...

08002dd0 <_usb_ep0setup>:
 8002dd0:	b570      	push	{r4, r5, r6, lr}
 8002dd2:	2300      	movs	r3, #0
 8002dd4:	4604      	mov	r4, r0
 8002dd6:	f880 3034 	strb.w	r3, [r0, #52]	; 0x34
 8002dda:	f100 0244 	add.w	r2, r0, #68	; 0x44
 8002dde:	f001 fb87 	bl	80044f0 <usb_lld_read_setup>
 8002de2:	6863      	ldr	r3, [r4, #4]
 8002de4:	689b      	ldr	r3, [r3, #8]
 8002de6:	2b00      	cmp	r3, #0
 8002de8:	d035      	beq.n	8002e56 <_usb_ep0setup+0x86>
 8002dea:	4620      	mov	r0, r4
 8002dec:	4798      	blx	r3
 8002dee:	b390      	cbz	r0, 8002e56 <_usb_ep0setup+0x86>
 8002df0:	6be1      	ldr	r1, [r4, #60]	; 0x3c
 8002df2:	f894 3044 	ldrb.w	r3, [r4, #68]	; 0x44
 8002df6:	f894 004b 	ldrb.w	r0, [r4, #75]	; 0x4b
 8002dfa:	f894 204a 	ldrb.w	r2, [r4, #74]	; 0x4a
 8002dfe:	ea42 2200 	orr.w	r2, r2, r0, lsl #8
 8002e02:	428a      	cmp	r2, r1
 8002e04:	bf2c      	ite	cs
 8002e06:	460a      	movcs	r2, r1
 8002e08:	63e2      	strcc	r2, [r4, #60]	; 0x3c
 8002e0a:	0618      	lsls	r0, r3, #24
 8002e0c:	68e1      	ldr	r1, [r4, #12]
 8002e0e:	f100 809f 	bmi.w	8002f50 <_usb_ep0setup+0x180>
 8002e12:	2a00      	cmp	r2, #0
 8002e14:	d07d      	beq.n	8002f12 <_usb_ep0setup+0x142>
 8002e16:	698b      	ldr	r3, [r1, #24]
 8002e18:	6ba1      	ldr	r1, [r4, #56]	; 0x38
 8002e1a:	2500      	movs	r5, #0
 8002e1c:	2004      	movs	r0, #4
 8002e1e:	f884 0034 	strb.w	r0, [r4, #52]	; 0x34
 8002e22:	60d9      	str	r1, [r3, #12]
 8002e24:	605a      	str	r2, [r3, #4]
 8002e26:	701d      	strb	r5, [r3, #0]
 8002e28:	609d      	str	r5, [r3, #8]
 8002e2a:	4629      	mov	r1, r5
 8002e2c:	4620      	mov	r0, r4
 8002e2e:	f001 fb6f 	bl	8004510 <usb_lld_prepare_receive>
 8002e32:	2320      	movs	r3, #32
 8002e34:	f383 8811 	msr	BASEPRI, r3
 8002e38:	f7fe ff1a 	bl	8001c70 <_stats_start_measure_crit_isr>
 8002e3c:	f7fe f9d8 	bl	80011f0 <_dbg_check_lock_from_isr>
 8002e40:	4629      	mov	r1, r5
 8002e42:	4620      	mov	r0, r4
 8002e44:	f7ff ff74 	bl	8002d30 <usbStartReceiveI>
 8002e48:	f7fe f9ea 	bl	8001220 <_dbg_check_unlock_from_isr>
 8002e4c:	f7fe ff18 	bl	8001c80 <_stats_stop_measure_crit_isr>
 8002e50:	f385 8811 	msr	BASEPRI, r5
 8002e54:	bd70      	pop	{r4, r5, r6, pc}
 8002e56:	f894 3044 	ldrb.w	r3, [r4, #68]	; 0x44
 8002e5a:	f013 0560 	ands.w	r5, r3, #96	; 0x60
 8002e5e:	4618      	mov	r0, r3
 8002e60:	d011      	beq.n	8002e86 <_usb_ep0setup+0xb6>
 8002e62:	2100      	movs	r1, #0
 8002e64:	4620      	mov	r0, r4
 8002e66:	f001 fd33 	bl	80048d0 <usb_lld_stall_in>
 8002e6a:	2100      	movs	r1, #0
 8002e6c:	4620      	mov	r0, r4
 8002e6e:	f001 fd1f 	bl	80048b0 <usb_lld_stall_out>
 8002e72:	6863      	ldr	r3, [r4, #4]
 8002e74:	681b      	ldr	r3, [r3, #0]
 8002e76:	b113      	cbz	r3, 8002e7e <_usb_ep0setup+0xae>
 8002e78:	2105      	movs	r1, #5
 8002e7a:	4620      	mov	r0, r4
 8002e7c:	4798      	blx	r3
 8002e7e:	2306      	movs	r3, #6
 8002e80:	f884 3034 	strb.w	r3, [r4, #52]	; 0x34
 8002e84:	bd70      	pop	{r4, r5, r6, pc}
 8002e86:	f894 1045 	ldrb.w	r1, [r4, #69]	; 0x45
 8002e8a:	f003 027f 	and.w	r2, r3, #127	; 0x7f
 8002e8e:	ea42 2201 	orr.w	r2, r2, r1, lsl #8
 8002e92:	f5b2 7f40 	cmp.w	r2, #768	; 0x300
 8002e96:	f000 8109 	beq.w	80030ac <_usb_ep0setup+0x2dc>
 8002e9a:	d917      	bls.n	8002ecc <_usb_ep0setup+0xfc>
 8002e9c:	f5b2 6fc0 	cmp.w	r2, #1536	; 0x600
 8002ea0:	f000 80eb 	beq.w	800307a <_usb_ep0setup+0x2aa>
 8002ea4:	f240 808e 	bls.w	8002fc4 <_usb_ep0setup+0x1f4>
 8002ea8:	f5b2 6f10 	cmp.w	r2, #2304	; 0x900
 8002eac:	d068      	beq.n	8002f80 <_usb_ep0setup+0x1b0>
 8002eae:	f640 4102 	movw	r1, #3074	; 0xc02
 8002eb2:	428a      	cmp	r2, r1
 8002eb4:	f000 80c7 	beq.w	8003046 <_usb_ep0setup+0x276>
 8002eb8:	f5b2 6f00 	cmp.w	r2, #2048	; 0x800
 8002ebc:	d1d1      	bne.n	8002e62 <_usb_ep0setup+0x92>
 8002ebe:	f104 024f 	add.w	r2, r4, #79	; 0x4f
 8002ec2:	2101      	movs	r1, #1
 8002ec4:	6425      	str	r5, [r4, #64]	; 0x40
 8002ec6:	e9c4 210e 	strd	r2, r1, [r4, #56]	; 0x38
 8002eca:	e794      	b.n	8002df6 <_usb_ep0setup+0x26>
 8002ecc:	2a02      	cmp	r2, #2
 8002ece:	f000 80a0 	beq.w	8003012 <_usb_ep0setup+0x242>
 8002ed2:	f240 8096 	bls.w	8003002 <_usb_ep0setup+0x232>
 8002ed6:	f5b2 7f80 	cmp.w	r2, #256	; 0x100
 8002eda:	d064      	beq.n	8002fa6 <_usb_ep0setup+0x1d6>
 8002edc:	f5b2 7f81 	cmp.w	r2, #258	; 0x102
 8002ee0:	d1bf      	bne.n	8002e62 <_usb_ep0setup+0x92>
 8002ee2:	f894 3046 	ldrb.w	r3, [r4, #70]	; 0x46
 8002ee6:	2b00      	cmp	r3, #0
 8002ee8:	d1bb      	bne.n	8002e62 <_usb_ep0setup+0x92>
 8002eea:	f894 3048 	ldrb.w	r3, [r4, #72]	; 0x48
 8002eee:	f013 010f 	ands.w	r1, r3, #15
 8002ef2:	d007      	beq.n	8002f04 <_usb_ep0setup+0x134>
 8002ef4:	061e      	lsls	r6, r3, #24
 8002ef6:	4620      	mov	r0, r4
 8002ef8:	f100 80f0 	bmi.w	80030dc <_usb_ep0setup+0x30c>
 8002efc:	f001 fcf8 	bl	80048f0 <usb_lld_clear_out>
 8002f00:	f894 0044 	ldrb.w	r0, [r4, #68]	; 0x44
 8002f04:	2300      	movs	r3, #0
 8002f06:	e9c4 330e 	strd	r3, r3, [r4, #56]	; 0x38
 8002f0a:	6423      	str	r3, [r4, #64]	; 0x40
 8002f0c:	0603      	lsls	r3, r0, #24
 8002f0e:	68e1      	ldr	r1, [r4, #12]
 8002f10:	d42b      	bmi.n	8002f6a <_usb_ep0setup+0x19a>
 8002f12:	694b      	ldr	r3, [r1, #20]
 8002f14:	2500      	movs	r5, #0
 8002f16:	2205      	movs	r2, #5
 8002f18:	f884 2034 	strb.w	r2, [r4, #52]	; 0x34
 8002f1c:	e9c3 5501 	strd	r5, r5, [r3, #4]
 8002f20:	4629      	mov	r1, r5
 8002f22:	701d      	strb	r5, [r3, #0]
 8002f24:	60dd      	str	r5, [r3, #12]
 8002f26:	4620      	mov	r0, r4
 8002f28:	f001 fb6a 	bl	8004600 <usb_lld_prepare_transmit>
 8002f2c:	2320      	movs	r3, #32
 8002f2e:	f383 8811 	msr	BASEPRI, r3
 8002f32:	f7fe fe9d 	bl	8001c70 <_stats_start_measure_crit_isr>
 8002f36:	f7fe f95b 	bl	80011f0 <_dbg_check_lock_from_isr>
 8002f3a:	4629      	mov	r1, r5
 8002f3c:	4620      	mov	r0, r4
 8002f3e:	f7ff ff17 	bl	8002d70 <usbStartTransmitI>
 8002f42:	f7fe f96d 	bl	8001220 <_dbg_check_unlock_from_isr>
 8002f46:	f7fe fe9b 	bl	8001c80 <_stats_stop_measure_crit_isr>
 8002f4a:	f385 8811 	msr	BASEPRI, r5
 8002f4e:	bd70      	pop	{r4, r5, r6, pc}
 8002f50:	b15a      	cbz	r2, 8002f6a <_usb_ep0setup+0x19a>
 8002f52:	694b      	ldr	r3, [r1, #20]
 8002f54:	6ba1      	ldr	r1, [r4, #56]	; 0x38
 8002f56:	2500      	movs	r5, #0
 8002f58:	2001      	movs	r0, #1
 8002f5a:	f884 0034 	strb.w	r0, [r4, #52]	; 0x34
 8002f5e:	60d9      	str	r1, [r3, #12]
 8002f60:	605a      	str	r2, [r3, #4]
 8002f62:	701d      	strb	r5, [r3, #0]
 8002f64:	609d      	str	r5, [r3, #8]
 8002f66:	4629      	mov	r1, r5
 8002f68:	e7dd      	b.n	8002f26 <_usb_ep0setup+0x156>
 8002f6a:	698b      	ldr	r3, [r1, #24]
 8002f6c:	2500      	movs	r5, #0
 8002f6e:	2203      	movs	r2, #3
 8002f70:	f884 2034 	strb.w	r2, [r4, #52]	; 0x34
 8002f74:	4629      	mov	r1, r5
 8002f76:	701d      	strb	r5, [r3, #0]
 8002f78:	60dd      	str	r5, [r3, #12]
 8002f7a:	e9c3 5501 	strd	r5, r5, [r3, #4]
 8002f7e:	e755      	b.n	8002e2c <_usb_ep0setup+0x5c>
 8002f80:	f894 3046 	ldrb.w	r3, [r4, #70]	; 0x46
 8002f84:	f884 304f 	strb.w	r3, [r4, #79]	; 0x4f
 8002f88:	2b00      	cmp	r3, #0
 8002f8a:	f040 809e 	bne.w	80030ca <_usb_ep0setup+0x2fa>
 8002f8e:	2303      	movs	r3, #3
 8002f90:	7023      	strb	r3, [r4, #0]
 8002f92:	6863      	ldr	r3, [r4, #4]
 8002f94:	681b      	ldr	r3, [r3, #0]
 8002f96:	2b00      	cmp	r3, #0
 8002f98:	d0b4      	beq.n	8002f04 <_usb_ep0setup+0x134>
 8002f9a:	4620      	mov	r0, r4
 8002f9c:	2102      	movs	r1, #2
 8002f9e:	4798      	blx	r3
 8002fa0:	f894 0044 	ldrb.w	r0, [r4, #68]	; 0x44
 8002fa4:	e7ae      	b.n	8002f04 <_usb_ep0setup+0x134>
 8002fa6:	f894 3046 	ldrb.w	r3, [r4, #70]	; 0x46
 8002faa:	2b01      	cmp	r3, #1
 8002fac:	f47f af59 	bne.w	8002e62 <_usb_ep0setup+0x92>
 8002fb0:	f8b4 304c 	ldrh.w	r3, [r4, #76]	; 0x4c
 8002fb4:	63a5      	str	r5, [r4, #56]	; 0x38
 8002fb6:	f023 0302 	bic.w	r3, r3, #2
 8002fba:	e9c4 550f 	strd	r5, r5, [r4, #60]	; 0x3c
 8002fbe:	f8a4 304c 	strh.w	r3, [r4, #76]	; 0x4c
 8002fc2:	e7a3      	b.n	8002f0c <_usb_ep0setup+0x13c>
 8002fc4:	f240 3302 	movw	r3, #770	; 0x302
 8002fc8:	429a      	cmp	r2, r3
 8002fca:	d043      	beq.n	8003054 <_usb_ep0setup+0x284>
 8002fcc:	f5b2 6fa0 	cmp.w	r2, #1280	; 0x500
 8002fd0:	f47f af47 	bne.w	8002e62 <_usb_ep0setup+0x92>
 8002fd4:	f8b4 3044 	ldrh.w	r3, [r4, #68]	; 0x44
 8002fd8:	f5b3 6fa0 	cmp.w	r3, #1280	; 0x500
 8002fdc:	d192      	bne.n	8002f04 <_usb_ep0setup+0x134>
 8002fde:	f894 3046 	ldrb.w	r3, [r4, #70]	; 0x46
 8002fe2:	f884 304e 	strb.w	r3, [r4, #78]	; 0x4e
 8002fe6:	4620      	mov	r0, r4
 8002fe8:	f001 fa52 	bl	8004490 <usb_lld_set_address>
 8002fec:	6863      	ldr	r3, [r4, #4]
 8002fee:	681b      	ldr	r3, [r3, #0]
 8002ff0:	b113      	cbz	r3, 8002ff8 <_usb_ep0setup+0x228>
 8002ff2:	2101      	movs	r1, #1
 8002ff4:	4620      	mov	r0, r4
 8002ff6:	4798      	blx	r3
 8002ff8:	2303      	movs	r3, #3
 8002ffa:	f894 0044 	ldrb.w	r0, [r4, #68]	; 0x44
 8002ffe:	7023      	strb	r3, [r4, #0]
 8003000:	e780      	b.n	8002f04 <_usb_ep0setup+0x134>
 8003002:	b9ea      	cbnz	r2, 8003040 <_usb_ep0setup+0x270>
 8003004:	f104 004c 	add.w	r0, r4, #76	; 0x4c
 8003008:	2102      	movs	r1, #2
 800300a:	6422      	str	r2, [r4, #64]	; 0x40
 800300c:	e9c4 010e 	strd	r0, r1, [r4, #56]	; 0x38
 8003010:	e6f1      	b.n	8002df6 <_usb_ep0setup+0x26>
 8003012:	f894 3048 	ldrb.w	r3, [r4, #72]	; 0x48
 8003016:	f003 010f 	and.w	r1, r3, #15
 800301a:	061b      	lsls	r3, r3, #24
 800301c:	4620      	mov	r0, r4
 800301e:	d457      	bmi.n	80030d0 <_usb_ep0setup+0x300>
 8003020:	f001 fa46 	bl	80044b0 <usb_lld_get_status_out>
 8003024:	2801      	cmp	r0, #1
 8003026:	d057      	beq.n	80030d8 <_usb_ep0setup+0x308>
 8003028:	2802      	cmp	r0, #2
 800302a:	f47f af1a 	bne.w	8002e62 <_usb_ep0setup+0x92>
 800302e:	4b30      	ldr	r3, [pc, #192]	; (80030f0 <_usb_ep0setup+0x320>)
 8003030:	63a3      	str	r3, [r4, #56]	; 0x38
 8003032:	2102      	movs	r1, #2
 8003034:	2300      	movs	r3, #0
 8003036:	e9c4 130f 	strd	r1, r3, [r4, #60]	; 0x3c
 800303a:	f894 3044 	ldrb.w	r3, [r4, #68]	; 0x44
 800303e:	e6da      	b.n	8002df6 <_usb_ep0setup+0x26>
 8003040:	2a01      	cmp	r2, #1
 8003042:	f47f af0e 	bne.w	8002e62 <_usb_ep0setup+0x92>
 8003046:	4a2b      	ldr	r2, [pc, #172]	; (80030f4 <_usb_ep0setup+0x324>)
 8003048:	63a2      	str	r2, [r4, #56]	; 0x38
 800304a:	2102      	movs	r1, #2
 800304c:	2200      	movs	r2, #0
 800304e:	e9c4 120f 	strd	r1, r2, [r4, #60]	; 0x3c
 8003052:	e6d0      	b.n	8002df6 <_usb_ep0setup+0x26>
 8003054:	f894 3046 	ldrb.w	r3, [r4, #70]	; 0x46
 8003058:	2b00      	cmp	r3, #0
 800305a:	f47f af02 	bne.w	8002e62 <_usb_ep0setup+0x92>
 800305e:	f894 3048 	ldrb.w	r3, [r4, #72]	; 0x48
 8003062:	f013 010f 	ands.w	r1, r3, #15
 8003066:	f43f af4d 	beq.w	8002f04 <_usb_ep0setup+0x134>
 800306a:	061d      	lsls	r5, r3, #24
 800306c:	4620      	mov	r0, r4
 800306e:	d43a      	bmi.n	80030e6 <_usb_ep0setup+0x316>
 8003070:	f001 fc1e 	bl	80048b0 <usb_lld_stall_out>
 8003074:	f894 0044 	ldrb.w	r0, [r4, #68]	; 0x44
 8003078:	e744      	b.n	8002f04 <_usb_ep0setup+0x134>
 800307a:	f894 0049 	ldrb.w	r0, [r4, #73]	; 0x49
 800307e:	6861      	ldr	r1, [r4, #4]
 8003080:	f894 3048 	ldrb.w	r3, [r4, #72]	; 0x48
 8003084:	684e      	ldr	r6, [r1, #4]
 8003086:	f894 2046 	ldrb.w	r2, [r4, #70]	; 0x46
 800308a:	f894 1047 	ldrb.w	r1, [r4, #71]	; 0x47
 800308e:	ea43 2300 	orr.w	r3, r3, r0, lsl #8
 8003092:	4620      	mov	r0, r4
 8003094:	47b0      	blx	r6
 8003096:	2800      	cmp	r0, #0
 8003098:	f43f aee3 	beq.w	8002e62 <_usb_ep0setup+0x92>
 800309c:	e9d0 1300 	ldrd	r1, r3, [r0]
 80030a0:	6425      	str	r5, [r4, #64]	; 0x40
 80030a2:	e9c4 310e 	strd	r3, r1, [r4, #56]	; 0x38
 80030a6:	f894 3044 	ldrb.w	r3, [r4, #68]	; 0x44
 80030aa:	e6a4      	b.n	8002df6 <_usb_ep0setup+0x26>
 80030ac:	f894 3046 	ldrb.w	r3, [r4, #70]	; 0x46
 80030b0:	2b01      	cmp	r3, #1
 80030b2:	f47f aed6 	bne.w	8002e62 <_usb_ep0setup+0x92>
 80030b6:	f8b4 304c 	ldrh.w	r3, [r4, #76]	; 0x4c
 80030ba:	63a5      	str	r5, [r4, #56]	; 0x38
 80030bc:	f043 0302 	orr.w	r3, r3, #2
 80030c0:	e9c4 550f 	strd	r5, r5, [r4, #60]	; 0x3c
 80030c4:	f8a4 304c 	strh.w	r3, [r4, #76]	; 0x4c
 80030c8:	e720      	b.n	8002f0c <_usb_ep0setup+0x13c>
 80030ca:	2304      	movs	r3, #4
 80030cc:	7023      	strb	r3, [r4, #0]
 80030ce:	e760      	b.n	8002f92 <_usb_ep0setup+0x1c2>
 80030d0:	f001 f9fe 	bl	80044d0 <usb_lld_get_status_in>
 80030d4:	2801      	cmp	r0, #1
 80030d6:	d1a7      	bne.n	8003028 <_usb_ep0setup+0x258>
 80030d8:	4b07      	ldr	r3, [pc, #28]	; (80030f8 <_usb_ep0setup+0x328>)
 80030da:	e7a9      	b.n	8003030 <_usb_ep0setup+0x260>
 80030dc:	f001 fc18 	bl	8004910 <usb_lld_clear_in>
 80030e0:	f894 0044 	ldrb.w	r0, [r4, #68]	; 0x44
 80030e4:	e70e      	b.n	8002f04 <_usb_ep0setup+0x134>
 80030e6:	f001 fbf3 	bl	80048d0 <usb_lld_stall_in>
 80030ea:	f894 0044 	ldrb.w	r0, [r4, #68]	; 0x44
 80030ee:	e709      	b.n	8002f04 <_usb_ep0setup+0x134>
 80030f0:	08006340 	.word	0x08006340
 80030f4:	08006360 	.word	0x08006360
 80030f8:	08006350 	.word	0x08006350
 80030fc:	00000000 	.word	0x00000000

08003100 <_usb_ep0in>:
 8003100:	b538      	push	{r3, r4, r5, lr}
 8003102:	f890 3034 	ldrb.w	r3, [r0, #52]	; 0x34
 8003106:	4604      	mov	r4, r0
 8003108:	2b06      	cmp	r3, #6
 800310a:	d852      	bhi.n	80031b2 <_usb_ep0in+0xb2>
 800310c:	e8df f003 	tbb	[pc, r3]
 8003110:	044f2004 	.word	0x044f2004
 8003114:	1904      	.short	0x1904
 8003116:	07          	.byte	0x07
 8003117:	00          	.byte	0x00
 8003118:	4837      	ldr	r0, [pc, #220]	; (80031f8 <_usb_ep0in+0xf8>)
 800311a:	f7fd ffd1 	bl	80010c0 <chSysHalt>
 800311e:	2100      	movs	r1, #0
 8003120:	4620      	mov	r0, r4
 8003122:	f001 fbd5 	bl	80048d0 <usb_lld_stall_in>
 8003126:	2100      	movs	r1, #0
 8003128:	4620      	mov	r0, r4
 800312a:	f001 fbc1 	bl	80048b0 <usb_lld_stall_out>
 800312e:	6863      	ldr	r3, [r4, #4]
 8003130:	681b      	ldr	r3, [r3, #0]
 8003132:	b113      	cbz	r3, 800313a <_usb_ep0in+0x3a>
 8003134:	2105      	movs	r1, #5
 8003136:	4620      	mov	r0, r4
 8003138:	4798      	blx	r3
 800313a:	2306      	movs	r3, #6
 800313c:	f884 3034 	strb.w	r3, [r4, #52]	; 0x34
 8003140:	bd38      	pop	{r3, r4, r5, pc}
 8003142:	6c03      	ldr	r3, [r0, #64]	; 0x40
 8003144:	b103      	cbz	r3, 8003148 <_usb_ep0in+0x48>
 8003146:	4798      	blx	r3
 8003148:	2300      	movs	r3, #0
 800314a:	f884 3034 	strb.w	r3, [r4, #52]	; 0x34
 800314e:	bd38      	pop	{r3, r4, r5, pc}
 8003150:	f890 004b 	ldrb.w	r0, [r0, #75]	; 0x4b
 8003154:	f894 204a 	ldrb.w	r2, [r4, #74]	; 0x4a
 8003158:	6be1      	ldr	r1, [r4, #60]	; 0x3c
 800315a:	68e3      	ldr	r3, [r4, #12]
 800315c:	ea42 2200 	orr.w	r2, r2, r0, lsl #8
 8003160:	4291      	cmp	r1, r2
 8003162:	d205      	bcs.n	8003170 <_usb_ep0in+0x70>
 8003164:	8a1a      	ldrh	r2, [r3, #16]
 8003166:	fbb1 f5f2 	udiv	r5, r1, r2
 800316a:	fb02 1515 	mls	r5, r2, r5, r1
 800316e:	b32d      	cbz	r5, 80031bc <_usb_ep0in+0xbc>
 8003170:	699b      	ldr	r3, [r3, #24]
 8003172:	2500      	movs	r5, #0
 8003174:	2203      	movs	r2, #3
 8003176:	f884 2034 	strb.w	r2, [r4, #52]	; 0x34
 800317a:	4629      	mov	r1, r5
 800317c:	701d      	strb	r5, [r3, #0]
 800317e:	60dd      	str	r5, [r3, #12]
 8003180:	e9c3 5501 	strd	r5, r5, [r3, #4]
 8003184:	4620      	mov	r0, r4
 8003186:	f001 f9c3 	bl	8004510 <usb_lld_prepare_receive>
 800318a:	2320      	movs	r3, #32
 800318c:	f383 8811 	msr	BASEPRI, r3
 8003190:	f7fe fd6e 	bl	8001c70 <_stats_start_measure_crit_isr>
 8003194:	f7fe f82c 	bl	80011f0 <_dbg_check_lock_from_isr>
 8003198:	4629      	mov	r1, r5
 800319a:	4620      	mov	r0, r4
 800319c:	f7ff fdc8 	bl	8002d30 <usbStartReceiveI>
 80031a0:	f7fe f83e 	bl	8001220 <_dbg_check_unlock_from_isr>
 80031a4:	f7fe fd6c 	bl	8001c80 <_stats_stop_measure_crit_isr>
 80031a8:	f385 8811 	msr	BASEPRI, r5
 80031ac:	bd38      	pop	{r3, r4, r5, pc}
 80031ae:	68c3      	ldr	r3, [r0, #12]
 80031b0:	e7de      	b.n	8003170 <_usb_ep0in+0x70>
 80031b2:	4811      	ldr	r0, [pc, #68]	; (80031f8 <_usb_ep0in+0xf8>)
 80031b4:	e8bd 4038 	ldmia.w	sp!, {r3, r4, r5, lr}
 80031b8:	f7fd bf82 	b.w	80010c0 <chSysHalt>
 80031bc:	695b      	ldr	r3, [r3, #20]
 80031be:	4629      	mov	r1, r5
 80031c0:	701d      	strb	r5, [r3, #0]
 80031c2:	60dd      	str	r5, [r3, #12]
 80031c4:	e9c3 5501 	strd	r5, r5, [r3, #4]
 80031c8:	4620      	mov	r0, r4
 80031ca:	f001 fa19 	bl	8004600 <usb_lld_prepare_transmit>
 80031ce:	2320      	movs	r3, #32
 80031d0:	f383 8811 	msr	BASEPRI, r3
 80031d4:	f7fe fd4c 	bl	8001c70 <_stats_start_measure_crit_isr>
 80031d8:	f7fe f80a 	bl	80011f0 <_dbg_check_lock_from_isr>
 80031dc:	4629      	mov	r1, r5
 80031de:	4620      	mov	r0, r4
 80031e0:	f7ff fdc6 	bl	8002d70 <usbStartTransmitI>
 80031e4:	f7fe f81c 	bl	8001220 <_dbg_check_unlock_from_isr>
 80031e8:	f7fe fd4a 	bl	8001c80 <_stats_stop_measure_crit_isr>
 80031ec:	f385 8811 	msr	BASEPRI, r5
 80031f0:	2302      	movs	r3, #2
 80031f2:	f884 3034 	strb.w	r3, [r4, #52]	; 0x34
 80031f6:	bd38      	pop	{r3, r4, r5, pc}
 80031f8:	08006320 	.word	0x08006320
 80031fc:	00000000 	.word	0x00000000

08003200 <_usb_ep0out>:
 8003200:	b538      	push	{r3, r4, r5, lr}
 8003202:	f890 3034 	ldrb.w	r3, [r0, #52]	; 0x34
 8003206:	4604      	mov	r4, r0
 8003208:	2b06      	cmp	r3, #6
 800320a:	d845      	bhi.n	8003298 <_usb_ep0out+0x98>
 800320c:	e8df f003 	tbb	[pc, r3]
 8003210:	38040404 	.word	0x38040404
 8003214:	0419      	.short	0x0419
 8003216:	07          	.byte	0x07
 8003217:	00          	.byte	0x00
 8003218:	4822      	ldr	r0, [pc, #136]	; (80032a4 <_usb_ep0out+0xa4>)
 800321a:	f7fd ff51 	bl	80010c0 <chSysHalt>
 800321e:	2100      	movs	r1, #0
 8003220:	4620      	mov	r0, r4
 8003222:	f001 fb55 	bl	80048d0 <usb_lld_stall_in>
 8003226:	2100      	movs	r1, #0
 8003228:	4620      	mov	r0, r4
 800322a:	f001 fb41 	bl	80048b0 <usb_lld_stall_out>
 800322e:	6863      	ldr	r3, [r4, #4]
 8003230:	681b      	ldr	r3, [r3, #0]
 8003232:	b113      	cbz	r3, 800323a <_usb_ep0out+0x3a>
 8003234:	2105      	movs	r1, #5
 8003236:	4620      	mov	r0, r4
 8003238:	4798      	blx	r3
 800323a:	2306      	movs	r3, #6
 800323c:	f884 3034 	strb.w	r3, [r4, #52]	; 0x34
 8003240:	bd38      	pop	{r3, r4, r5, pc}
 8003242:	68c3      	ldr	r3, [r0, #12]
 8003244:	695b      	ldr	r3, [r3, #20]
 8003246:	2500      	movs	r5, #0
 8003248:	2205      	movs	r2, #5
 800324a:	f880 2034 	strb.w	r2, [r0, #52]	; 0x34
 800324e:	4629      	mov	r1, r5
 8003250:	701d      	strb	r5, [r3, #0]
 8003252:	60dd      	str	r5, [r3, #12]
 8003254:	e9c3 5501 	strd	r5, r5, [r3, #4]
 8003258:	f001 f9d2 	bl	8004600 <usb_lld_prepare_transmit>
 800325c:	2320      	movs	r3, #32
 800325e:	f383 8811 	msr	BASEPRI, r3
 8003262:	f7fe fd05 	bl	8001c70 <_stats_start_measure_crit_isr>
 8003266:	f7fd ffc3 	bl	80011f0 <_dbg_check_lock_from_isr>
 800326a:	4629      	mov	r1, r5
 800326c:	4620      	mov	r0, r4
 800326e:	f7ff fd7f 	bl	8002d70 <usbStartTransmitI>
 8003272:	f7fd ffd5 	bl	8001220 <_dbg_check_unlock_from_isr>
 8003276:	f7fe fd03 	bl	8001c80 <_stats_stop_measure_crit_isr>
 800327a:	f385 8811 	msr	BASEPRI, r5
 800327e:	bd38      	pop	{r3, r4, r5, pc}
 8003280:	68c3      	ldr	r3, [r0, #12]
 8003282:	699b      	ldr	r3, [r3, #24]
 8003284:	689b      	ldr	r3, [r3, #8]
 8003286:	2b00      	cmp	r3, #0
 8003288:	d1da      	bne.n	8003240 <_usb_ep0out+0x40>
 800328a:	6c03      	ldr	r3, [r0, #64]	; 0x40
 800328c:	b103      	cbz	r3, 8003290 <_usb_ep0out+0x90>
 800328e:	4798      	blx	r3
 8003290:	2300      	movs	r3, #0
 8003292:	f884 3034 	strb.w	r3, [r4, #52]	; 0x34
 8003296:	bd38      	pop	{r3, r4, r5, pc}
 8003298:	4802      	ldr	r0, [pc, #8]	; (80032a4 <_usb_ep0out+0xa4>)
 800329a:	e8bd 4038 	ldmia.w	sp!, {r3, r4, r5, lr}
 800329e:	f7fd bf0f 	b.w	80010c0 <chSysHalt>
 80032a2:	bf00      	nop
 80032a4:	08006330 	.word	0x08006330
	...

080032b0 <nvicEnableVector>:
 80032b0:	0943      	lsrs	r3, r0, #5
 80032b2:	b410      	push	{r4}
 80032b4:	009b      	lsls	r3, r3, #2
 80032b6:	f100 4460 	add.w	r4, r0, #3758096384	; 0xe0000000
 80032ba:	f504 4461 	add.w	r4, r4, #57600	; 0xe100
 80032be:	f103 4360 	add.w	r3, r3, #3758096384	; 0xe0000000
 80032c2:	0109      	lsls	r1, r1, #4
 80032c4:	f503 4361 	add.w	r3, r3, #57600	; 0xe100
 80032c8:	f000 001f 	and.w	r0, r0, #31
 80032cc:	2201      	movs	r2, #1
 80032ce:	b2c9      	uxtb	r1, r1
 80032d0:	f884 1300 	strb.w	r1, [r4, #768]	; 0x300
 80032d4:	fa02 f000 	lsl.w	r0, r2, r0
 80032d8:	f8c3 0180 	str.w	r0, [r3, #384]	; 0x180
 80032dc:	f85d 4b04 	ldr.w	r4, [sp], #4
 80032e0:	6018      	str	r0, [r3, #0]
 80032e2:	4770      	bx	lr
	...

080032f0 <nvicDisableVector>:
 80032f0:	4908      	ldr	r1, [pc, #32]	; (8003314 <nvicDisableVector+0x24>)
 80032f2:	0943      	lsrs	r3, r0, #5
 80032f4:	b410      	push	{r4}
 80032f6:	3320      	adds	r3, #32
 80032f8:	f000 041f 	and.w	r4, r0, #31
 80032fc:	2201      	movs	r2, #1
 80032fe:	4408      	add	r0, r1
 8003300:	40a2      	lsls	r2, r4
 8003302:	2400      	movs	r4, #0
 8003304:	f841 2023 	str.w	r2, [r1, r3, lsl #2]
 8003308:	f880 4300 	strb.w	r4, [r0, #768]	; 0x300
 800330c:	f85d 4b04 	ldr.w	r4, [sp], #4
 8003310:	4770      	bx	lr
 8003312:	bf00      	nop
 8003314:	e000e100 	.word	0xe000e100
	...

08003320 <nvicSetSystemHandlerPriority>:
 8003320:	280c      	cmp	r0, #12
 8003322:	b538      	push	{r3, r4, r5, lr}
 8003324:	4604      	mov	r4, r0
 8003326:	460d      	mov	r5, r1
 8003328:	d902      	bls.n	8003330 <nvicSetSystemHandlerPriority+0x10>
 800332a:	4805      	ldr	r0, [pc, #20]	; (8003340 <nvicSetSystemHandlerPriority+0x20>)
 800332c:	f7fd fec8 	bl	80010c0 <chSysHalt>
 8003330:	f104 4060 	add.w	r0, r4, #3758096384	; 0xe0000000
 8003334:	f500 406d 	add.w	r0, r0, #60672	; 0xed00
 8003338:	012d      	lsls	r5, r5, #4
 800333a:	b2ed      	uxtb	r5, r5
 800333c:	7605      	strb	r5, [r0, #24]
 800333e:	bd38      	pop	{r3, r4, r5, pc}
 8003340:	08006370 	.word	0x08006370
	...

08003350 <Vector6C>:
 8003350:	b508      	push	{r3, lr}
 8003352:	f7fe fc55 	bl	8001c00 <_stats_increase_irq>
 8003356:	f7fd ff7b 	bl	8001250 <_dbg_check_enter_isr>
 800335a:	4b08      	ldr	r3, [pc, #32]	; (800337c <Vector6C+0x2c>)
 800335c:	4a08      	ldr	r2, [pc, #32]	; (8003380 <Vector6C+0x30>)
 800335e:	6819      	ldr	r1, [r3, #0]
 8003360:	f001 013d 	and.w	r1, r1, #61	; 0x3d
 8003364:	6099      	str	r1, [r3, #8]
 8003366:	6813      	ldr	r3, [r2, #0]
 8003368:	b10b      	cbz	r3, 800336e <Vector6C+0x1e>
 800336a:	6850      	ldr	r0, [r2, #4]
 800336c:	4798      	blx	r3
 800336e:	f7fd ff87 	bl	8001280 <_dbg_check_leave_isr>
 8003372:	e8bd 4008 	ldmia.w	sp!, {r3, lr}
 8003376:	f7ff b9c3 	b.w	8002700 <_port_irq_epilogue>
 800337a:	bf00      	nop
 800337c:	40026000 	.word	0x40026000
 8003380:	20000ed0 	.word	0x20000ed0
	...

08003390 <Vector70>:
 8003390:	b510      	push	{r4, lr}
 8003392:	f7fe fc35 	bl	8001c00 <_stats_increase_irq>
 8003396:	f7fd ff5b 	bl	8001250 <_dbg_check_enter_isr>
 800339a:	4b09      	ldr	r3, [pc, #36]	; (80033c0 <Vector70+0x30>)
 800339c:	4809      	ldr	r0, [pc, #36]	; (80033c4 <Vector70+0x34>)
 800339e:	6819      	ldr	r1, [r3, #0]
 80033a0:	6882      	ldr	r2, [r0, #8]
 80033a2:	0989      	lsrs	r1, r1, #6
 80033a4:	f001 013d 	and.w	r1, r1, #61	; 0x3d
 80033a8:	018c      	lsls	r4, r1, #6
 80033aa:	609c      	str	r4, [r3, #8]
 80033ac:	b10a      	cbz	r2, 80033b2 <Vector70+0x22>
 80033ae:	68c0      	ldr	r0, [r0, #12]
 80033b0:	4790      	blx	r2
 80033b2:	f7fd ff65 	bl	8001280 <_dbg_check_leave_isr>
 80033b6:	e8bd 4010 	ldmia.w	sp!, {r4, lr}
 80033ba:	f7ff b9a1 	b.w	8002700 <_port_irq_epilogue>
 80033be:	bf00      	nop
 80033c0:	40026000 	.word	0x40026000
 80033c4:	20000ed0 	.word	0x20000ed0
	...

080033d0 <Vector74>:
 80033d0:	b510      	push	{r4, lr}
 80033d2:	f7fe fc15 	bl	8001c00 <_stats_increase_irq>
 80033d6:	f7fd ff3b 	bl	8001250 <_dbg_check_enter_isr>
 80033da:	4b09      	ldr	r3, [pc, #36]	; (8003400 <Vector74+0x30>)
 80033dc:	4809      	ldr	r0, [pc, #36]	; (8003404 <Vector74+0x34>)
 80033de:	6819      	ldr	r1, [r3, #0]
 80033e0:	6902      	ldr	r2, [r0, #16]
 80033e2:	0c09      	lsrs	r1, r1, #16
 80033e4:	f001 013d 	and.w	r1, r1, #61	; 0x3d
 80033e8:	040c      	lsls	r4, r1, #16
 80033ea:	609c      	str	r4, [r3, #8]
 80033ec:	b10a      	cbz	r2, 80033f2 <Vector74+0x22>
 80033ee:	6940      	ldr	r0, [r0, #20]
 80033f0:	4790      	blx	r2
 80033f2:	f7fd ff45 	bl	8001280 <_dbg_check_leave_isr>
 80033f6:	e8bd 4010 	ldmia.w	sp!, {r4, lr}
 80033fa:	f7ff b981 	b.w	8002700 <_port_irq_epilogue>
 80033fe:	bf00      	nop
 8003400:	40026000 	.word	0x40026000
 8003404:	20000ed0 	.word	0x20000ed0
	...

08003410 <Vector78>:
 8003410:	b510      	push	{r4, lr}
 8003412:	f7fe fbf5 	bl	8001c00 <_stats_increase_irq>
 8003416:	f7fd ff1b 	bl	8001250 <_dbg_check_enter_isr>
 800341a:	4b09      	ldr	r3, [pc, #36]	; (8003440 <Vector78+0x30>)
 800341c:	4809      	ldr	r0, [pc, #36]	; (8003444 <Vector78+0x34>)
 800341e:	6819      	ldr	r1, [r3, #0]
 8003420:	6982      	ldr	r2, [r0, #24]
 8003422:	0d89      	lsrs	r1, r1, #22
 8003424:	f001 013d 	and.w	r1, r1, #61	; 0x3d
 8003428:	058c      	lsls	r4, r1, #22
 800342a:	609c      	str	r4, [r3, #8]
 800342c:	b10a      	cbz	r2, 8003432 <Vector78+0x22>
 800342e:	69c0      	ldr	r0, [r0, #28]
 8003430:	4790      	blx	r2
 8003432:	f7fd ff25 	bl	8001280 <_dbg_check_leave_isr>
 8003436:	e8bd 4010 	ldmia.w	sp!, {r4, lr}
 800343a:	f7ff b961 	b.w	8002700 <_port_irq_epilogue>
 800343e:	bf00      	nop
 8003440:	40026000 	.word	0x40026000
 8003444:	20000ed0 	.word	0x20000ed0
	...

08003450 <Vector7C>:
 8003450:	b508      	push	{r3, lr}
 8003452:	f7fe fbd5 	bl	8001c00 <_stats_increase_irq>
 8003456:	f7fd fefb 	bl	8001250 <_dbg_check_enter_isr>
 800345a:	4b08      	ldr	r3, [pc, #32]	; (800347c <Vector7C+0x2c>)
 800345c:	4808      	ldr	r0, [pc, #32]	; (8003480 <Vector7C+0x30>)
 800345e:	6859      	ldr	r1, [r3, #4]
 8003460:	6a02      	ldr	r2, [r0, #32]
 8003462:	f001 013d 	and.w	r1, r1, #61	; 0x3d
 8003466:	60d9      	str	r1, [r3, #12]
 8003468:	b10a      	cbz	r2, 800346e <Vector7C+0x1e>
 800346a:	6a40      	ldr	r0, [r0, #36]	; 0x24
 800346c:	4790      	blx	r2
 800346e:	f7fd ff07 	bl	8001280 <_dbg_check_leave_isr>
 8003472:	e8bd 4008 	ldmia.w	sp!, {r3, lr}
 8003476:	f7ff b943 	b.w	8002700 <_port_irq_epilogue>
 800347a:	bf00      	nop
 800347c:	40026000 	.word	0x40026000
 8003480:	20000ed0 	.word	0x20000ed0
	...

08003490 <Vector80>:
 8003490:	b510      	push	{r4, lr}
 8003492:	f7fe fbb5 	bl	8001c00 <_stats_increase_irq>
 8003496:	f7fd fedb 	bl	8001250 <_dbg_check_enter_isr>
 800349a:	4b09      	ldr	r3, [pc, #36]	; (80034c0 <Vector80+0x30>)
 800349c:	4809      	ldr	r0, [pc, #36]	; (80034c4 <Vector80+0x34>)
 800349e:	6859      	ldr	r1, [r3, #4]
 80034a0:	6a82      	ldr	r2, [r0, #40]	; 0x28
 80034a2:	0989      	lsrs	r1, r1, #6
 80034a4:	f001 013d 	and.w	r1, r1, #61	; 0x3d
 80034a8:	018c      	lsls	r4, r1, #6
 80034aa:	60dc      	str	r4, [r3, #12]
 80034ac:	b10a      	cbz	r2, 80034b2 <Vector80+0x22>
 80034ae:	6ac0      	ldr	r0, [r0, #44]	; 0x2c
 80034b0:	4790      	blx	r2
 80034b2:	f7fd fee5 	bl	8001280 <_dbg_check_leave_isr>
 80034b6:	e8bd 4010 	ldmia.w	sp!, {r4, lr}
 80034ba:	f7ff b921 	b.w	8002700 <_port_irq_epilogue>
 80034be:	bf00      	nop
 80034c0:	40026000 	.word	0x40026000
 80034c4:	20000ed0 	.word	0x20000ed0
	...

080034d0 <Vector84>:
 80034d0:	b510      	push	{r4, lr}
 80034d2:	f7fe fb95 	bl	8001c00 <_stats_increase_irq>
 80034d6:	f7fd febb 	bl	8001250 <_dbg_check_enter_isr>
 80034da:	4b09      	ldr	r3, [pc, #36]	; (8003500 <Vector84+0x30>)
 80034dc:	4809      	ldr	r0, [pc, #36]	; (8003504 <Vector84+0x34>)
 80034de:	6859      	ldr	r1, [r3, #4]
 80034e0:	6b02      	ldr	r2, [r0, #48]	; 0x30
 80034e2:	0c09      	lsrs	r1, r1, #16
 80034e4:	f001 013d 	and.w	r1, r1, #61	; 0x3d
 80034e8:	040c      	lsls	r4, r1, #16
 80034ea:	60dc      	str	r4, [r3, #12]
 80034ec:	b10a      	cbz	r2, 80034f2 <Vector84+0x22>
 80034ee:	6b40      	ldr	r0, [r0, #52]	; 0x34
 80034f0:	4790      	blx	r2
 80034f2:	f7fd fec5 	bl	8001280 <_dbg_check_leave_isr>
 80034f6:	e8bd 4010 	ldmia.w	sp!, {r4, lr}
 80034fa:	f7ff b901 	b.w	8002700 <_port_irq_epilogue>
 80034fe:	bf00      	nop
 8003500:	40026000 	.word	0x40026000
 8003504:	20000ed0 	.word	0x20000ed0
	...

08003510 <VectorFC>:
 8003510:	b510      	push	{r4, lr}
 8003512:	f7fe fb75 	bl	8001c00 <_stats_increase_irq>
 8003516:	f7fd fe9b 	bl	8001250 <_dbg_check_enter_isr>
 800351a:	4b09      	ldr	r3, [pc, #36]	; (8003540 <VectorFC+0x30>)
 800351c:	4809      	ldr	r0, [pc, #36]	; (8003544 <VectorFC+0x34>)
 800351e:	6859      	ldr	r1, [r3, #4]
 8003520:	6b82      	ldr	r2, [r0, #56]	; 0x38
 8003522:	0d89      	lsrs	r1, r1, #22
 8003524:	f001 013d 	and.w	r1, r1, #61	; 0x3d
 8003528:	058c      	lsls	r4, r1, #22
 800352a:	60dc      	str	r4, [r3, #12]
 800352c:	b10a      	cbz	r2, 8003532 <VectorFC+0x22>
 800352e:	6bc0      	ldr	r0, [r0, #60]	; 0x3c
 8003530:	4790      	blx	r2
 8003532:	f7fd fea5 	bl	8001280 <_dbg_check_leave_isr>
 8003536:	e8bd 4010 	ldmia.w	sp!, {r4, lr}
 800353a:	f7ff b8e1 	b.w	8002700 <_port_irq_epilogue>
 800353e:	bf00      	nop
 8003540:	40026000 	.word	0x40026000
 8003544:	20000ed0 	.word	0x20000ed0
	...

08003550 <Vector120>:
 8003550:	b508      	push	{r3, lr}
 8003552:	f7fe fb55 	bl	8001c00 <_stats_increase_irq>
 8003556:	f7fd fe7b 	bl	8001250 <_dbg_check_enter_isr>
 800355a:	4b08      	ldr	r3, [pc, #32]	; (800357c <Vector120+0x2c>)
 800355c:	4808      	ldr	r0, [pc, #32]	; (8003580 <Vector120+0x30>)
 800355e:	6819      	ldr	r1, [r3, #0]
 8003560:	6c02      	ldr	r2, [r0, #64]	; 0x40
 8003562:	f001 013d 	and.w	r1, r1, #61	; 0x3d
 8003566:	6099      	str	r1, [r3, #8]
 8003568:	b10a      	cbz	r2, 800356e <Vector120+0x1e>
 800356a:	6c40      	ldr	r0, [r0, #68]	; 0x44
 800356c:	4790      	blx	r2
 800356e:	f7fd fe87 	bl	8001280 <_dbg_check_leave_isr>
 8003572:	e8bd 4008 	ldmia.w	sp!, {r3, lr}
 8003576:	f7ff b8c3 	b.w	8002700 <_port_irq_epilogue>
 800357a:	bf00      	nop
 800357c:	40026400 	.word	0x40026400
 8003580:	20000ed0 	.word	0x20000ed0
	...

08003590 <Vector124>:
 8003590:	b510      	push	{r4, lr}
 8003592:	f7fe fb35 	bl	8001c00 <_stats_increase_irq>
 8003596:	f7fd fe5b 	bl	8001250 <_dbg_check_enter_isr>
 800359a:	4b09      	ldr	r3, [pc, #36]	; (80035c0 <Vector124+0x30>)
 800359c:	4809      	ldr	r0, [pc, #36]	; (80035c4 <Vector124+0x34>)
 800359e:	6819      	ldr	r1, [r3, #0]
 80035a0:	6c82      	ldr	r2, [r0, #72]	; 0x48
 80035a2:	0989      	lsrs	r1, r1, #6
 80035a4:	f001 013d 	and.w	r1, r1, #61	; 0x3d
 80035a8:	018c      	lsls	r4, r1, #6
 80035aa:	609c      	str	r4, [r3, #8]
 80035ac:	b10a      	cbz	r2, 80035b2 <Vector124+0x22>
 80035ae:	6cc0      	ldr	r0, [r0, #76]	; 0x4c
 80035b0:	4790      	blx	r2
 80035b2:	f7fd fe65 	bl	8001280 <_dbg_check_leave_isr>
 80035b6:	e8bd 4010 	ldmia.w	sp!, {r4, lr}
 80035ba:	f7ff b8a1 	b.w	8002700 <_port_irq_epilogue>
 80035be:	bf00      	nop
 80035c0:	40026400 	.word	0x40026400
 80035c4:	20000ed0 	.word	0x20000ed0
	...

080035d0 <Vector128>:
 80035d0:	b510      	push	{r4, lr}
 80035d2:	f7fe fb15 	bl	8001c00 <_stats_increase_irq>
 80035d6:	f7fd fe3b 	bl	8001250 <_dbg_check_enter_isr>
 80035da:	4b09      	ldr	r3, [pc, #36]	; (8003600 <Vector128+0x30>)
 80035dc:	4809      	ldr	r0, [pc, #36]	; (8003604 <Vector128+0x34>)
 80035de:	6819      	ldr	r1, [r3, #0]
 80035e0:	6d02      	ldr	r2, [r0, #80]	; 0x50
 80035e2:	0c09      	lsrs	r1, r1, #16
 80035e4:	f001 013d 	and.w	r1, r1, #61	; 0x3d
 80035e8:	040c      	lsls	r4, r1, #16
 80035ea:	609c      	str	r4, [r3, #8]
 80035ec:	b10a      	cbz	r2, 80035f2 <Vector128+0x22>
 80035ee:	6d40      	ldr	r0, [r0, #84]	; 0x54
 80035f0:	4790      	blx	r2
 80035f2:	f7fd fe45 	bl	8001280 <_dbg_check_leave_isr>
 80035f6:	e8bd 4010 	ldmia.w	sp!, {r4, lr}
 80035fa:	f7ff b881 	b.w	8002700 <_port_irq_epilogue>
 80035fe:	bf00      	nop
 8003600:	40026400 	.word	0x40026400
 8003604:	20000ed0 	.word	0x20000ed0
	...

08003610 <Vector12C>:
 8003610:	b510      	push	{r4, lr}
 8003612:	f7fe faf5 	bl	8001c00 <_stats_increase_irq>
 8003616:	f7fd fe1b 	bl	8001250 <_dbg_check_enter_isr>
 800361a:	4b09      	ldr	r3, [pc, #36]	; (8003640 <Vector12C+0x30>)
 800361c:	4809      	ldr	r0, [pc, #36]	; (8003644 <Vector12C+0x34>)
 800361e:	6819      	ldr	r1, [r3, #0]
 8003620:	6d82      	ldr	r2, [r0, #88]	; 0x58
 8003622:	0d89      	lsrs	r1, r1, #22
 8003624:	f001 013d 	and.w	r1, r1, #61	; 0x3d
 8003628:	058c      	lsls	r4, r1, #22
 800362a:	609c      	str	r4, [r3, #8]
 800362c:	b10a      	cbz	r2, 8003632 <Vector12C+0x22>
 800362e:	6dc0      	ldr	r0, [r0, #92]	; 0x5c
 8003630:	4790      	blx	r2
 8003632:	f7fd fe25 	bl	8001280 <_dbg_check_leave_isr>
 8003636:	e8bd 4010 	ldmia.w	sp!, {r4, lr}
 800363a:	f7ff b861 	b.w	8002700 <_port_irq_epilogue>
 800363e:	bf00      	nop
 8003640:	40026400 	.word	0x40026400
 8003644:	20000ed0 	.word	0x20000ed0
	...

08003650 <Vector130>:
 8003650:	b508      	push	{r3, lr}
 8003652:	f7fe fad5 	bl	8001c00 <_stats_increase_irq>
 8003656:	f7fd fdfb 	bl	8001250 <_dbg_check_enter_isr>
 800365a:	4b08      	ldr	r3, [pc, #32]	; (800367c <Vector130+0x2c>)
 800365c:	4808      	ldr	r0, [pc, #32]	; (8003680 <Vector130+0x30>)
 800365e:	6859      	ldr	r1, [r3, #4]
 8003660:	6e02      	ldr	r2, [r0, #96]	; 0x60
 8003662:	f001 013d 	and.w	r1, r1, #61	; 0x3d
 8003666:	60d9      	str	r1, [r3, #12]
 8003668:	b10a      	cbz	r2, 800366e <Vector130+0x1e>
 800366a:	6e40      	ldr	r0, [r0, #100]	; 0x64
 800366c:	4790      	blx	r2
 800366e:	f7fd fe07 	bl	8001280 <_dbg_check_leave_isr>
 8003672:	e8bd 4008 	ldmia.w	sp!, {r3, lr}
 8003676:	f7ff b843 	b.w	8002700 <_port_irq_epilogue>
 800367a:	bf00      	nop
 800367c:	40026400 	.word	0x40026400
 8003680:	20000ed0 	.word	0x20000ed0
	...

08003690 <Vector150>:
 8003690:	b510      	push	{r4, lr}
 8003692:	f7fe fab5 	bl	8001c00 <_stats_increase_irq>
 8003696:	f7fd fddb 	bl	8001250 <_dbg_check_enter_isr>
 800369a:	4b09      	ldr	r3, [pc, #36]	; (80036c0 <Vector150+0x30>)
 800369c:	4809      	ldr	r0, [pc, #36]	; (80036c4 <Vector150+0x34>)
 800369e:	6859      	ldr	r1, [r3, #4]
 80036a0:	6e82      	ldr	r2, [r0, #104]	; 0x68
 80036a2:	0989      	lsrs	r1, r1, #6
 80036a4:	f001 013d 	and.w	r1, r1, #61	; 0x3d
 80036a8:	018c      	lsls	r4, r1, #6
 80036aa:	60dc      	str	r4, [r3, #12]
 80036ac:	b10a      	cbz	r2, 80036b2 <Vector150+0x22>
 80036ae:	6ec0      	ldr	r0, [r0, #108]	; 0x6c
 80036b0:	4790      	blx	r2
 80036b2:	f7fd fde5 	bl	8001280 <_dbg_check_leave_isr>
 80036b6:	e8bd 4010 	ldmia.w	sp!, {r4, lr}
 80036ba:	f7ff b821 	b.w	8002700 <_port_irq_epilogue>
 80036be:	bf00      	nop
 80036c0:	40026400 	.word	0x40026400
 80036c4:	20000ed0 	.word	0x20000ed0
	...

080036d0 <Vector154>:
 80036d0:	b510      	push	{r4, lr}
 80036d2:	f7fe fa95 	bl	8001c00 <_stats_increase_irq>
 80036d6:	f7fd fdbb 	bl	8001250 <_dbg_check_enter_isr>
 80036da:	4b09      	ldr	r3, [pc, #36]	; (8003700 <Vector154+0x30>)
 80036dc:	4809      	ldr	r0, [pc, #36]	; (8003704 <Vector154+0x34>)
 80036de:	6859      	ldr	r1, [r3, #4]
 80036e0:	6f02      	ldr	r2, [r0, #112]	; 0x70
 80036e2:	0c09      	lsrs	r1, r1, #16
 80036e4:	f001 013d 	and.w	r1, r1, #61	; 0x3d
 80036e8:	040c      	lsls	r4, r1, #16
 80036ea:	60dc      	str	r4, [r3, #12]
 80036ec:	b10a      	cbz	r2, 80036f2 <Vector154+0x22>
 80036ee:	6f40      	ldr	r0, [r0, #116]	; 0x74
 80036f0:	4790      	blx	r2
 80036f2:	f7fd fdc5 	bl	8001280 <_dbg_check_leave_isr>
 80036f6:	e8bd 4010 	ldmia.w	sp!, {r4, lr}
 80036fa:	f7ff b801 	b.w	8002700 <_port_irq_epilogue>
 80036fe:	bf00      	nop
 8003700:	40026400 	.word	0x40026400
 8003704:	20000ed0 	.word	0x20000ed0
	...

08003710 <Vector158>:
 8003710:	b510      	push	{r4, lr}
 8003712:	f7fe fa75 	bl	8001c00 <_stats_increase_irq>
 8003716:	f7fd fd9b 	bl	8001250 <_dbg_check_enter_isr>
 800371a:	4b09      	ldr	r3, [pc, #36]	; (8003740 <Vector158+0x30>)
 800371c:	4809      	ldr	r0, [pc, #36]	; (8003744 <Vector158+0x34>)
 800371e:	6859      	ldr	r1, [r3, #4]
 8003720:	6f82      	ldr	r2, [r0, #120]	; 0x78
 8003722:	0d89      	lsrs	r1, r1, #22
 8003724:	f001 013d 	and.w	r1, r1, #61	; 0x3d
 8003728:	058c      	lsls	r4, r1, #22
 800372a:	60dc      	str	r4, [r3, #12]
 800372c:	b10a      	cbz	r2, 8003732 <Vector158+0x22>
 800372e:	6fc0      	ldr	r0, [r0, #124]	; 0x7c
 8003730:	4790      	blx	r2
 8003732:	f7fd fda5 	bl	8001280 <_dbg_check_leave_isr>
 8003736:	e8bd 4010 	ldmia.w	sp!, {r4, lr}
 800373a:	f7fe bfe1 	b.w	8002700 <_port_irq_epilogue>
 800373e:	bf00      	nop
 8003740:	40026400 	.word	0x40026400
 8003744:	20000ed0 	.word	0x20000ed0
	...

08003750 <dmaInit>:
 8003750:	490e      	ldr	r1, [pc, #56]	; (800378c <dmaInit+0x3c>)
 8003752:	4a0f      	ldr	r2, [pc, #60]	; (8003790 <dmaInit+0x40>)
 8003754:	480f      	ldr	r0, [pc, #60]	; (8003794 <dmaInit+0x44>)
 8003756:	2300      	movs	r3, #0
 8003758:	b410      	push	{r4}
 800375a:	600b      	str	r3, [r1, #0]
 800375c:	4c0e      	ldr	r4, [pc, #56]	; (8003798 <dmaInit+0x48>)
 800375e:	4619      	mov	r1, r3
 8003760:	e001      	b.n	8003766 <dmaInit+0x16>
 8003762:	f852 0c0c 	ldr.w	r0, [r2, #-12]
 8003766:	6001      	str	r1, [r0, #0]
 8003768:	f844 1033 	str.w	r1, [r4, r3, lsl #3]
 800376c:	3301      	adds	r3, #1
 800376e:	2b10      	cmp	r3, #16
 8003770:	f102 020c 	add.w	r2, r2, #12
 8003774:	d1f5      	bne.n	8003762 <dmaInit+0x12>
 8003776:	4909      	ldr	r1, [pc, #36]	; (800379c <dmaInit+0x4c>)
 8003778:	4a09      	ldr	r2, [pc, #36]	; (80037a0 <dmaInit+0x50>)
 800377a:	f85d 4b04 	ldr.w	r4, [sp], #4
 800377e:	f04f 33ff 	mov.w	r3, #4294967295	; 0xffffffff
 8003782:	608b      	str	r3, [r1, #8]
 8003784:	60cb      	str	r3, [r1, #12]
 8003786:	6093      	str	r3, [r2, #8]
 8003788:	60d3      	str	r3, [r2, #12]
 800378a:	4770      	bx	lr
 800378c:	20000f50 	.word	0x20000f50
 8003790:	080063dc 	.word	0x080063dc
 8003794:	40026010 	.word	0x40026010
 8003798:	20000ed0 	.word	0x20000ed0
 800379c:	40026000 	.word	0x40026000
 80037a0:	40026400 	.word	0x40026400
	...

080037b0 <dmaStreamAllocate>:
 80037b0:	b5f0      	push	{r4, r5, r6, r7, lr}
 80037b2:	4605      	mov	r5, r0
 80037b4:	b085      	sub	sp, #20
 80037b6:	2800      	cmp	r0, #0
 80037b8:	d03f      	beq.n	800383a <dmaStreamAllocate+0x8a>
 80037ba:	4c25      	ldr	r4, [pc, #148]	; (8003850 <dmaStreamAllocate+0xa0>)
 80037bc:	7a6f      	ldrb	r7, [r5, #9]
 80037be:	f8d4 c000 	ldr.w	ip, [r4]
 80037c2:	2001      	movs	r0, #1
 80037c4:	fa00 f607 	lsl.w	r6, r0, r7
 80037c8:	ea16 0f0c 	tst.w	r6, ip
 80037cc:	d12a      	bne.n	8003824 <dmaStreamAllocate+0x74>
 80037ce:	4821      	ldr	r0, [pc, #132]	; (8003854 <dmaStreamAllocate+0xa4>)
 80037d0:	ea46 060c 	orr.w	r6, r6, ip
 80037d4:	eb00 0cc7 	add.w	ip, r0, r7, lsl #3
 80037d8:	f016 0fff 	tst.w	r6, #255	; 0xff
 80037dc:	6026      	str	r6, [r4, #0]
 80037de:	f840 2037 	str.w	r2, [r0, r7, lsl #3]
 80037e2:	f8cc 3004 	str.w	r3, [ip, #4]
 80037e6:	d004      	beq.n	80037f2 <dmaStreamAllocate+0x42>
 80037e8:	481b      	ldr	r0, [pc, #108]	; (8003858 <dmaStreamAllocate+0xa8>)
 80037ea:	6b03      	ldr	r3, [r0, #48]	; 0x30
 80037ec:	f443 1300 	orr.w	r3, r3, #2097152	; 0x200000
 80037f0:	6303      	str	r3, [r0, #48]	; 0x30
 80037f2:	f416 4f7f 	tst.w	r6, #65280	; 0xff00
 80037f6:	d117      	bne.n	8003828 <dmaStreamAllocate+0x78>
 80037f8:	6828      	ldr	r0, [r5, #0]
 80037fa:	6803      	ldr	r3, [r0, #0]
 80037fc:	f023 031f 	bic.w	r3, r3, #31
 8003800:	6003      	str	r3, [r0, #0]
 8003802:	6804      	ldr	r4, [r0, #0]
 8003804:	f014 0401 	ands.w	r4, r4, #1
 8003808:	d1fb      	bne.n	8003802 <dmaStreamAllocate+0x52>
 800380a:	7a2f      	ldrb	r7, [r5, #8]
 800380c:	686e      	ldr	r6, [r5, #4]
 800380e:	233d      	movs	r3, #61	; 0x3d
 8003810:	40bb      	lsls	r3, r7
 8003812:	2721      	movs	r7, #33	; 0x21
 8003814:	6033      	str	r3, [r6, #0]
 8003816:	6004      	str	r4, [r0, #0]
 8003818:	6147      	str	r7, [r0, #20]
 800381a:	b15a      	cbz	r2, 8003834 <dmaStreamAllocate+0x84>
 800381c:	7aa8      	ldrb	r0, [r5, #10]
 800381e:	f7ff fd47 	bl	80032b0 <nvicEnableVector>
 8003822:	4620      	mov	r0, r4
 8003824:	b005      	add	sp, #20
 8003826:	bdf0      	pop	{r4, r5, r6, r7, pc}
 8003828:	480b      	ldr	r0, [pc, #44]	; (8003858 <dmaStreamAllocate+0xa8>)
 800382a:	6b03      	ldr	r3, [r0, #48]	; 0x30
 800382c:	f443 0380 	orr.w	r3, r3, #4194304	; 0x400000
 8003830:	6303      	str	r3, [r0, #48]	; 0x30
 8003832:	e7e1      	b.n	80037f8 <dmaStreamAllocate+0x48>
 8003834:	4610      	mov	r0, r2
 8003836:	b005      	add	sp, #20
 8003838:	bdf0      	pop	{r4, r5, r6, r7, pc}
 800383a:	4808      	ldr	r0, [pc, #32]	; (800385c <dmaStreamAllocate+0xac>)
 800383c:	9101      	str	r1, [sp, #4]
 800383e:	e9cd 2302 	strd	r2, r3, [sp, #8]
 8003842:	f7fd fc3d 	bl	80010c0 <chSysHalt>
 8003846:	e9dd 2302 	ldrd	r2, r3, [sp, #8]
 800384a:	9901      	ldr	r1, [sp, #4]
 800384c:	e7b5      	b.n	80037ba <dmaStreamAllocate+0xa>
 800384e:	bf00      	nop
 8003850:	20000f50 	.word	0x20000f50
 8003854:	20000ed0 	.word	0x20000ed0
 8003858:	40023800 	.word	0x40023800
 800385c:	08006390 	.word	0x08006390

08003860 <dmaStreamRelease>:
 8003860:	b538      	push	{r3, r4, r5, lr}
 8003862:	4604      	mov	r4, r0
 8003864:	b328      	cbz	r0, 80038b2 <dmaStreamRelease+0x52>
 8003866:	4d15      	ldr	r5, [pc, #84]	; (80038bc <dmaStreamRelease+0x5c>)
 8003868:	7a61      	ldrb	r1, [r4, #9]
 800386a:	682a      	ldr	r2, [r5, #0]
 800386c:	2301      	movs	r3, #1
 800386e:	408b      	lsls	r3, r1
 8003870:	4213      	tst	r3, r2
 8003872:	d01a      	beq.n	80038aa <dmaStreamRelease+0x4a>
 8003874:	7aa0      	ldrb	r0, [r4, #10]
 8003876:	f7ff fd3b 	bl	80032f0 <nvicDisableVector>
 800387a:	7a61      	ldrb	r1, [r4, #9]
 800387c:	682b      	ldr	r3, [r5, #0]
 800387e:	2201      	movs	r2, #1
 8003880:	408a      	lsls	r2, r1
 8003882:	ea23 0302 	bic.w	r3, r3, r2
 8003886:	f013 0fff 	tst.w	r3, #255	; 0xff
 800388a:	602b      	str	r3, [r5, #0]
 800388c:	d104      	bne.n	8003898 <dmaStreamRelease+0x38>
 800388e:	490c      	ldr	r1, [pc, #48]	; (80038c0 <dmaStreamRelease+0x60>)
 8003890:	6b0a      	ldr	r2, [r1, #48]	; 0x30
 8003892:	f422 1200 	bic.w	r2, r2, #2097152	; 0x200000
 8003896:	630a      	str	r2, [r1, #48]	; 0x30
 8003898:	f413 4f7f 	tst.w	r3, #65280	; 0xff00
 800389c:	d104      	bne.n	80038a8 <dmaStreamRelease+0x48>
 800389e:	4a08      	ldr	r2, [pc, #32]	; (80038c0 <dmaStreamRelease+0x60>)
 80038a0:	6b13      	ldr	r3, [r2, #48]	; 0x30
 80038a2:	f423 0380 	bic.w	r3, r3, #4194304	; 0x400000
 80038a6:	6313      	str	r3, [r2, #48]	; 0x30
 80038a8:	bd38      	pop	{r3, r4, r5, pc}
 80038aa:	4806      	ldr	r0, [pc, #24]	; (80038c4 <dmaStreamRelease+0x64>)
 80038ac:	f7fd fc08 	bl	80010c0 <chSysHalt>
 80038b0:	e7e0      	b.n	8003874 <dmaStreamRelease+0x14>
 80038b2:	4804      	ldr	r0, [pc, #16]	; (80038c4 <dmaStreamRelease+0x64>)
 80038b4:	f7fd fc04 	bl	80010c0 <chSysHalt>
 80038b8:	e7d5      	b.n	8003866 <dmaStreamRelease+0x6>
 80038ba:	bf00      	nop
 80038bc:	20000f50 	.word	0x20000f50
 80038c0:	40023800 	.word	0x40023800
 80038c4:	080063b0 	.word	0x080063b0
	...

080038d0 <hal_lld_init>:
 80038d0:	4b17      	ldr	r3, [pc, #92]	; (8003930 <hal_lld_init+0x60>)
 80038d2:	f04f 31ff 	mov.w	r1, #4294967295	; 0xffffffff
 80038d6:	691a      	ldr	r2, [r3, #16]
 80038d8:	2200      	movs	r2, #0
 80038da:	b410      	push	{r4}
 80038dc:	6119      	str	r1, [r3, #16]
 80038de:	611a      	str	r2, [r3, #16]
 80038e0:	6958      	ldr	r0, [r3, #20]
 80038e2:	6159      	str	r1, [r3, #20]
 80038e4:	615a      	str	r2, [r3, #20]
 80038e6:	6a18      	ldr	r0, [r3, #32]
 80038e8:	4c12      	ldr	r4, [pc, #72]	; (8003934 <hal_lld_init+0x64>)
 80038ea:	f060 5080 	orn	r0, r0, #268435456	; 0x10000000
 80038ee:	6218      	str	r0, [r3, #32]
 80038f0:	621a      	str	r2, [r3, #32]
 80038f2:	6a58      	ldr	r0, [r3, #36]	; 0x24
 80038f4:	6259      	str	r1, [r3, #36]	; 0x24
 80038f6:	625a      	str	r2, [r3, #36]	; 0x24
 80038f8:	6c19      	ldr	r1, [r3, #64]	; 0x40
 80038fa:	f041 5180 	orr.w	r1, r1, #268435456	; 0x10000000
 80038fe:	6419      	str	r1, [r3, #64]	; 0x40
 8003900:	6821      	ldr	r1, [r4, #0]
 8003902:	f441 7180 	orr.w	r1, r1, #256	; 0x100
 8003906:	6021      	str	r1, [r4, #0]
 8003908:	6f19      	ldr	r1, [r3, #112]	; 0x70
 800390a:	f401 7140 	and.w	r1, r1, #768	; 0x300
 800390e:	f5b1 7f00 	cmp.w	r1, #512	; 0x200
 8003912:	d003      	beq.n	800391c <hal_lld_init+0x4c>
 8003914:	f44f 3180 	mov.w	r1, #65536	; 0x10000
 8003918:	6719      	str	r1, [r3, #112]	; 0x70
 800391a:	671a      	str	r2, [r3, #112]	; 0x70
 800391c:	4a05      	ldr	r2, [pc, #20]	; (8003934 <hal_lld_init+0x64>)
 800391e:	f85d 4b04 	ldr.w	r4, [sp], #4
 8003922:	6853      	ldr	r3, [r2, #4]
 8003924:	f423 7300 	bic.w	r3, r3, #512	; 0x200
 8003928:	6053      	str	r3, [r2, #4]
 800392a:	f7ff bf11 	b.w	8003750 <dmaInit>
 800392e:	bf00      	nop
 8003930:	40023800 	.word	0x40023800
 8003934:	40007000 	.word	0x40007000
	...

08003940 <stm32_clock_init>:
 8003940:	4b30      	ldr	r3, [pc, #192]	; (8003a04 <stm32_clock_init+0xc4>)
 8003942:	4a31      	ldr	r2, [pc, #196]	; (8003a08 <stm32_clock_init+0xc8>)
 8003944:	f04f 5080 	mov.w	r0, #268435456	; 0x10000000
 8003948:	f44f 4140 	mov.w	r1, #49152	; 0xc000
 800394c:	6418      	str	r0, [r3, #64]	; 0x40
 800394e:	6011      	str	r1, [r2, #0]
 8003950:	681a      	ldr	r2, [r3, #0]
 8003952:	f042 0201 	orr.w	r2, r2, #1
 8003956:	601a      	str	r2, [r3, #0]
 8003958:	681a      	ldr	r2, [r3, #0]
 800395a:	0791      	lsls	r1, r2, #30
 800395c:	d5fc      	bpl.n	8003958 <stm32_clock_init+0x18>
 800395e:	6899      	ldr	r1, [r3, #8]
 8003960:	4a28      	ldr	r2, [pc, #160]	; (8003a04 <stm32_clock_init+0xc4>)
 8003962:	f021 0103 	bic.w	r1, r1, #3
 8003966:	6099      	str	r1, [r3, #8]
 8003968:	6899      	ldr	r1, [r3, #8]
 800396a:	6099      	str	r1, [r3, #8]
 800396c:	6893      	ldr	r3, [r2, #8]
 800396e:	f013 030c 	ands.w	r3, r3, #12
 8003972:	d1fb      	bne.n	800396c <stm32_clock_init+0x2c>
 8003974:	6810      	ldr	r0, [r2, #0]
 8003976:	4923      	ldr	r1, [pc, #140]	; (8003a04 <stm32_clock_init+0xc4>)
 8003978:	f000 00f9 	and.w	r0, r0, #249	; 0xf9
 800397c:	6010      	str	r0, [r2, #0]
 800397e:	6093      	str	r3, [r2, #8]
 8003980:	6813      	ldr	r3, [r2, #0]
 8003982:	f443 23a0 	orr.w	r3, r3, #327680	; 0x50000
 8003986:	6013      	str	r3, [r2, #0]
 8003988:	680b      	ldr	r3, [r1, #0]
 800398a:	039a      	lsls	r2, r3, #14
 800398c:	d5fc      	bpl.n	8003988 <stm32_clock_init+0x48>
 800398e:	6f4b      	ldr	r3, [r1, #116]	; 0x74
 8003990:	4a1c      	ldr	r2, [pc, #112]	; (8003a04 <stm32_clock_init+0xc4>)
 8003992:	f043 0301 	orr.w	r3, r3, #1
 8003996:	674b      	str	r3, [r1, #116]	; 0x74
 8003998:	6f53      	ldr	r3, [r2, #116]	; 0x74
 800399a:	079b      	lsls	r3, r3, #30
 800399c:	d5fc      	bpl.n	8003998 <stm32_clock_init+0x58>
 800399e:	4b1b      	ldr	r3, [pc, #108]	; (8003a0c <stm32_clock_init+0xcc>)
 80039a0:	6053      	str	r3, [r2, #4]
 80039a2:	6813      	ldr	r3, [r2, #0]
 80039a4:	4918      	ldr	r1, [pc, #96]	; (8003a08 <stm32_clock_init+0xc8>)
 80039a6:	f043 7380 	orr.w	r3, r3, #16777216	; 0x1000000
 80039aa:	6013      	str	r3, [r2, #0]
 80039ac:	684b      	ldr	r3, [r1, #4]
 80039ae:	0458      	lsls	r0, r3, #17
 80039b0:	d5fc      	bpl.n	80039ac <stm32_clock_init+0x6c>
 80039b2:	4a14      	ldr	r2, [pc, #80]	; (8003a04 <stm32_clock_init+0xc4>)
 80039b4:	6813      	ldr	r3, [r2, #0]
 80039b6:	0199      	lsls	r1, r3, #6
 80039b8:	d5fc      	bpl.n	80039b4 <stm32_clock_init+0x74>
 80039ba:	4b15      	ldr	r3, [pc, #84]	; (8003a10 <stm32_clock_init+0xd0>)
 80039bc:	f8c2 3084 	str.w	r3, [r2, #132]	; 0x84
 80039c0:	6813      	ldr	r3, [r2, #0]
 80039c2:	4910      	ldr	r1, [pc, #64]	; (8003a04 <stm32_clock_init+0xc4>)
 80039c4:	f043 6380 	orr.w	r3, r3, #67108864	; 0x4000000
 80039c8:	6013      	str	r3, [r2, #0]
 80039ca:	680b      	ldr	r3, [r1, #0]
 80039cc:	011b      	lsls	r3, r3, #4
 80039ce:	d5fc      	bpl.n	80039ca <stm32_clock_init+0x8a>
 80039d0:	4b10      	ldr	r3, [pc, #64]	; (8003a14 <stm32_clock_init+0xd4>)
 80039d2:	4a11      	ldr	r2, [pc, #68]	; (8003a18 <stm32_clock_init+0xd8>)
 80039d4:	608a      	str	r2, [r1, #8]
 80039d6:	f240 7205 	movw	r2, #1797	; 0x705
 80039da:	601a      	str	r2, [r3, #0]
 80039dc:	688b      	ldr	r3, [r1, #8]
 80039de:	4a09      	ldr	r2, [pc, #36]	; (8003a04 <stm32_clock_init+0xc4>)
 80039e0:	f043 0302 	orr.w	r3, r3, #2
 80039e4:	608b      	str	r3, [r1, #8]
 80039e6:	6893      	ldr	r3, [r2, #8]
 80039e8:	f003 030c 	and.w	r3, r3, #12
 80039ec:	2b08      	cmp	r3, #8
 80039ee:	d1fa      	bne.n	80039e6 <stm32_clock_init+0xa6>
 80039f0:	6c53      	ldr	r3, [r2, #68]	; 0x44
 80039f2:	f443 4380 	orr.w	r3, r3, #16384	; 0x4000
 80039f6:	6453      	str	r3, [r2, #68]	; 0x44
 80039f8:	6e53      	ldr	r3, [r2, #100]	; 0x64
 80039fa:	f443 4380 	orr.w	r3, r3, #16384	; 0x4000
 80039fe:	6653      	str	r3, [r2, #100]	; 0x64
 8003a00:	4770      	bx	lr
 8003a02:	bf00      	nop
 8003a04:	40023800 	.word	0x40023800
 8003a08:	40007000 	.word	0x40007000
 8003a0c:	07405418 	.word	0x07405418
 8003a10:	60003000 	.word	0x60003000
 8003a14:	40023c00 	.word	0x40023c00
 8003a18:	38089400 	.word	0x38089400
 8003a1c:	00000000 	.word	0x00000000

08003a20 <_pal_lld_init>:
 8003a20:	4968      	ldr	r1, [pc, #416]	; (8003bc4 <_pal_lld_init+0x1a4>)
 8003a22:	4a69      	ldr	r2, [pc, #420]	; (8003bc8 <_pal_lld_init+0x1a8>)
 8003a24:	4b69      	ldr	r3, [pc, #420]	; (8003bcc <_pal_lld_init+0x1ac>)
 8003a26:	b470      	push	{r4, r5, r6}
 8003a28:	6b0d      	ldr	r5, [r1, #48]	; 0x30
 8003a2a:	f240 16ff 	movw	r6, #511	; 0x1ff
 8003a2e:	4335      	orrs	r5, r6
 8003a30:	630d      	str	r5, [r1, #48]	; 0x30
 8003a32:	6d0c      	ldr	r4, [r1, #80]	; 0x50
 8003a34:	4334      	orrs	r4, r6
 8003a36:	650c      	str	r4, [r1, #80]	; 0x50
 8003a38:	6841      	ldr	r1, [r0, #4]
 8003a3a:	6051      	str	r1, [r2, #4]
 8003a3c:	6881      	ldr	r1, [r0, #8]
 8003a3e:	6091      	str	r1, [r2, #8]
 8003a40:	68c1      	ldr	r1, [r0, #12]
 8003a42:	60d1      	str	r1, [r2, #12]
 8003a44:	6901      	ldr	r1, [r0, #16]
 8003a46:	6151      	str	r1, [r2, #20]
 8003a48:	6941      	ldr	r1, [r0, #20]
 8003a4a:	6211      	str	r1, [r2, #32]
 8003a4c:	6981      	ldr	r1, [r0, #24]
 8003a4e:	6251      	str	r1, [r2, #36]	; 0x24
 8003a50:	6801      	ldr	r1, [r0, #0]
 8003a52:	6011      	str	r1, [r2, #0]
 8003a54:	6a02      	ldr	r2, [r0, #32]
 8003a56:	605a      	str	r2, [r3, #4]
 8003a58:	6a42      	ldr	r2, [r0, #36]	; 0x24
 8003a5a:	609a      	str	r2, [r3, #8]
 8003a5c:	6a82      	ldr	r2, [r0, #40]	; 0x28
 8003a5e:	60da      	str	r2, [r3, #12]
 8003a60:	6ac2      	ldr	r2, [r0, #44]	; 0x2c
 8003a62:	615a      	str	r2, [r3, #20]
 8003a64:	6b02      	ldr	r2, [r0, #48]	; 0x30
 8003a66:	621a      	str	r2, [r3, #32]
 8003a68:	6b42      	ldr	r2, [r0, #52]	; 0x34
 8003a6a:	625a      	str	r2, [r3, #36]	; 0x24
 8003a6c:	69c2      	ldr	r2, [r0, #28]
 8003a6e:	601a      	str	r2, [r3, #0]
 8003a70:	6bc2      	ldr	r2, [r0, #60]	; 0x3c
 8003a72:	f8c3 2404 	str.w	r2, [r3, #1028]	; 0x404
 8003a76:	6c02      	ldr	r2, [r0, #64]	; 0x40
 8003a78:	f8c3 2408 	str.w	r2, [r3, #1032]	; 0x408
 8003a7c:	6c42      	ldr	r2, [r0, #68]	; 0x44
 8003a7e:	f8c3 240c 	str.w	r2, [r3, #1036]	; 0x40c
 8003a82:	6c82      	ldr	r2, [r0, #72]	; 0x48
 8003a84:	f8c3 2414 	str.w	r2, [r3, #1044]	; 0x414
 8003a88:	6cc2      	ldr	r2, [r0, #76]	; 0x4c
 8003a8a:	f8c3 2420 	str.w	r2, [r3, #1056]	; 0x420
 8003a8e:	6d02      	ldr	r2, [r0, #80]	; 0x50
 8003a90:	f8c3 2424 	str.w	r2, [r3, #1060]	; 0x424
 8003a94:	6b82      	ldr	r2, [r0, #56]	; 0x38
 8003a96:	f8c3 2400 	str.w	r2, [r3, #1024]	; 0x400
 8003a9a:	f503 6300 	add.w	r3, r3, #2048	; 0x800
 8003a9e:	6d82      	ldr	r2, [r0, #88]	; 0x58
 8003aa0:	605a      	str	r2, [r3, #4]
 8003aa2:	6dc2      	ldr	r2, [r0, #92]	; 0x5c
 8003aa4:	609a      	str	r2, [r3, #8]
 8003aa6:	6e02      	ldr	r2, [r0, #96]	; 0x60
 8003aa8:	60da      	str	r2, [r3, #12]
 8003aaa:	6e42      	ldr	r2, [r0, #100]	; 0x64
 8003aac:	615a      	str	r2, [r3, #20]
 8003aae:	6e82      	ldr	r2, [r0, #104]	; 0x68
 8003ab0:	621a      	str	r2, [r3, #32]
 8003ab2:	6ec2      	ldr	r2, [r0, #108]	; 0x6c
 8003ab4:	625a      	str	r2, [r3, #36]	; 0x24
 8003ab6:	6d42      	ldr	r2, [r0, #84]	; 0x54
 8003ab8:	601a      	str	r2, [r3, #0]
 8003aba:	6f42      	ldr	r2, [r0, #116]	; 0x74
 8003abc:	f8c3 2404 	str.w	r2, [r3, #1028]	; 0x404
 8003ac0:	6f82      	ldr	r2, [r0, #120]	; 0x78
 8003ac2:	f8c3 2408 	str.w	r2, [r3, #1032]	; 0x408
 8003ac6:	6fc2      	ldr	r2, [r0, #124]	; 0x7c
 8003ac8:	f8c3 240c 	str.w	r2, [r3, #1036]	; 0x40c
 8003acc:	f8d0 2080 	ldr.w	r2, [r0, #128]	; 0x80
 8003ad0:	f8c3 2414 	str.w	r2, [r3, #1044]	; 0x414
 8003ad4:	f8d0 2084 	ldr.w	r2, [r0, #132]	; 0x84
 8003ad8:	f8c3 2420 	str.w	r2, [r3, #1056]	; 0x420
 8003adc:	f8d0 2088 	ldr.w	r2, [r0, #136]	; 0x88
 8003ae0:	f8c3 2424 	str.w	r2, [r3, #1060]	; 0x424
 8003ae4:	6f02      	ldr	r2, [r0, #112]	; 0x70
 8003ae6:	f8c3 2400 	str.w	r2, [r3, #1024]	; 0x400
 8003aea:	f8d0 2090 	ldr.w	r2, [r0, #144]	; 0x90
 8003aee:	f8c3 2804 	str.w	r2, [r3, #2052]	; 0x804
 8003af2:	f8d0 2094 	ldr.w	r2, [r0, #148]	; 0x94
 8003af6:	f8c3 2808 	str.w	r2, [r3, #2056]	; 0x808
 8003afa:	f8d0 2098 	ldr.w	r2, [r0, #152]	; 0x98
 8003afe:	f8c3 280c 	str.w	r2, [r3, #2060]	; 0x80c
 8003b02:	f8d0 209c 	ldr.w	r2, [r0, #156]	; 0x9c
 8003b06:	f8c3 2814 	str.w	r2, [r3, #2068]	; 0x814
 8003b0a:	f8d0 20a0 	ldr.w	r2, [r0, #160]	; 0xa0
 8003b0e:	f8c3 2820 	str.w	r2, [r3, #2080]	; 0x820
 8003b12:	f8d0 20a4 	ldr.w	r2, [r0, #164]	; 0xa4
 8003b16:	f8c3 2824 	str.w	r2, [r3, #2084]	; 0x824
 8003b1a:	f8d0 208c 	ldr.w	r2, [r0, #140]	; 0x8c
 8003b1e:	f8c3 2800 	str.w	r2, [r3, #2048]	; 0x800
 8003b22:	f503 6340 	add.w	r3, r3, #3072	; 0xc00
 8003b26:	f8d0 20ac 	ldr.w	r2, [r0, #172]	; 0xac
 8003b2a:	605a      	str	r2, [r3, #4]
 8003b2c:	f8d0 20b0 	ldr.w	r2, [r0, #176]	; 0xb0
 8003b30:	609a      	str	r2, [r3, #8]
 8003b32:	f8d0 20b4 	ldr.w	r2, [r0, #180]	; 0xb4
 8003b36:	60da      	str	r2, [r3, #12]
 8003b38:	f8d0 20b8 	ldr.w	r2, [r0, #184]	; 0xb8
 8003b3c:	615a      	str	r2, [r3, #20]
 8003b3e:	f8d0 20bc 	ldr.w	r2, [r0, #188]	; 0xbc
 8003b42:	621a      	str	r2, [r3, #32]
 8003b44:	f8d0 20c0 	ldr.w	r2, [r0, #192]	; 0xc0
 8003b48:	625a      	str	r2, [r3, #36]	; 0x24
 8003b4a:	f8d0 20a8 	ldr.w	r2, [r0, #168]	; 0xa8
 8003b4e:	601a      	str	r2, [r3, #0]
 8003b50:	f8d0 20c8 	ldr.w	r2, [r0, #200]	; 0xc8
 8003b54:	f8c3 2404 	str.w	r2, [r3, #1028]	; 0x404
 8003b58:	f8d0 20cc 	ldr.w	r2, [r0, #204]	; 0xcc
 8003b5c:	f8c3 2408 	str.w	r2, [r3, #1032]	; 0x408
 8003b60:	f8d0 20d0 	ldr.w	r2, [r0, #208]	; 0xd0
 8003b64:	f8c3 240c 	str.w	r2, [r3, #1036]	; 0x40c
 8003b68:	f8d0 20d4 	ldr.w	r2, [r0, #212]	; 0xd4
 8003b6c:	f8c3 2414 	str.w	r2, [r3, #1044]	; 0x414
 8003b70:	f8d0 20d8 	ldr.w	r2, [r0, #216]	; 0xd8
 8003b74:	f8c3 2420 	str.w	r2, [r3, #1056]	; 0x420
 8003b78:	f8d0 20dc 	ldr.w	r2, [r0, #220]	; 0xdc
 8003b7c:	f8c3 2424 	str.w	r2, [r3, #1060]	; 0x424
 8003b80:	f8d0 20c4 	ldr.w	r2, [r0, #196]	; 0xc4
 8003b84:	f8c3 2400 	str.w	r2, [r3, #1024]	; 0x400
 8003b88:	f8d0 20e4 	ldr.w	r2, [r0, #228]	; 0xe4
 8003b8c:	f8c3 2804 	str.w	r2, [r3, #2052]	; 0x804
 8003b90:	f8d0 20e8 	ldr.w	r2, [r0, #232]	; 0xe8
 8003b94:	f8c3 2808 	str.w	r2, [r3, #2056]	; 0x808
 8003b98:	f8d0 20ec 	ldr.w	r2, [r0, #236]	; 0xec
 8003b9c:	f8c3 280c 	str.w	r2, [r3, #2060]	; 0x80c
 8003ba0:	f8d0 20f0 	ldr.w	r2, [r0, #240]	; 0xf0
 8003ba4:	f8c3 2814 	str.w	r2, [r3, #2068]	; 0x814
 8003ba8:	f8d0 20f4 	ldr.w	r2, [r0, #244]	; 0xf4
 8003bac:	f8c3 2820 	str.w	r2, [r3, #2080]	; 0x820
 8003bb0:	f8d0 20f8 	ldr.w	r2, [r0, #248]	; 0xf8
 8003bb4:	f8c3 2824 	str.w	r2, [r3, #2084]	; 0x824
 8003bb8:	f8d0 20e0 	ldr.w	r2, [r0, #224]	; 0xe0
 8003bbc:	f8c3 2800 	str.w	r2, [r3, #2048]	; 0x800
 8003bc0:	bc70      	pop	{r4, r5, r6}
 8003bc2:	4770      	bx	lr
 8003bc4:	40023800 	.word	0x40023800
 8003bc8:	40020000 	.word	0x40020000
 8003bcc:	40020400 	.word	0x40020400

08003bd0 <_pal_lld_setgroupmode>:
 8003bd0:	e92d 4ff0 	stmdb	sp!, {r4, r5, r6, r7, r8, r9, sl, fp, lr}
 8003bd4:	f002 0c03 	and.w	ip, r2, #3
 8003bd8:	f3c2 0780 	ubfx	r7, r2, #2, #1
 8003bdc:	f3c2 06c1 	ubfx	r6, r2, #3, #2
 8003be0:	f3c2 1541 	ubfx	r5, r2, #5, #2
 8003be4:	2400      	movs	r4, #0
 8003be6:	f3c2 12c3 	ubfx	r2, r2, #7, #4
 8003bea:	f04f 0e0f 	mov.w	lr, #15
 8003bee:	f04f 0901 	mov.w	r9, #1
 8003bf2:	f04f 0803 	mov.w	r8, #3
 8003bf6:	e030      	b.n	8003c5a <_pal_lld_setgroupmode+0x8a>
 8003bf8:	f8d0 b020 	ldr.w	fp, [r0, #32]
 8003bfc:	ea0b 0a0a 	and.w	sl, fp, sl
 8003c00:	ea4a 0303 	orr.w	r3, sl, r3
 8003c04:	6203      	str	r3, [r0, #32]
 8003c06:	6843      	ldr	r3, [r0, #4]
 8003c08:	fa09 fa04 	lsl.w	sl, r9, r4
 8003c0c:	ea23 030a 	bic.w	r3, r3, sl
 8003c10:	433b      	orrs	r3, r7
 8003c12:	6043      	str	r3, [r0, #4]
 8003c14:	0063      	lsls	r3, r4, #1
 8003c16:	f8d0 a008 	ldr.w	sl, [r0, #8]
 8003c1a:	fa08 f303 	lsl.w	r3, r8, r3
 8003c1e:	43db      	mvns	r3, r3
 8003c20:	ea0a 0a03 	and.w	sl, sl, r3
 8003c24:	ea4a 0a06 	orr.w	sl, sl, r6
 8003c28:	f8c0 a008 	str.w	sl, [r0, #8]
 8003c2c:	f8d0 a00c 	ldr.w	sl, [r0, #12]
 8003c30:	ea03 0a0a 	and.w	sl, r3, sl
 8003c34:	ea4a 0a05 	orr.w	sl, sl, r5
 8003c38:	f8c0 a00c 	str.w	sl, [r0, #12]
 8003c3c:	f8d0 a000 	ldr.w	sl, [r0]
 8003c40:	ea03 030a 	and.w	r3, r3, sl
 8003c44:	ea43 030c 	orr.w	r3, r3, ip
 8003c48:	6003      	str	r3, [r0, #0]
 8003c4a:	0849      	lsrs	r1, r1, #1
 8003c4c:	d01b      	beq.n	8003c86 <_pal_lld_setgroupmode+0xb6>
 8003c4e:	007f      	lsls	r7, r7, #1
 8003c50:	00b6      	lsls	r6, r6, #2
 8003c52:	00ad      	lsls	r5, r5, #2
 8003c54:	ea4f 0c8c 	mov.w	ip, ip, lsl #2
 8003c58:	3401      	adds	r4, #1
 8003c5a:	f004 0307 	and.w	r3, r4, #7
 8003c5e:	009b      	lsls	r3, r3, #2
 8003c60:	fa0e fa03 	lsl.w	sl, lr, r3
 8003c64:	f011 0f01 	tst.w	r1, #1
 8003c68:	fa02 f303 	lsl.w	r3, r2, r3
 8003c6c:	ea6f 0a0a 	mvn.w	sl, sl
 8003c70:	d0eb      	beq.n	8003c4a <_pal_lld_setgroupmode+0x7a>
 8003c72:	2c07      	cmp	r4, #7
 8003c74:	d9c0      	bls.n	8003bf8 <_pal_lld_setgroupmode+0x28>
 8003c76:	f8d0 b024 	ldr.w	fp, [r0, #36]	; 0x24
 8003c7a:	ea0b 0a0a 	and.w	sl, fp, sl
 8003c7e:	ea4a 0303 	orr.w	r3, sl, r3
 8003c82:	6243      	str	r3, [r0, #36]	; 0x24
 8003c84:	e7bf      	b.n	8003c06 <_pal_lld_setgroupmode+0x36>
 8003c86:	e8bd 8ff0 	ldmia.w	sp!, {r4, r5, r6, r7, r8, r9, sl, fp, pc}
 8003c8a:	bf00      	nop
 8003c8c:	0000      	movs	r0, r0
	...

08003c90 <i2c_lld_serve_tx_end_irq>:
 8003c90:	f011 0f0c 	tst.w	r1, #12
 8003c94:	b538      	push	{r3, r4, r5, lr}
 8003c96:	4605      	mov	r5, r0
 8003c98:	6b84      	ldr	r4, [r0, #56]	; 0x38
 8003c9a:	d112      	bne.n	8003cc2 <i2c_lld_serve_tx_end_irq+0x32>
 8003c9c:	6b69      	ldr	r1, [r5, #52]	; 0x34
 8003c9e:	680a      	ldr	r2, [r1, #0]
 8003ca0:	6813      	ldr	r3, [r2, #0]
 8003ca2:	f023 031f 	bic.w	r3, r3, #31
 8003ca6:	6013      	str	r3, [r2, #0]
 8003ca8:	6813      	ldr	r3, [r2, #0]
 8003caa:	07db      	lsls	r3, r3, #31
 8003cac:	d4fc      	bmi.n	8003ca8 <i2c_lld_serve_tx_end_irq+0x18>
 8003cae:	7a08      	ldrb	r0, [r1, #8]
 8003cb0:	684a      	ldr	r2, [r1, #4]
 8003cb2:	233d      	movs	r3, #61	; 0x3d
 8003cb4:	4083      	lsls	r3, r0
 8003cb6:	6013      	str	r3, [r2, #0]
 8003cb8:	6863      	ldr	r3, [r4, #4]
 8003cba:	f443 7300 	orr.w	r3, r3, #512	; 0x200
 8003cbe:	6063      	str	r3, [r4, #4]
 8003cc0:	bd38      	pop	{r3, r4, r5, pc}
 8003cc2:	4802      	ldr	r0, [pc, #8]	; (8003ccc <i2c_lld_serve_tx_end_irq+0x3c>)
 8003cc4:	f7fd f9fc 	bl	80010c0 <chSysHalt>
 8003cc8:	e7e8      	b.n	8003c9c <i2c_lld_serve_tx_end_irq+0xc>
 8003cca:	bf00      	nop
 8003ccc:	080064d0 	.word	0x080064d0

08003cd0 <i2c_lld_serve_rx_end_irq>:
 8003cd0:	f011 0f0c 	tst.w	r1, #12
 8003cd4:	b570      	push	{r4, r5, r6, lr}
 8003cd6:	4606      	mov	r6, r0
 8003cd8:	6b85      	ldr	r5, [r0, #56]	; 0x38
 8003cda:	d12d      	bne.n	8003d38 <i2c_lld_serve_rx_end_irq+0x68>
 8003cdc:	6b32      	ldr	r2, [r6, #48]	; 0x30
 8003cde:	6813      	ldr	r3, [r2, #0]
 8003ce0:	6819      	ldr	r1, [r3, #0]
 8003ce2:	f021 011f 	bic.w	r1, r1, #31
 8003ce6:	6019      	str	r1, [r3, #0]
 8003ce8:	681c      	ldr	r4, [r3, #0]
 8003cea:	f014 0401 	ands.w	r4, r4, #1
 8003cee:	d1fb      	bne.n	8003ce8 <i2c_lld_serve_rx_end_irq+0x18>
 8003cf0:	7a11      	ldrb	r1, [r2, #8]
 8003cf2:	6852      	ldr	r2, [r2, #4]
 8003cf4:	233d      	movs	r3, #61	; 0x3d
 8003cf6:	408b      	lsls	r3, r1
 8003cf8:	6013      	str	r3, [r2, #0]
 8003cfa:	686b      	ldr	r3, [r5, #4]
 8003cfc:	f423 5380 	bic.w	r3, r3, #4096	; 0x1000
 8003d00:	606b      	str	r3, [r5, #4]
 8003d02:	682b      	ldr	r3, [r5, #0]
 8003d04:	f423 6380 	bic.w	r3, r3, #1024	; 0x400
 8003d08:	602b      	str	r3, [r5, #0]
 8003d0a:	682b      	ldr	r3, [r5, #0]
 8003d0c:	f443 7300 	orr.w	r3, r3, #512	; 0x200
 8003d10:	602b      	str	r3, [r5, #0]
 8003d12:	2320      	movs	r3, #32
 8003d14:	f383 8811 	msr	BASEPRI, r3
 8003d18:	f7fd ffaa 	bl	8001c70 <_stats_start_measure_crit_isr>
 8003d1c:	f7fd fa68 	bl	80011f0 <_dbg_check_lock_from_isr>
 8003d20:	4621      	mov	r1, r4
 8003d22:	f106 0020 	add.w	r0, r6, #32
 8003d26:	f7fd fe8b 	bl	8001a40 <chThdResumeI>
 8003d2a:	f7fd fa79 	bl	8001220 <_dbg_check_unlock_from_isr>
 8003d2e:	f7fd ffa7 	bl	8001c80 <_stats_stop_measure_crit_isr>
 8003d32:	f384 8811 	msr	BASEPRI, r4
 8003d36:	bd70      	pop	{r4, r5, r6, pc}
 8003d38:	4801      	ldr	r0, [pc, #4]	; (8003d40 <i2c_lld_serve_rx_end_irq+0x70>)
 8003d3a:	f7fd f9c1 	bl	80010c0 <chSysHalt>
 8003d3e:	e7cd      	b.n	8003cdc <i2c_lld_serve_rx_end_irq+0xc>
 8003d40:	080064d0 	.word	0x080064d0
	...

08003d50 <VectorBC>:
 8003d50:	b5f8      	push	{r3, r4, r5, r6, r7, lr}
 8003d52:	4d42      	ldr	r5, [pc, #264]	; (8003e5c <VectorBC+0x10c>)
 8003d54:	f7fd ff54 	bl	8001c00 <_stats_increase_irq>
 8003d58:	f7fd fa7a 	bl	8001250 <_dbg_check_enter_isr>
 8003d5c:	6bac      	ldr	r4, [r5, #56]	; 0x38
 8003d5e:	4a40      	ldr	r2, [pc, #256]	; (8003e60 <VectorBC+0x110>)
 8003d60:	69a3      	ldr	r3, [r4, #24]
 8003d62:	6966      	ldr	r6, [r4, #20]
 8003d64:	ea46 4303 	orr.w	r3, r6, r3, lsl #16
 8003d68:	f023 437f 	bic.w	r3, r3, #4278190080	; 0xff000000
 8003d6c:	4293      	cmp	r3, r2
 8003d6e:	d054      	beq.n	8003e1a <VectorBC+0xca>
 8003d70:	d824      	bhi.n	8003dbc <VectorBC+0x6c>
 8003d72:	3a07      	subs	r2, #7
 8003d74:	4293      	cmp	r3, r2
 8003d76:	d044      	beq.n	8003e02 <VectorBC+0xb2>
 8003d78:	3201      	adds	r2, #1
 8003d7a:	4293      	cmp	r3, r2
 8003d7c:	d114      	bne.n	8003da8 <VectorBC+0x58>
 8003d7e:	6862      	ldr	r2, [r4, #4]
 8003d80:	6b2b      	ldr	r3, [r5, #48]	; 0x30
 8003d82:	f422 7200 	bic.w	r2, r2, #512	; 0x200
 8003d86:	681b      	ldr	r3, [r3, #0]
 8003d88:	6062      	str	r2, [r4, #4]
 8003d8a:	681a      	ldr	r2, [r3, #0]
 8003d8c:	f042 0201 	orr.w	r2, r2, #1
 8003d90:	601a      	str	r2, [r3, #0]
 8003d92:	6862      	ldr	r2, [r4, #4]
 8003d94:	f442 5280 	orr.w	r2, r2, #4096	; 0x1000
 8003d98:	6062      	str	r2, [r4, #4]
 8003d9a:	685b      	ldr	r3, [r3, #4]
 8003d9c:	2b01      	cmp	r3, #1
 8003d9e:	d803      	bhi.n	8003da8 <VectorBC+0x58>
 8003da0:	6823      	ldr	r3, [r4, #0]
 8003da2:	f423 6380 	bic.w	r3, r3, #1024	; 0x400
 8003da6:	6023      	str	r3, [r4, #0]
 8003da8:	f016 0f0a 	tst.w	r6, #10
 8003dac:	bf18      	it	ne
 8003dae:	69a3      	ldrne	r3, [r4, #24]
 8003db0:	f7fd fa66 	bl	8001280 <_dbg_check_leave_isr>
 8003db4:	e8bd 40f8 	ldmia.w	sp!, {r3, r4, r5, r6, r7, lr}
 8003db8:	f7fe bca2 	b.w	8002700 <_port_irq_epilogue>
 8003dbc:	4a29      	ldr	r2, [pc, #164]	; (8003e64 <VectorBC+0x114>)
 8003dbe:	4293      	cmp	r3, r2
 8003dc0:	d014      	beq.n	8003dec <VectorBC+0x9c>
 8003dc2:	3202      	adds	r2, #2
 8003dc4:	4293      	cmp	r3, r2
 8003dc6:	d1ef      	bne.n	8003da8 <VectorBC+0x58>
 8003dc8:	6b2b      	ldr	r3, [r5, #48]	; 0x30
 8003dca:	681b      	ldr	r3, [r3, #0]
 8003dcc:	685f      	ldr	r7, [r3, #4]
 8003dce:	b34f      	cbz	r7, 8003e24 <VectorBC+0xd4>
 8003dd0:	8caa      	ldrh	r2, [r5, #36]	; 0x24
 8003dd2:	6823      	ldr	r3, [r4, #0]
 8003dd4:	f042 0201 	orr.w	r2, r2, #1
 8003dd8:	f443 63a0 	orr.w	r3, r3, #1280	; 0x500
 8003ddc:	84aa      	strh	r2, [r5, #36]	; 0x24
 8003dde:	6023      	str	r3, [r4, #0]
 8003de0:	f7fd fa4e 	bl	8001280 <_dbg_check_leave_isr>
 8003de4:	e8bd 40f8 	ldmia.w	sp!, {r3, r4, r5, r6, r7, lr}
 8003de8:	f7fe bc8a 	b.w	8002700 <_port_irq_epilogue>
 8003dec:	6863      	ldr	r3, [r4, #4]
 8003dee:	6b6a      	ldr	r2, [r5, #52]	; 0x34
 8003df0:	f423 7300 	bic.w	r3, r3, #512	; 0x200
 8003df4:	6812      	ldr	r2, [r2, #0]
 8003df6:	6063      	str	r3, [r4, #4]
 8003df8:	6813      	ldr	r3, [r2, #0]
 8003dfa:	f043 0301 	orr.w	r3, r3, #1
 8003dfe:	6013      	str	r3, [r2, #0]
 8003e00:	e7d2      	b.n	8003da8 <VectorBC+0x58>
 8003e02:	8cab      	ldrh	r3, [r5, #36]	; 0x24
 8003e04:	0a1a      	lsrs	r2, r3, #8
 8003e06:	d00b      	beq.n	8003e20 <VectorBC+0xd0>
 8003e08:	f003 0301 	and.w	r3, r3, #1
 8003e0c:	f043 03f0 	orr.w	r3, r3, #240	; 0xf0
 8003e10:	f002 0206 	and.w	r2, r2, #6
 8003e14:	4313      	orrs	r3, r2
 8003e16:	6123      	str	r3, [r4, #16]
 8003e18:	e7c6      	b.n	8003da8 <VectorBC+0x58>
 8003e1a:	8cab      	ldrh	r3, [r5, #36]	; 0x24
 8003e1c:	f3c3 0347 	ubfx	r3, r3, #1, #8
 8003e20:	6123      	str	r3, [r4, #16]
 8003e22:	e7c1      	b.n	8003da8 <VectorBC+0x58>
 8003e24:	6863      	ldr	r3, [r4, #4]
 8003e26:	f423 7300 	bic.w	r3, r3, #512	; 0x200
 8003e2a:	6063      	str	r3, [r4, #4]
 8003e2c:	6823      	ldr	r3, [r4, #0]
 8003e2e:	f443 7300 	orr.w	r3, r3, #512	; 0x200
 8003e32:	6023      	str	r3, [r4, #0]
 8003e34:	2320      	movs	r3, #32
 8003e36:	f383 8811 	msr	BASEPRI, r3
 8003e3a:	f7fd ff19 	bl	8001c70 <_stats_start_measure_crit_isr>
 8003e3e:	f7fd f9d7 	bl	80011f0 <_dbg_check_lock_from_isr>
 8003e42:	4639      	mov	r1, r7
 8003e44:	f105 0020 	add.w	r0, r5, #32
 8003e48:	f7fd fdfa 	bl	8001a40 <chThdResumeI>
 8003e4c:	f7fd f9e8 	bl	8001220 <_dbg_check_unlock_from_isr>
 8003e50:	f7fd ff16 	bl	8001c80 <_stats_stop_measure_crit_isr>
 8003e54:	f387 8811 	msr	BASEPRI, r7
 8003e58:	e7a6      	b.n	8003da8 <VectorBC+0x58>
 8003e5a:	bf00      	nop
 8003e5c:	20000f54 	.word	0x20000f54
 8003e60:	00030008 	.word	0x00030008
 8003e64:	00070082 	.word	0x00070082
	...

08003e70 <VectorC0>:
 8003e70:	b5f8      	push	{r3, r4, r5, r6, r7, lr}
 8003e72:	4c3c      	ldr	r4, [pc, #240]	; (8003f64 <VectorC0+0xf4>)
 8003e74:	6ba3      	ldr	r3, [r4, #56]	; 0x38
 8003e76:	695d      	ldr	r5, [r3, #20]
 8003e78:	f7fd fec2 	bl	8001c00 <_stats_increase_irq>
 8003e7c:	f7fd f9e8 	bl	8001250 <_dbg_check_enter_isr>
 8003e80:	e9d4 700d 	ldrd	r7, r0, [r4, #52]	; 0x34
 8003e84:	f405 435f 	and.w	r3, r5, #57088	; 0xdf00
 8003e88:	683a      	ldr	r2, [r7, #0]
 8003e8a:	43db      	mvns	r3, r3
 8003e8c:	6143      	str	r3, [r0, #20]
 8003e8e:	6813      	ldr	r3, [r2, #0]
 8003e90:	f023 031f 	bic.w	r3, r3, #31
 8003e94:	6013      	str	r3, [r2, #0]
 8003e96:	b2a9      	uxth	r1, r5
 8003e98:	6813      	ldr	r3, [r2, #0]
 8003e9a:	07db      	lsls	r3, r3, #31
 8003e9c:	d4fc      	bmi.n	8003e98 <VectorC0+0x28>
 8003e9e:	7a3a      	ldrb	r2, [r7, #8]
 8003ea0:	6b26      	ldr	r6, [r4, #48]	; 0x30
 8003ea2:	687f      	ldr	r7, [r7, #4]
 8003ea4:	233d      	movs	r3, #61	; 0x3d
 8003ea6:	4093      	lsls	r3, r2
 8003ea8:	6832      	ldr	r2, [r6, #0]
 8003eaa:	603b      	str	r3, [r7, #0]
 8003eac:	6813      	ldr	r3, [r2, #0]
 8003eae:	f023 031f 	bic.w	r3, r3, #31
 8003eb2:	6013      	str	r3, [r2, #0]
 8003eb4:	6813      	ldr	r3, [r2, #0]
 8003eb6:	07df      	lsls	r7, r3, #31
 8003eb8:	d4fc      	bmi.n	8003eb4 <VectorC0+0x44>
 8003eba:	7a37      	ldrb	r7, [r6, #8]
 8003ebc:	6872      	ldr	r2, [r6, #4]
 8003ebe:	233d      	movs	r3, #61	; 0x3d
 8003ec0:	40bb      	lsls	r3, r7
 8003ec2:	6013      	str	r3, [r2, #0]
 8003ec4:	f411 7380 	ands.w	r3, r1, #256	; 0x100
 8003ec8:	bf18      	it	ne
 8003eca:	2301      	movne	r3, #1
 8003ecc:	058a      	lsls	r2, r1, #22
 8003ece:	60a3      	str	r3, [r4, #8]
 8003ed0:	bf44      	itt	mi
 8003ed2:	f043 0302 	orrmi.w	r3, r3, #2
 8003ed6:	60a3      	strmi	r3, [r4, #8]
 8003ed8:	054f      	lsls	r7, r1, #21
 8003eda:	d50a      	bpl.n	8003ef2 <VectorC0+0x82>
 8003edc:	6842      	ldr	r2, [r0, #4]
 8003ede:	f422 7200 	bic.w	r2, r2, #512	; 0x200
 8003ee2:	6042      	str	r2, [r0, #4]
 8003ee4:	6802      	ldr	r2, [r0, #0]
 8003ee6:	f043 0304 	orr.w	r3, r3, #4
 8003eea:	f442 7200 	orr.w	r2, r2, #512	; 0x200
 8003eee:	6002      	str	r2, [r0, #0]
 8003ef0:	60a3      	str	r3, [r4, #8]
 8003ef2:	050e      	lsls	r6, r1, #20
 8003ef4:	bf44      	itt	mi
 8003ef6:	f043 0308 	orrmi.w	r3, r3, #8
 8003efa:	60a3      	strmi	r3, [r4, #8]
 8003efc:	0448      	lsls	r0, r1, #17
 8003efe:	bf44      	itt	mi
 8003f00:	f043 0320 	orrmi.w	r3, r3, #32
 8003f04:	60a3      	strmi	r3, [r4, #8]
 8003f06:	04ca      	lsls	r2, r1, #19
 8003f08:	b22d      	sxth	r5, r5
 8003f0a:	d51d      	bpl.n	8003f48 <VectorC0+0xd8>
 8003f0c:	f043 0310 	orr.w	r3, r3, #16
 8003f10:	2d00      	cmp	r5, #0
 8003f12:	60a3      	str	r3, [r4, #8]
 8003f14:	db22      	blt.n	8003f5c <VectorC0+0xec>
 8003f16:	2320      	movs	r3, #32
 8003f18:	f383 8811 	msr	BASEPRI, r3
 8003f1c:	f7fd fea8 	bl	8001c70 <_stats_start_measure_crit_isr>
 8003f20:	f7fd f966 	bl	80011f0 <_dbg_check_lock_from_isr>
 8003f24:	f06f 0101 	mvn.w	r1, #1
 8003f28:	480f      	ldr	r0, [pc, #60]	; (8003f68 <VectorC0+0xf8>)
 8003f2a:	f7fd fd89 	bl	8001a40 <chThdResumeI>
 8003f2e:	f7fd f977 	bl	8001220 <_dbg_check_unlock_from_isr>
 8003f32:	f7fd fea5 	bl	8001c80 <_stats_stop_measure_crit_isr>
 8003f36:	2300      	movs	r3, #0
 8003f38:	f383 8811 	msr	BASEPRI, r3
 8003f3c:	f7fd f9a0 	bl	8001280 <_dbg_check_leave_isr>
 8003f40:	e8bd 40f8 	ldmia.w	sp!, {r3, r4, r5, r6, r7, lr}
 8003f44:	f7fe bbdc 	b.w	8002700 <_port_irq_epilogue>
 8003f48:	2d00      	cmp	r5, #0
 8003f4a:	db07      	blt.n	8003f5c <VectorC0+0xec>
 8003f4c:	2b00      	cmp	r3, #0
 8003f4e:	d1e2      	bne.n	8003f16 <VectorC0+0xa6>
 8003f50:	f7fd f996 	bl	8001280 <_dbg_check_leave_isr>
 8003f54:	e8bd 40f8 	ldmia.w	sp!, {r3, r4, r5, r6, r7, lr}
 8003f58:	f7fe bbd2 	b.w	8002700 <_port_irq_epilogue>
 8003f5c:	f043 0340 	orr.w	r3, r3, #64	; 0x40
 8003f60:	60a3      	str	r3, [r4, #8]
 8003f62:	e7d8      	b.n	8003f16 <VectorC0+0xa6>
 8003f64:	20000f54 	.word	0x20000f54
 8003f68:	20000f74 	.word	0x20000f74
 8003f6c:	00000000 	.word	0x00000000

08003f70 <i2c_lld_init>:
 8003f70:	b510      	push	{r4, lr}
 8003f72:	4c07      	ldr	r4, [pc, #28]	; (8003f90 <i2c_lld_init+0x20>)
 8003f74:	4620      	mov	r0, r4
 8003f76:	f7fe fcb3 	bl	80028e0 <i2cObjectInit>
 8003f7a:	4b06      	ldr	r3, [pc, #24]	; (8003f94 <i2c_lld_init+0x24>)
 8003f7c:	4a06      	ldr	r2, [pc, #24]	; (8003f98 <i2c_lld_init+0x28>)
 8003f7e:	63a2      	str	r2, [r4, #56]	; 0x38
 8003f80:	2100      	movs	r1, #0
 8003f82:	f103 0254 	add.w	r2, r3, #84	; 0x54
 8003f86:	6221      	str	r1, [r4, #32]
 8003f88:	e9c4 320c 	strd	r3, r2, [r4, #48]	; 0x30
 8003f8c:	bd10      	pop	{r4, pc}
 8003f8e:	bf00      	nop
 8003f90:	20000f54 	.word	0x20000f54
 8003f94:	080063d0 	.word	0x080063d0
 8003f98:	40005400 	.word	0x40005400
 8003f9c:	00000000 	.word	0x00000000

08003fa0 <i2c_lld_start>:
 8003fa0:	7803      	ldrb	r3, [r0, #0]
 8003fa2:	f240 4256 	movw	r2, #1110	; 0x456
 8003fa6:	e92d 41f0 	stmdb	sp!, {r4, r5, r6, r7, r8, lr}
 8003faa:	2b01      	cmp	r3, #1
 8003fac:	62c2      	str	r2, [r0, #44]	; 0x2c
 8003fae:	f240 4216 	movw	r2, #1046	; 0x416
 8003fb2:	4604      	mov	r4, r0
 8003fb4:	6282      	str	r2, [r0, #40]	; 0x28
 8003fb6:	6b85      	ldr	r5, [r0, #56]	; 0x38
 8003fb8:	d07e      	beq.n	80040b8 <i2c_lld_start+0x118>
 8003fba:	462f      	mov	r7, r5
 8003fbc:	e9d4 120c 	ldrd	r1, r2, [r4, #48]	; 0x30
 8003fc0:	6863      	ldr	r3, [r4, #4]
 8003fc2:	6808      	ldr	r0, [r1, #0]
 8003fc4:	6811      	ldr	r1, [r2, #0]
 8003fc6:	685e      	ldr	r6, [r3, #4]
 8003fc8:	f893 8008 	ldrb.w	r8, [r3, #8]
 8003fcc:	4a7a      	ldr	r2, [pc, #488]	; (80041b8 <i2c_lld_start+0x218>)
 8003fce:	f105 0310 	add.w	r3, r5, #16
 8003fd2:	6083      	str	r3, [r0, #8]
 8003fd4:	608b      	str	r3, [r1, #8]
 8003fd6:	f44f 4100 	mov.w	r1, #32768	; 0x8000
 8003fda:	6029      	str	r1, [r5, #0]
 8003fdc:	1e73      	subs	r3, r6, #1
 8003fde:	2100      	movs	r1, #0
 8003fe0:	6029      	str	r1, [r5, #0]
 8003fe2:	4293      	cmp	r3, r2
 8003fe4:	f44f 6110 	mov.w	r1, #2304	; 0x900
 8003fe8:	6069      	str	r1, [r5, #4]
 8003fea:	d902      	bls.n	8003ff2 <i2c_lld_start+0x52>
 8003fec:	4873      	ldr	r0, [pc, #460]	; (80041bc <i2c_lld_start+0x21c>)
 8003fee:	f7fd f867 	bl	80010c0 <chSysHalt>
 8003ff2:	687b      	ldr	r3, [r7, #4]
 8003ff4:	4a72      	ldr	r2, [pc, #456]	; (80041c0 <i2c_lld_start+0x220>)
 8003ff6:	f64f 71c0 	movw	r1, #65472	; 0xffc0
 8003ffa:	400b      	ands	r3, r1
 8003ffc:	607b      	str	r3, [r7, #4]
 8003ffe:	687b      	ldr	r3, [r7, #4]
 8004000:	4296      	cmp	r6, r2
 8004002:	f043 032a 	orr.w	r3, r3, #42	; 0x2a
 8004006:	607b      	str	r3, [r7, #4]
 8004008:	dc35      	bgt.n	8004076 <i2c_lld_start+0xd6>
 800400a:	f1b8 0f01 	cmp.w	r8, #1
 800400e:	f040 8084 	bne.w	800411a <i2c_lld_start+0x17a>
 8004012:	4a6c      	ldr	r2, [pc, #432]	; (80041c4 <i2c_lld_start+0x224>)
 8004014:	ea4f 0846 	mov.w	r8, r6, lsl #1
 8004018:	fbb2 f3f8 	udiv	r3, r2, r8
 800401c:	fb08 2313 	mls	r3, r8, r3, r2
 8004020:	2b00      	cmp	r3, #0
 8004022:	f040 808a 	bne.w	800413a <i2c_lld_start+0x19a>
 8004026:	4e67      	ldr	r6, [pc, #412]	; (80041c4 <i2c_lld_start+0x224>)
 8004028:	fbb6 f6f8 	udiv	r6, r6, r8
 800402c:	b2b6      	uxth	r6, r6
 800402e:	2e03      	cmp	r6, #3
 8004030:	f240 808d 	bls.w	800414e <i2c_lld_start+0x1ae>
 8004034:	232b      	movs	r3, #43	; 0x2b
 8004036:	f5b6 5f80 	cmp.w	r6, #4096	; 0x1000
 800403a:	623b      	str	r3, [r7, #32]
 800403c:	f3c6 080b 	ubfx	r8, r6, #0, #12
 8004040:	d302      	bcc.n	8004048 <i2c_lld_start+0xa8>
 8004042:	485e      	ldr	r0, [pc, #376]	; (80041bc <i2c_lld_start+0x21c>)
 8004044:	f7fd f83c 	bl	80010c0 <chSysHalt>
 8004048:	6863      	ldr	r3, [r4, #4]
 800404a:	6ba1      	ldr	r1, [r4, #56]	; 0x38
 800404c:	781a      	ldrb	r2, [r3, #0]
 800404e:	f8c7 801c 	str.w	r8, [r7, #28]
 8004052:	680b      	ldr	r3, [r1, #0]
 8004054:	2a02      	cmp	r2, #2
 8004056:	b29b      	uxth	r3, r3
 8004058:	d069      	beq.n	800412e <i2c_lld_start+0x18e>
 800405a:	2a03      	cmp	r2, #3
 800405c:	d064      	beq.n	8004128 <i2c_lld_start+0x188>
 800405e:	2a01      	cmp	r2, #1
 8004060:	d102      	bne.n	8004068 <i2c_lld_start+0xc8>
 8004062:	f023 030a 	bic.w	r3, r3, #10
 8004066:	b29b      	uxth	r3, r3
 8004068:	600b      	str	r3, [r1, #0]
 800406a:	682b      	ldr	r3, [r5, #0]
 800406c:	f043 0301 	orr.w	r3, r3, #1
 8004070:	602b      	str	r3, [r5, #0]
 8004072:	e8bd 81f0 	ldmia.w	sp!, {r4, r5, r6, r7, r8, pc}
 8004076:	4b54      	ldr	r3, [pc, #336]	; (80041c8 <i2c_lld_start+0x228>)
 8004078:	429e      	cmp	r6, r3
 800407a:	dc52      	bgt.n	8004122 <i2c_lld_start+0x182>
 800407c:	f1a8 0302 	sub.w	r3, r8, #2
 8004080:	2b01      	cmp	r3, #1
 8004082:	d86c      	bhi.n	800415e <i2c_lld_start+0x1be>
 8004084:	f1b8 0f02 	cmp.w	r8, #2
 8004088:	d171      	bne.n	800416e <i2c_lld_start+0x1ce>
 800408a:	4a4e      	ldr	r2, [pc, #312]	; (80041c4 <i2c_lld_start+0x224>)
 800408c:	eb06 0646 	add.w	r6, r6, r6, lsl #1
 8004090:	fbb2 f3f6 	udiv	r3, r2, r6
 8004094:	fb06 2313 	mls	r3, r6, r3, r2
 8004098:	2b00      	cmp	r3, #0
 800409a:	f040 8089 	bne.w	80041b0 <i2c_lld_start+0x210>
 800409e:	4b49      	ldr	r3, [pc, #292]	; (80041c4 <i2c_lld_start+0x224>)
 80040a0:	fbb3 f8f6 	udiv	r8, r3, r6
 80040a4:	2300      	movs	r3, #0
 80040a6:	fa1f f888 	uxth.w	r8, r8
 80040aa:	ea48 0803 	orr.w	r8, r8, r3
 80040ae:	230d      	movs	r3, #13
 80040b0:	f448 4800 	orr.w	r8, r8, #32768	; 0x8000
 80040b4:	623b      	str	r3, [r7, #32]
 80040b6:	e7c7      	b.n	8004048 <i2c_lld_start+0xa8>
 80040b8:	4e44      	ldr	r6, [pc, #272]	; (80041cc <i2c_lld_start+0x22c>)
 80040ba:	42b0      	cmp	r0, r6
 80040bc:	f47f af7d 	bne.w	8003fba <i2c_lld_start+0x1a>
 80040c0:	4b43      	ldr	r3, [pc, #268]	; (80041d0 <i2c_lld_start+0x230>)
 80040c2:	6b00      	ldr	r0, [r0, #48]	; 0x30
 80040c4:	6a19      	ldr	r1, [r3, #32]
 80040c6:	4a43      	ldr	r2, [pc, #268]	; (80041d4 <i2c_lld_start+0x234>)
 80040c8:	f441 1100 	orr.w	r1, r1, #2097152	; 0x200000
 80040cc:	2700      	movs	r7, #0
 80040ce:	6219      	str	r1, [r3, #32]
 80040d0:	621f      	str	r7, [r3, #32]
 80040d2:	2105      	movs	r1, #5
 80040d4:	4623      	mov	r3, r4
 80040d6:	f7ff fb6b 	bl	80037b0 <dmaStreamAllocate>
 80040da:	2800      	cmp	r0, #0
 80040dc:	d164      	bne.n	80041a8 <i2c_lld_start+0x208>
 80040de:	4b3b      	ldr	r3, [pc, #236]	; (80041cc <i2c_lld_start+0x22c>)
 80040e0:	4a3d      	ldr	r2, [pc, #244]	; (80041d8 <i2c_lld_start+0x238>)
 80040e2:	6b70      	ldr	r0, [r6, #52]	; 0x34
 80040e4:	2105      	movs	r1, #5
 80040e6:	f7ff fb63 	bl	80037b0 <dmaStreamAllocate>
 80040ea:	2800      	cmp	r0, #0
 80040ec:	d158      	bne.n	80041a0 <i2c_lld_start+0x200>
 80040ee:	4a38      	ldr	r2, [pc, #224]	; (80041d0 <i2c_lld_start+0x230>)
 80040f0:	6c13      	ldr	r3, [r2, #64]	; 0x40
 80040f2:	f443 1300 	orr.w	r3, r3, #2097152	; 0x200000
 80040f6:	6413      	str	r3, [r2, #64]	; 0x40
 80040f8:	2105      	movs	r1, #5
 80040fa:	201f      	movs	r0, #31
 80040fc:	f7ff f8d8 	bl	80032b0 <nvicEnableVector>
 8004100:	2105      	movs	r1, #5
 8004102:	2020      	movs	r0, #32
 8004104:	f7ff f8d4 	bl	80032b0 <nvicEnableVector>
 8004108:	6ab2      	ldr	r2, [r6, #40]	; 0x28
 800410a:	4934      	ldr	r1, [pc, #208]	; (80041dc <i2c_lld_start+0x23c>)
 800410c:	6af3      	ldr	r3, [r6, #44]	; 0x2c
 800410e:	6bb7      	ldr	r7, [r6, #56]	; 0x38
 8004110:	430a      	orrs	r2, r1
 8004112:	430b      	orrs	r3, r1
 8004114:	e9c6 230a 	strd	r2, r3, [r6, #40]	; 0x28
 8004118:	e750      	b.n	8003fbc <i2c_lld_start+0x1c>
 800411a:	4828      	ldr	r0, [pc, #160]	; (80041bc <i2c_lld_start+0x21c>)
 800411c:	f7fc ffd0 	bl	80010c0 <chSysHalt>
 8004120:	e777      	b.n	8004012 <i2c_lld_start+0x72>
 8004122:	f04f 0800 	mov.w	r8, #0
 8004126:	e78f      	b.n	8004048 <i2c_lld_start+0xa8>
 8004128:	f043 030a 	orr.w	r3, r3, #10
 800412c:	e79c      	b.n	8004068 <i2c_lld_start+0xc8>
 800412e:	f023 0308 	bic.w	r3, r3, #8
 8004132:	b29b      	uxth	r3, r3
 8004134:	f043 0302 	orr.w	r3, r3, #2
 8004138:	e796      	b.n	8004068 <i2c_lld_start+0xc8>
 800413a:	4820      	ldr	r0, [pc, #128]	; (80041bc <i2c_lld_start+0x21c>)
 800413c:	4e21      	ldr	r6, [pc, #132]	; (80041c4 <i2c_lld_start+0x224>)
 800413e:	f7fc ffbf 	bl	80010c0 <chSysHalt>
 8004142:	fbb6 f6f8 	udiv	r6, r6, r8
 8004146:	b2b6      	uxth	r6, r6
 8004148:	2e03      	cmp	r6, #3
 800414a:	f63f af73 	bhi.w	8004034 <i2c_lld_start+0x94>
 800414e:	481b      	ldr	r0, [pc, #108]	; (80041bc <i2c_lld_start+0x21c>)
 8004150:	f7fc ffb6 	bl	80010c0 <chSysHalt>
 8004154:	232b      	movs	r3, #43	; 0x2b
 8004156:	f3c6 080b 	ubfx	r8, r6, #0, #12
 800415a:	623b      	str	r3, [r7, #32]
 800415c:	e774      	b.n	8004048 <i2c_lld_start+0xa8>
 800415e:	4817      	ldr	r0, [pc, #92]	; (80041bc <i2c_lld_start+0x21c>)
 8004160:	f7fc ffae 	bl	80010c0 <chSysHalt>
 8004164:	230d      	movs	r3, #13
 8004166:	623b      	str	r3, [r7, #32]
 8004168:	f648 78ff 	movw	r8, #36863	; 0x8fff
 800416c:	e76c      	b.n	8004048 <i2c_lld_start+0xa8>
 800416e:	f1b8 0f03 	cmp.w	r8, #3
 8004172:	d1f7      	bne.n	8004164 <i2c_lld_start+0x1c4>
 8004174:	4a13      	ldr	r2, [pc, #76]	; (80041c4 <i2c_lld_start+0x224>)
 8004176:	eb06 0686 	add.w	r6, r6, r6, lsl #2
 800417a:	eb06 0686 	add.w	r6, r6, r6, lsl #2
 800417e:	fbb2 f3f6 	udiv	r3, r2, r6
 8004182:	fb06 2313 	mls	r3, r6, r3, r2
 8004186:	b93b      	cbnz	r3, 8004198 <i2c_lld_start+0x1f8>
 8004188:	4b0e      	ldr	r3, [pc, #56]	; (80041c4 <i2c_lld_start+0x224>)
 800418a:	fbb3 f6f6 	udiv	r6, r3, r6
 800418e:	f44f 4380 	mov.w	r3, #16384	; 0x4000
 8004192:	fa1f f886 	uxth.w	r8, r6
 8004196:	e788      	b.n	80040aa <i2c_lld_start+0x10a>
 8004198:	4808      	ldr	r0, [pc, #32]	; (80041bc <i2c_lld_start+0x21c>)
 800419a:	f7fc ff91 	bl	80010c0 <chSysHalt>
 800419e:	e7f3      	b.n	8004188 <i2c_lld_start+0x1e8>
 80041a0:	480f      	ldr	r0, [pc, #60]	; (80041e0 <i2c_lld_start+0x240>)
 80041a2:	f7fc ff8d 	bl	80010c0 <chSysHalt>
 80041a6:	e7a2      	b.n	80040ee <i2c_lld_start+0x14e>
 80041a8:	480d      	ldr	r0, [pc, #52]	; (80041e0 <i2c_lld_start+0x240>)
 80041aa:	f7fc ff89 	bl	80010c0 <chSysHalt>
 80041ae:	e796      	b.n	80040de <i2c_lld_start+0x13e>
 80041b0:	4802      	ldr	r0, [pc, #8]	; (80041bc <i2c_lld_start+0x21c>)
 80041b2:	f7fc ff85 	bl	80010c0 <chSysHalt>
 80041b6:	e772      	b.n	800409e <i2c_lld_start+0xfe>
 80041b8:	003d08ff 	.word	0x003d08ff
 80041bc:	080064a0 	.word	0x080064a0
 80041c0:	000186a0 	.word	0x000186a0
 80041c4:	0280de80 	.word	0x0280de80
 80041c8:	00061a80 	.word	0x00061a80
 80041cc:	20000f54 	.word	0x20000f54
 80041d0:	40023800 	.word	0x40023800
 80041d4:	08003cd1 	.word	0x08003cd1
 80041d8:	08003c91 	.word	0x08003c91
 80041dc:	02030000 	.word	0x02030000
 80041e0:	080064c0 	.word	0x080064c0
	...

080041f0 <i2c_lld_stop>:
 80041f0:	b538      	push	{r3, r4, r5, lr}
 80041f2:	7803      	ldrb	r3, [r0, #0]
 80041f4:	2b01      	cmp	r3, #1
 80041f6:	d02d      	beq.n	8004254 <i2c_lld_stop+0x64>
 80041f8:	e9d0 130d 	ldrd	r1, r3, [r0, #52]	; 0x34
 80041fc:	2400      	movs	r4, #0
 80041fe:	680a      	ldr	r2, [r1, #0]
 8004200:	f44f 4500 	mov.w	r5, #32768	; 0x8000
 8004204:	601d      	str	r5, [r3, #0]
 8004206:	601c      	str	r4, [r3, #0]
 8004208:	605c      	str	r4, [r3, #4]
 800420a:	615c      	str	r4, [r3, #20]
 800420c:	6813      	ldr	r3, [r2, #0]
 800420e:	f023 031f 	bic.w	r3, r3, #31
 8004212:	6013      	str	r3, [r2, #0]
 8004214:	6813      	ldr	r3, [r2, #0]
 8004216:	07dc      	lsls	r4, r3, #31
 8004218:	d4fc      	bmi.n	8004214 <i2c_lld_stop+0x24>
 800421a:	7a0a      	ldrb	r2, [r1, #8]
 800421c:	6b05      	ldr	r5, [r0, #48]	; 0x30
 800421e:	684c      	ldr	r4, [r1, #4]
 8004220:	233d      	movs	r3, #61	; 0x3d
 8004222:	4093      	lsls	r3, r2
 8004224:	682a      	ldr	r2, [r5, #0]
 8004226:	6023      	str	r3, [r4, #0]
 8004228:	6813      	ldr	r3, [r2, #0]
 800422a:	f023 031f 	bic.w	r3, r3, #31
 800422e:	6013      	str	r3, [r2, #0]
 8004230:	6813      	ldr	r3, [r2, #0]
 8004232:	07db      	lsls	r3, r3, #31
 8004234:	d4fc      	bmi.n	8004230 <i2c_lld_stop+0x40>
 8004236:	4604      	mov	r4, r0
 8004238:	7a28      	ldrb	r0, [r5, #8]
 800423a:	686a      	ldr	r2, [r5, #4]
 800423c:	233d      	movs	r3, #61	; 0x3d
 800423e:	4083      	lsls	r3, r0
 8004240:	6013      	str	r3, [r2, #0]
 8004242:	4608      	mov	r0, r1
 8004244:	f7ff fb0c 	bl	8003860 <dmaStreamRelease>
 8004248:	6b20      	ldr	r0, [r4, #48]	; 0x30
 800424a:	f7ff fb09 	bl	8003860 <dmaStreamRelease>
 800424e:	4b08      	ldr	r3, [pc, #32]	; (8004270 <i2c_lld_stop+0x80>)
 8004250:	429c      	cmp	r4, r3
 8004252:	d000      	beq.n	8004256 <i2c_lld_stop+0x66>
 8004254:	bd38      	pop	{r3, r4, r5, pc}
 8004256:	201f      	movs	r0, #31
 8004258:	f7ff f84a 	bl	80032f0 <nvicDisableVector>
 800425c:	2020      	movs	r0, #32
 800425e:	f7ff f847 	bl	80032f0 <nvicDisableVector>
 8004262:	4a04      	ldr	r2, [pc, #16]	; (8004274 <i2c_lld_stop+0x84>)
 8004264:	6c13      	ldr	r3, [r2, #64]	; 0x40
 8004266:	f423 1300 	bic.w	r3, r3, #2097152	; 0x200000
 800426a:	6413      	str	r3, [r2, #64]	; 0x40
 800426c:	bd38      	pop	{r3, r4, r5, pc}
 800426e:	bf00      	nop
 8004270:	20000f54 	.word	0x20000f54
 8004274:	40023800 	.word	0x40023800
	...

08004280 <i2c_lld_master_transmit_timeout>:
 8004280:	e92d 4ff8 	stmdb	sp!, {r3, r4, r5, r6, r7, r8, r9, sl, fp, lr}
 8004284:	4681      	mov	r9, r0
 8004286:	0049      	lsls	r1, r1, #1
 8004288:	2000      	movs	r0, #0
 800428a:	4c36      	ldr	r4, [pc, #216]	; (8004364 <i2c_lld_master_transmit_timeout+0xe4>)
 800428c:	f8a9 1024 	strh.w	r1, [r9, #36]	; 0x24
 8004290:	f8c9 0008 	str.w	r0, [r9, #8]
 8004294:	4698      	mov	r8, r3
 8004296:	4692      	mov	sl, r2
 8004298:	f8d9 5038 	ldr.w	r5, [r9, #56]	; 0x38
 800429c:	f8dd b030 	ldr.w	fp, [sp, #48]	; 0x30
 80042a0:	e9dd 670a 	ldrd	r6, r7, [sp, #40]	; 0x28
 80042a4:	f7fc ff8c 	bl	80011c0 <_dbg_check_unlock>
 80042a8:	f7fd fcda 	bl	8001c60 <_stats_stop_measure_crit_thd>
 80042ac:	6823      	ldr	r3, [r4, #0]
 80042ae:	42a3      	cmp	r3, r4
 80042b0:	d004      	beq.n	80042bc <i2c_lld_master_transmit_timeout+0x3c>
 80042b2:	69a2      	ldr	r2, [r4, #24]
 80042b4:	689b      	ldr	r3, [r3, #8]
 80042b6:	6892      	ldr	r2, [r2, #8]
 80042b8:	429a      	cmp	r2, r3
 80042ba:	d33f      	bcc.n	800433c <i2c_lld_master_transmit_timeout+0xbc>
 80042bc:	2000      	movs	r0, #0
 80042be:	f380 8811 	msr	BASEPRI, r0
 80042c2:	e9d9 320c 	ldrd	r3, r2, [r9, #48]	; 0x30
 80042c6:	6812      	ldr	r2, [r2, #0]
 80042c8:	f8d9 102c 	ldr.w	r1, [r9, #44]	; 0x2c
 80042cc:	681b      	ldr	r3, [r3, #0]
 80042ce:	6011      	str	r1, [r2, #0]
 80042d0:	f8d9 1028 	ldr.w	r1, [r9, #40]	; 0x28
 80042d4:	f8c2 a00c 	str.w	sl, [r2, #12]
 80042d8:	f8c2 8004 	str.w	r8, [r2, #4]
 80042dc:	6019      	str	r1, [r3, #0]
 80042de:	60de      	str	r6, [r3, #12]
 80042e0:	605f      	str	r7, [r3, #4]
 80042e2:	f8d4 8028 	ldr.w	r8, [r4, #40]	; 0x28
 80042e6:	f8df a080 	ldr.w	sl, [pc, #128]	; 8004368 <i2c_lld_master_transmit_timeout+0xe8>
 80042ea:	4606      	mov	r6, r0
 80042ec:	2720      	movs	r7, #32
 80042ee:	e010      	b.n	8004312 <i2c_lld_master_transmit_timeout+0x92>
 80042f0:	f7fc ff66 	bl	80011c0 <_dbg_check_unlock>
 80042f4:	f7fd fcb4 	bl	8001c60 <_stats_stop_measure_crit_thd>
 80042f8:	6823      	ldr	r3, [r4, #0]
 80042fa:	42a3      	cmp	r3, r4
 80042fc:	d007      	beq.n	800430e <i2c_lld_master_transmit_timeout+0x8e>
 80042fe:	69a2      	ldr	r2, [r4, #24]
 8004300:	689b      	ldr	r3, [r3, #8]
 8004302:	6892      	ldr	r2, [r2, #8]
 8004304:	429a      	cmp	r2, r3
 8004306:	d202      	bcs.n	800430e <i2c_lld_master_transmit_timeout+0x8e>
 8004308:	4650      	mov	r0, sl
 800430a:	f7fc fed9 	bl	80010c0 <chSysHalt>
 800430e:	f386 8811 	msr	BASEPRI, r6
 8004312:	f387 8811 	msr	BASEPRI, r7
 8004316:	f7fd fc9b 	bl	8001c50 <_stats_start_measure_crit_thd>
 800431a:	f7fc ff41 	bl	80011a0 <_dbg_check_lock>
 800431e:	69ab      	ldr	r3, [r5, #24]
 8004320:	079a      	lsls	r2, r3, #30
 8004322:	d402      	bmi.n	800432a <i2c_lld_master_transmit_timeout+0xaa>
 8004324:	682b      	ldr	r3, [r5, #0]
 8004326:	059b      	lsls	r3, r3, #22
 8004328:	d50c      	bpl.n	8004344 <i2c_lld_master_transmit_timeout+0xc4>
 800432a:	6aa3      	ldr	r3, [r4, #40]	; 0x28
 800432c:	eba3 0308 	sub.w	r3, r3, r8
 8004330:	2b31      	cmp	r3, #49	; 0x31
 8004332:	d9dd      	bls.n	80042f0 <i2c_lld_master_transmit_timeout+0x70>
 8004334:	f04f 30ff 	mov.w	r0, #4294967295	; 0xffffffff
 8004338:	e8bd 8ff8 	ldmia.w	sp!, {r3, r4, r5, r6, r7, r8, r9, sl, fp, pc}
 800433c:	480a      	ldr	r0, [pc, #40]	; (8004368 <i2c_lld_master_transmit_timeout+0xe8>)
 800433e:	f7fc febf 	bl	80010c0 <chSysHalt>
 8004342:	e7bb      	b.n	80042bc <i2c_lld_master_transmit_timeout+0x3c>
 8004344:	686b      	ldr	r3, [r5, #4]
 8004346:	f443 7300 	orr.w	r3, r3, #512	; 0x200
 800434a:	606b      	str	r3, [r5, #4]
 800434c:	682b      	ldr	r3, [r5, #0]
 800434e:	f443 7380 	orr.w	r3, r3, #256	; 0x100
 8004352:	4659      	mov	r1, fp
 8004354:	f109 0020 	add.w	r0, r9, #32
 8004358:	602b      	str	r3, [r5, #0]
 800435a:	e8bd 4ff8 	ldmia.w	sp!, {r3, r4, r5, r6, r7, r8, r9, sl, fp, lr}
 800435e:	f7fd bb4f 	b.w	8001a00 <chThdSuspendTimeoutS>
 8004362:	bf00      	nop
 8004364:	20000830 	.word	0x20000830
 8004368:	08006490 	.word	0x08006490
 800436c:	00000000 	.word	0x00000000

08004370 <usb_lld_init>:
 8004370:	b538      	push	{r3, r4, r5, lr}
 8004372:	4c0e      	ldr	r4, [pc, #56]	; (80043ac <usb_lld_init+0x3c>)
 8004374:	4620      	mov	r0, r4
 8004376:	f7fe fccb 	bl	8002d10 <usbObjectInit>
 800437a:	f104 05d0 	add.w	r5, r4, #208	; 0xd0
 800437e:	f04f 43a0 	mov.w	r3, #1342177280	; 0x50000000
 8004382:	4a0b      	ldr	r2, [pc, #44]	; (80043b0 <usb_lld_init+0x40>)
 8004384:	6523      	str	r3, [r4, #80]	; 0x50
 8004386:	4629      	mov	r1, r5
 8004388:	f104 0068 	add.w	r0, r4, #104	; 0x68
 800438c:	2300      	movs	r3, #0
 800438e:	6562      	str	r2, [r4, #84]	; 0x54
 8004390:	22ff      	movs	r2, #255	; 0xff
 8004392:	e9c4 3318 	strd	r3, r3, [r4, #96]	; 0x60
 8004396:	f7fd fa13 	bl	80017c0 <_thread_memfill>
 800439a:	4628      	mov	r0, r5
 800439c:	f504 7118 	add.w	r1, r4, #608	; 0x260
 80043a0:	2255      	movs	r2, #85	; 0x55
 80043a2:	e8bd 4038 	ldmia.w	sp!, {r3, r4, r5, lr}
 80043a6:	f7fd ba0b 	b.w	80017c0 <_thread_memfill>
 80043aa:	bf00      	nop
 80043ac:	20000f90 	.word	0x20000f90
 80043b0:	08006520 	.word	0x08006520
	...

080043c0 <usb_lld_reset>:
 80043c0:	b5f8      	push	{r3, r4, r5, r6, r7, lr}
 80043c2:	6d05      	ldr	r5, [r0, #80]	; 0x50
 80043c4:	2320      	movs	r3, #32
 80043c6:	4606      	mov	r6, r0
 80043c8:	612b      	str	r3, [r5, #16]
 80043ca:	692c      	ldr	r4, [r5, #16]
 80043cc:	f014 0420 	ands.w	r4, r4, #32
 80043d0:	d1fb      	bne.n	80043ca <usb_lld_reset+0xa>
 80043d2:	200c      	movs	r0, #12
 80043d4:	f7fc fec4 	bl	8001160 <chSysPolledDelayX>
 80043d8:	6d77      	ldr	r7, [r6, #84]	; 0x54
 80043da:	68ba      	ldr	r2, [r7, #8]
 80043dc:	4623      	mov	r3, r4
 80043de:	f04f 6000 	mov.w	r0, #134217728	; 0x8000000
 80043e2:	1c54      	adds	r4, r2, #1
 80043e4:	21ff      	movs	r1, #255	; 0xff
 80043e6:	eb05 1243 	add.w	r2, r5, r3, lsl #5
 80043ea:	3301      	adds	r3, #1
 80043ec:	429c      	cmp	r4, r3
 80043ee:	f8c2 0900 	str.w	r0, [r2, #2304]	; 0x900
 80043f2:	f8c2 0b00 	str.w	r0, [r2, #2816]	; 0xb00
 80043f6:	f8c2 1908 	str.w	r1, [r2, #2312]	; 0x908
 80043fa:	f8c2 1b08 	str.w	r1, [r2, #2824]	; 0xb08
 80043fe:	d1f2      	bne.n	80043e6 <usb_lld_reset+0x26>
 8004400:	683b      	ldr	r3, [r7, #0]
 8004402:	f04f 1201 	mov.w	r2, #65537	; 0x10001
 8004406:	f04f 31ff 	mov.w	r1, #4294967295	; 0xffffffff
 800440a:	f8c5 1818 	str.w	r1, [r5, #2072]	; 0x818
 800440e:	f8c5 281c 	str.w	r2, [r5, #2076]	; 0x81c
 8004412:	65b3      	str	r3, [r6, #88]	; 0x58
 8004414:	683b      	ldr	r3, [r7, #0]
 8004416:	6d32      	ldr	r2, [r6, #80]	; 0x50
 8004418:	626b      	str	r3, [r5, #36]	; 0x24
 800441a:	2310      	movs	r3, #16
 800441c:	6113      	str	r3, [r2, #16]
 800441e:	6914      	ldr	r4, [r2, #16]
 8004420:	f014 0410 	ands.w	r4, r4, #16
 8004424:	d1fb      	bne.n	800441e <usb_lld_reset+0x5e>
 8004426:	200c      	movs	r0, #12
 8004428:	f7fc fe9a 	bl	8001160 <chSysPolledDelayX>
 800442c:	f8d5 3800 	ldr.w	r3, [r5, #2048]	; 0x800
 8004430:	4a14      	ldr	r2, [pc, #80]	; (8004484 <usb_lld_reset+0xc4>)
 8004432:	4915      	ldr	r1, [pc, #84]	; (8004488 <usb_lld_reset+0xc8>)
 8004434:	f423 63fe 	bic.w	r3, r3, #2032	; 0x7f0
 8004438:	f8c5 3800 	str.w	r3, [r5, #2048]	; 0x800
 800443c:	69ab      	ldr	r3, [r5, #24]
 800443e:	f443 2340 	orr.w	r3, r3, #786432	; 0xc0000
 8004442:	f043 0310 	orr.w	r3, r3, #16
 8004446:	61ab      	str	r3, [r5, #24]
 8004448:	2309      	movs	r3, #9
 800444a:	f8c5 3810 	str.w	r3, [r5, #2064]	; 0x810
 800444e:	f8c5 3814 	str.w	r3, [r5, #2068]	; 0x814
 8004452:	60f1      	str	r1, [r6, #12]
 8004454:	f8c5 4b10 	str.w	r4, [r5, #2832]	; 0xb10
 8004458:	f8c5 2b00 	str.w	r2, [r5, #2816]	; 0xb00
 800445c:	f8c5 4910 	str.w	r4, [r5, #2320]	; 0x910
 8004460:	f8c5 2900 	str.w	r2, [r5, #2304]	; 0x900
 8004464:	e9d6 2415 	ldrd	r2, r4, [r6, #84]	; 0x54
 8004468:	f104 0310 	add.w	r3, r4, #16
 800446c:	65b3      	str	r3, [r6, #88]	; 0x58
 800446e:	6852      	ldr	r2, [r2, #4]
 8004470:	4293      	cmp	r3, r2
 8004472:	d902      	bls.n	800447a <usb_lld_reset+0xba>
 8004474:	4805      	ldr	r0, [pc, #20]	; (800448c <usb_lld_reset+0xcc>)
 8004476:	f7fc fe23 	bl	80010c0 <chSysHalt>
 800447a:	f444 1480 	orr.w	r4, r4, #1048576	; 0x100000
 800447e:	62ac      	str	r4, [r5, #40]	; 0x28
 8004480:	bdf8      	pop	{r3, r4, r5, r6, r7, pc}
 8004482:	bf00      	nop
 8004484:	10008040 	.word	0x10008040
 8004488:	080064f0 	.word	0x080064f0
 800448c:	080064e0 	.word	0x080064e0

08004490 <usb_lld_set_address>:
 8004490:	6d02      	ldr	r2, [r0, #80]	; 0x50
 8004492:	f890 104e 	ldrb.w	r1, [r0, #78]	; 0x4e
 8004496:	f8d2 3800 	ldr.w	r3, [r2, #2048]	; 0x800
 800449a:	f423 63fe 	bic.w	r3, r3, #2032	; 0x7f0
 800449e:	ea43 1301 	orr.w	r3, r3, r1, lsl #4
 80044a2:	f8c2 3800 	str.w	r3, [r2, #2048]	; 0x800
 80044a6:	4770      	bx	lr
	...

080044b0 <usb_lld_get_status_out>:
 80044b0:	3158      	adds	r1, #88	; 0x58
 80044b2:	6d03      	ldr	r3, [r0, #80]	; 0x50
 80044b4:	0149      	lsls	r1, r1, #5
 80044b6:	585b      	ldr	r3, [r3, r1]
 80044b8:	f413 4000 	ands.w	r0, r3, #32768	; 0x8000
 80044bc:	d004      	beq.n	80044c8 <usb_lld_get_status_out+0x18>
 80044be:	f413 1f00 	tst.w	r3, #2097152	; 0x200000
 80044c2:	bf14      	ite	ne
 80044c4:	2001      	movne	r0, #1
 80044c6:	2002      	moveq	r0, #2
 80044c8:	4770      	bx	lr
 80044ca:	bf00      	nop
 80044cc:	0000      	movs	r0, r0
	...

080044d0 <usb_lld_get_status_in>:
 80044d0:	3148      	adds	r1, #72	; 0x48
 80044d2:	6d03      	ldr	r3, [r0, #80]	; 0x50
 80044d4:	0149      	lsls	r1, r1, #5
 80044d6:	585b      	ldr	r3, [r3, r1]
 80044d8:	f413 4000 	ands.w	r0, r3, #32768	; 0x8000
 80044dc:	d004      	beq.n	80044e8 <usb_lld_get_status_in+0x18>
 80044de:	f413 1f00 	tst.w	r3, #2097152	; 0x200000
 80044e2:	bf14      	ite	ne
 80044e4:	2001      	movne	r0, #1
 80044e6:	2002      	moveq	r0, #2
 80044e8:	4770      	bx	lr
 80044ea:	bf00      	nop
 80044ec:	0000      	movs	r0, r0
	...

080044f0 <usb_lld_read_setup>:
 80044f0:	eb00 0181 	add.w	r1, r0, r1, lsl #2
 80044f4:	68cb      	ldr	r3, [r1, #12]
 80044f6:	6a1b      	ldr	r3, [r3, #32]
 80044f8:	6819      	ldr	r1, [r3, #0]
 80044fa:	685b      	ldr	r3, [r3, #4]
 80044fc:	6053      	str	r3, [r2, #4]
 80044fe:	6011      	str	r1, [r2, #0]
 8004500:	4770      	bx	lr
 8004502:	bf00      	nop
	...

08004510 <usb_lld_prepare_receive>:
 8004510:	eb00 0381 	add.w	r3, r0, r1, lsl #2
 8004514:	b470      	push	{r4, r5, r6}
 8004516:	68de      	ldr	r6, [r3, #12]
 8004518:	69b5      	ldr	r5, [r6, #24]
 800451a:	686a      	ldr	r2, [r5, #4]
 800451c:	612a      	str	r2, [r5, #16]
 800451e:	b929      	cbnz	r1, 800452c <usb_lld_prepare_receive+0x1c>
 8004520:	2a40      	cmp	r2, #64	; 0x40
 8004522:	d903      	bls.n	800452c <usb_lld_prepare_receive+0x1c>
 8004524:	2240      	movs	r2, #64	; 0x40
 8004526:	4c09      	ldr	r4, [pc, #36]	; (800454c <usb_lld_prepare_receive+0x3c>)
 8004528:	606a      	str	r2, [r5, #4]
 800452a:	e001      	b.n	8004530 <usb_lld_prepare_receive+0x20>
 800452c:	f042 44c0 	orr.w	r4, r2, #1610612736	; 0x60000000
 8004530:	8a75      	ldrh	r5, [r6, #18]
 8004532:	6d00      	ldr	r0, [r0, #80]	; 0x50
 8004534:	1e6b      	subs	r3, r5, #1
 8004536:	eb00 1141 	add.w	r1, r0, r1, lsl #5
 800453a:	4413      	add	r3, r2
 800453c:	fbb3 f3f5 	udiv	r3, r3, r5
 8004540:	ea44 43c3 	orr.w	r3, r4, r3, lsl #19
 8004544:	f8c1 3b10 	str.w	r3, [r1, #2832]	; 0xb10
 8004548:	bc70      	pop	{r4, r5, r6}
 800454a:	4770      	bx	lr
 800454c:	60000040 	.word	0x60000040

08004550 <otg_epout_handler.constprop.7>:
 8004550:	e92d 41f0 	stmdb	sp!, {r4, r5, r6, r7, r8, lr}
 8004554:	4e28      	ldr	r6, [pc, #160]	; (80045f8 <otg_epout_handler.constprop.7+0xa8>)
 8004556:	6d37      	ldr	r7, [r6, #80]	; 0x50
 8004558:	eb07 1340 	add.w	r3, r7, r0, lsl #5
 800455c:	4605      	mov	r5, r0
 800455e:	f8d3 4b08 	ldr.w	r4, [r3, #2824]	; 0xb08
 8004562:	f8c3 4b08 	str.w	r4, [r3, #2824]	; 0xb08
 8004566:	0720      	lsls	r0, r4, #28
 8004568:	d50a      	bpl.n	8004580 <otg_epout_handler.constprop.7+0x30>
 800456a:	f8d7 3814 	ldr.w	r3, [r7, #2068]	; 0x814
 800456e:	0719      	lsls	r1, r3, #28
 8004570:	d506      	bpl.n	8004580 <otg_epout_handler.constprop.7+0x30>
 8004572:	eb06 0385 	add.w	r3, r6, r5, lsl #2
 8004576:	4629      	mov	r1, r5
 8004578:	68db      	ldr	r3, [r3, #12]
 800457a:	4630      	mov	r0, r6
 800457c:	685b      	ldr	r3, [r3, #4]
 800457e:	4798      	blx	r3
 8004580:	07e2      	lsls	r2, r4, #31
 8004582:	d536      	bpl.n	80045f2 <otg_epout_handler.constprop.7+0xa2>
 8004584:	f8d7 3814 	ldr.w	r3, [r7, #2068]	; 0x814
 8004588:	07db      	lsls	r3, r3, #31
 800458a:	d532      	bpl.n	80045f2 <otg_epout_handler.constprop.7+0xa2>
 800458c:	eb06 0385 	add.w	r3, r6, r5, lsl #2
 8004590:	68d9      	ldr	r1, [r3, #12]
 8004592:	698b      	ldr	r3, [r1, #24]
 8004594:	6858      	ldr	r0, [r3, #4]
 8004596:	691a      	ldr	r2, [r3, #16]
 8004598:	4290      	cmp	r0, r2
 800459a:	d30c      	bcc.n	80045b6 <otg_epout_handler.constprop.7+0x66>
 800459c:	8973      	ldrh	r3, [r6, #10]
 800459e:	68cc      	ldr	r4, [r1, #12]
 80045a0:	4815      	ldr	r0, [pc, #84]	; (80045f8 <otg_epout_handler.constprop.7+0xa8>)
 80045a2:	2201      	movs	r2, #1
 80045a4:	40aa      	lsls	r2, r5
 80045a6:	ea23 0302 	bic.w	r3, r3, r2
 80045aa:	8173      	strh	r3, [r6, #10]
 80045ac:	4629      	mov	r1, r5
 80045ae:	4623      	mov	r3, r4
 80045b0:	e8bd 41f0 	ldmia.w	sp!, {r4, r5, r6, r7, r8, lr}
 80045b4:	4718      	bx	r3
 80045b6:	1a12      	subs	r2, r2, r0
 80045b8:	2400      	movs	r4, #0
 80045ba:	e9c3 2401 	strd	r2, r4, [r3, #4]
 80045be:	4629      	mov	r1, r5
 80045c0:	480d      	ldr	r0, [pc, #52]	; (80045f8 <otg_epout_handler.constprop.7+0xa8>)
 80045c2:	f7ff ffa5 	bl	8004510 <usb_lld_prepare_receive>
 80045c6:	2320      	movs	r3, #32
 80045c8:	f383 8811 	msr	BASEPRI, r3
 80045cc:	f7fd fb50 	bl	8001c70 <_stats_start_measure_crit_isr>
 80045d0:	f7fc fe0e 	bl	80011f0 <_dbg_check_lock_from_isr>
 80045d4:	6d33      	ldr	r3, [r6, #80]	; 0x50
 80045d6:	eb03 1545 	add.w	r5, r3, r5, lsl #5
 80045da:	f8d5 3b00 	ldr.w	r3, [r5, #2816]	; 0xb00
 80045de:	f043 6380 	orr.w	r3, r3, #67108864	; 0x4000000
 80045e2:	f8c5 3b00 	str.w	r3, [r5, #2816]	; 0xb00
 80045e6:	f7fc fe1b 	bl	8001220 <_dbg_check_unlock_from_isr>
 80045ea:	f7fd fb49 	bl	8001c80 <_stats_stop_measure_crit_isr>
 80045ee:	f384 8811 	msr	BASEPRI, r4
 80045f2:	e8bd 81f0 	ldmia.w	sp!, {r4, r5, r6, r7, r8, pc}
 80045f6:	bf00      	nop
 80045f8:	20000f90 	.word	0x20000f90
 80045fc:	00000000 	.word	0x00000000

08004600 <usb_lld_prepare_transmit>:
 8004600:	eb00 0381 	add.w	r3, r0, r1, lsl #2
 8004604:	b410      	push	{r4}
 8004606:	68dc      	ldr	r4, [r3, #12]
 8004608:	6d02      	ldr	r2, [r0, #80]	; 0x50
 800460a:	6960      	ldr	r0, [r4, #20]
 800460c:	6843      	ldr	r3, [r0, #4]
 800460e:	6103      	str	r3, [r0, #16]
 8004610:	b19b      	cbz	r3, 800463a <usb_lld_prepare_transmit+0x3a>
 8004612:	b169      	cbz	r1, 8004630 <usb_lld_prepare_transmit+0x30>
 8004614:	8a20      	ldrh	r0, [r4, #16]
 8004616:	f85d 4b04 	ldr.w	r4, [sp], #4
 800461a:	eb02 1241 	add.w	r2, r2, r1, lsl #5
 800461e:	1e41      	subs	r1, r0, #1
 8004620:	4419      	add	r1, r3
 8004622:	fbb1 f1f0 	udiv	r1, r1, r0
 8004626:	ea43 43c1 	orr.w	r3, r3, r1, lsl #19
 800462a:	f8c2 3910 	str.w	r3, [r2, #2320]	; 0x910
 800462e:	4770      	bx	lr
 8004630:	2b40      	cmp	r3, #64	; 0x40
 8004632:	bf84      	itt	hi
 8004634:	2340      	movhi	r3, #64	; 0x40
 8004636:	6043      	strhi	r3, [r0, #4]
 8004638:	e7ec      	b.n	8004614 <usb_lld_prepare_transmit+0x14>
 800463a:	eb02 1241 	add.w	r2, r2, r1, lsl #5
 800463e:	f44f 2300 	mov.w	r3, #524288	; 0x80000
 8004642:	f8c2 3910 	str.w	r3, [r2, #2320]	; 0x910
 8004646:	f85d 4b04 	ldr.w	r4, [sp], #4
 800464a:	4770      	bx	lr
 800464c:	0000      	movs	r0, r0
	...

08004650 <otg_epin_handler.constprop.8>:
 8004650:	e92d 41f0 	stmdb	sp!, {r4, r5, r6, r7, r8, lr}
 8004654:	4e38      	ldr	r6, [pc, #224]	; (8004738 <otg_epin_handler.constprop.8+0xe8>)
 8004656:	6d35      	ldr	r5, [r6, #80]	; 0x50
 8004658:	eb05 1340 	add.w	r3, r5, r0, lsl #5
 800465c:	4607      	mov	r7, r0
 800465e:	f8d3 4908 	ldr.w	r4, [r3, #2312]	; 0x908
 8004662:	f8c3 4908 	str.w	r4, [r3, #2312]	; 0x908
 8004666:	07e1      	lsls	r1, r4, #31
 8004668:	d516      	bpl.n	8004698 <otg_epin_handler.constprop.8+0x48>
 800466a:	f8d5 3810 	ldr.w	r3, [r5, #2064]	; 0x810
 800466e:	07da      	lsls	r2, r3, #31
 8004670:	d512      	bpl.n	8004698 <otg_epin_handler.constprop.8+0x48>
 8004672:	eb06 0380 	add.w	r3, r6, r0, lsl #2
 8004676:	68d9      	ldr	r1, [r3, #12]
 8004678:	694b      	ldr	r3, [r1, #20]
 800467a:	6858      	ldr	r0, [r3, #4]
 800467c:	691a      	ldr	r2, [r3, #16]
 800467e:	4290      	cmp	r0, r2
 8004680:	d332      	bcc.n	80046e8 <otg_epin_handler.constprop.8+0x98>
 8004682:	8933      	ldrh	r3, [r6, #8]
 8004684:	f8d1 8008 	ldr.w	r8, [r1, #8]
 8004688:	2201      	movs	r2, #1
 800468a:	40ba      	lsls	r2, r7
 800468c:	ea23 0302 	bic.w	r3, r3, r2
 8004690:	8133      	strh	r3, [r6, #8]
 8004692:	4639      	mov	r1, r7
 8004694:	4630      	mov	r0, r6
 8004696:	47c0      	blx	r8
 8004698:	0623      	lsls	r3, r4, #24
 800469a:	d506      	bpl.n	80046aa <otg_epin_handler.constprop.8+0x5a>
 800469c:	2301      	movs	r3, #1
 800469e:	f8d5 2834 	ldr.w	r2, [r5, #2100]	; 0x834
 80046a2:	fa03 f707 	lsl.w	r7, r3, r7
 80046a6:	4217      	tst	r7, r2
 80046a8:	d101      	bne.n	80046ae <otg_epin_handler.constprop.8+0x5e>
 80046aa:	e8bd 81f0 	ldmia.w	sp!, {r4, r5, r6, r7, r8, pc}
 80046ae:	2320      	movs	r3, #32
 80046b0:	f383 8811 	msr	BASEPRI, r3
 80046b4:	f7fd fadc 	bl	8001c70 <_stats_start_measure_crit_isr>
 80046b8:	f7fc fd9a 	bl	80011f0 <_dbg_check_lock_from_isr>
 80046bc:	f8d5 2834 	ldr.w	r2, [r5, #2100]	; 0x834
 80046c0:	6df3      	ldr	r3, [r6, #92]	; 0x5c
 80046c2:	481e      	ldr	r0, [pc, #120]	; (800473c <otg_epin_handler.constprop.8+0xec>)
 80046c4:	ea22 0207 	bic.w	r2, r2, r7
 80046c8:	f8c5 2834 	str.w	r2, [r5, #2100]	; 0x834
 80046cc:	431f      	orrs	r7, r3
 80046ce:	2100      	movs	r1, #0
 80046d0:	65f7      	str	r7, [r6, #92]	; 0x5c
 80046d2:	f7fd f9b5 	bl	8001a40 <chThdResumeI>
 80046d6:	f7fc fda3 	bl	8001220 <_dbg_check_unlock_from_isr>
 80046da:	f7fd fad1 	bl	8001c80 <_stats_stop_measure_crit_isr>
 80046de:	2300      	movs	r3, #0
 80046e0:	f383 8811 	msr	BASEPRI, r3
 80046e4:	e8bd 81f0 	ldmia.w	sp!, {r4, r5, r6, r7, r8, pc}
 80046e8:	1a12      	subs	r2, r2, r0
 80046ea:	f04f 0800 	mov.w	r8, #0
 80046ee:	e9c3 2801 	strd	r2, r8, [r3, #4]
 80046f2:	4639      	mov	r1, r7
 80046f4:	4630      	mov	r0, r6
 80046f6:	f7ff ff83 	bl	8004600 <usb_lld_prepare_transmit>
 80046fa:	2320      	movs	r3, #32
 80046fc:	f383 8811 	msr	BASEPRI, r3
 8004700:	f7fd fab6 	bl	8001c70 <_stats_start_measure_crit_isr>
 8004704:	f7fc fd74 	bl	80011f0 <_dbg_check_lock_from_isr>
 8004708:	6d32      	ldr	r2, [r6, #80]	; 0x50
 800470a:	eb02 1047 	add.w	r0, r2, r7, lsl #5
 800470e:	2301      	movs	r3, #1
 8004710:	f8d0 1900 	ldr.w	r1, [r0, #2304]	; 0x900
 8004714:	f041 4104 	orr.w	r1, r1, #2214592512	; 0x84000000
 8004718:	f8c0 1900 	str.w	r1, [r0, #2304]	; 0x900
 800471c:	f8d2 1834 	ldr.w	r1, [r2, #2100]	; 0x834
 8004720:	40bb      	lsls	r3, r7
 8004722:	430b      	orrs	r3, r1
 8004724:	f8c2 3834 	str.w	r3, [r2, #2100]	; 0x834
 8004728:	f7fc fd7a 	bl	8001220 <_dbg_check_unlock_from_isr>
 800472c:	f7fd faa8 	bl	8001c80 <_stats_stop_measure_crit_isr>
 8004730:	f388 8811 	msr	BASEPRI, r8
 8004734:	e7b0      	b.n	8004698 <otg_epin_handler.constprop.8+0x48>
 8004736:	bf00      	nop
 8004738:	20000f90 	.word	0x20000f90
 800473c:	20000ff0 	.word	0x20000ff0

08004740 <Vector14C>:
 8004740:	b570      	push	{r4, r5, r6, lr}
 8004742:	4d42      	ldr	r5, [pc, #264]	; (800484c <Vector14C+0x10c>)
 8004744:	f7fd fa5c 	bl	8001c00 <_stats_increase_irq>
 8004748:	f7fc fd82 	bl	8001250 <_dbg_check_enter_isr>
 800474c:	6d2e      	ldr	r6, [r5, #80]	; 0x50
 800474e:	6974      	ldr	r4, [r6, #20]
 8004750:	69b3      	ldr	r3, [r6, #24]
 8004752:	401c      	ands	r4, r3
 8004754:	04e1      	lsls	r1, r4, #19
 8004756:	6174      	str	r4, [r6, #20]
 8004758:	d428      	bmi.n	80047ac <Vector14C+0x6c>
 800475a:	04a2      	lsls	r2, r4, #18
 800475c:	bf48      	it	mi
 800475e:	f8d6 3808 	ldrmi.w	r3, [r6, #2056]	; 0x808
 8004762:	0723      	lsls	r3, r4, #28
 8004764:	d504      	bpl.n	8004770 <Vector14C+0x30>
 8004766:	686b      	ldr	r3, [r5, #4]
 8004768:	68db      	ldr	r3, [r3, #12]
 800476a:	b10b      	cbz	r3, 8004770 <Vector14C+0x30>
 800476c:	4837      	ldr	r0, [pc, #220]	; (800484c <Vector14C+0x10c>)
 800476e:	4798      	blx	r3
 8004770:	06e5      	lsls	r5, r4, #27
 8004772:	d426      	bmi.n	80047c2 <Vector14C+0x82>
 8004774:	0360      	lsls	r0, r4, #13
 8004776:	f8d6 5818 	ldr.w	r5, [r6, #2072]	; 0x818
 800477a:	d507      	bpl.n	800478c <Vector14C+0x4c>
 800477c:	07e9      	lsls	r1, r5, #31
 800477e:	d45b      	bmi.n	8004838 <Vector14C+0xf8>
 8004780:	07aa      	lsls	r2, r5, #30
 8004782:	d44e      	bmi.n	8004822 <Vector14C+0xe2>
 8004784:	076b      	lsls	r3, r5, #29
 8004786:	d451      	bmi.n	800482c <Vector14C+0xec>
 8004788:	072e      	lsls	r6, r5, #28
 800478a:	d45b      	bmi.n	8004844 <Vector14C+0x104>
 800478c:	0324      	lsls	r4, r4, #12
 800478e:	d507      	bpl.n	80047a0 <Vector14C+0x60>
 8004790:	03e8      	lsls	r0, r5, #15
 8004792:	d436      	bmi.n	8004802 <Vector14C+0xc2>
 8004794:	03a9      	lsls	r1, r5, #14
 8004796:	d439      	bmi.n	800480c <Vector14C+0xcc>
 8004798:	036a      	lsls	r2, r5, #13
 800479a:	d43c      	bmi.n	8004816 <Vector14C+0xd6>
 800479c:	032b      	lsls	r3, r5, #12
 800479e:	d427      	bmi.n	80047f0 <Vector14C+0xb0>
 80047a0:	f7fc fd6e 	bl	8001280 <_dbg_check_leave_isr>
 80047a4:	e8bd 4070 	ldmia.w	sp!, {r4, r5, r6, lr}
 80047a8:	f7fd bfaa 	b.w	8002700 <_port_irq_epilogue>
 80047ac:	4628      	mov	r0, r5
 80047ae:	f7fe faff 	bl	8002db0 <_usb_reset>
 80047b2:	686b      	ldr	r3, [r5, #4]
 80047b4:	681b      	ldr	r3, [r3, #0]
 80047b6:	2b00      	cmp	r3, #0
 80047b8:	d0cf      	beq.n	800475a <Vector14C+0x1a>
 80047ba:	2100      	movs	r1, #0
 80047bc:	4628      	mov	r0, r5
 80047be:	4798      	blx	r3
 80047c0:	e7cb      	b.n	800475a <Vector14C+0x1a>
 80047c2:	2320      	movs	r3, #32
 80047c4:	f383 8811 	msr	BASEPRI, r3
 80047c8:	f7fd fa52 	bl	8001c70 <_stats_start_measure_crit_isr>
 80047cc:	f7fc fd10 	bl	80011f0 <_dbg_check_lock_from_isr>
 80047d0:	69b3      	ldr	r3, [r6, #24]
 80047d2:	481f      	ldr	r0, [pc, #124]	; (8004850 <Vector14C+0x110>)
 80047d4:	f023 0310 	bic.w	r3, r3, #16
 80047d8:	61b3      	str	r3, [r6, #24]
 80047da:	2100      	movs	r1, #0
 80047dc:	f7fd f930 	bl	8001a40 <chThdResumeI>
 80047e0:	f7fc fd1e 	bl	8001220 <_dbg_check_unlock_from_isr>
 80047e4:	f7fd fa4c 	bl	8001c80 <_stats_stop_measure_crit_isr>
 80047e8:	2300      	movs	r3, #0
 80047ea:	f383 8811 	msr	BASEPRI, r3
 80047ee:	e7c1      	b.n	8004774 <Vector14C+0x34>
 80047f0:	2003      	movs	r0, #3
 80047f2:	f7ff fead 	bl	8004550 <otg_epout_handler.constprop.7>
 80047f6:	f7fc fd43 	bl	8001280 <_dbg_check_leave_isr>
 80047fa:	e8bd 4070 	ldmia.w	sp!, {r4, r5, r6, lr}
 80047fe:	f7fd bf7f 	b.w	8002700 <_port_irq_epilogue>
 8004802:	2000      	movs	r0, #0
 8004804:	f7ff fea4 	bl	8004550 <otg_epout_handler.constprop.7>
 8004808:	03a9      	lsls	r1, r5, #14
 800480a:	d5c5      	bpl.n	8004798 <Vector14C+0x58>
 800480c:	2001      	movs	r0, #1
 800480e:	f7ff fe9f 	bl	8004550 <otg_epout_handler.constprop.7>
 8004812:	036a      	lsls	r2, r5, #13
 8004814:	d5c2      	bpl.n	800479c <Vector14C+0x5c>
 8004816:	2002      	movs	r0, #2
 8004818:	f7ff fe9a 	bl	8004550 <otg_epout_handler.constprop.7>
 800481c:	032b      	lsls	r3, r5, #12
 800481e:	d5bf      	bpl.n	80047a0 <Vector14C+0x60>
 8004820:	e7e6      	b.n	80047f0 <Vector14C+0xb0>
 8004822:	2001      	movs	r0, #1
 8004824:	f7ff ff14 	bl	8004650 <otg_epin_handler.constprop.8>
 8004828:	076b      	lsls	r3, r5, #29
 800482a:	d5ad      	bpl.n	8004788 <Vector14C+0x48>
 800482c:	2002      	movs	r0, #2
 800482e:	f7ff ff0f 	bl	8004650 <otg_epin_handler.constprop.8>
 8004832:	072e      	lsls	r6, r5, #28
 8004834:	d5aa      	bpl.n	800478c <Vector14C+0x4c>
 8004836:	e005      	b.n	8004844 <Vector14C+0x104>
 8004838:	2000      	movs	r0, #0
 800483a:	f7ff ff09 	bl	8004650 <otg_epin_handler.constprop.8>
 800483e:	07aa      	lsls	r2, r5, #30
 8004840:	d5a0      	bpl.n	8004784 <Vector14C+0x44>
 8004842:	e7ee      	b.n	8004822 <Vector14C+0xe2>
 8004844:	2003      	movs	r0, #3
 8004846:	f7ff ff03 	bl	8004650 <otg_epin_handler.constprop.8>
 800484a:	e79f      	b.n	800478c <Vector14C+0x4c>
 800484c:	20000f90 	.word	0x20000f90
 8004850:	20000ff0 	.word	0x20000ff0
	...

08004860 <usb_lld_start_out>:
 8004860:	6d03      	ldr	r3, [r0, #80]	; 0x50
 8004862:	eb03 1141 	add.w	r1, r3, r1, lsl #5
 8004866:	f8d1 3b00 	ldr.w	r3, [r1, #2816]	; 0xb00
 800486a:	f043 6380 	orr.w	r3, r3, #67108864	; 0x4000000
 800486e:	f8c1 3b00 	str.w	r3, [r1, #2816]	; 0xb00
 8004872:	4770      	bx	lr
	...

08004880 <usb_lld_start_in>:
 8004880:	6d02      	ldr	r2, [r0, #80]	; 0x50
 8004882:	b410      	push	{r4}
 8004884:	eb02 1441 	add.w	r4, r2, r1, lsl #5
 8004888:	2301      	movs	r3, #1
 800488a:	f8d4 0900 	ldr.w	r0, [r4, #2304]	; 0x900
 800488e:	f040 4004 	orr.w	r0, r0, #2214592512	; 0x84000000
 8004892:	f8c4 0900 	str.w	r0, [r4, #2304]	; 0x900
 8004896:	f8d2 0834 	ldr.w	r0, [r2, #2100]	; 0x834
 800489a:	f85d 4b04 	ldr.w	r4, [sp], #4
 800489e:	fa03 f101 	lsl.w	r1, r3, r1
 80048a2:	4301      	orrs	r1, r0
 80048a4:	f8c2 1834 	str.w	r1, [r2, #2100]	; 0x834
 80048a8:	4770      	bx	lr
 80048aa:	bf00      	nop
 80048ac:	0000      	movs	r0, r0
	...

080048b0 <usb_lld_stall_out>:
 80048b0:	6d03      	ldr	r3, [r0, #80]	; 0x50
 80048b2:	eb03 1141 	add.w	r1, r3, r1, lsl #5
 80048b6:	f8d1 3b00 	ldr.w	r3, [r1, #2816]	; 0xb00
 80048ba:	f443 1300 	orr.w	r3, r3, #2097152	; 0x200000
 80048be:	f8c1 3b00 	str.w	r3, [r1, #2816]	; 0xb00
 80048c2:	4770      	bx	lr
	...

080048d0 <usb_lld_stall_in>:
 80048d0:	6d03      	ldr	r3, [r0, #80]	; 0x50
 80048d2:	eb03 1141 	add.w	r1, r3, r1, lsl #5
 80048d6:	f8d1 3900 	ldr.w	r3, [r1, #2304]	; 0x900
 80048da:	f443 1300 	orr.w	r3, r3, #2097152	; 0x200000
 80048de:	f8c1 3900 	str.w	r3, [r1, #2304]	; 0x900
 80048e2:	4770      	bx	lr
	...

080048f0 <usb_lld_clear_out>:
 80048f0:	6d03      	ldr	r3, [r0, #80]	; 0x50
 80048f2:	eb03 1141 	add.w	r1, r3, r1, lsl #5
 80048f6:	f8d1 3b00 	ldr.w	r3, [r1, #2816]	; 0xb00
 80048fa:	f423 1300 	bic.w	r3, r3, #2097152	; 0x200000
 80048fe:	f8c1 3b00 	str.w	r3, [r1, #2816]	; 0xb00
 8004902:	4770      	bx	lr
	...

08004910 <usb_lld_clear_in>:
 8004910:	6d03      	ldr	r3, [r0, #80]	; 0x50
 8004912:	eb03 1141 	add.w	r1, r3, r1, lsl #5
 8004916:	f8d1 3900 	ldr.w	r3, [r1, #2304]	; 0x900
 800491a:	f423 1300 	bic.w	r3, r3, #2097152	; 0x200000
 800491e:	f8c1 3900 	str.w	r3, [r1, #2304]	; 0x900
 8004922:	4770      	bx	lr
	...

08004930 <VectorA8>:
 8004930:	b508      	push	{r3, lr}
 8004932:	f7fd f965 	bl	8001c00 <_stats_increase_irq>
 8004936:	f7fc fc8b 	bl	8001250 <_dbg_check_enter_isr>
 800493a:	4b0c      	ldr	r3, [pc, #48]	; (800496c <VectorA8+0x3c>)
 800493c:	7818      	ldrb	r0, [r3, #0]
 800493e:	68da      	ldr	r2, [r3, #12]
 8004940:	2100      	movs	r1, #0
 8004942:	2804      	cmp	r0, #4
 8004944:	6111      	str	r1, [r2, #16]
 8004946:	d107      	bne.n	8004958 <VectorA8+0x28>
 8004948:	2002      	movs	r0, #2
 800494a:	7018      	strb	r0, [r3, #0]
 800494c:	6011      	str	r1, [r2, #0]
 800494e:	6111      	str	r1, [r2, #16]
 8004950:	68d1      	ldr	r1, [r2, #12]
 8004952:	f021 01ff 	bic.w	r1, r1, #255	; 0xff
 8004956:	60d1      	str	r1, [r2, #12]
 8004958:	685b      	ldr	r3, [r3, #4]
 800495a:	4804      	ldr	r0, [pc, #16]	; (800496c <VectorA8+0x3c>)
 800495c:	685b      	ldr	r3, [r3, #4]
 800495e:	4798      	blx	r3
 8004960:	f7fc fc8e 	bl	8001280 <_dbg_check_leave_isr>
 8004964:	e8bd 4008 	ldmia.w	sp!, {r3, lr}
 8004968:	f7fd beca 	b.w	8002700 <_port_irq_epilogue>
 800496c:	2000120c 	.word	0x2000120c

08004970 <gpt_lld_init>:
 8004970:	4802      	ldr	r0, [pc, #8]	; (800497c <gpt_lld_init+0xc>)
 8004972:	4b03      	ldr	r3, [pc, #12]	; (8004980 <gpt_lld_init+0x10>)
 8004974:	60c3      	str	r3, [r0, #12]
 8004976:	f7fd bf13 	b.w	80027a0 <gptObjectInit>
 800497a:	bf00      	nop
 800497c:	2000120c 	.word	0x2000120c
 8004980:	40014800 	.word	0x40014800
	...

08004990 <gpt_lld_start>:
 8004990:	b538      	push	{r3, r4, r5, lr}
 8004992:	7803      	ldrb	r3, [r0, #0]
 8004994:	2b01      	cmp	r3, #1
 8004996:	4605      	mov	r5, r0
 8004998:	d01a      	beq.n	80049d0 <gpt_lld_start+0x40>
 800499a:	e9d5 2101 	ldrd	r2, r1, [r5, #4]
 800499e:	6813      	ldr	r3, [r2, #0]
 80049a0:	fbb1 f4f3 	udiv	r4, r1, r3
 80049a4:	3c01      	subs	r4, #1
 80049a6:	b2a4      	uxth	r4, r4
 80049a8:	fb04 3303 	mla	r3, r4, r3, r3
 80049ac:	4299      	cmp	r1, r3
 80049ae:	d003      	beq.n	80049b8 <gpt_lld_start+0x28>
 80049b0:	4812      	ldr	r0, [pc, #72]	; (80049fc <gpt_lld_start+0x6c>)
 80049b2:	f7fc fb85 	bl	80010c0 <chSysHalt>
 80049b6:	686a      	ldr	r2, [r5, #4]
 80049b8:	68d1      	ldr	r1, [r2, #12]
 80049ba:	68eb      	ldr	r3, [r5, #12]
 80049bc:	6895      	ldr	r5, [r2, #8]
 80049be:	2000      	movs	r0, #0
 80049c0:	f021 01ff 	bic.w	r1, r1, #255	; 0xff
 80049c4:	6018      	str	r0, [r3, #0]
 80049c6:	605d      	str	r5, [r3, #4]
 80049c8:	629c      	str	r4, [r3, #40]	; 0x28
 80049ca:	6118      	str	r0, [r3, #16]
 80049cc:	60d9      	str	r1, [r3, #12]
 80049ce:	bd38      	pop	{r3, r4, r5, pc}
 80049d0:	4b0b      	ldr	r3, [pc, #44]	; (8004a00 <gpt_lld_start+0x70>)
 80049d2:	4298      	cmp	r0, r3
 80049d4:	d1e1      	bne.n	800499a <gpt_lld_start+0xa>
 80049d6:	4b0b      	ldr	r3, [pc, #44]	; (8004a04 <gpt_lld_start+0x74>)
 80049d8:	6c5a      	ldr	r2, [r3, #68]	; 0x44
 80049da:	f442 2280 	orr.w	r2, r2, #262144	; 0x40000
 80049de:	645a      	str	r2, [r3, #68]	; 0x44
 80049e0:	6a5a      	ldr	r2, [r3, #36]	; 0x24
 80049e2:	2000      	movs	r0, #0
 80049e4:	f442 2280 	orr.w	r2, r2, #262144	; 0x40000
 80049e8:	625a      	str	r2, [r3, #36]	; 0x24
 80049ea:	2107      	movs	r1, #7
 80049ec:	6258      	str	r0, [r3, #36]	; 0x24
 80049ee:	201a      	movs	r0, #26
 80049f0:	f7fe fc5e 	bl	80032b0 <nvicEnableVector>
 80049f4:	4b04      	ldr	r3, [pc, #16]	; (8004a08 <gpt_lld_start+0x78>)
 80049f6:	60ab      	str	r3, [r5, #8]
 80049f8:	e7cf      	b.n	800499a <gpt_lld_start+0xa>
 80049fa:	bf00      	nop
 80049fc:	08006530 	.word	0x08006530
 8004a00:	2000120c 	.word	0x2000120c
 8004a04:	40023800 	.word	0x40023800
 8004a08:	0a037a00 	.word	0x0a037a00
 8004a0c:	00000000 	.word	0x00000000

08004a10 <gpt_lld_start_timer>:
 8004a10:	6842      	ldr	r2, [r0, #4]
 8004a12:	68c3      	ldr	r3, [r0, #12]
 8004a14:	6850      	ldr	r0, [r2, #4]
 8004a16:	3901      	subs	r1, #1
 8004a18:	62d9      	str	r1, [r3, #44]	; 0x2c
 8004a1a:	2200      	movs	r2, #0
 8004a1c:	2101      	movs	r1, #1
 8004a1e:	6159      	str	r1, [r3, #20]
 8004a20:	625a      	str	r2, [r3, #36]	; 0x24
 8004a22:	611a      	str	r2, [r3, #16]
 8004a24:	b110      	cbz	r0, 8004a2c <gpt_lld_start_timer+0x1c>
 8004a26:	68da      	ldr	r2, [r3, #12]
 8004a28:	430a      	orrs	r2, r1
 8004a2a:	60da      	str	r2, [r3, #12]
 8004a2c:	2205      	movs	r2, #5
 8004a2e:	601a      	str	r2, [r3, #0]
 8004a30:	4770      	bx	lr
 8004a32:	bf00      	nop
	...

08004a40 <SysTick_Handler>:
 8004a40:	b508      	push	{r3, lr}
 8004a42:	f7fd f8dd 	bl	8001c00 <_stats_increase_irq>
 8004a46:	f7fc fc03 	bl	8001250 <_dbg_check_enter_isr>
 8004a4a:	2320      	movs	r3, #32
 8004a4c:	f383 8811 	msr	BASEPRI, r3
 8004a50:	f7fd f90e 	bl	8001c70 <_stats_start_measure_crit_isr>
 8004a54:	f7fc fbcc 	bl	80011f0 <_dbg_check_lock_from_isr>
 8004a58:	f7fc fb42 	bl	80010e0 <chSysTimerHandlerI>
 8004a5c:	f7fc fbe0 	bl	8001220 <_dbg_check_unlock_from_isr>
 8004a60:	f7fd f90e 	bl	8001c80 <_stats_stop_measure_crit_isr>
 8004a64:	2300      	movs	r3, #0
 8004a66:	f383 8811 	msr	BASEPRI, r3
 8004a6a:	f7fc fc09 	bl	8001280 <_dbg_check_leave_isr>
 8004a6e:	e8bd 4008 	ldmia.w	sp!, {r3, lr}
 8004a72:	f7fd be45 	b.w	8002700 <_port_irq_epilogue>
 8004a76:	bf00      	nop
	...

08004a80 <st_lld_init>:
 8004a80:	4b05      	ldr	r3, [pc, #20]	; (8004a98 <st_lld_init+0x18>)
 8004a82:	4a06      	ldr	r2, [pc, #24]	; (8004a9c <st_lld_init+0x1c>)
 8004a84:	605a      	str	r2, [r3, #4]
 8004a86:	2100      	movs	r1, #0
 8004a88:	2207      	movs	r2, #7
 8004a8a:	6099      	str	r1, [r3, #8]
 8004a8c:	200b      	movs	r0, #11
 8004a8e:	2108      	movs	r1, #8
 8004a90:	601a      	str	r2, [r3, #0]
 8004a92:	f7fe bc45 	b.w	8003320 <nvicSetSystemHandlerPriority>
 8004a96:	bf00      	nop
 8004a98:	e000e010 	.word	0xe000e010
 8004a9c:	0002903f 	.word	0x0002903f

08004aa0 <notify3>:
 8004aa0:	4a02      	ldr	r2, [pc, #8]	; (8004aac <notify3+0xc>)
 8004aa2:	68d3      	ldr	r3, [r2, #12]
 8004aa4:	f043 0380 	orr.w	r3, r3, #128	; 0x80
 8004aa8:	60d3      	str	r3, [r2, #12]
 8004aaa:	4770      	bx	lr
 8004aac:	40004800 	.word	0x40004800

08004ab0 <VectorDC>:
 8004ab0:	e92d 43f8 	stmdb	sp!, {r3, r4, r5, r6, r7, r8, r9, lr}
 8004ab4:	4f5c      	ldr	r7, [pc, #368]	; (8004c28 <VectorDC+0x178>)
 8004ab6:	f7fd f8a3 	bl	8001c00 <_stats_increase_irq>
 8004aba:	f7fc fbc9 	bl	8001250 <_dbg_check_enter_isr>
 8004abe:	6f7d      	ldr	r5, [r7, #116]	; 0x74
 8004ac0:	f8d5 900c 	ldr.w	r9, [r5, #12]
 8004ac4:	682b      	ldr	r3, [r5, #0]
 8004ac6:	05da      	lsls	r2, r3, #23
 8004ac8:	b29c      	uxth	r4, r3
 8004aca:	d46d      	bmi.n	8004ba8 <VectorDC+0xf8>
 8004acc:	2320      	movs	r3, #32
 8004ace:	f383 8811 	msr	BASEPRI, r3
 8004ad2:	f7fd f8cd 	bl	8001c70 <_stats_start_measure_crit_isr>
 8004ad6:	f7fc fb8b 	bl	80011f0 <_dbg_check_lock_from_isr>
 8004ada:	f014 0f2f 	tst.w	r4, #47	; 0x2f
 8004ade:	d02d      	beq.n	8004b3c <VectorDC+0x8c>
 8004ae0:	4e52      	ldr	r6, [pc, #328]	; (8004c2c <VectorDC+0x17c>)
 8004ae2:	f1a6 0804 	sub.w	r8, r6, #4
 8004ae6:	e007      	b.n	8004af8 <VectorDC+0x48>
 8004ae8:	06a0      	lsls	r0, r4, #26
 8004aea:	6869      	ldr	r1, [r5, #4]
 8004aec:	d41d      	bmi.n	8004b2a <VectorDC+0x7a>
 8004aee:	682c      	ldr	r4, [r5, #0]
 8004af0:	b2a4      	uxth	r4, r4
 8004af2:	f014 0f2f 	tst.w	r4, #47	; 0x2f
 8004af6:	d021      	beq.n	8004b3c <VectorDC+0x8c>
 8004af8:	0723      	lsls	r3, r4, #28
 8004afa:	d0f5      	beq.n	8004ae8 <VectorDC+0x38>
 8004afc:	f014 0f08 	tst.w	r4, #8
 8004b00:	bf0c      	ite	eq
 8004b02:	2100      	moveq	r1, #0
 8004b04:	2180      	movne	r1, #128	; 0x80
 8004b06:	07e0      	lsls	r0, r4, #31
 8004b08:	bf48      	it	mi
 8004b0a:	f041 0120 	orrmi.w	r1, r1, #32
 8004b0e:	07a2      	lsls	r2, r4, #30
 8004b10:	bf48      	it	mi
 8004b12:	f041 0140 	orrmi.w	r1, r1, #64	; 0x40
 8004b16:	0763      	lsls	r3, r4, #29
 8004b18:	bf48      	it	mi
 8004b1a:	f441 7180 	orrmi.w	r1, r1, #256	; 0x100
 8004b1e:	4630      	mov	r0, r6
 8004b20:	f7fd fb5e 	bl	80021e0 <chEvtBroadcastFlagsI>
 8004b24:	06a0      	lsls	r0, r4, #26
 8004b26:	6869      	ldr	r1, [r5, #4]
 8004b28:	d5e1      	bpl.n	8004aee <VectorDC+0x3e>
 8004b2a:	b2c9      	uxtb	r1, r1
 8004b2c:	4640      	mov	r0, r8
 8004b2e:	f7fe f8a7 	bl	8002c80 <sdIncomingDataI>
 8004b32:	682c      	ldr	r4, [r5, #0]
 8004b34:	b2a4      	uxth	r4, r4
 8004b36:	f014 0f2f 	tst.w	r4, #47	; 0x2f
 8004b3a:	d1dd      	bne.n	8004af8 <VectorDC+0x48>
 8004b3c:	f7fc fb70 	bl	8001220 <_dbg_check_unlock_from_isr>
 8004b40:	f7fd f89e 	bl	8001c80 <_stats_stop_measure_crit_isr>
 8004b44:	2300      	movs	r3, #0
 8004b46:	f383 8811 	msr	BASEPRI, r3
 8004b4a:	f019 0f80 	tst.w	r9, #128	; 0x80
 8004b4e:	d001      	beq.n	8004b54 <VectorDC+0xa4>
 8004b50:	0622      	lsls	r2, r4, #24
 8004b52:	d440      	bmi.n	8004bd6 <VectorDC+0x126>
 8004b54:	0663      	lsls	r3, r4, #25
 8004b56:	d405      	bmi.n	8004b64 <VectorDC+0xb4>
 8004b58:	f7fc fb92 	bl	8001280 <_dbg_check_leave_isr>
 8004b5c:	e8bd 43f8 	ldmia.w	sp!, {r3, r4, r5, r6, r7, r8, r9, lr}
 8004b60:	f7fd bdce 	b.w	8002700 <_port_irq_epilogue>
 8004b64:	2320      	movs	r3, #32
 8004b66:	f383 8811 	msr	BASEPRI, r3
 8004b6a:	f7fd f881 	bl	8001c70 <_stats_start_measure_crit_isr>
 8004b6e:	f7fc fb3f 	bl	80011f0 <_dbg_check_lock_from_isr>
 8004b72:	f7fc fb9d 	bl	80012b0 <chDbgCheckClassI>
 8004b76:	e9d7 2311 	ldrd	r2, r3, [r7, #68]	; 0x44
 8004b7a:	429a      	cmp	r2, r3
 8004b7c:	d040      	beq.n	8004c00 <VectorDC+0x150>
 8004b7e:	f64f 73bf 	movw	r3, #65471	; 0xffbf
 8004b82:	ea09 0303 	and.w	r3, r9, r3
 8004b86:	f06f 0240 	mvn.w	r2, #64	; 0x40
 8004b8a:	60eb      	str	r3, [r5, #12]
 8004b8c:	602a      	str	r2, [r5, #0]
 8004b8e:	f7fc fb47 	bl	8001220 <_dbg_check_unlock_from_isr>
 8004b92:	f7fd f875 	bl	8001c80 <_stats_stop_measure_crit_isr>
 8004b96:	2300      	movs	r3, #0
 8004b98:	f383 8811 	msr	BASEPRI, r3
 8004b9c:	f7fc fb70 	bl	8001280 <_dbg_check_leave_isr>
 8004ba0:	e8bd 43f8 	ldmia.w	sp!, {r3, r4, r5, r6, r7, r8, r9, lr}
 8004ba4:	f7fd bdac 	b.w	8002700 <_port_irq_epilogue>
 8004ba8:	2320      	movs	r3, #32
 8004baa:	f383 8811 	msr	BASEPRI, r3
 8004bae:	f7fd f85f 	bl	8001c70 <_stats_start_measure_crit_isr>
 8004bb2:	f7fc fb1d 	bl	80011f0 <_dbg_check_lock_from_isr>
 8004bb6:	1d38      	adds	r0, r7, #4
 8004bb8:	f44f 7100 	mov.w	r1, #512	; 0x200
 8004bbc:	f7fd fb10 	bl	80021e0 <chEvtBroadcastFlagsI>
 8004bc0:	f46f 7380 	mvn.w	r3, #256	; 0x100
 8004bc4:	602b      	str	r3, [r5, #0]
 8004bc6:	f7fc fb2b 	bl	8001220 <_dbg_check_unlock_from_isr>
 8004bca:	f7fd f859 	bl	8001c80 <_stats_stop_measure_crit_isr>
 8004bce:	2300      	movs	r3, #0
 8004bd0:	f383 8811 	msr	BASEPRI, r3
 8004bd4:	e77a      	b.n	8004acc <VectorDC+0x1c>
 8004bd6:	2320      	movs	r3, #32
 8004bd8:	f383 8811 	msr	BASEPRI, r3
 8004bdc:	f7fd f848 	bl	8001c70 <_stats_start_measure_crit_isr>
 8004be0:	f7fc fb06 	bl	80011f0 <_dbg_check_lock_from_isr>
 8004be4:	4812      	ldr	r0, [pc, #72]	; (8004c30 <VectorDC+0x180>)
 8004be6:	f7fd fc73 	bl	80024d0 <chOQGetI>
 8004bea:	2800      	cmp	r0, #0
 8004bec:	db10      	blt.n	8004c10 <VectorDC+0x160>
 8004bee:	6068      	str	r0, [r5, #4]
 8004bf0:	f7fc fb16 	bl	8001220 <_dbg_check_unlock_from_isr>
 8004bf4:	f7fd f844 	bl	8001c80 <_stats_stop_measure_crit_isr>
 8004bf8:	2300      	movs	r3, #0
 8004bfa:	f383 8811 	msr	BASEPRI, r3
 8004bfe:	e7a9      	b.n	8004b54 <VectorDC+0xa4>
 8004c00:	6bbb      	ldr	r3, [r7, #56]	; 0x38
 8004c02:	2b00      	cmp	r3, #0
 8004c04:	d0bb      	beq.n	8004b7e <VectorDC+0xce>
 8004c06:	2110      	movs	r1, #16
 8004c08:	4808      	ldr	r0, [pc, #32]	; (8004c2c <VectorDC+0x17c>)
 8004c0a:	f7fd fae9 	bl	80021e0 <chEvtBroadcastFlagsI>
 8004c0e:	e7b6      	b.n	8004b7e <VectorDC+0xce>
 8004c10:	2108      	movs	r1, #8
 8004c12:	4806      	ldr	r0, [pc, #24]	; (8004c2c <VectorDC+0x17c>)
 8004c14:	f7fd fae4 	bl	80021e0 <chEvtBroadcastFlagsI>
 8004c18:	f64f 733f 	movw	r3, #65343	; 0xff3f
 8004c1c:	ea09 0303 	and.w	r3, r9, r3
 8004c20:	f043 0340 	orr.w	r3, r3, #64	; 0x40
 8004c24:	60eb      	str	r3, [r5, #12]
 8004c26:	e7e3      	b.n	8004bf0 <VectorDC+0x140>
 8004c28:	2000121c 	.word	0x2000121c
 8004c2c:	20001220 	.word	0x20001220
 8004c30:	2000124c 	.word	0x2000124c
	...

08004c40 <sd_lld_init>:
 8004c40:	b510      	push	{r4, lr}
 8004c42:	4c04      	ldr	r4, [pc, #16]	; (8004c54 <sd_lld_init+0x14>)
 8004c44:	4a04      	ldr	r2, [pc, #16]	; (8004c58 <sd_lld_init+0x18>)
 8004c46:	4620      	mov	r0, r4
 8004c48:	2100      	movs	r1, #0
 8004c4a:	f7fd ffb9 	bl	8002bc0 <sdObjectInit>
 8004c4e:	4b03      	ldr	r3, [pc, #12]	; (8004c5c <sd_lld_init+0x1c>)
 8004c50:	6763      	str	r3, [r4, #116]	; 0x74
 8004c52:	bd10      	pop	{r4, pc}
 8004c54:	2000121c 	.word	0x2000121c
 8004c58:	08004aa1 	.word	0x08004aa1
 8004c5c:	40004800 	.word	0x40004800

08004c60 <sd_lld_start>:
 8004c60:	b538      	push	{r3, r4, r5, lr}
 8004c62:	4c1c      	ldr	r4, [pc, #112]	; (8004cd4 <sd_lld_start+0x74>)
 8004c64:	7a03      	ldrb	r3, [r0, #8]
 8004c66:	2900      	cmp	r1, #0
 8004c68:	bf18      	it	ne
 8004c6a:	460c      	movne	r4, r1
 8004c6c:	2b01      	cmp	r3, #1
 8004c6e:	4605      	mov	r5, r0
 8004c70:	d023      	beq.n	8004cba <sd_lld_start+0x5a>
 8004c72:	6f6b      	ldr	r3, [r5, #116]	; 0x74
 8004c74:	4918      	ldr	r1, [pc, #96]	; (8004cd8 <sd_lld_start+0x78>)
 8004c76:	6820      	ldr	r0, [r4, #0]
 8004c78:	428b      	cmp	r3, r1
 8004c7a:	d019      	beq.n	8004cb0 <sd_lld_start+0x50>
 8004c7c:	4a17      	ldr	r2, [pc, #92]	; (8004cdc <sd_lld_start+0x7c>)
 8004c7e:	4293      	cmp	r3, r2
 8004c80:	d016      	beq.n	8004cb0 <sd_lld_start+0x50>
 8004c82:	4a17      	ldr	r2, [pc, #92]	; (8004ce0 <sd_lld_start+0x80>)
 8004c84:	fbb2 f2f0 	udiv	r2, r2, r0
 8004c88:	609a      	str	r2, [r3, #8]
 8004c8a:	88a2      	ldrh	r2, [r4, #4]
 8004c8c:	88e0      	ldrh	r0, [r4, #6]
 8004c8e:	8921      	ldrh	r1, [r4, #8]
 8004c90:	f442 5204 	orr.w	r2, r2, #8448	; 0x2100
 8004c94:	f042 022c 	orr.w	r2, r2, #44	; 0x2c
 8004c98:	f040 0040 	orr.w	r0, r0, #64	; 0x40
 8004c9c:	f041 0101 	orr.w	r1, r1, #1
 8004ca0:	2400      	movs	r4, #0
 8004ca2:	6118      	str	r0, [r3, #16]
 8004ca4:	6159      	str	r1, [r3, #20]
 8004ca6:	60da      	str	r2, [r3, #12]
 8004ca8:	601c      	str	r4, [r3, #0]
 8004caa:	681a      	ldr	r2, [r3, #0]
 8004cac:	685b      	ldr	r3, [r3, #4]
 8004cae:	bd38      	pop	{r3, r4, r5, pc}
 8004cb0:	4a0c      	ldr	r2, [pc, #48]	; (8004ce4 <sd_lld_start+0x84>)
 8004cb2:	fbb2 f2f0 	udiv	r2, r2, r0
 8004cb6:	609a      	str	r2, [r3, #8]
 8004cb8:	e7e7      	b.n	8004c8a <sd_lld_start+0x2a>
 8004cba:	4b0b      	ldr	r3, [pc, #44]	; (8004ce8 <sd_lld_start+0x88>)
 8004cbc:	4298      	cmp	r0, r3
 8004cbe:	d1d8      	bne.n	8004c72 <sd_lld_start+0x12>
 8004cc0:	4a0a      	ldr	r2, [pc, #40]	; (8004cec <sd_lld_start+0x8c>)
 8004cc2:	6c13      	ldr	r3, [r2, #64]	; 0x40
 8004cc4:	f443 2380 	orr.w	r3, r3, #262144	; 0x40000
 8004cc8:	6413      	str	r3, [r2, #64]	; 0x40
 8004cca:	210c      	movs	r1, #12
 8004ccc:	2027      	movs	r0, #39	; 0x27
 8004cce:	f7fe faef 	bl	80032b0 <nvicEnableVector>
 8004cd2:	e7ce      	b.n	8004c72 <sd_lld_start+0x12>
 8004cd4:	08006540 	.word	0x08006540
 8004cd8:	40011000 	.word	0x40011000
 8004cdc:	40011400 	.word	0x40011400
 8004ce0:	0280de80 	.word	0x0280de80
 8004ce4:	0501bd00 	.word	0x0501bd00
 8004ce8:	2000121c 	.word	0x2000121c
 8004cec:	40023800 	.word	0x40023800

08004cf0 <__early_init>:
 8004cf0:	f7fe be26 	b.w	8003940 <stm32_clock_init>
	...

08004d00 <boardInit>:
 8004d00:	4770      	bx	lr
 8004d02:	bf00      	nop
	...

08004d10 <chvprintf>:
 8004d10:	e92d 4ff0 	stmdb	sp!, {r4, r5, r6, r7, r8, r9, sl, fp, lr}
 8004d14:	ed2d 8b02 	vpush	{d8}
 8004d18:	4606      	mov	r6, r0
 8004d1a:	b091      	sub	sp, #68	; 0x44
 8004d1c:	4689      	mov	r9, r1
 8004d1e:	4692      	mov	sl, r2
 8004d20:	f04f 0b00 	mov.w	fp, #0
 8004d24:	f899 1000 	ldrb.w	r1, [r9]
 8004d28:	f109 0201 	add.w	r2, r9, #1
 8004d2c:	b171      	cbz	r1, 8004d4c <chvprintf+0x3c>
 8004d2e:	2925      	cmp	r1, #37	; 0x25
 8004d30:	d012      	beq.n	8004d58 <chvprintf+0x48>
 8004d32:	6833      	ldr	r3, [r6, #0]
 8004d34:	4691      	mov	r9, r2
 8004d36:	689b      	ldr	r3, [r3, #8]
 8004d38:	4630      	mov	r0, r6
 8004d3a:	4798      	blx	r3
 8004d3c:	f899 1000 	ldrb.w	r1, [r9]
 8004d40:	f10b 0b01 	add.w	fp, fp, #1
 8004d44:	f109 0201 	add.w	r2, r9, #1
 8004d48:	2900      	cmp	r1, #0
 8004d4a:	d1f0      	bne.n	8004d2e <chvprintf+0x1e>
 8004d4c:	4658      	mov	r0, fp
 8004d4e:	b011      	add	sp, #68	; 0x44
 8004d50:	ecbd 8b02 	vpop	{d8}
 8004d54:	e8bd 8ff0 	ldmia.w	sp!, {r4, r5, r6, r7, r8, r9, sl, fp, pc}
 8004d58:	f899 1001 	ldrb.w	r1, [r9, #1]
 8004d5c:	292d      	cmp	r1, #45	; 0x2d
 8004d5e:	bf03      	ittte	eq
 8004d60:	f899 1002 	ldrbeq.w	r1, [r9, #2]
 8004d64:	f109 0202 	addeq.w	r2, r9, #2
 8004d68:	2301      	moveq	r3, #1
 8004d6a:	2300      	movne	r3, #0
 8004d6c:	2930      	cmp	r1, #48	; 0x30
 8004d6e:	bf08      	it	eq
 8004d70:	7851      	ldrbeq	r1, [r2, #1]
 8004d72:	9302      	str	r3, [sp, #8]
 8004d74:	bf06      	itte	eq
 8004d76:	3201      	addeq	r2, #1
 8004d78:	2730      	moveq	r7, #48	; 0x30
 8004d7a:	2720      	movne	r7, #32
 8004d7c:	3201      	adds	r2, #1
 8004d7e:	2400      	movs	r4, #0
 8004d80:	e007      	b.n	8004d92 <chvprintf+0x82>
 8004d82:	f89a 3000 	ldrb.w	r3, [sl]
 8004d86:	f10a 0a04 	add.w	sl, sl, #4
 8004d8a:	f812 1b01 	ldrb.w	r1, [r2], #1
 8004d8e:	eb03 0440 	add.w	r4, r3, r0, lsl #1
 8004d92:	f1a1 0330 	sub.w	r3, r1, #48	; 0x30
 8004d96:	b2db      	uxtb	r3, r3
 8004d98:	2b09      	cmp	r3, #9
 8004d9a:	4615      	mov	r5, r2
 8004d9c:	eb04 0084 	add.w	r0, r4, r4, lsl #2
 8004da0:	d9f3      	bls.n	8004d8a <chvprintf+0x7a>
 8004da2:	292a      	cmp	r1, #42	; 0x2a
 8004da4:	d0ed      	beq.n	8004d82 <chvprintf+0x72>
 8004da6:	292e      	cmp	r1, #46	; 0x2e
 8004da8:	f04f 0800 	mov.w	r8, #0
 8004dac:	d04a      	beq.n	8004e44 <chvprintf+0x134>
 8004dae:	f001 03df 	and.w	r3, r1, #223	; 0xdf
 8004db2:	2b4c      	cmp	r3, #76	; 0x4c
 8004db4:	f105 0901 	add.w	r9, r5, #1
 8004db8:	d050      	beq.n	8004e5c <chvprintf+0x14c>
 8004dba:	f1a1 0341 	sub.w	r3, r1, #65	; 0x41
 8004dbe:	f1a1 0244 	sub.w	r2, r1, #68	; 0x44
 8004dc2:	b2db      	uxtb	r3, r3
 8004dc4:	2a34      	cmp	r2, #52	; 0x34
 8004dc6:	f200 81d3 	bhi.w	8005170 <chvprintf+0x460>
 8004dca:	e8df f012 	tbh	[pc, r2, lsl #1]
 8004dce:	021e      	.short	0x021e
 8004dd0:	01d101d1 	.word	0x01d101d1
 8004dd4:	01d101d1 	.word	0x01d101d1
 8004dd8:	01d1021e 	.word	0x01d1021e
 8004ddc:	01d101d1 	.word	0x01d101d1
 8004de0:	01d101d1 	.word	0x01d101d1
 8004de4:	01d101cd 	.word	0x01d101cd
 8004de8:	01d101d1 	.word	0x01d101d1
 8004dec:	01d101d1 	.word	0x01d101d1
 8004df0:	01d10197 	.word	0x01d10197
 8004df4:	022701d1 	.word	0x022701d1
 8004df8:	01d101d1 	.word	0x01d101d1
 8004dfc:	01d101d1 	.word	0x01d101d1
 8004e00:	01d101d1 	.word	0x01d101d1
 8004e04:	01d101d1 	.word	0x01d101d1
 8004e08:	01d101d1 	.word	0x01d101d1
 8004e0c:	021e014e 	.word	0x021e014e
 8004e10:	00aa01d1 	.word	0x00aa01d1
 8004e14:	01d101d1 	.word	0x01d101d1
 8004e18:	01d1021e 	.word	0x01d1021e
 8004e1c:	01d101d1 	.word	0x01d101d1
 8004e20:	01d101d1 	.word	0x01d101d1
 8004e24:	01d101cd 	.word	0x01d101cd
 8004e28:	01d101d1 	.word	0x01d101d1
 8004e2c:	01d10088 	.word	0x01d10088
 8004e30:	01d10197 	.word	0x01d10197
 8004e34:	022701d1 	.word	0x022701d1
 8004e38:	f89a 3000 	ldrb.w	r3, [sl]
 8004e3c:	f10a 0a04 	add.w	sl, sl, #4
 8004e40:	eb03 0842 	add.w	r8, r3, r2, lsl #1
 8004e44:	f815 1b01 	ldrb.w	r1, [r5], #1
 8004e48:	f1a1 0330 	sub.w	r3, r1, #48	; 0x30
 8004e4c:	b2db      	uxtb	r3, r3
 8004e4e:	2b09      	cmp	r3, #9
 8004e50:	eb08 0288 	add.w	r2, r8, r8, lsl #2
 8004e54:	d9f4      	bls.n	8004e40 <chvprintf+0x130>
 8004e56:	292a      	cmp	r1, #42	; 0x2a
 8004e58:	d0ee      	beq.n	8004e38 <chvprintf+0x128>
 8004e5a:	e7a8      	b.n	8004dae <chvprintf+0x9e>
 8004e5c:	782b      	ldrb	r3, [r5, #0]
 8004e5e:	b3db      	cbz	r3, 8004ed8 <chvprintf+0x1c8>
 8004e60:	f1a3 0244 	sub.w	r2, r3, #68	; 0x44
 8004e64:	2a34      	cmp	r2, #52	; 0x34
 8004e66:	f200 8185 	bhi.w	8005174 <chvprintf+0x464>
 8004e6a:	e8df f012 	tbh	[pc, r2, lsl #1]
 8004e6e:	01a2      	.short	0x01a2
 8004e70:	01830183 	.word	0x01830183
 8004e74:	01830183 	.word	0x01830183
 8004e78:	018301a2 	.word	0x018301a2
 8004e7c:	01830183 	.word	0x01830183
 8004e80:	01830183 	.word	0x01830183
 8004e84:	0183017e 	.word	0x0183017e
 8004e88:	01830183 	.word	0x01830183
 8004e8c:	01830183 	.word	0x01830183
 8004e90:	01830148 	.word	0x01830148
 8004e94:	019f0183 	.word	0x019f0183
 8004e98:	01830183 	.word	0x01830183
 8004e9c:	01830183 	.word	0x01830183
 8004ea0:	01830183 	.word	0x01830183
 8004ea4:	01830183 	.word	0x01830183
 8004ea8:	01830183 	.word	0x01830183
 8004eac:	01a200ff 	.word	0x01a200ff
 8004eb0:	005b0183 	.word	0x005b0183
 8004eb4:	01830183 	.word	0x01830183
 8004eb8:	018301a2 	.word	0x018301a2
 8004ebc:	01830183 	.word	0x01830183
 8004ec0:	01830183 	.word	0x01830183
 8004ec4:	0183017e 	.word	0x0183017e
 8004ec8:	01830183 	.word	0x01830183
 8004ecc:	01830039 	.word	0x01830039
 8004ed0:	01830148 	.word	0x01830148
 8004ed4:	019f0183 	.word	0x019f0183
 8004ed8:	460b      	mov	r3, r1
 8004eda:	46a9      	mov	r9, r5
 8004edc:	e7c0      	b.n	8004e60 <chvprintf+0x150>
 8004ede:	46a9      	mov	r9, r5
 8004ee0:	f8da 5000 	ldr.w	r5, [sl]
 8004ee4:	f10a 0a04 	add.w	sl, sl, #4
 8004ee8:	2d00      	cmp	r5, #0
 8004eea:	f000 81a6 	beq.w	800523a <chvprintf+0x52a>
 8004eee:	782b      	ldrb	r3, [r5, #0]
 8004ef0:	4629      	mov	r1, r5
 8004ef2:	f1b8 0f00 	cmp.w	r8, #0
 8004ef6:	f040 81bf 	bne.w	8005278 <chvprintf+0x568>
 8004efa:	2b00      	cmp	r3, #0
 8004efc:	f000 81cc 	beq.w	8005298 <chvprintf+0x588>
 8004f00:	f647 78fe 	movw	r8, #32766	; 0x7ffe
 8004f04:	462b      	mov	r3, r5
 8004f06:	e002      	b.n	8004f0e <chvprintf+0x1fe>
 8004f08:	f1b8 0801 	subs.w	r8, r8, #1
 8004f0c:	d403      	bmi.n	8004f16 <chvprintf+0x206>
 8004f0e:	f813 2f01 	ldrb.w	r2, [r3, #1]!
 8004f12:	2a00      	cmp	r2, #0
 8004f14:	d1f8      	bne.n	8004f08 <chvprintf+0x1f8>
 8004f16:	1a5b      	subs	r3, r3, r1
 8004f18:	1ae4      	subs	r4, r4, r3
 8004f1a:	3b01      	subs	r3, #1
 8004f1c:	9301      	str	r3, [sp, #4]
 8004f1e:	2720      	movs	r7, #32
 8004f20:	e0af      	b.n	8005082 <chvprintf+0x372>
 8004f22:	46a9      	mov	r9, r5
 8004f24:	f10a 0a07 	add.w	sl, sl, #7
 8004f28:	f02a 0a07 	bic.w	sl, sl, #7
 8004f2c:	e9da 0100 	ldrd	r0, r1, [sl]
 8004f30:	f7fb fde6 	bl	8000b00 <__aeabi_d2f>
 8004f34:	ee08 0a10 	vmov	s16, r0
 8004f38:	eeb5 8ac0 	vcmpe.f32	s16, #0.0
 8004f3c:	eef1 fa10 	vmrs	APSR_nzcv, fpscr
 8004f40:	f10a 0a08 	add.w	sl, sl, #8
 8004f44:	f100 816e 	bmi.w	8005224 <chvprintf+0x514>
 8004f48:	ab0a      	add	r3, sp, #40	; 0x28
 8004f4a:	9303      	str	r3, [sp, #12]
 8004f4c:	9301      	str	r3, [sp, #4]
 8004f4e:	ee18 0a10 	vmov	r0, s16
 8004f52:	f7fb fb39 	bl	80005c8 <__aeabi_f2d>
 8004f56:	f108 38ff 	add.w	r8, r8, #4294967295	; 0xffffffff
 8004f5a:	f1b8 0f08 	cmp.w	r8, #8
 8004f5e:	e9cd 0104 	strd	r0, r1, [sp, #16]
 8004f62:	f200 8173 	bhi.w	800524c <chvprintf+0x53c>
 8004f66:	4bc0      	ldr	r3, [pc, #768]	; (8005268 <chvprintf+0x558>)
 8004f68:	f853 5028 	ldr.w	r5, [r3, r8, lsl #2]
 8004f6c:	4628      	mov	r0, r5
 8004f6e:	f7fb fb09 	bl	8000584 <__aeabi_ui2d>
 8004f72:	4bbe      	ldr	r3, [pc, #760]	; (800526c <chvprintf+0x55c>)
 8004f74:	e9cd 0106 	strd	r0, r1, [sp, #24]
 8004f78:	fba3 3505 	umull	r3, r5, r3, r5
 8004f7c:	08eb      	lsrs	r3, r5, #3
 8004f7e:	9309      	str	r3, [sp, #36]	; 0x24
 8004f80:	461d      	mov	r5, r3
 8004f82:	eefd 7ac8 	vcvt.s32.f32	s15, s16
 8004f86:	9b01      	ldr	r3, [sp, #4]
 8004f88:	f8df e2e0 	ldr.w	lr, [pc, #736]	; 800526c <chvprintf+0x55c>
 8004f8c:	edcd 7a08 	vstr	s15, [sp, #32]
 8004f90:	f103 080b 	add.w	r8, r3, #11
 8004f94:	ee17 1a90 	vmov	r1, s15
 8004f98:	4642      	mov	r2, r8
 8004f9a:	fbae 0301 	umull	r0, r3, lr, r1
 8004f9e:	08db      	lsrs	r3, r3, #3
 8004fa0:	eb03 0c83 	add.w	ip, r3, r3, lsl #2
 8004fa4:	4618      	mov	r0, r3
 8004fa6:	eba1 034c 	sub.w	r3, r1, ip, lsl #1
 8004faa:	3330      	adds	r3, #48	; 0x30
 8004fac:	b2db      	uxtb	r3, r3
 8004fae:	f802 3d01 	strb.w	r3, [r2, #-1]!
 8004fb2:	4601      	mov	r1, r0
 8004fb4:	2800      	cmp	r0, #0
 8004fb6:	d1f0      	bne.n	8004f9a <chvprintf+0x28a>
 8004fb8:	9901      	ldr	r1, [sp, #4]
 8004fba:	eba8 0802 	sub.w	r8, r8, r2
 8004fbe:	4608      	mov	r0, r1
 8004fc0:	4440      	add	r0, r8
 8004fc2:	e001      	b.n	8004fc8 <chvprintf+0x2b8>
 8004fc4:	f812 3f01 	ldrb.w	r3, [r2, #1]!
 8004fc8:	f801 3b01 	strb.w	r3, [r1], #1
 8004fcc:	4281      	cmp	r1, r0
 8004fce:	d1f9      	bne.n	8004fc4 <chvprintf+0x2b4>
 8004fd0:	9a01      	ldr	r2, [sp, #4]
 8004fd2:	9808      	ldr	r0, [sp, #32]
 8004fd4:	232e      	movs	r3, #46	; 0x2e
 8004fd6:	f108 38ff 	add.w	r8, r8, #4294967295	; 0xffffffff
 8004fda:	4442      	add	r2, r8
 8004fdc:	700b      	strb	r3, [r1, #0]
 8004fde:	9201      	str	r2, [sp, #4]
 8004fe0:	f7fb fae0 	bl	80005a4 <__aeabi_i2d>
 8004fe4:	4602      	mov	r2, r0
 8004fe6:	460b      	mov	r3, r1
 8004fe8:	e9dd 0104 	ldrd	r0, r1, [sp, #16]
 8004fec:	f7fb f98c 	bl	8000308 <__aeabi_dsub>
 8004ff0:	e9dd 2306 	ldrd	r2, r3, [sp, #24]
 8004ff4:	f7fb fb44 	bl	8000680 <__aeabi_dmul>
 8004ff8:	f7fb fd5a 	bl	8000ab0 <__aeabi_d2iz>
 8004ffc:	9b01      	ldr	r3, [sp, #4]
 8004ffe:	9a09      	ldr	r2, [sp, #36]	; 0x24
 8005000:	499a      	ldr	r1, [pc, #616]	; (800526c <chvprintf+0x55c>)
 8005002:	f103 080d 	add.w	r8, r3, #13
 8005006:	3302      	adds	r3, #2
 8005008:	2a00      	cmp	r2, #0
 800500a:	bf08      	it	eq
 800500c:	4605      	moveq	r5, r0
 800500e:	9308      	str	r3, [sp, #32]
 8005010:	4642      	mov	r2, r8
 8005012:	fba1 c300 	umull	ip, r3, r1, r0
 8005016:	08db      	lsrs	r3, r3, #3
 8005018:	eb03 0e83 	add.w	lr, r3, r3, lsl #2
 800501c:	469c      	mov	ip, r3
 800501e:	eba0 034e 	sub.w	r3, r0, lr, lsl #1
 8005022:	3330      	adds	r3, #48	; 0x30
 8005024:	fba1 0505 	umull	r0, r5, r1, r5
 8005028:	b2db      	uxtb	r3, r3
 800502a:	08ed      	lsrs	r5, r5, #3
 800502c:	f802 3d01 	strb.w	r3, [r2, #-1]!
 8005030:	4660      	mov	r0, ip
 8005032:	d1ee      	bne.n	8005012 <chvprintf+0x302>
 8005034:	eba8 0802 	sub.w	r8, r8, r2
 8005038:	9901      	ldr	r1, [sp, #4]
 800503a:	f108 0002 	add.w	r0, r8, #2
 800503e:	4401      	add	r1, r0
 8005040:	4608      	mov	r0, r1
 8005042:	9908      	ldr	r1, [sp, #32]
 8005044:	e001      	b.n	800504a <chvprintf+0x33a>
 8005046:	f812 3f01 	ldrb.w	r3, [r2, #1]!
 800504a:	f801 3b01 	strb.w	r3, [r1], #1
 800504e:	4281      	cmp	r1, r0
 8005050:	d1f9      	bne.n	8005046 <chvprintf+0x336>
 8005052:	9b08      	ldr	r3, [sp, #32]
 8005054:	9d03      	ldr	r5, [sp, #12]
 8005056:	4443      	add	r3, r8
 8005058:	4698      	mov	r8, r3
 800505a:	eba8 0805 	sub.w	r8, r8, r5
 800505e:	f108 33ff 	add.w	r3, r8, #4294967295	; 0xffffffff
 8005062:	eba4 0408 	sub.w	r4, r4, r8
 8005066:	9301      	str	r3, [sp, #4]
 8005068:	e00b      	b.n	8005082 <chvprintf+0x372>
 800506a:	46a9      	mov	r9, r5
 800506c:	ad10      	add	r5, sp, #64	; 0x40
 800506e:	f8da 3000 	ldr.w	r3, [sl]
 8005072:	f805 3d18 	strb.w	r3, [r5, #-24]!
 8005076:	2300      	movs	r3, #0
 8005078:	3c01      	subs	r4, #1
 800507a:	f10a 0a04 	add.w	sl, sl, #4
 800507e:	9301      	str	r3, [sp, #4]
 8005080:	2720      	movs	r7, #32
 8005082:	2c00      	cmp	r4, #0
 8005084:	db6a      	blt.n	800515c <chvprintf+0x44c>
 8005086:	9b02      	ldr	r3, [sp, #8]
 8005088:	2b00      	cmp	r3, #0
 800508a:	d17b      	bne.n	8005184 <chvprintf+0x474>
 800508c:	4263      	negs	r3, r4
 800508e:	2c00      	cmp	r4, #0
 8005090:	d077      	beq.n	8005182 <chvprintf+0x472>
 8005092:	7829      	ldrb	r1, [r5, #0]
 8005094:	6832      	ldr	r2, [r6, #0]
 8005096:	292d      	cmp	r1, #45	; 0x2d
 8005098:	6892      	ldr	r2, [r2, #8]
 800509a:	d077      	beq.n	800518c <chvprintf+0x47c>
 800509c:	4698      	mov	r8, r3
 800509e:	e001      	b.n	80050a4 <chvprintf+0x394>
 80050a0:	6833      	ldr	r3, [r6, #0]
 80050a2:	689a      	ldr	r2, [r3, #8]
 80050a4:	4639      	mov	r1, r7
 80050a6:	4630      	mov	r0, r6
 80050a8:	4790      	blx	r2
 80050aa:	f118 0801 	adds.w	r8, r8, #1
 80050ae:	d1f7      	bne.n	80050a0 <chvprintf+0x390>
 80050b0:	9a01      	ldr	r2, [sp, #4]
 80050b2:	2a00      	cmp	r2, #0
 80050b4:	4643      	mov	r3, r8
 80050b6:	44a3      	add	fp, r4
 80050b8:	f6ff ae34 	blt.w	8004d24 <chvprintf+0x14>
 80050bc:	461c      	mov	r4, r3
 80050be:	f8dd 8004 	ldr.w	r8, [sp, #4]
 80050c2:	6833      	ldr	r3, [r6, #0]
 80050c4:	f815 1b01 	ldrb.w	r1, [r5], #1
 80050c8:	689b      	ldr	r3, [r3, #8]
 80050ca:	f108 38ff 	add.w	r8, r8, #4294967295	; 0xffffffff
 80050ce:	4630      	mov	r0, r6
 80050d0:	4798      	blx	r3
 80050d2:	f1b8 3fff 	cmp.w	r8, #4294967295	; 0xffffffff
 80050d6:	d1f4      	bne.n	80050c2 <chvprintf+0x3b2>
 80050d8:	9b01      	ldr	r3, [sp, #4]
 80050da:	f10b 0b01 	add.w	fp, fp, #1
 80050de:	445b      	add	r3, fp
 80050e0:	469b      	mov	fp, r3
 80050e2:	2c00      	cmp	r4, #0
 80050e4:	f43f ae1e 	beq.w	8004d24 <chvprintf+0x14>
 80050e8:	4625      	mov	r5, r4
 80050ea:	6833      	ldr	r3, [r6, #0]
 80050ec:	4639      	mov	r1, r7
 80050ee:	689b      	ldr	r3, [r3, #8]
 80050f0:	4630      	mov	r0, r6
 80050f2:	4798      	blx	r3
 80050f4:	3d01      	subs	r5, #1
 80050f6:	d1f8      	bne.n	80050ea <chvprintf+0x3da>
 80050f8:	44a3      	add	fp, r4
 80050fa:	e613      	b.n	8004d24 <chvprintf+0x14>
 80050fc:	46a9      	mov	r9, r5
 80050fe:	f04f 0c0a 	mov.w	ip, #10
 8005102:	f85a 2b04 	ldr.w	r2, [sl], #4
 8005106:	f10d 0133 	add.w	r1, sp, #51	; 0x33
 800510a:	e000      	b.n	800510e <chvprintf+0x3fe>
 800510c:	4601      	mov	r1, r0
 800510e:	fbb2 f5fc 	udiv	r5, r2, ip
 8005112:	fb0c 2215 	mls	r2, ip, r5, r2
 8005116:	f102 0330 	add.w	r3, r2, #48	; 0x30
 800511a:	2b39      	cmp	r3, #57	; 0x39
 800511c:	bfc8      	it	gt
 800511e:	f102 0337 	addgt.w	r3, r2, #55	; 0x37
 8005122:	b2db      	uxtb	r3, r3
 8005124:	f801 3c01 	strb.w	r3, [r1, #-1]
 8005128:	1e48      	subs	r0, r1, #1
 800512a:	462a      	mov	r2, r5
 800512c:	2d00      	cmp	r5, #0
 800512e:	d1ed      	bne.n	800510c <chvprintf+0x3fc>
 8005130:	f10d 0533 	add.w	r5, sp, #51	; 0x33
 8005134:	aa0a      	add	r2, sp, #40	; 0x28
 8005136:	eba5 0800 	sub.w	r8, r5, r0
 800513a:	9203      	str	r2, [sp, #12]
 800513c:	4440      	add	r0, r8
 800513e:	e001      	b.n	8005144 <chvprintf+0x434>
 8005140:	f811 3b01 	ldrb.w	r3, [r1], #1
 8005144:	f802 3b01 	strb.w	r3, [r2], #1
 8005148:	4281      	cmp	r1, r0
 800514a:	d1f9      	bne.n	8005140 <chvprintf+0x430>
 800514c:	eba4 0408 	sub.w	r4, r4, r8
 8005150:	f108 33ff 	add.w	r3, r8, #4294967295	; 0xffffffff
 8005154:	2c00      	cmp	r4, #0
 8005156:	9301      	str	r3, [sp, #4]
 8005158:	9d03      	ldr	r5, [sp, #12]
 800515a:	da94      	bge.n	8005086 <chvprintf+0x376>
 800515c:	9b01      	ldr	r3, [sp, #4]
 800515e:	2b00      	cmp	r3, #0
 8005160:	f6ff ade0 	blt.w	8004d24 <chvprintf+0x14>
 8005164:	2400      	movs	r4, #0
 8005166:	e7aa      	b.n	80050be <chvprintf+0x3ae>
 8005168:	46a9      	mov	r9, r5
 800516a:	f04f 0c08 	mov.w	ip, #8
 800516e:	e7c8      	b.n	8005102 <chvprintf+0x3f2>
 8005170:	460b      	mov	r3, r1
 8005172:	46a9      	mov	r9, r5
 8005174:	ad10      	add	r5, sp, #64	; 0x40
 8005176:	3c01      	subs	r4, #1
 8005178:	f805 3d18 	strb.w	r3, [r5, #-24]!
 800517c:	2300      	movs	r3, #0
 800517e:	9301      	str	r3, [sp, #4]
 8005180:	e77f      	b.n	8005082 <chvprintf+0x372>
 8005182:	461c      	mov	r4, r3
 8005184:	9b01      	ldr	r3, [sp, #4]
 8005186:	2b00      	cmp	r3, #0
 8005188:	da99      	bge.n	80050be <chvprintf+0x3ae>
 800518a:	e7aa      	b.n	80050e2 <chvprintf+0x3d2>
 800518c:	2f30      	cmp	r7, #48	; 0x30
 800518e:	d185      	bne.n	800509c <chvprintf+0x38c>
 8005190:	4630      	mov	r0, r6
 8005192:	9302      	str	r3, [sp, #8]
 8005194:	4790      	blx	r2
 8005196:	9b01      	ldr	r3, [sp, #4]
 8005198:	6832      	ldr	r2, [r6, #0]
 800519a:	3b01      	subs	r3, #1
 800519c:	9301      	str	r3, [sp, #4]
 800519e:	9b02      	ldr	r3, [sp, #8]
 80051a0:	6892      	ldr	r2, [r2, #8]
 80051a2:	f10b 0b01 	add.w	fp, fp, #1
 80051a6:	3501      	adds	r5, #1
 80051a8:	4698      	mov	r8, r3
 80051aa:	e77b      	b.n	80050a4 <chvprintf+0x394>
 80051ac:	f04f 0c10 	mov.w	ip, #16
 80051b0:	e7a7      	b.n	8005102 <chvprintf+0x3f2>
 80051b2:	f10a 0204 	add.w	r2, sl, #4
 80051b6:	f8da 1000 	ldr.w	r1, [sl]
 80051ba:	4692      	mov	sl, r2
 80051bc:	2900      	cmp	r1, #0
 80051be:	db62      	blt.n	8005286 <chvprintf+0x576>
 80051c0:	ad0a      	add	r5, sp, #40	; 0x28
 80051c2:	9503      	str	r5, [sp, #12]
 80051c4:	f105 020b 	add.w	r2, r5, #11
 80051c8:	f8df 80a0 	ldr.w	r8, [pc, #160]	; 800526c <chvprintf+0x55c>
 80051cc:	4610      	mov	r0, r2
 80051ce:	fba8 c301 	umull	ip, r3, r8, r1
 80051d2:	08db      	lsrs	r3, r3, #3
 80051d4:	eb03 0e83 	add.w	lr, r3, r3, lsl #2
 80051d8:	469c      	mov	ip, r3
 80051da:	eba1 034e 	sub.w	r3, r1, lr, lsl #1
 80051de:	3330      	adds	r3, #48	; 0x30
 80051e0:	b2db      	uxtb	r3, r3
 80051e2:	4661      	mov	r1, ip
 80051e4:	f800 3d01 	strb.w	r3, [r0, #-1]!
 80051e8:	2900      	cmp	r1, #0
 80051ea:	d1f0      	bne.n	80051ce <chvprintf+0x4be>
 80051ec:	1a12      	subs	r2, r2, r0
 80051ee:	442a      	add	r2, r5
 80051f0:	e001      	b.n	80051f6 <chvprintf+0x4e6>
 80051f2:	f810 3f01 	ldrb.w	r3, [r0, #1]!
 80051f6:	f805 3b01 	strb.w	r3, [r5], #1
 80051fa:	42aa      	cmp	r2, r5
 80051fc:	d1f9      	bne.n	80051f2 <chvprintf+0x4e2>
 80051fe:	9d03      	ldr	r5, [sp, #12]
 8005200:	1b52      	subs	r2, r2, r5
 8005202:	1e53      	subs	r3, r2, #1
 8005204:	1aa4      	subs	r4, r4, r2
 8005206:	9301      	str	r3, [sp, #4]
 8005208:	e73b      	b.n	8005082 <chvprintf+0x372>
 800520a:	4652      	mov	r2, sl
 800520c:	2b19      	cmp	r3, #25
 800520e:	f852 1b04 	ldr.w	r1, [r2], #4
 8005212:	46a9      	mov	r9, r5
 8005214:	bf88      	it	hi
 8005216:	4692      	movhi	sl, r2
 8005218:	d8d0      	bhi.n	80051bc <chvprintf+0x4ac>
 800521a:	e7cc      	b.n	80051b6 <chvprintf+0x4a6>
 800521c:	46a9      	mov	r9, r5
 800521e:	f04f 0c10 	mov.w	ip, #16
 8005222:	e76e      	b.n	8005102 <chvprintf+0x3f2>
 8005224:	232d      	movs	r3, #45	; 0x2d
 8005226:	f88d 3028 	strb.w	r3, [sp, #40]	; 0x28
 800522a:	f10d 0329 	add.w	r3, sp, #41	; 0x29
 800522e:	9301      	str	r3, [sp, #4]
 8005230:	ab0a      	add	r3, sp, #40	; 0x28
 8005232:	eeb1 8a48 	vneg.f32	s16, s16
 8005236:	9303      	str	r3, [sp, #12]
 8005238:	e689      	b.n	8004f4e <chvprintf+0x23e>
 800523a:	490d      	ldr	r1, [pc, #52]	; (8005270 <chvprintf+0x560>)
 800523c:	460d      	mov	r5, r1
 800523e:	f1b8 0f00 	cmp.w	r8, #0
 8005242:	f43f ae5d 	beq.w	8004f00 <chvprintf+0x1f0>
 8005246:	f108 38ff 	add.w	r8, r8, #4294967295	; 0xffffffff
 800524a:	e65b      	b.n	8004f04 <chvprintf+0x1f4>
 800524c:	ed9f 7b04 	vldr	d7, [pc, #16]	; 8005260 <chvprintf+0x550>
 8005250:	4d08      	ldr	r5, [pc, #32]	; (8005274 <chvprintf+0x564>)
 8005252:	9509      	str	r5, [sp, #36]	; 0x24
 8005254:	ed8d 7b06 	vstr	d7, [sp, #24]
 8005258:	e693      	b.n	8004f82 <chvprintf+0x272>
 800525a:	bf00      	nop
 800525c:	f3af 8000 	nop.w
 8005260:	00000000 	.word	0x00000000
 8005264:	41cdcd65 	.word	0x41cdcd65
 8005268:	08006660 	.word	0x08006660
 800526c:	cccccccd 	.word	0xcccccccd
 8005270:	08006650 	.word	0x08006650
 8005274:	05f5e100 	.word	0x05f5e100
 8005278:	2b00      	cmp	r3, #0
 800527a:	d1e4      	bne.n	8005246 <chvprintf+0x536>
 800527c:	f04f 33ff 	mov.w	r3, #4294967295	; 0xffffffff
 8005280:	9301      	str	r3, [sp, #4]
 8005282:	2720      	movs	r7, #32
 8005284:	e6fd      	b.n	8005082 <chvprintf+0x372>
 8005286:	232d      	movs	r3, #45	; 0x2d
 8005288:	f88d 3028 	strb.w	r3, [sp, #40]	; 0x28
 800528c:	ab0a      	add	r3, sp, #40	; 0x28
 800528e:	4249      	negs	r1, r1
 8005290:	f10d 0529 	add.w	r5, sp, #41	; 0x29
 8005294:	9303      	str	r3, [sp, #12]
 8005296:	e795      	b.n	80051c4 <chvprintf+0x4b4>
 8005298:	f04f 33ff 	mov.w	r3, #4294967295	; 0xffffffff
 800529c:	9301      	str	r3, [sp, #4]
 800529e:	2720      	movs	r7, #32
 80052a0:	e6f1      	b.n	8005086 <chvprintf+0x376>
 80052a2:	bf00      	nop
	...

080052b0 <messagebus_init>:
 80052b0:	2300      	movs	r3, #0
 80052b2:	e9c0 1201 	strd	r1, r2, [r0, #4]
 80052b6:	6003      	str	r3, [r0, #0]
 80052b8:	4770      	bx	lr
 80052ba:	bf00      	nop
 80052bc:	0000      	movs	r0, r0
	...

080052c0 <messagebus_topic_init>:
 80052c0:	b5f8      	push	{r3, r4, r5, r6, r7, lr}
 80052c2:	4604      	mov	r4, r0
 80052c4:	460e      	mov	r6, r1
 80052c6:	4615      	mov	r5, r2
 80052c8:	3010      	adds	r0, #16
 80052ca:	224c      	movs	r2, #76	; 0x4c
 80052cc:	2100      	movs	r1, #0
 80052ce:	461f      	mov	r7, r3
 80052d0:	f000 fd96 	bl	8005e00 <memset>
 80052d4:	9b06      	ldr	r3, [sp, #24]
 80052d6:	6027      	str	r7, [r4, #0]
 80052d8:	e9c4 3601 	strd	r3, r6, [r4, #4]
 80052dc:	60e5      	str	r5, [r4, #12]
 80052de:	bdf8      	pop	{r3, r4, r5, r6, r7, pc}

080052e0 <messagebus_advertise_topic>:
 80052e0:	f101 0310 	add.w	r3, r1, #16
 80052e4:	b570      	push	{r4, r5, r6, lr}
 80052e6:	4604      	mov	r4, r0
 80052e8:	4616      	mov	r6, r2
 80052ea:	4618      	mov	r0, r3
 80052ec:	2241      	movs	r2, #65	; 0x41
 80052ee:	460d      	mov	r5, r1
 80052f0:	2100      	movs	r1, #0
 80052f2:	f000 fd85 	bl	8005e00 <memset>
 80052f6:	4631      	mov	r1, r6
 80052f8:	2240      	movs	r2, #64	; 0x40
 80052fa:	f000 fdd1 	bl	8005ea0 <strncpy>
 80052fe:	6860      	ldr	r0, [r4, #4]
 8005300:	f000 f876 	bl	80053f0 <messagebus_lock_acquire>
 8005304:	6823      	ldr	r3, [r4, #0]
 8005306:	b103      	cbz	r3, 800530a <messagebus_advertise_topic+0x2a>
 8005308:	65ab      	str	r3, [r5, #88]	; 0x58
 800530a:	68a0      	ldr	r0, [r4, #8]
 800530c:	6025      	str	r5, [r4, #0]
 800530e:	f000 f87f 	bl	8005410 <messagebus_condvar_broadcast>
 8005312:	6860      	ldr	r0, [r4, #4]
 8005314:	e8bd 4070 	ldmia.w	sp!, {r4, r5, r6, lr}
 8005318:	f000 b872 	b.w	8005400 <messagebus_lock_release>
 800531c:	0000      	movs	r0, r0
	...

08005320 <messagebus_find_topic_blocking>:
 8005320:	b570      	push	{r4, r5, r6, lr}
 8005322:	4606      	mov	r6, r0
 8005324:	6840      	ldr	r0, [r0, #4]
 8005326:	460d      	mov	r5, r1
 8005328:	f000 f862 	bl	80053f0 <messagebus_lock_acquire>
 800532c:	6834      	ldr	r4, [r6, #0]
 800532e:	b914      	cbnz	r4, 8005336 <messagebus_find_topic_blocking+0x16>
 8005330:	e00d      	b.n	800534e <messagebus_find_topic_blocking+0x2e>
 8005332:	6da4      	ldr	r4, [r4, #88]	; 0x58
 8005334:	b15c      	cbz	r4, 800534e <messagebus_find_topic_blocking+0x2e>
 8005336:	f104 0110 	add.w	r1, r4, #16
 800533a:	4628      	mov	r0, r5
 800533c:	f7fb fcd4 	bl	8000ce8 <strcmp>
 8005340:	2800      	cmp	r0, #0
 8005342:	d1f6      	bne.n	8005332 <messagebus_find_topic_blocking+0x12>
 8005344:	6870      	ldr	r0, [r6, #4]
 8005346:	f000 f85b 	bl	8005400 <messagebus_lock_release>
 800534a:	4620      	mov	r0, r4
 800534c:	bd70      	pop	{r4, r5, r6, pc}
 800534e:	68b0      	ldr	r0, [r6, #8]
 8005350:	f000 f866 	bl	8005420 <messagebus_condvar_wait>
 8005354:	e7ea      	b.n	800532c <messagebus_find_topic_blocking+0xc>
 8005356:	bf00      	nop
	...

08005360 <messagebus_topic_publish>:
 8005360:	6843      	ldr	r3, [r0, #4]
 8005362:	4293      	cmp	r3, r2
 8005364:	d201      	bcs.n	800536a <messagebus_topic_publish+0xa>
 8005366:	2000      	movs	r0, #0
 8005368:	4770      	bx	lr
 800536a:	b570      	push	{r4, r5, r6, lr}
 800536c:	4605      	mov	r5, r0
 800536e:	4614      	mov	r4, r2
 8005370:	460e      	mov	r6, r1
 8005372:	6880      	ldr	r0, [r0, #8]
 8005374:	f000 f83c 	bl	80053f0 <messagebus_lock_acquire>
 8005378:	4622      	mov	r2, r4
 800537a:	4631      	mov	r1, r6
 800537c:	6828      	ldr	r0, [r5, #0]
 800537e:	f7fb fc0f 	bl	8000ba0 <memcpy>
 8005382:	2301      	movs	r3, #1
 8005384:	f885 3051 	strb.w	r3, [r5, #81]	; 0x51
 8005388:	68e8      	ldr	r0, [r5, #12]
 800538a:	f000 f841 	bl	8005410 <messagebus_condvar_broadcast>
 800538e:	6d6c      	ldr	r4, [r5, #84]	; 0x54
 8005390:	b17c      	cbz	r4, 80053b2 <messagebus_topic_publish+0x52>
 8005392:	6823      	ldr	r3, [r4, #0]
 8005394:	6818      	ldr	r0, [r3, #0]
 8005396:	f000 f82b 	bl	80053f0 <messagebus_lock_acquire>
 800539a:	6823      	ldr	r3, [r4, #0]
 800539c:	6858      	ldr	r0, [r3, #4]
 800539e:	609d      	str	r5, [r3, #8]
 80053a0:	f000 f836 	bl	8005410 <messagebus_condvar_broadcast>
 80053a4:	6823      	ldr	r3, [r4, #0]
 80053a6:	6818      	ldr	r0, [r3, #0]
 80053a8:	f000 f82a 	bl	8005400 <messagebus_lock_release>
 80053ac:	6864      	ldr	r4, [r4, #4]
 80053ae:	2c00      	cmp	r4, #0
 80053b0:	d1ef      	bne.n	8005392 <messagebus_topic_publish+0x32>
 80053b2:	68a8      	ldr	r0, [r5, #8]
 80053b4:	f000 f824 	bl	8005400 <messagebus_lock_release>
 80053b8:	2001      	movs	r0, #1
 80053ba:	bd70      	pop	{r4, r5, r6, pc}
 80053bc:	0000      	movs	r0, r0
	...

080053c0 <messagebus_topic_wait>:
 80053c0:	b570      	push	{r4, r5, r6, lr}
 80053c2:	4604      	mov	r4, r0
 80053c4:	6880      	ldr	r0, [r0, #8]
 80053c6:	460d      	mov	r5, r1
 80053c8:	4616      	mov	r6, r2
 80053ca:	f000 f811 	bl	80053f0 <messagebus_lock_acquire>
 80053ce:	68e0      	ldr	r0, [r4, #12]
 80053d0:	f000 f826 	bl	8005420 <messagebus_condvar_wait>
 80053d4:	4632      	mov	r2, r6
 80053d6:	4628      	mov	r0, r5
 80053d8:	6821      	ldr	r1, [r4, #0]
 80053da:	f7fb fbe1 	bl	8000ba0 <memcpy>
 80053de:	68a0      	ldr	r0, [r4, #8]
 80053e0:	e8bd 4070 	ldmia.w	sp!, {r4, r5, r6, lr}
 80053e4:	f000 b80c 	b.w	8005400 <messagebus_lock_release>
	...

080053f0 <messagebus_lock_acquire>:
 80053f0:	f7fc bd0e 	b.w	8001e10 <chMtxLock>
	...

08005400 <messagebus_lock_release>:
 8005400:	f7fc bd2e 	b.w	8001e60 <chMtxUnlock>
	...

08005410 <messagebus_condvar_broadcast>:
 8005410:	f7fc be26 	b.w	8002060 <chCondBroadcast>
	...

08005420 <messagebus_condvar_wait>:
 8005420:	f7fc be86 	b.w	8002130 <chCondWait>
	...

08005430 <i2c_start>:
 8005430:	4810      	ldr	r0, [pc, #64]	; (8005474 <i2c_start+0x44>)
 8005432:	b538      	push	{r3, r4, r5, lr}
 8005434:	2205      	movs	r2, #5
 8005436:	f44f 7180 	mov.w	r1, #256	; 0x100
 800543a:	4605      	mov	r5, r0
 800543c:	f7fe fbc8 	bl	8003bd0 <_pal_lld_setgroupmode>
 8005440:	2420      	movs	r4, #32
 8005442:	696b      	ldr	r3, [r5, #20]
 8005444:	f483 7380 	eor.w	r3, r3, #256	; 0x100
 8005448:	616b      	str	r3, [r5, #20]
 800544a:	2001      	movs	r0, #1
 800544c:	f7fc fa30 	bl	80018b0 <chThdSleep>
 8005450:	1e63      	subs	r3, r4, #1
 8005452:	f013 04ff 	ands.w	r4, r3, #255	; 0xff
 8005456:	d1f4      	bne.n	8005442 <i2c_start+0x12>
 8005458:	f44f 7180 	mov.w	r1, #256	; 0x100
 800545c:	8329      	strh	r1, [r5, #24]
 800545e:	4805      	ldr	r0, [pc, #20]	; (8005474 <i2c_start+0x44>)
 8005460:	f240 2206 	movw	r2, #518	; 0x206
 8005464:	f7fe fbb4 	bl	8003bd0 <_pal_lld_setgroupmode>
 8005468:	4903      	ldr	r1, [pc, #12]	; (8005478 <i2c_start+0x48>)
 800546a:	4804      	ldr	r0, [pc, #16]	; (800547c <i2c_start+0x4c>)
 800546c:	e8bd 4038 	ldmia.w	sp!, {r3, r4, r5, lr}
 8005470:	f7fd ba3e 	b.w	80028f0 <i2cStart>
 8005474:	40020400 	.word	0x40020400
 8005478:	08006690 	.word	0x08006690
 800547c:	20000f54 	.word	0x20000f54

08005480 <read_reg>:
 8005480:	b570      	push	{r4, r5, r6, lr}
 8005482:	4c1c      	ldr	r4, [pc, #112]	; (80054f4 <read_reg+0x74>)
 8005484:	b086      	sub	sp, #24
 8005486:	2300      	movs	r3, #0
 8005488:	4605      	mov	r5, r0
 800548a:	4620      	mov	r0, r4
 800548c:	f88d 3014 	strb.w	r3, [sp, #20]
 8005490:	f88d 1010 	strb.w	r1, [sp, #16]
 8005494:	4616      	mov	r6, r2
 8005496:	f7fd fb1b 	bl	8002ad0 <i2cAcquireBus>
 800549a:	7823      	ldrb	r3, [r4, #0]
 800549c:	2b01      	cmp	r3, #1
 800549e:	d00c      	beq.n	80054ba <read_reg+0x3a>
 80054a0:	2004      	movs	r0, #4
 80054a2:	2301      	movs	r3, #1
 80054a4:	aa05      	add	r2, sp, #20
 80054a6:	4629      	mov	r1, r5
 80054a8:	e9cd 3001 	strd	r3, r0, [sp, #4]
 80054ac:	9200      	str	r2, [sp, #0]
 80054ae:	4620      	mov	r0, r4
 80054b0:	aa04      	add	r2, sp, #16
 80054b2:	f7fd faad 	bl	8002a10 <i2cMasterTransmitTimeout>
 80054b6:	4605      	mov	r5, r0
 80054b8:	b940      	cbnz	r0, 80054cc <read_reg+0x4c>
 80054ba:	480e      	ldr	r0, [pc, #56]	; (80054f4 <read_reg+0x74>)
 80054bc:	f7fd fb20 	bl	8002b00 <i2cReleaseBus>
 80054c0:	f89d 3014 	ldrb.w	r3, [sp, #20]
 80054c4:	7033      	strb	r3, [r6, #0]
 80054c6:	2000      	movs	r0, #0
 80054c8:	b006      	add	sp, #24
 80054ca:	bd70      	pop	{r4, r5, r6, pc}
 80054cc:	4620      	mov	r0, r4
 80054ce:	f7fd fa8f 	bl	80029f0 <i2cGetErrors>
 80054d2:	7823      	ldrb	r3, [r4, #0]
 80054d4:	4a08      	ldr	r2, [pc, #32]	; (80054f8 <read_reg+0x78>)
 80054d6:	2b05      	cmp	r3, #5
 80054d8:	6010      	str	r0, [r2, #0]
 80054da:	d005      	beq.n	80054e8 <read_reg+0x68>
 80054dc:	4805      	ldr	r0, [pc, #20]	; (80054f4 <read_reg+0x74>)
 80054de:	f7fd fb0f 	bl	8002b00 <i2cReleaseBus>
 80054e2:	b268      	sxtb	r0, r5
 80054e4:	b006      	add	sp, #24
 80054e6:	bd70      	pop	{r4, r5, r6, pc}
 80054e8:	4620      	mov	r0, r4
 80054ea:	f7fd fa41 	bl	8002970 <i2cStop>
 80054ee:	f7ff ff9f 	bl	8005430 <i2c_start>
 80054f2:	e7f3      	b.n	80054dc <read_reg+0x5c>
 80054f4:	20000f54 	.word	0x20000f54
 80054f8:	20001294 	.word	0x20001294
 80054fc:	00000000 	.word	0x00000000

08005500 <write_reg>:
 8005500:	b570      	push	{r4, r5, r6, lr}
 8005502:	4c1b      	ldr	r4, [pc, #108]	; (8005570 <write_reg+0x70>)
 8005504:	b086      	sub	sp, #24
 8005506:	4606      	mov	r6, r0
 8005508:	2500      	movs	r5, #0
 800550a:	4620      	mov	r0, r4
 800550c:	f88d 1014 	strb.w	r1, [sp, #20]
 8005510:	f88d 2015 	strb.w	r2, [sp, #21]
 8005514:	f88d 5010 	strb.w	r5, [sp, #16]
 8005518:	f7fd fada 	bl	8002ad0 <i2cAcquireBus>
 800551c:	7823      	ldrb	r3, [r4, #0]
 800551e:	2b01      	cmp	r3, #1
 8005520:	d00c      	beq.n	800553c <write_reg+0x3c>
 8005522:	2204      	movs	r2, #4
 8005524:	ab04      	add	r3, sp, #16
 8005526:	9501      	str	r5, [sp, #4]
 8005528:	9202      	str	r2, [sp, #8]
 800552a:	9300      	str	r3, [sp, #0]
 800552c:	4631      	mov	r1, r6
 800552e:	2302      	movs	r3, #2
 8005530:	aa05      	add	r2, sp, #20
 8005532:	4620      	mov	r0, r4
 8005534:	f7fd fa6c 	bl	8002a10 <i2cMasterTransmitTimeout>
 8005538:	4605      	mov	r5, r0
 800553a:	b928      	cbnz	r0, 8005548 <write_reg+0x48>
 800553c:	480c      	ldr	r0, [pc, #48]	; (8005570 <write_reg+0x70>)
 800553e:	f7fd fadf 	bl	8002b00 <i2cReleaseBus>
 8005542:	2000      	movs	r0, #0
 8005544:	b006      	add	sp, #24
 8005546:	bd70      	pop	{r4, r5, r6, pc}
 8005548:	4620      	mov	r0, r4
 800554a:	f7fd fa51 	bl	80029f0 <i2cGetErrors>
 800554e:	7823      	ldrb	r3, [r4, #0]
 8005550:	4a08      	ldr	r2, [pc, #32]	; (8005574 <write_reg+0x74>)
 8005552:	2b05      	cmp	r3, #5
 8005554:	6010      	str	r0, [r2, #0]
 8005556:	d005      	beq.n	8005564 <write_reg+0x64>
 8005558:	4805      	ldr	r0, [pc, #20]	; (8005570 <write_reg+0x70>)
 800555a:	f7fd fad1 	bl	8002b00 <i2cReleaseBus>
 800555e:	b268      	sxtb	r0, r5
 8005560:	b006      	add	sp, #24
 8005562:	bd70      	pop	{r4, r5, r6, pc}
 8005564:	4620      	mov	r0, r4
 8005566:	f7fd fa03 	bl	8002970 <i2cStop>
 800556a:	f7ff ff61 	bl	8005430 <i2c_start>
 800556e:	e7f3      	b.n	8005558 <write_reg+0x58>
 8005570:	20000f54 	.word	0x20000f54
 8005574:	20001294 	.word	0x20001294
	...

08005580 <read_reg_multi>:
 8005580:	b5f0      	push	{r4, r5, r6, r7, lr}
 8005582:	4c1a      	ldr	r4, [pc, #104]	; (80055ec <read_reg_multi+0x6c>)
 8005584:	b087      	sub	sp, #28
 8005586:	4605      	mov	r5, r0
 8005588:	4620      	mov	r0, r4
 800558a:	f88d 1017 	strb.w	r1, [sp, #23]
 800558e:	4616      	mov	r6, r2
 8005590:	461f      	mov	r7, r3
 8005592:	f7fd fa9d 	bl	8002ad0 <i2cAcquireBus>
 8005596:	7821      	ldrb	r1, [r4, #0]
 8005598:	2901      	cmp	r1, #1
 800559a:	d00c      	beq.n	80055b6 <read_reg_multi+0x36>
 800559c:	2304      	movs	r3, #4
 800559e:	4629      	mov	r1, r5
 80055a0:	9302      	str	r3, [sp, #8]
 80055a2:	e9cd 6700 	strd	r6, r7, [sp]
 80055a6:	2301      	movs	r3, #1
 80055a8:	f10d 0217 	add.w	r2, sp, #23
 80055ac:	4620      	mov	r0, r4
 80055ae:	f7fd fa2f 	bl	8002a10 <i2cMasterTransmitTimeout>
 80055b2:	4605      	mov	r5, r0
 80055b4:	b928      	cbnz	r0, 80055c2 <read_reg_multi+0x42>
 80055b6:	480d      	ldr	r0, [pc, #52]	; (80055ec <read_reg_multi+0x6c>)
 80055b8:	f7fd faa2 	bl	8002b00 <i2cReleaseBus>
 80055bc:	2000      	movs	r0, #0
 80055be:	b007      	add	sp, #28
 80055c0:	bdf0      	pop	{r4, r5, r6, r7, pc}
 80055c2:	4620      	mov	r0, r4
 80055c4:	f7fd fa14 	bl	80029f0 <i2cGetErrors>
 80055c8:	7823      	ldrb	r3, [r4, #0]
 80055ca:	4a09      	ldr	r2, [pc, #36]	; (80055f0 <read_reg_multi+0x70>)
 80055cc:	2b05      	cmp	r3, #5
 80055ce:	6010      	str	r0, [r2, #0]
 80055d0:	d005      	beq.n	80055de <read_reg_multi+0x5e>
 80055d2:	4806      	ldr	r0, [pc, #24]	; (80055ec <read_reg_multi+0x6c>)
 80055d4:	f7fd fa94 	bl	8002b00 <i2cReleaseBus>
 80055d8:	b268      	sxtb	r0, r5
 80055da:	b007      	add	sp, #28
 80055dc:	bdf0      	pop	{r4, r5, r6, r7, pc}
 80055de:	4620      	mov	r0, r4
 80055e0:	f7fd f9c6 	bl	8002970 <i2cStop>
 80055e4:	f7ff ff24 	bl	8005430 <i2c_start>
 80055e8:	e7f3      	b.n	80055d2 <read_reg_multi+0x52>
 80055ea:	bf00      	nop
 80055ec:	20000f54 	.word	0x20000f54
 80055f0:	20001294 	.word	0x20001294
	...

08005600 <chprintf.constprop.1>:
 8005600:	b40e      	push	{r1, r2, r3}
 8005602:	b500      	push	{lr}
 8005604:	b082      	sub	sp, #8
 8005606:	aa03      	add	r2, sp, #12
 8005608:	4805      	ldr	r0, [pc, #20]	; (8005620 <chprintf.constprop.1+0x20>)
 800560a:	f852 1b04 	ldr.w	r1, [r2], #4
 800560e:	9201      	str	r2, [sp, #4]
 8005610:	f7ff fb7e 	bl	8004d10 <chvprintf>
 8005614:	b002      	add	sp, #8
 8005616:	f85d eb04 	ldr.w	lr, [sp], #4
 800561a:	b003      	add	sp, #12
 800561c:	4770      	bx	lr
 800561e:	bf00      	nop
 8005620:	2000121c 	.word	0x2000121c
	...

08005630 <panic_handler>:
 8005630:	4b08      	ldr	r3, [pc, #32]	; (8005654 <panic_handler+0x24>)
 8005632:	4a09      	ldr	r2, [pc, #36]	; (8005658 <panic_handler+0x28>)
 8005634:	2020      	movs	r0, #32
 8005636:	2140      	movs	r1, #64	; 0x40
 8005638:	8358      	strh	r0, [r3, #26]
 800563a:	f44f 6580 	mov.w	r5, #1024	; 0x400
 800563e:	8359      	strh	r1, [r3, #26]
 8005640:	f44f 6400 	mov.w	r4, #2048	; 0x800
 8005644:	f44f 4080 	mov.w	r0, #16384	; 0x4000
 8005648:	2104      	movs	r1, #4
 800564a:	835d      	strh	r5, [r3, #26]
 800564c:	835c      	strh	r4, [r3, #26]
 800564e:	8358      	strh	r0, [r3, #26]
 8005650:	8351      	strh	r1, [r2, #26]
 8005652:	e7fe      	b.n	8005652 <panic_handler+0x22>
 8005654:	40020c00 	.word	0x40020c00
 8005658:	40020400 	.word	0x40020400
 800565c:	00000000 	.word	0x00000000

08005660 <show_gravity>:
 8005660:	b530      	push	{r4, r5, lr}
 8005662:	b083      	sub	sp, #12
 8005664:	2400      	movs	r4, #0
 8005666:	4605      	mov	r5, r0
 8005668:	f8ad 4006 	strh.w	r4, [sp, #6]
 800566c:	2320      	movs	r3, #32
 800566e:	f383 8811 	msr	BASEPRI, r3
 8005672:	f7fc faed 	bl	8001c50 <_stats_start_measure_crit_thd>
 8005676:	f7fb fd93 	bl	80011a0 <_dbg_check_lock>
 800567a:	4b37      	ldr	r3, [pc, #220]	; (8005758 <show_gravity+0xf8>)
 800567c:	68db      	ldr	r3, [r3, #12]
 800567e:	625c      	str	r4, [r3, #36]	; 0x24
 8005680:	6a5b      	ldr	r3, [r3, #36]	; 0x24
 8005682:	b29b      	uxth	r3, r3
 8005684:	f8ad 3006 	strh.w	r3, [sp, #6]
 8005688:	f7fb fd9a 	bl	80011c0 <_dbg_check_unlock>
 800568c:	f7fc fae8 	bl	8001c60 <_stats_stop_measure_crit_thd>
 8005690:	4b32      	ldr	r3, [pc, #200]	; (800575c <show_gravity+0xfc>)
 8005692:	681a      	ldr	r2, [r3, #0]
 8005694:	429a      	cmp	r2, r3
 8005696:	d004      	beq.n	80056a2 <show_gravity+0x42>
 8005698:	6999      	ldr	r1, [r3, #24]
 800569a:	6893      	ldr	r3, [r2, #8]
 800569c:	688a      	ldr	r2, [r1, #8]
 800569e:	429a      	cmp	r2, r3
 80056a0:	d32e      	bcc.n	8005700 <show_gravity+0xa0>
 80056a2:	2300      	movs	r3, #0
 80056a4:	f383 8811 	msr	BASEPRI, r3
 80056a8:	edd5 7a01 	vldr	s15, [r5, #4]
 80056ac:	eeb0 7a08 	vmov.f32	s14, #8	; 0x40400000  3.0
 80056b0:	eef4 7ac7 	vcmpe.f32	s15, s14
 80056b4:	eef1 fa10 	vmrs	APSR_nzcv, fpscr
 80056b8:	dc33      	bgt.n	8005722 <show_gravity+0xc2>
 80056ba:	eef8 6a08 	vmov.f32	s13, #136	; 0xc0400000 -3.0
 80056be:	eef4 7ae6 	vcmpe.f32	s15, s13
 80056c2:	eef1 fa10 	vmrs	APSR_nzcv, fpscr
 80056c6:	d41f      	bmi.n	8005708 <show_gravity+0xa8>
 80056c8:	edd5 7a00 	vldr	s15, [r5]
 80056cc:	eef4 7ac7 	vcmpe.f32	s15, s14
 80056d0:	eef1 fa10 	vmrs	APSR_nzcv, fpscr
 80056d4:	dc32      	bgt.n	800573c <show_gravity+0xdc>
 80056d6:	4b22      	ldr	r3, [pc, #136]	; (8005760 <show_gravity+0x100>)
 80056d8:	eef4 7ae6 	vcmpe.f32	s15, s13
 80056dc:	eef1 fa10 	vmrs	APSR_nzcv, fpscr
 80056e0:	f04f 0040 	mov.w	r0, #64	; 0x40
 80056e4:	f04f 0420 	mov.w	r4, #32
 80056e8:	f44f 6180 	mov.w	r1, #1024	; 0x400
 80056ec:	f44f 6200 	mov.w	r2, #2048	; 0x800
 80056f0:	831c      	strh	r4, [r3, #24]
 80056f2:	bf4c      	ite	mi
 80056f4:	8358      	strhmi	r0, [r3, #26]
 80056f6:	8318      	strhpl	r0, [r3, #24]
 80056f8:	8319      	strh	r1, [r3, #24]
 80056fa:	831a      	strh	r2, [r3, #24]
 80056fc:	b003      	add	sp, #12
 80056fe:	bd30      	pop	{r4, r5, pc}
 8005700:	4818      	ldr	r0, [pc, #96]	; (8005764 <show_gravity+0x104>)
 8005702:	f7fb fcdd 	bl	80010c0 <chSysHalt>
 8005706:	e7cc      	b.n	80056a2 <show_gravity+0x42>
 8005708:	4b15      	ldr	r3, [pc, #84]	; (8005760 <show_gravity+0x100>)
 800570a:	2420      	movs	r4, #32
 800570c:	2040      	movs	r0, #64	; 0x40
 800570e:	f44f 6180 	mov.w	r1, #1024	; 0x400
 8005712:	f44f 6200 	mov.w	r2, #2048	; 0x800
 8005716:	835c      	strh	r4, [r3, #26]
 8005718:	8318      	strh	r0, [r3, #24]
 800571a:	8319      	strh	r1, [r3, #24]
 800571c:	831a      	strh	r2, [r3, #24]
 800571e:	b003      	add	sp, #12
 8005720:	bd30      	pop	{r4, r5, pc}
 8005722:	4b0f      	ldr	r3, [pc, #60]	; (8005760 <show_gravity+0x100>)
 8005724:	2420      	movs	r4, #32
 8005726:	2040      	movs	r0, #64	; 0x40
 8005728:	f44f 6180 	mov.w	r1, #1024	; 0x400
 800572c:	f44f 6200 	mov.w	r2, #2048	; 0x800
 8005730:	831c      	strh	r4, [r3, #24]
 8005732:	8318      	strh	r0, [r3, #24]
 8005734:	8359      	strh	r1, [r3, #26]
 8005736:	831a      	strh	r2, [r3, #24]
 8005738:	b003      	add	sp, #12
 800573a:	bd30      	pop	{r4, r5, pc}
 800573c:	4b08      	ldr	r3, [pc, #32]	; (8005760 <show_gravity+0x100>)
 800573e:	2420      	movs	r4, #32
 8005740:	2040      	movs	r0, #64	; 0x40
 8005742:	f44f 6180 	mov.w	r1, #1024	; 0x400
 8005746:	f44f 6200 	mov.w	r2, #2048	; 0x800
 800574a:	831c      	strh	r4, [r3, #24]
 800574c:	8318      	strh	r0, [r3, #24]
 800574e:	8319      	strh	r1, [r3, #24]
 8005750:	835a      	strh	r2, [r3, #26]
 8005752:	b003      	add	sp, #12
 8005754:	bd30      	pop	{r4, r5, pc}
 8005756:	bf00      	nop
 8005758:	2000120c 	.word	0x2000120c
 800575c:	20000830 	.word	0x20000830
 8005760:	40020c00 	.word	0x40020c00
 8005764:	080066a0 	.word	0x080066a0
	...

08005770 <main>:
 8005770:	e92d 4ff0 	stmdb	sp!, {r4, r5, r6, r7, r8, r9, sl, fp, lr}
 8005774:	b0a1      	sub	sp, #132	; 0x84
 8005776:	f7fc fff3 	bl	8002760 <halInit>
 800577a:	f7fb fc41 	bl	8001000 <chSysInit>
 800577e:	484c      	ldr	r0, [pc, #304]	; (80058b0 <main+0x140>)
 8005780:	494c      	ldr	r1, [pc, #304]	; (80058b4 <main+0x144>)
 8005782:	4d4d      	ldr	r5, [pc, #308]	; (80058b8 <main+0x148>)
 8005784:	f8df 914c 	ldr.w	r9, [pc, #332]	; 80058d4 <main+0x164>
 8005788:	4604      	mov	r4, r0
 800578a:	f7fd fa39 	bl	8002c00 <sdStart>
 800578e:	494b      	ldr	r1, [pc, #300]	; (80058bc <main+0x14c>)
 8005790:	484b      	ldr	r0, [pc, #300]	; (80058c0 <main+0x150>)
 8005792:	f7fd f80d 	bl	80027b0 <gptStart>
 8005796:	f64f 71ff 	movw	r1, #65535	; 0xffff
 800579a:	4849      	ldr	r0, [pc, #292]	; (80058c0 <main+0x150>)
 800579c:	f7fd f868 	bl	8002870 <gptStartContinuous>
 80057a0:	f7ff fe46 	bl	8005430 <i2c_start>
 80057a4:	f000 faac 	bl	8005d00 <imu_start>
 80057a8:	4a46      	ldr	r2, [pc, #280]	; (80058c4 <main+0x154>)
 80057aa:	4947      	ldr	r1, [pc, #284]	; (80058c8 <main+0x158>)
 80057ac:	4847      	ldr	r0, [pc, #284]	; (80058cc <main+0x15c>)
 80057ae:	f7ff fd7f 	bl	80052b0 <messagebus_init>
 80057b2:	4947      	ldr	r1, [pc, #284]	; (80058d0 <main+0x160>)
 80057b4:	4845      	ldr	r0, [pc, #276]	; (80058cc <main+0x15c>)
 80057b6:	f7ff fdb3 	bl	8005320 <messagebus_find_topic_blocking>
 80057ba:	4680      	mov	r8, r0
 80057bc:	f44f 60fa 	mov.w	r0, #2000	; 0x7d0
 80057c0:	f7fc f876 	bl	80018b0 <chThdSleep>
 80057c4:	4640      	mov	r0, r8
 80057c6:	21c8      	movs	r1, #200	; 0xc8
 80057c8:	f000 faba 	bl	8005d40 <imu_compute_offset>
 80057cc:	a90c      	add	r1, sp, #48	; 0x30
 80057ce:	4640      	mov	r0, r8
 80057d0:	2250      	movs	r2, #80	; 0x50
 80057d2:	f7ff fdf5 	bl	80053c0 <messagebus_topic_wait>
 80057d6:	f9bd 7062 	ldrsh.w	r7, [sp, #98]	; 0x62
 80057da:	f9bd 6060 	ldrsh.w	r6, [sp, #96]	; 0x60
 80057de:	f9bd 005e 	ldrsh.w	r0, [sp, #94]	; 0x5e
 80057e2:	f9bd 105c 	ldrsh.w	r1, [sp, #92]	; 0x5c
 80057e6:	f9bd 305a 	ldrsh.w	r3, [sp, #90]	; 0x5a
 80057ea:	f9bd 2058 	ldrsh.w	r2, [sp, #88]	; 0x58
 80057ee:	e9cd 6702 	strd	r6, r7, [sp, #8]
 80057f2:	e9cd 1000 	strd	r1, r0, [sp]
 80057f6:	4629      	mov	r1, r5
 80057f8:	4620      	mov	r0, r4
 80057fa:	f7ff ff01 	bl	8005600 <chprintf.constprop.1>
 80057fe:	f9bd b062 	ldrsh.w	fp, [sp, #98]	; 0x62
 8005802:	f9bd 206e 	ldrsh.w	r2, [sp, #110]	; 0x6e
 8005806:	f9bd 706c 	ldrsh.w	r7, [sp, #108]	; 0x6c
 800580a:	f9bd 6060 	ldrsh.w	r6, [sp, #96]	; 0x60
 800580e:	f9bd e068 	ldrsh.w	lr, [sp, #104]	; 0x68
 8005812:	f9bd 005e 	ldrsh.w	r0, [sp, #94]	; 0x5e
 8005816:	f9bd a06a 	ldrsh.w	sl, [sp, #106]	; 0x6a
 800581a:	f9bd 105c 	ldrsh.w	r1, [sp, #92]	; 0x5c
 800581e:	f9bd c05a 	ldrsh.w	ip, [sp, #90]	; 0x5a
 8005822:	f9bd 3066 	ldrsh.w	r3, [sp, #102]	; 0x66
 8005826:	ebab 0202 	sub.w	r2, fp, r2
 800582a:	1bf6      	subs	r6, r6, r7
 800582c:	9203      	str	r2, [sp, #12]
 800582e:	f9bd 7058 	ldrsh.w	r7, [sp, #88]	; 0x58
 8005832:	f9bd 2064 	ldrsh.w	r2, [sp, #100]	; 0x64
 8005836:	9602      	str	r6, [sp, #8]
 8005838:	eba1 010e 	sub.w	r1, r1, lr
 800583c:	eba0 000a 	sub.w	r0, r0, sl
 8005840:	ebac 0303 	sub.w	r3, ip, r3
 8005844:	1aba      	subs	r2, r7, r2
 8005846:	e9cd 1000 	strd	r1, r0, [sp]
 800584a:	4629      	mov	r1, r5
 800584c:	4620      	mov	r0, r4
 800584e:	f7ff fed7 	bl	8005600 <chprintf.constprop.1>
 8005852:	980c      	ldr	r0, [sp, #48]	; 0x30
 8005854:	f7fa feb8 	bl	80005c8 <__aeabi_f2d>
 8005858:	f89d 307c 	ldrb.w	r3, [sp, #124]	; 0x7c
 800585c:	930a      	str	r3, [sp, #40]	; 0x28
 800585e:	4606      	mov	r6, r0
 8005860:	9811      	ldr	r0, [sp, #68]	; 0x44
 8005862:	460f      	mov	r7, r1
 8005864:	f7fa feb0 	bl	80005c8 <__aeabi_f2d>
 8005868:	e9cd 0108 	strd	r0, r1, [sp, #32]
 800586c:	9810      	ldr	r0, [sp, #64]	; 0x40
 800586e:	f7fa feab 	bl	80005c8 <__aeabi_f2d>
 8005872:	e9cd 0106 	strd	r0, r1, [sp, #24]
 8005876:	980f      	ldr	r0, [sp, #60]	; 0x3c
 8005878:	f7fa fea6 	bl	80005c8 <__aeabi_f2d>
 800587c:	e9cd 0104 	strd	r0, r1, [sp, #16]
 8005880:	980e      	ldr	r0, [sp, #56]	; 0x38
 8005882:	f7fa fea1 	bl	80005c8 <__aeabi_f2d>
 8005886:	e9cd 0102 	strd	r0, r1, [sp, #8]
 800588a:	980d      	ldr	r0, [sp, #52]	; 0x34
 800588c:	f7fa fe9c 	bl	80005c8 <__aeabi_f2d>
 8005890:	4632      	mov	r2, r6
 8005892:	e9cd 0100 	strd	r0, r1, [sp]
 8005896:	463b      	mov	r3, r7
 8005898:	4649      	mov	r1, r9
 800589a:	4620      	mov	r0, r4
 800589c:	f7ff feb0 	bl	8005600 <chprintf.constprop.1>
 80058a0:	a80c      	add	r0, sp, #48	; 0x30
 80058a2:	f7ff fedd 	bl	8005660 <show_gravity>
 80058a6:	2064      	movs	r0, #100	; 0x64
 80058a8:	f7fc f802 	bl	80018b0 <chThdSleep>
 80058ac:	e78e      	b.n	80057cc <main+0x5c>
 80058ae:	bf00      	nop
 80058b0:	2000121c 	.word	0x2000121c
 80058b4:	2000081c 	.word	0x2000081c
 80058b8:	080066c8 	.word	0x080066c8
 80058bc:	080066b0 	.word	0x080066b0
 80058c0:	2000120c 	.word	0x2000120c
 80058c4:	20000800 	.word	0x20000800
 80058c8:	20000808 	.word	0x20000808
 80058cc:	20001298 	.word	0x20001298
 80058d0:	080066c0 	.word	0x080066c0
 80058d4:	080066fc 	.word	0x080066fc
	...

080058e0 <mpu9250_setup>:
 80058e0:	b570      	push	{r4, r5, r6, lr}
 80058e2:	4c4c      	ldr	r4, [pc, #304]	; (8005a14 <mpu9250_setup+0x134>)
 80058e4:	b082      	sub	sp, #8
 80058e6:	4605      	mov	r5, r0
 80058e8:	2300      	movs	r3, #0
 80058ea:	7820      	ldrb	r0, [r4, #0]
 80058ec:	f88d 3007 	strb.w	r3, [sp, #7]
 80058f0:	2280      	movs	r2, #128	; 0x80
 80058f2:	216b      	movs	r1, #107	; 0x6b
 80058f4:	f7ff fe04 	bl	8005500 <write_reg>
 80058f8:	b158      	cbz	r0, 8005912 <mpu9250_setup+0x32>
 80058fa:	7823      	ldrb	r3, [r4, #0]
 80058fc:	2b68      	cmp	r3, #104	; 0x68
 80058fe:	bf0c      	ite	eq
 8005900:	2069      	moveq	r0, #105	; 0x69
 8005902:	2068      	movne	r0, #104	; 0x68
 8005904:	2280      	movs	r2, #128	; 0x80
 8005906:	216b      	movs	r1, #107	; 0x6b
 8005908:	7020      	strb	r0, [r4, #0]
 800590a:	f7ff fdf9 	bl	8005500 <write_reg>
 800590e:	2800      	cmp	r0, #0
 8005910:	d17d      	bne.n	8005a0e <mpu9250_setup+0x12e>
 8005912:	2001      	movs	r0, #1
 8005914:	f7fb ffcc 	bl	80018b0 <chThdSleep>
 8005918:	2668      	movs	r6, #104	; 0x68
 800591a:	e001      	b.n	8005920 <mpu9250_setup+0x40>
 800591c:	f7fb ffc8 	bl	80018b0 <chThdSleep>
 8005920:	f10d 0207 	add.w	r2, sp, #7
 8005924:	216b      	movs	r1, #107	; 0x6b
 8005926:	7820      	ldrb	r0, [r4, #0]
 8005928:	f7ff fdaa 	bl	8005480 <read_reg>
 800592c:	b178      	cbz	r0, 800594e <mpu9250_setup+0x6e>
 800592e:	7823      	ldrb	r3, [r4, #0]
 8005930:	2b68      	cmp	r3, #104	; 0x68
 8005932:	bf0c      	ite	eq
 8005934:	2069      	moveq	r0, #105	; 0x69
 8005936:	2068      	movne	r0, #104	; 0x68
 8005938:	f04f 016b 	mov.w	r1, #107	; 0x6b
 800593c:	f10d 0207 	add.w	r2, sp, #7
 8005940:	bf0c      	ite	eq
 8005942:	7020      	strbeq	r0, [r4, #0]
 8005944:	7026      	strbne	r6, [r4, #0]
 8005946:	f7ff fd9b 	bl	8005480 <read_reg>
 800594a:	2800      	cmp	r0, #0
 800594c:	d15f      	bne.n	8005a0e <mpu9250_setup+0x12e>
 800594e:	f99d 3007 	ldrsb.w	r3, [sp, #7]
 8005952:	2b00      	cmp	r3, #0
 8005954:	f04f 0001 	mov.w	r0, #1
 8005958:	dbe0      	blt.n	800591c <mpu9250_setup+0x3c>
 800595a:	006e      	lsls	r6, r5, #1
 800595c:	f006 0618 	and.w	r6, r6, #24
 8005960:	4632      	mov	r2, r6
 8005962:	211b      	movs	r1, #27
 8005964:	7820      	ldrb	r0, [r4, #0]
 8005966:	f7ff fdcb 	bl	8005500 <write_reg>
 800596a:	b158      	cbz	r0, 8005984 <mpu9250_setup+0xa4>
 800596c:	7823      	ldrb	r3, [r4, #0]
 800596e:	2b68      	cmp	r3, #104	; 0x68
 8005970:	bf0c      	ite	eq
 8005972:	2069      	moveq	r0, #105	; 0x69
 8005974:	2068      	movne	r0, #104	; 0x68
 8005976:	4632      	mov	r2, r6
 8005978:	211b      	movs	r1, #27
 800597a:	7020      	strb	r0, [r4, #0]
 800597c:	f7ff fdc0 	bl	8005500 <write_reg>
 8005980:	2800      	cmp	r0, #0
 8005982:	d144      	bne.n	8005a0e <mpu9250_setup+0x12e>
 8005984:	00ee      	lsls	r6, r5, #3
 8005986:	2001      	movs	r0, #1
 8005988:	f006 0618 	and.w	r6, r6, #24
 800598c:	f7fb ff90 	bl	80018b0 <chThdSleep>
 8005990:	4632      	mov	r2, r6
 8005992:	211c      	movs	r1, #28
 8005994:	7820      	ldrb	r0, [r4, #0]
 8005996:	f7ff fdb3 	bl	8005500 <write_reg>
 800599a:	b150      	cbz	r0, 80059b2 <mpu9250_setup+0xd2>
 800599c:	7823      	ldrb	r3, [r4, #0]
 800599e:	2b68      	cmp	r3, #104	; 0x68
 80059a0:	bf0c      	ite	eq
 80059a2:	2069      	moveq	r0, #105	; 0x69
 80059a4:	2068      	movne	r0, #104	; 0x68
 80059a6:	4632      	mov	r2, r6
 80059a8:	211c      	movs	r1, #28
 80059aa:	7020      	strb	r0, [r4, #0]
 80059ac:	f7ff fda8 	bl	8005500 <write_reg>
 80059b0:	bb68      	cbnz	r0, 8005a0e <mpu9250_setup+0x12e>
 80059b2:	2001      	movs	r0, #1
 80059b4:	f3c5 2507 	ubfx	r5, r5, #8, #8
 80059b8:	f7fb ff7a 	bl	80018b0 <chThdSleep>
 80059bc:	462a      	mov	r2, r5
 80059be:	2119      	movs	r1, #25
 80059c0:	7820      	ldrb	r0, [r4, #0]
 80059c2:	f7ff fd9d 	bl	8005500 <write_reg>
 80059c6:	b150      	cbz	r0, 80059de <mpu9250_setup+0xfe>
 80059c8:	7823      	ldrb	r3, [r4, #0]
 80059ca:	2b68      	cmp	r3, #104	; 0x68
 80059cc:	bf0c      	ite	eq
 80059ce:	2069      	moveq	r0, #105	; 0x69
 80059d0:	2068      	movne	r0, #104	; 0x68
 80059d2:	462a      	mov	r2, r5
 80059d4:	2119      	movs	r1, #25
 80059d6:	7020      	strb	r0, [r4, #0]
 80059d8:	f7ff fd92 	bl	8005500 <write_reg>
 80059dc:	b9b8      	cbnz	r0, 8005a0e <mpu9250_setup+0x12e>
 80059de:	2001      	movs	r0, #1
 80059e0:	f7fb ff66 	bl	80018b0 <chThdSleep>
 80059e4:	2201      	movs	r2, #1
 80059e6:	2138      	movs	r1, #56	; 0x38
 80059e8:	7820      	ldrb	r0, [r4, #0]
 80059ea:	f7ff fd89 	bl	8005500 <write_reg>
 80059ee:	b150      	cbz	r0, 8005a06 <mpu9250_setup+0x126>
 80059f0:	7823      	ldrb	r3, [r4, #0]
 80059f2:	2b68      	cmp	r3, #104	; 0x68
 80059f4:	bf0c      	ite	eq
 80059f6:	2069      	moveq	r0, #105	; 0x69
 80059f8:	2068      	movne	r0, #104	; 0x68
 80059fa:	2201      	movs	r2, #1
 80059fc:	2138      	movs	r1, #56	; 0x38
 80059fe:	7020      	strb	r0, [r4, #0]
 8005a00:	f7ff fd7e 	bl	8005500 <write_reg>
 8005a04:	b918      	cbnz	r0, 8005a0e <mpu9250_setup+0x12e>
 8005a06:	2001      	movs	r0, #1
 8005a08:	f7fb ff52 	bl	80018b0 <chThdSleep>
 8005a0c:	2000      	movs	r0, #0
 8005a0e:	b002      	add	sp, #8
 8005a10:	bd70      	pop	{r4, r5, r6, pc}
 8005a12:	bf00      	nop
 8005a14:	20000828 	.word	0x20000828
	...

08005a20 <mpu9250_read>:
 8005a20:	b5f0      	push	{r4, r5, r6, r7, lr}
 8005a22:	4e28      	ldr	r6, [pc, #160]	; (8005ac4 <mpu9250_read+0xa4>)
 8005a24:	b087      	sub	sp, #28
 8005a26:	4604      	mov	r4, r0
 8005a28:	460d      	mov	r5, r1
 8005a2a:	4617      	mov	r7, r2
 8005a2c:	7830      	ldrb	r0, [r6, #0]
 8005a2e:	466a      	mov	r2, sp
 8005a30:	2316      	movs	r3, #22
 8005a32:	213a      	movs	r1, #58	; 0x3a
 8005a34:	f7ff fda4 	bl	8005580 <read_reg_multi>
 8005a38:	b158      	cbz	r0, 8005a52 <mpu9250_read+0x32>
 8005a3a:	7833      	ldrb	r3, [r6, #0]
 8005a3c:	2b68      	cmp	r3, #104	; 0x68
 8005a3e:	bf0c      	ite	eq
 8005a40:	2069      	moveq	r0, #105	; 0x69
 8005a42:	2068      	movne	r0, #104	; 0x68
 8005a44:	466a      	mov	r2, sp
 8005a46:	2316      	movs	r3, #22
 8005a48:	213a      	movs	r1, #58	; 0x3a
 8005a4a:	7030      	strb	r0, [r6, #0]
 8005a4c:	f7ff fd98 	bl	8005580 <read_reg_multi>
 8005a50:	bb98      	cbnz	r0, 8005aba <mpu9250_read+0x9a>
 8005a52:	b117      	cbz	r7, 8005a5a <mpu9250_read+0x3a>
 8005a54:	f89d 3000 	ldrb.w	r3, [sp]
 8005a58:	703b      	strb	r3, [r7, #0]
 8005a5a:	b1bd      	cbz	r5, 8005a8c <mpu9250_read+0x6c>
 8005a5c:	f99d 7001 	ldrsb.w	r7, [sp, #1]
 8005a60:	f89d 1002 	ldrb.w	r1, [sp, #2]
 8005a64:	f99d 6003 	ldrsb.w	r6, [sp, #3]
 8005a68:	f89d 2004 	ldrb.w	r2, [sp, #4]
 8005a6c:	f99d 0005 	ldrsb.w	r0, [sp, #5]
 8005a70:	f89d 3006 	ldrb.w	r3, [sp, #6]
 8005a74:	ea41 2107 	orr.w	r1, r1, r7, lsl #8
 8005a78:	ea42 2206 	orr.w	r2, r2, r6, lsl #8
 8005a7c:	ea43 2300 	orr.w	r3, r3, r0, lsl #8
 8005a80:	4249      	negs	r1, r1
 8005a82:	4252      	negs	r2, r2
 8005a84:	425b      	negs	r3, r3
 8005a86:	8029      	strh	r1, [r5, #0]
 8005a88:	806a      	strh	r2, [r5, #2]
 8005a8a:	80ab      	strh	r3, [r5, #4]
 8005a8c:	b1bc      	cbz	r4, 8005abe <mpu9250_read+0x9e>
 8005a8e:	f99d 000d 	ldrsb.w	r0, [sp, #13]
 8005a92:	f99d 6009 	ldrsb.w	r6, [sp, #9]
 8005a96:	f89d 100a 	ldrb.w	r1, [sp, #10]
 8005a9a:	f99d 500b 	ldrsb.w	r5, [sp, #11]
 8005a9e:	f89d 200c 	ldrb.w	r2, [sp, #12]
 8005aa2:	f89d 300e 	ldrb.w	r3, [sp, #14]
 8005aa6:	ea41 2106 	orr.w	r1, r1, r6, lsl #8
 8005aaa:	ea43 2300 	orr.w	r3, r3, r0, lsl #8
 8005aae:	ea42 2205 	orr.w	r2, r2, r5, lsl #8
 8005ab2:	8021      	strh	r1, [r4, #0]
 8005ab4:	8062      	strh	r2, [r4, #2]
 8005ab6:	80a3      	strh	r3, [r4, #4]
 8005ab8:	2000      	movs	r0, #0
 8005aba:	b007      	add	sp, #28
 8005abc:	bdf0      	pop	{r4, r5, r6, r7, pc}
 8005abe:	4620      	mov	r0, r4
 8005ac0:	b007      	add	sp, #28
 8005ac2:	bdf0      	pop	{r4, r5, r6, r7, pc}
 8005ac4:	20000828 	.word	0x20000828
	...

08005ad0 <imu_compute_units>:
 8005ad0:	4b49      	ldr	r3, [pc, #292]	; (8005bf8 <imu_compute_units+0x128>)
 8005ad2:	eddf 1a4a 	vldr	s3, [pc, #296]	; 8005bfc <imu_compute_units+0x12c>
 8005ad6:	f9b3 103c 	ldrsh.w	r1, [r3, #60]	; 0x3c
 8005ada:	f9b3 203e 	ldrsh.w	r2, [r3, #62]	; 0x3e
 8005ade:	f9b3 0028 	ldrsh.w	r0, [r3, #40]	; 0x28
 8005ae2:	ed9f 2a47 	vldr	s4, [pc, #284]	; 8005c00 <imu_compute_units+0x130>
 8005ae6:	eddf 2a47 	vldr	s5, [pc, #284]	; 8005c04 <imu_compute_units+0x134>
 8005aea:	eddf 3a47 	vldr	s7, [pc, #284]	; 8005c08 <imu_compute_units+0x138>
 8005aee:	b4f0      	push	{r4, r5, r6, r7}
 8005af0:	4d46      	ldr	r5, [pc, #280]	; (8005c0c <imu_compute_units+0x13c>)
 8005af2:	f9b3 603a 	ldrsh.w	r6, [r3, #58]	; 0x3a
 8005af6:	f9b3 702e 	ldrsh.w	r7, [r3, #46]	; 0x2e
 8005afa:	f9b3 4034 	ldrsh.w	r4, [r3, #52]	; 0x34
 8005afe:	ee04 7a10 	vmov	s8, r7
 8005b02:	fb85 c706 	smull	ip, r7, r5, r6
 8005b06:	4437      	add	r7, r6
 8005b08:	17f6      	asrs	r6, r6, #31
 8005b0a:	ebc6 16e7 	rsb	r6, r6, r7, asr #7
 8005b0e:	fb85 c701 	smull	ip, r7, r5, r1
 8005b12:	fb85 c502 	smull	ip, r5, r5, r2
 8005b16:	4415      	add	r5, r2
 8005b18:	17d2      	asrs	r2, r2, #31
 8005b1a:	440f      	add	r7, r1
 8005b1c:	ebc2 12e5 	rsb	r2, r2, r5, asr #7
 8005b20:	17c9      	asrs	r1, r1, #31
 8005b22:	b235      	sxth	r5, r6
 8005b24:	ebc1 11e7 	rsb	r1, r1, r7, asr #7
 8005b28:	ee03 5a10 	vmov	s6, r5
 8005b2c:	f9b3 5030 	ldrsh.w	r5, [r3, #48]	; 0x30
 8005b30:	f9b3 6036 	ldrsh.w	r6, [r3, #54]	; 0x36
 8005b34:	b209      	sxth	r1, r1
 8005b36:	ee07 1a90 	vmov	s15, r1
 8005b3a:	ee04 5a90 	vmov	s9, r5
 8005b3e:	f9b3 5032 	ldrsh.w	r5, [r3, #50]	; 0x32
 8005b42:	f9b3 102a 	ldrsh.w	r1, [r3, #42]	; 0x2a
 8005b46:	b212      	sxth	r2, r2
 8005b48:	eef8 5ae7 	vcvt.f32.s32	s11, s15
 8005b4c:	ee05 5a10 	vmov	s10, r5
 8005b50:	ee07 2a90 	vmov	s15, r2
 8005b54:	f9b3 5038 	ldrsh.w	r5, [r3, #56]	; 0x38
 8005b58:	f9b3 202c 	ldrsh.w	r2, [r3, #44]	; 0x2c
 8005b5c:	eeb8 6ae7 	vcvt.f32.s32	s12, s15
 8005b60:	1b00      	subs	r0, r0, r4
 8005b62:	1b89      	subs	r1, r1, r6
 8005b64:	1b52      	subs	r2, r2, r5
 8005b66:	eeb8 5ac5 	vcvt.f32.s32	s10, s10
 8005b6a:	eeb8 4ac4 	vcvt.f32.s32	s8, s8
 8005b6e:	eeb8 3ac3 	vcvt.f32.s32	s6, s6
 8005b72:	eef8 4ae4 	vcvt.f32.s32	s9, s9
 8005b76:	ee06 0a90 	vmov	s13, r0
 8005b7a:	ee07 1a10 	vmov	s14, r1
 8005b7e:	ee07 2a90 	vmov	s15, r2
 8005b82:	eea6 5a61 	vfms.f32	s10, s12, s3
 8005b86:	bcf0      	pop	{r4, r5, r6, r7}
 8005b88:	eef8 6ae6 	vcvt.f32.s32	s13, s13
 8005b8c:	eeb8 7ac7 	vcvt.f32.s32	s14, s14
 8005b90:	eef8 7ae7 	vcvt.f32.s32	s15, s15
 8005b94:	eea3 4a61 	vfms.f32	s8, s6, s3
 8005b98:	eee5 4ae1 	vfms.f32	s9, s11, s3
 8005b9c:	ee66 6a82 	vmul.f32	s13, s13, s4
 8005ba0:	ee27 7a02 	vmul.f32	s14, s14, s4
 8005ba4:	ee67 7a82 	vmul.f32	s15, s15, s4
 8005ba8:	eeb0 6a45 	vmov.f32	s12, s10
 8005bac:	ee76 6aa6 	vadd.f32	s13, s13, s13
 8005bb0:	ee37 7a07 	vadd.f32	s14, s14, s14
 8005bb4:	ee77 7aa7 	vadd.f32	s15, s15, s15
 8005bb8:	ee24 5a22 	vmul.f32	s10, s8, s5
 8005bbc:	ee64 5aa2 	vmul.f32	s11, s9, s5
 8005bc0:	ee26 6a22 	vmul.f32	s12, s12, s5
 8005bc4:	ee66 6aa3 	vmul.f32	s13, s13, s7
 8005bc8:	ee27 7a23 	vmul.f32	s14, s14, s7
 8005bcc:	ee67 7aa3 	vmul.f32	s15, s15, s7
 8005bd0:	ee25 5a23 	vmul.f32	s10, s10, s7
 8005bd4:	ee65 5aa3 	vmul.f32	s11, s11, s7
 8005bd8:	ee26 6a23 	vmul.f32	s12, s12, s7
 8005bdc:	edc3 6a00 	vstr	s13, [r3]
 8005be0:	ed83 7a01 	vstr	s14, [r3, #4]
 8005be4:	edc3 7a02 	vstr	s15, [r3, #8]
 8005be8:	ed83 5a03 	vstr	s10, [r3, #12]
 8005bec:	edc3 5a04 	vstr	s11, [r3, #16]
 8005bf0:	ed83 6a05 	vstr	s12, [r3, #20]
 8005bf4:	4770      	bx	lr
 8005bf6:	bf00      	nop
 8005bf8:	20001828 	.word	0x20001828
 8005bfc:	40490fdb 	.word	0x40490fdb
 8005c00:	411ce80a 	.word	0x411ce80a
 8005c04:	437a0000 	.word	0x437a0000
 8005c08:	38000000 	.word	0x38000000
 8005c0c:	b60b60b7 	.word	0xb60b60b7

08005c10 <imu_reader_thd>:
 8005c10:	e92d 43f0 	stmdb	sp!, {r4, r5, r6, r7, r8, r9, lr}
 8005c14:	4c2f      	ldr	r4, [pc, #188]	; (8005cd4 <imu_reader_thd+0xc4>)
 8005c16:	4930      	ldr	r1, [pc, #192]	; (8005cd8 <imu_reader_thd+0xc8>)
 8005c18:	69a2      	ldr	r2, [r4, #24]
 8005c1a:	4b30      	ldr	r3, [pc, #192]	; (8005cdc <imu_reader_thd+0xcc>)
 8005c1c:	6191      	str	r1, [r2, #24]
 8005c1e:	b0a1      	sub	sp, #132	; 0x84
 8005c20:	a804      	add	r0, sp, #16
 8005c22:	ad02      	add	r5, sp, #8
 8005c24:	2250      	movs	r2, #80	; 0x50
 8005c26:	4601      	mov	r1, r0
 8005c28:	9200      	str	r2, [sp, #0]
 8005c2a:	e9cd 0004 	strd	r0, r0, [sp, #16]
 8005c2e:	462a      	mov	r2, r5
 8005c30:	a809      	add	r0, sp, #36	; 0x24
 8005c32:	e9cd 5502 	strd	r5, r5, [sp, #8]
 8005c36:	2500      	movs	r5, #0
 8005c38:	e9cd 5506 	strd	r5, r5, [sp, #24]
 8005c3c:	9508      	str	r5, [sp, #32]
 8005c3e:	f7ff fb3f 	bl	80052c0 <messagebus_topic_init>
 8005c42:	4a27      	ldr	r2, [pc, #156]	; (8005ce0 <imu_reader_thd+0xd0>)
 8005c44:	4827      	ldr	r0, [pc, #156]	; (8005ce4 <imu_reader_thd+0xd4>)
 8005c46:	a909      	add	r1, sp, #36	; 0x24
 8005c48:	f7ff fb4a 	bl	80052e0 <messagebus_advertise_topic>
 8005c4c:	69a3      	ldr	r3, [r4, #24]
 8005c4e:	f893 3021 	ldrb.w	r3, [r3, #33]	; 0x21
 8005c52:	075a      	lsls	r2, r3, #29
 8005c54:	d43a      	bmi.n	8005ccc <imu_reader_thd+0xbc>
 8005c56:	f8df 8098 	ldr.w	r8, [pc, #152]	; 8005cf0 <imu_reader_thd+0xe0>
 8005c5a:	4f23      	ldr	r7, [pc, #140]	; (8005ce8 <imu_reader_thd+0xd8>)
 8005c5c:	f8df 9094 	ldr.w	r9, [pc, #148]	; 8005cf4 <imu_reader_thd+0xe4>
 8005c60:	f1a8 064c 	sub.w	r6, r8, #76	; 0x4c
 8005c64:	e00d      	b.n	8005c82 <imu_reader_thd+0x72>
 8005c66:	2250      	movs	r2, #80	; 0x50
 8005c68:	4631      	mov	r1, r6
 8005c6a:	a809      	add	r0, sp, #36	; 0x24
 8005c6c:	f7ff fb78 	bl	8005360 <messagebus_topic_publish>
 8005c70:	1d29      	adds	r1, r5, #4
 8005c72:	4628      	mov	r0, r5
 8005c74:	f7fb fe4c 	bl	8001910 <chThdSleepUntilWindowed>
 8005c78:	69a3      	ldr	r3, [r4, #24]
 8005c7a:	f893 3021 	ldrb.w	r3, [r3, #33]	; 0x21
 8005c7e:	075b      	lsls	r3, r3, #29
 8005c80:	d424      	bmi.n	8005ccc <imu_reader_thd+0xbc>
 8005c82:	2320      	movs	r3, #32
 8005c84:	f383 8811 	msr	BASEPRI, r3
 8005c88:	f7fb ffe2 	bl	8001c50 <_stats_start_measure_crit_thd>
 8005c8c:	f7fb fa88 	bl	80011a0 <_dbg_check_lock>
 8005c90:	6aa5      	ldr	r5, [r4, #40]	; 0x28
 8005c92:	f7fb fa95 	bl	80011c0 <_dbg_check_unlock>
 8005c96:	f7fb ffe3 	bl	8001c60 <_stats_stop_measure_crit_thd>
 8005c9a:	6823      	ldr	r3, [r4, #0]
 8005c9c:	42a3      	cmp	r3, r4
 8005c9e:	d007      	beq.n	8005cb0 <imu_reader_thd+0xa0>
 8005ca0:	69a2      	ldr	r2, [r4, #24]
 8005ca2:	689b      	ldr	r3, [r3, #8]
 8005ca4:	6892      	ldr	r2, [r2, #8]
 8005ca6:	429a      	cmp	r2, r3
 8005ca8:	d202      	bcs.n	8005cb0 <imu_reader_thd+0xa0>
 8005caa:	4648      	mov	r0, r9
 8005cac:	f7fb fa08 	bl	80010c0 <chSysHalt>
 8005cb0:	2300      	movs	r3, #0
 8005cb2:	f383 8811 	msr	BASEPRI, r3
 8005cb6:	783b      	ldrb	r3, [r7, #0]
 8005cb8:	2b00      	cmp	r3, #0
 8005cba:	d0d4      	beq.n	8005c66 <imu_reader_thd+0x56>
 8005cbc:	490b      	ldr	r1, [pc, #44]	; (8005cec <imu_reader_thd+0xdc>)
 8005cbe:	4642      	mov	r2, r8
 8005cc0:	1d88      	adds	r0, r1, #6
 8005cc2:	f7ff fead 	bl	8005a20 <mpu9250_read>
 8005cc6:	f7ff ff03 	bl	8005ad0 <imu_compute_units>
 8005cca:	e7cc      	b.n	8005c66 <imu_reader_thd+0x56>
 8005ccc:	b021      	add	sp, #132	; 0x84
 8005cce:	e8bd 83f0 	ldmia.w	sp!, {r4, r5, r6, r7, r8, r9, pc}
 8005cd2:	bf00      	nop
 8005cd4:	20000830 	.word	0x20000830
 8005cd8:	08006740 	.word	0x08006740
 8005cdc:	20001828 	.word	0x20001828
 8005ce0:	080066c0 	.word	0x080066c0
 8005ce4:	20001298 	.word	0x20001298
 8005ce8:	200012a8 	.word	0x200012a8
 8005cec:	20001850 	.word	0x20001850
 8005cf0:	20001874 	.word	0x20001874
 8005cf4:	08006750 	.word	0x08006750
	...

08005d00 <imu_start>:
 8005d00:	b500      	push	{lr}
 8005d02:	f44f 40c8 	mov.w	r0, #25600	; 0x6400
 8005d06:	b083      	sub	sp, #12
 8005d08:	f7ff fdea 	bl	80058e0 <mpu9250_setup>
 8005d0c:	b910      	cbnz	r0, 8005d14 <imu_start+0x14>
 8005d0e:	4b08      	ldr	r3, [pc, #32]	; (8005d30 <imu_start+0x30>)
 8005d10:	2201      	movs	r2, #1
 8005d12:	701a      	strb	r2, [r3, #0]
 8005d14:	2300      	movs	r3, #0
 8005d16:	9300      	str	r3, [sp, #0]
 8005d18:	2240      	movs	r2, #64	; 0x40
 8005d1a:	4b06      	ldr	r3, [pc, #24]	; (8005d34 <imu_start+0x34>)
 8005d1c:	4806      	ldr	r0, [pc, #24]	; (8005d38 <imu_start+0x38>)
 8005d1e:	f44f 61af 	mov.w	r1, #1400	; 0x578
 8005d22:	f7fb fd7d 	bl	8001820 <chThdCreateStatic>
 8005d26:	4b05      	ldr	r3, [pc, #20]	; (8005d3c <imu_start+0x3c>)
 8005d28:	6018      	str	r0, [r3, #0]
 8005d2a:	b003      	add	sp, #12
 8005d2c:	f85d fb04 	ldr.w	pc, [sp], #4
 8005d30:	200012a8 	.word	0x200012a8
 8005d34:	08005c11 	.word	0x08005c11
 8005d38:	200012b0 	.word	0x200012b0
 8005d3c:	200012a4 	.word	0x200012a4

08005d40 <imu_compute_offset>:
 8005d40:	e92d 4ff0 	stmdb	sp!, {r4, r5, r6, r7, r8, r9, sl, fp, lr}
 8005d44:	b083      	sub	sp, #12
 8005d46:	2900      	cmp	r1, #0
 8005d48:	d049      	beq.n	8005dde <imu_compute_offset+0x9e>
 8005d4a:	e9cd 1000 	strd	r1, r0, [sp]
 8005d4e:	2600      	movs	r6, #0
 8005d50:	4c27      	ldr	r4, [pc, #156]	; (8005df0 <imu_compute_offset+0xb0>)
 8005d52:	46b0      	mov	r8, r6
 8005d54:	46b1      	mov	r9, r6
 8005d56:	46b2      	mov	sl, r6
 8005d58:	46b3      	mov	fp, r6
 8005d5a:	4637      	mov	r7, r6
 8005d5c:	4635      	mov	r5, r6
 8005d5e:	2250      	movs	r2, #80	; 0x50
 8005d60:	4923      	ldr	r1, [pc, #140]	; (8005df0 <imu_compute_offset+0xb0>)
 8005d62:	9801      	ldr	r0, [sp, #4]
 8005d64:	f7ff fb2c 	bl	80053c0 <messagebus_topic_wait>
 8005d68:	f9b4 3032 	ldrsh.w	r3, [r4, #50]	; 0x32
 8005d6c:	f9b4 e028 	ldrsh.w	lr, [r4, #40]	; 0x28
 8005d70:	f9b4 c02a 	ldrsh.w	ip, [r4, #42]	; 0x2a
 8005d74:	f9b4 002c 	ldrsh.w	r0, [r4, #44]	; 0x2c
 8005d78:	f9b4 102e 	ldrsh.w	r1, [r4, #46]	; 0x2e
 8005d7c:	f9b4 2030 	ldrsh.w	r2, [r4, #48]	; 0x30
 8005d80:	3501      	adds	r5, #1
 8005d82:	441e      	add	r6, r3
 8005d84:	9b00      	ldr	r3, [sp, #0]
 8005d86:	b2ad      	uxth	r5, r5
 8005d88:	42ab      	cmp	r3, r5
 8005d8a:	4477      	add	r7, lr
 8005d8c:	44e3      	add	fp, ip
 8005d8e:	4482      	add	sl, r0
 8005d90:	4489      	add	r9, r1
 8005d92:	4490      	add	r8, r2
 8005d94:	d1e3      	bne.n	8005d5e <imu_compute_offset+0x1e>
 8005d96:	461a      	mov	r2, r3
 8005d98:	fb97 f3f3 	sdiv	r3, r7, r3
 8005d9c:	fb9b fbf2 	sdiv	fp, fp, r2
 8005da0:	fb9a faf2 	sdiv	sl, sl, r2
 8005da4:	fb99 f9f2 	sdiv	r9, r9, r2
 8005da8:	fb98 f8f2 	sdiv	r8, r8, r2
 8005dac:	fb96 f6f2 	sdiv	r6, r6, r2
 8005db0:	b21b      	sxth	r3, r3
 8005db2:	fa0f fb8b 	sxth.w	fp, fp
 8005db6:	fa0f fa8a 	sxth.w	sl, sl
 8005dba:	fa0f f989 	sxth.w	r9, r9
 8005dbe:	fa0f f888 	sxth.w	r8, r8
 8005dc2:	b237      	sxth	r7, r6
 8005dc4:	86a3      	strh	r3, [r4, #52]	; 0x34
 8005dc6:	f8a4 b036 	strh.w	fp, [r4, #54]	; 0x36
 8005dca:	f8a4 a038 	strh.w	sl, [r4, #56]	; 0x38
 8005dce:	f8a4 903a 	strh.w	r9, [r4, #58]	; 0x3a
 8005dd2:	f8a4 803c 	strh.w	r8, [r4, #60]	; 0x3c
 8005dd6:	87e7      	strh	r7, [r4, #62]	; 0x3e
 8005dd8:	b003      	add	sp, #12
 8005dda:	e8bd 8ff0 	ldmia.w	sp!, {r4, r5, r6, r7, r8, r9, sl, fp, pc}
 8005dde:	460f      	mov	r7, r1
 8005de0:	4c03      	ldr	r4, [pc, #12]	; (8005df0 <imu_compute_offset+0xb0>)
 8005de2:	4688      	mov	r8, r1
 8005de4:	4689      	mov	r9, r1
 8005de6:	468a      	mov	sl, r1
 8005de8:	468b      	mov	fp, r1
 8005dea:	460b      	mov	r3, r1
 8005dec:	e7ea      	b.n	8005dc4 <imu_compute_offset+0x84>
 8005dee:	bf00      	nop
 8005df0:	20001828 	.word	0x20001828
	...

08005e00 <memset>:
 8005e00:	b4f0      	push	{r4, r5, r6, r7}
 8005e02:	0786      	lsls	r6, r0, #30
 8005e04:	d043      	beq.n	8005e8e <memset+0x8e>
 8005e06:	1e54      	subs	r4, r2, #1
 8005e08:	2a00      	cmp	r2, #0
 8005e0a:	d03e      	beq.n	8005e8a <memset+0x8a>
 8005e0c:	b2ca      	uxtb	r2, r1
 8005e0e:	4603      	mov	r3, r0
 8005e10:	e002      	b.n	8005e18 <memset+0x18>
 8005e12:	f114 34ff 	adds.w	r4, r4, #4294967295	; 0xffffffff
 8005e16:	d338      	bcc.n	8005e8a <memset+0x8a>
 8005e18:	f803 2b01 	strb.w	r2, [r3], #1
 8005e1c:	079d      	lsls	r5, r3, #30
 8005e1e:	d1f8      	bne.n	8005e12 <memset+0x12>
 8005e20:	2c03      	cmp	r4, #3
 8005e22:	d92b      	bls.n	8005e7c <memset+0x7c>
 8005e24:	b2cd      	uxtb	r5, r1
 8005e26:	ea45 2505 	orr.w	r5, r5, r5, lsl #8
 8005e2a:	2c0f      	cmp	r4, #15
 8005e2c:	ea45 4505 	orr.w	r5, r5, r5, lsl #16
 8005e30:	d916      	bls.n	8005e60 <memset+0x60>
 8005e32:	f1a4 0710 	sub.w	r7, r4, #16
 8005e36:	093f      	lsrs	r7, r7, #4
 8005e38:	f103 0620 	add.w	r6, r3, #32
 8005e3c:	eb06 1607 	add.w	r6, r6, r7, lsl #4
 8005e40:	f103 0210 	add.w	r2, r3, #16
 8005e44:	e942 5504 	strd	r5, r5, [r2, #-16]
 8005e48:	e942 5502 	strd	r5, r5, [r2, #-8]
 8005e4c:	3210      	adds	r2, #16
 8005e4e:	42b2      	cmp	r2, r6
 8005e50:	d1f8      	bne.n	8005e44 <memset+0x44>
 8005e52:	f004 040f 	and.w	r4, r4, #15
 8005e56:	3701      	adds	r7, #1
 8005e58:	2c03      	cmp	r4, #3
 8005e5a:	eb03 1307 	add.w	r3, r3, r7, lsl #4
 8005e5e:	d90d      	bls.n	8005e7c <memset+0x7c>
 8005e60:	461e      	mov	r6, r3
 8005e62:	4622      	mov	r2, r4
 8005e64:	3a04      	subs	r2, #4
 8005e66:	2a03      	cmp	r2, #3
 8005e68:	f846 5b04 	str.w	r5, [r6], #4
 8005e6c:	d8fa      	bhi.n	8005e64 <memset+0x64>
 8005e6e:	1f22      	subs	r2, r4, #4
 8005e70:	f022 0203 	bic.w	r2, r2, #3
 8005e74:	3204      	adds	r2, #4
 8005e76:	4413      	add	r3, r2
 8005e78:	f004 0403 	and.w	r4, r4, #3
 8005e7c:	b12c      	cbz	r4, 8005e8a <memset+0x8a>
 8005e7e:	b2c9      	uxtb	r1, r1
 8005e80:	441c      	add	r4, r3
 8005e82:	f803 1b01 	strb.w	r1, [r3], #1
 8005e86:	429c      	cmp	r4, r3
 8005e88:	d1fb      	bne.n	8005e82 <memset+0x82>
 8005e8a:	bcf0      	pop	{r4, r5, r6, r7}
 8005e8c:	4770      	bx	lr
 8005e8e:	4614      	mov	r4, r2
 8005e90:	4603      	mov	r3, r0
 8005e92:	e7c5      	b.n	8005e20 <memset+0x20>
	...

08005ea0 <strncpy>:
 8005ea0:	ea40 0301 	orr.w	r3, r0, r1
 8005ea4:	079b      	lsls	r3, r3, #30
 8005ea6:	b470      	push	{r4, r5, r6}
 8005ea8:	d12a      	bne.n	8005f00 <strncpy+0x60>
 8005eaa:	2a03      	cmp	r2, #3
 8005eac:	d928      	bls.n	8005f00 <strncpy+0x60>
 8005eae:	460c      	mov	r4, r1
 8005eb0:	4603      	mov	r3, r0
 8005eb2:	4621      	mov	r1, r4
 8005eb4:	f854 6b04 	ldr.w	r6, [r4], #4
 8005eb8:	f1a6 3501 	sub.w	r5, r6, #16843009	; 0x1010101
 8005ebc:	ea25 0506 	bic.w	r5, r5, r6
 8005ec0:	f015 3f80 	tst.w	r5, #2155905152	; 0x80808080
 8005ec4:	d106      	bne.n	8005ed4 <strncpy+0x34>
 8005ec6:	3a04      	subs	r2, #4
 8005ec8:	2a03      	cmp	r2, #3
 8005eca:	f843 6b04 	str.w	r6, [r3], #4
 8005ece:	4621      	mov	r1, r4
 8005ed0:	d8ef      	bhi.n	8005eb2 <strncpy+0x12>
 8005ed2:	b19a      	cbz	r2, 8005efc <strncpy+0x5c>
 8005ed4:	780c      	ldrb	r4, [r1, #0]
 8005ed6:	701c      	strb	r4, [r3, #0]
 8005ed8:	3a01      	subs	r2, #1
 8005eda:	3301      	adds	r3, #1
 8005edc:	b13c      	cbz	r4, 8005eee <strncpy+0x4e>
 8005ede:	b16a      	cbz	r2, 8005efc <strncpy+0x5c>
 8005ee0:	f811 4f01 	ldrb.w	r4, [r1, #1]!
 8005ee4:	f803 4b01 	strb.w	r4, [r3], #1
 8005ee8:	3a01      	subs	r2, #1
 8005eea:	2c00      	cmp	r4, #0
 8005eec:	d1f7      	bne.n	8005ede <strncpy+0x3e>
 8005eee:	b12a      	cbz	r2, 8005efc <strncpy+0x5c>
 8005ef0:	441a      	add	r2, r3
 8005ef2:	2100      	movs	r1, #0
 8005ef4:	f803 1b01 	strb.w	r1, [r3], #1
 8005ef8:	4293      	cmp	r3, r2
 8005efa:	d1fb      	bne.n	8005ef4 <strncpy+0x54>
 8005efc:	bc70      	pop	{r4, r5, r6}
 8005efe:	4770      	bx	lr
 8005f00:	4603      	mov	r3, r0
 8005f02:	e7e6      	b.n	8005ed2 <strncpy+0x32>
	...
 8005f10:	61686e75 	.word	0x61686e75
 8005f14:	656c646e 	.word	0x656c646e
 8005f18:	78652064 	.word	0x78652064
 8005f1c:	74706563 	.word	0x74706563
 8005f20:	006e6f69 	.word	0x006e6f69
	...
 8005f30:	656c6469 	.word	0x656c6469
	...
 8005f40:	33235653 	.word	0x33235653
	...
 8005f50:	38235653 	.word	0x38235653
	...
 8005f60:	39235653 	.word	0x39235653
	...
 8005f70:	34235653 	.word	0x34235653
	...
 8005f80:	36235653 	.word	0x36235653
	...
 8005f90:	35235653 	.word	0x35235653
	...
 8005fa0:	37235653 	.word	0x37235653
	...
 8005fb0:	31235653 	.word	0x31235653
 8005fb4:	00000030 	.word	0x00000030
	...
 8005fc0:	31235653 	.word	0x31235653
 8005fc4:	00000031 	.word	0x00000031
	...

08005fd0 <__func__.7857>:
 8005fd0:	54566863 65536f44 00004974 00000000     chVTDoSetI......

08005fe0 <__func__.7864>:
 8005fe0:	54566863 65526f44 49746573 00000000     chVTDoResetI....

08005ff0 <__func__.7854>:
 8005ff0:	63536863 61655268 00497964 00000000     chSchReadyI.....
 8006000:	63617473 766f206b 6c667265 0000776f     stack overflow..

08006010 <__func__.7153>:
 8006010:	79536863 6c6e5573 006b636f 00000000     chSysUnlock.....

08006020 <__func__.7324>:
 8006020:	68546863 656c5364 00537065 00000000     chThdSleepS.....

08006030 <__func__.7336>:
 8006030:	68546863 446f4464 65757165 654e6575     chThdDoDequeueNe
 8006040:	00497478 00000000 00000000 00000000     xtI.............

08006050 <__func__.7866>:
 8006050:	68546863 65724364 49657461 00000000     chThdCreateI....

08006060 <__func__.7910>:
 8006060:	68546863 69784564 00005374 00000000     chThdExitS......

08006070 <__func__.7926>:
 8006070:	68546863 73755364 646e6570 656d6954     chThdSuspendTime
 8006080:	5374756f 00000000 00000000 00000000     outS............

08006090 <__func__.7932>:
 8006090:	68546863 73655264 49656d75 00000000     chThdResumeI....

080060a0 <ch_debug>:
 80060a0:	6e69616d 18011600 08680404 1814100c     main......h.....
 80060b0:	2221201c 00002423 00000000 00000000     . !"#$..........

080060c0 <__func__.7153>:
 80060c0:	79536863 6c6e5573 006b636f 00000000     chSysUnlock.....

080060d0 <__func__.7849>:
 80060d0:	744d6863 6a624f78 49746365 0074696e     chMtxObjectInit.

080060e0 <__func__.7857>:
 80060e0:	744d6863 636f4c78 0000536b 00000000     chMtxLockS......

080060f0 <__func__.7880>:
 80060f0:	744d6863 6c6e5578 006b636f 00000000     chMtxUnlock.....

08006100 <__func__.7891>:
 8006100:	744d6863 6c6e5578 536b636f 00000000     chMtxUnlockS....

08006110 <__func__.7153>:
 8006110:	79536863 6c6e5573 006b636f 00000000     chSysUnlock.....

08006120 <__func__.7865>:
 8006120:	6f436863 7242646e 6364616f 49747361     chCondBroadcastI
	...

08006140 <__func__.7879>:
 8006140:	6f436863 6157646e 00537469 00000000     chCondWaitS.....

08006150 <__func__.7874>:
 8006150:	76456863 6f724274 61636461 6c467473     chEvtBroadcastFl
 8006160:	49736761 00000000 00000000 00000000     agsI............

08006170 <__func__.7891>:
 8006170:	76456863 67695374 496c616e 00000000     chEvtSignalI....

08006180 <__func__.7153>:
 8006180:	79536863 6c6e5573 006b636f 00000000     chSysUnlock.....

08006190 <__func__.7877>:
 8006190:	51496863 64616552 656d6954 0074756f     chIQReadTimeout.

080061a0 <__func__.7913>:
 80061a0:	514f6863 74697257 6d695465 74756f65     chOQWriteTimeout
	...

080061c0 <__func__.7153>:
 80061c0:	79536863 6c6e5573 006b636f 00000000     chSysUnlock.....

080061d0 <__func__.7153>:
 80061d0:	79536863 6c6e5573 006b636f 00000000     chSysUnlock.....

080061e0 <__func__.8890>:
 80061e0:	53747067 74726174 00000000 00000000     gptStart........

080061f0 <__func__.8908>:
 80061f0:	53747067 74726174 746e6f43 6f756e69     gptStartContinuo
 8006200:	00497375 00000000 00000000 00000000     usI.............

08006210 <__func__.7153>:
 8006210:	79536863 6c6e5573 006b636f 00000000     chSysUnlock.....

08006220 <__func__.8890>:
 8006220:	53633269 74726174 00000000 00000000     i2cStart........

08006230 <__func__.8894>:
 8006230:	53633269 00706f74 00000000 00000000     i2cStop.........

08006240 <__func__.8898>:
 8006240:	47633269 72457465 73726f72 00000000     i2cGetErrors....

08006250 <__func__.8909>:
 8006250:	4d633269 65747361 61725472 696d736e     i2cMasterTransmi
 8006260:	6d695474 74756f65 00000000 00000000     tTimeout........

08006270 <__func__.8922>:
 8006270:	41633269 69757163 75426572 00000073     i2cAcquireBus...

08006280 <__func__.8926>:
 8006280:	52633269 61656c65 75426573 00000073     i2cReleaseBus...

08006290 <__func__.7153>:
 8006290:	79536863 6c6e5573 006b636f 00000000     chSysUnlock.....

080062a0 <__func__.8931>:
 80062a0:	74536473 00747261 00000000 00000000     sdStart.........

080062b0 <__func__.8940>:
 80062b0:	6e496473 696d6f63 6144676e 00496174     sdIncomingDataI.

080062c0 <vmt>:
 80062c0:	08002b61 08002b41 08002ba1 08002b81     a+..A+...+...+..
 80062d0:	08002b91 08002b71 08002b51 08002b31     .+..q+..Q+..1+..

080062e0 <__func__.9390>:
 80062e0:	53627375 74726174 65636552 49657669     usbStartReceiveI
	...

08006300 <__func__.9395>:
 8006300:	53627375 74726174 6e617254 74696d73     usbStartTransmit
 8006310:	00000049 00000000 00000000 00000000     I...............

08006320 <__func__.9429>:
 8006320:	6273755f 3070655f 00006e69 00000000     _usb_ep0in......

08006330 <__func__.9443>:
 8006330:	6273755f 3070655f 0074756f 00000000     _usb_ep0out.....

08006340 <active_status>:
	...

08006350 <halted_status>:
 8006350:	00000001 00000000 00000000 00000000     ................

08006360 <zero_status>:
	...

08006370 <__func__.8891>:
 8006370:	6369766e 53746553 65747379 6e61486d     nvicSetSystemHan
 8006380:	72656c64 6f697250 79746972 00000000     dlerPriority....

08006390 <__func__.8964>:
 8006390:	53616d64 61657274 6c6c416d 7461636f     dmaStreamAllocat
 80063a0:	00000065 00000000 00000000 00000000     e...............

080063b0 <__func__.8971>:
 80063b0:	53616d64 61657274 6c65526d 65736165     dmaStreamRelease
	...

080063d0 <_stm32_dma_streams>:
 80063d0:	40026010 40026008 000b0000 40026028     .`.@.`.@....(`.@
 80063e0:	40026008 000c0106 40026040 40026008     .`.@....@`.@.`.@
 80063f0:	000d0210 40026058 40026008 000e0316     ....X`.@.`.@....
 8006400:	40026070 4002600c 000f0400 40026088     p`.@.`.@.....`.@
 8006410:	4002600c 00100506 400260a0 4002600c     .`.@.....`.@.`.@
 8006420:	00110610 400260b8 4002600c 002f0716     .....`.@.`.@../.
 8006430:	40026410 40026408 00380800 40026428     .d.@.d.@..8.(d.@
 8006440:	40026408 00390906 40026440 40026408     .d.@..9.@d.@.d.@
 8006450:	003a0a10 40026458 40026408 003b0b16     ..:.Xd.@.d.@..;.
 8006460:	40026470 4002640c 003c0c00 40026488     pd.@.d.@..<..d.@
 8006470:	4002640c 00440d06 400264a0 4002640c     .d.@..D..d.@.d.@
 8006480:	00450e10 400264b8 4002640c 00460f16     ..E..d.@.d.@..F.

08006490 <__func__.7153>:
 8006490:	79536863 6c6e5573 006b636f 00000000     chSysUnlock.....

080064a0 <__func__.8899>:
 80064a0:	5f633269 5f646c6c 5f746573 636f6c63     i2c_lld_set_cloc
 80064b0:	0000006b 00000000 00000000 00000000     k...............

080064c0 <__func__.8964>:
 80064c0:	5f633269 5f646c6c 72617473 00000074     i2c_lld_start...
 80064d0:	20414d44 6c696166 00657275 00000000     DMA failure.....

080064e0 <__func__.9336>:
 80064e0:	5f67746f 5f6d6172 6f6c6c61 00000063     otg_ram_alloc...

080064f0 <ep0config>:
 80064f0:	00000000 08002dd1 08003101 08003201     .....-...1...2..
 8006500:	00400040 200011f0 200011f0 00000001     @.@.... ... ....
 8006510:	20001204 00000000 00000000 00000000     ... ............

08006520 <fsparams>:
 8006520:	00000080 00000140 00000003 00000000     ....@...........

08006530 <__func__.8894>:
 8006530:	5f747067 5f646c6c 72617473 00000074     gpt_lld_start...

08006540 <default_config>:
 8006540:	0001c200 40000000 00000000 00000000     .......@........

08006550 <pal_default_config>:
 8006550:	6a80aeae 00000000 ffffffff 00011101     ...j............
 8006560:	0000ffff 5d0d3302 000aa000 991aaa9f     .....3.]........
 8006570:	00000303 ffffffff 40405540 0000aff8     ........@U@@....
 8006580:	dd655000 50500044 02aaafff 0000003f     .Pe.D.PP....?...
 8006590:	ffffffff a9555000 00001fc0 dd000000     .....PU.........
 80065a0:	000cc6cc 115a542a 00000000 ffffffff     ....*TZ.........
 80065b0:	04054255 0000bf4f 00000c99 00000077     UB..O.......w...
 80065c0:	55552a5a 00000000 ffffffff 00001505     Z*UU............
 80065d0:	000000f3 0ddd00dd 00000000 00000000     ................
 80065e0:	00000000 ffffffff 00000000 0000ffff     ................
	...
 8006600:	ffffffff 00000000 0000ffff 00000000     ................
	...
 800661c:	ffffffff 00000000 0000ffff 00000000     ................
	...
 8006638:	ffffffff 00000000 0000ffff 00000000     ................
	...
 8006650:	6c756e28 0000296c 00000000 00000000     (null)..........

08006660 <pow10>:
 8006660:	0000000a 00000064 000003e8 00002710     ....d........'..
 8006670:	000186a0 000f4240 00989680 05f5e100     ....@B..........
 8006680:	3b9aca00 00000000 00000000 00000000     ...;............

08006690 <i2c_cfg1.8904>:
 8006690:	00000001 00061a80 00000002 00000000     ................

080066a0 <__func__.7153>:
 80066a0:	79536863 6c6e5573 006b636f 00000000     chSysUnlock.....

080066b0 <gpt11cfg.10168>:
 80066b0:	000f4240 00000000 00000000 00000000     @B..............
 80066c0:	756d692f 00000000 3d784125 64372d25     /imu....%Ax=%-7d
 80066d0:	3d794120 64372d25 3d7a4120 64372d25      Ay=%-7d Az=%-7d
 80066e0:	3d784720 64372d25 3d794720 64372d25      Gx=%-7d Gy=%-7d
 80066f0:	3d7a4720 64372d25 00000a0d 3d784125      Gz=%-7d....%Ax=
 8006700:	66322e25 3d794120 66322e25 3d7a4120     %.2f Ay=%.2f Az=
 8006710:	66322e25 3d784720 66322e25 3d794720     %.2f Gx=%.2f Gy=
 8006720:	66322e25 3d7a4720 66322e25 78252820     %.2f Gz=%.2f (%x
 8006730:	0a0a0d29 00000000 00000000 00000000     )...............

08006740 <__FUNCTION__.10129>:
 8006740:	5f756d69 64616572 745f7265 00006468     imu_reader_thd..

08006750 <__func__.7153>:
 8006750:	79536863 6c6e5573 006b636f              chSysUnlock.
