ARM GAS  /var/folders/km/q6jdms0143g2bddz5bhvdfd00000gn/T//ccrIMm49.s 			page 1


   1              		.cpu cortex-m4
   2              		.eabi_attribute 27, 1
   3              		.eabi_attribute 28, 1
   4              		.eabi_attribute 20, 1
   5              		.eabi_attribute 21, 1
   6              		.eabi_attribute 23, 3
   7              		.eabi_attribute 24, 1
   8              		.eabi_attribute 25, 1
   9              		.eabi_attribute 26, 1
  10              		.eabi_attribute 30, 2
  11              		.eabi_attribute 34, 1
  12              		.eabi_attribute 18, 4
  13              		.file	"pi_regulator.c"
  14              		.text
  15              	.Ltext0:
  16              		.cfi_sections	.debug_frame
  17              		.section	.text.PiRegulator,"ax",%progbits
  18              		.align	1
  19              		.p2align 4,,15
  20              		.syntax unified
  21              		.thumb
  22              		.thumb_func
  23              		.fpu fpv4-sp-d16
  24              		.type	PiRegulator, %function
  25              	PiRegulator:
  26              	.LFB257:
  27              		.file 1 "pi_regulator.c"
  28              		.loc 1 14 0
  29              		.cfi_startproc
  30              		@ args = 0, pretend = 0, frame = 8
  31              		@ frame_needed = 0, uses_anonymous_args = 0
  32              	.LVL0:
  33 0000 70B5     		push	{r4, r5, r6, lr}
  34              		.cfi_def_cfa_offset 16
  35              		.cfi_offset 4, -16
  36              		.cfi_offset 5, -12
  37              		.cfi_offset 6, -8
  38              		.cfi_offset 14, -4
  39 0002 2DED088B 		vpush.64	{d8, d9, d10, d11}
  40              		.cfi_def_cfa_offset 48
  41              		.cfi_offset 80, -48
  42              		.cfi_offset 81, -44
  43              		.cfi_offset 82, -40
  44              		.cfi_offset 83, -36
  45              		.cfi_offset 84, -32
  46              		.cfi_offset 85, -28
  47              		.cfi_offset 86, -24
  48              		.cfi_offset 87, -20
  49              	.LBB48:
  50              	.LBB49:
  51              		.file 2 "../../lib/e-puck2_main-processor/ChibiOS//os/rt/include/chregistry.h"
  52              		.loc 2 135 0
  53 0006 304D     		ldr	r5, .L11
  54              	.LBE49:
  55              	.LBE48:
  56              		.loc 1 14 0
  57 0008 304B     		ldr	r3, .L11+4
ARM GAS  /var/folders/km/q6jdms0143g2bddz5bhvdfd00000gn/T//ccrIMm49.s 			page 2


  58              	.LBB52:
  59              	.LBB50:
  60              		.loc 2 135 0
  61 000a AA69     		ldr	r2, [r5, #24]
  62 000c 3049     		ldr	r1, .L11+8
  63              	.LBE50:
  64              	.LBE52:
  65              		.loc 1 14 0
  66 000e 1B68     		ldr	r3, [r3]
  67              		.loc 1 25 0
  68 0010 9FED308A 		vldr.32	s16, .L11+12
  69              		.loc 1 36 0
  70 0014 DFED309A 		vldr.32	s19, .L11+16
  71 0018 9FED309A 		vldr.32	s18, .L11+20
  72              		.loc 1 38 0
  73 001c 9FED30AA 		vldr.32	s20, .L11+24
  74 0020 9FED30BA 		vldr.32	s22, .L11+28
  75 0024 DFED30AA 		vldr.32	s21, .L11+32
  76              		.loc 1 42 0
  77 0028 DFED308A 		vldr.32	s17, .L11+36
  78              	.LBB53:
  79              	.LBB51:
  80              		.loc 2 135 0
  81 002c 9161     		str	r1, [r2, #24]
  82              	.LBE51:
  83              	.LBE53:
  84              		.loc 1 14 0
  85 002e 82B0     		sub	sp, sp, #8
  86              		.cfi_def_cfa_offset 56
  87              		.loc 1 14 0
  88 0030 0193     		str	r3, [sp, #4]
  89              	.LVL1:
  90 0032 18E0     		b	.L4
  91              	.LVL2:
  92              	.L10:
  93              		.loc 1 38 0
  94 0034 B4EECA8A 		vcmpe.f32	s16, s20
  95 0038 F1EE10FA 		vmrs	APSR_nzcv, FPSCR
  96 003c 3FD4     		bmi	.L7
  97 003e 68EE2A7A 		vmul.f32	s15, s16, s21
  98              	.LVL3:
  99              	.L3:
 100              		.loc 1 42 0
 101 0042 E0EE287A 		vfma.f32	s15, s0, s17
 102              	.LVL4:
 103 0046 FDEEE77A 		vcvt.s32.f32	s15, s15
 104              		.loc 1 50 0
 105 004a 17EE903A 		vmov	r3, s15	@ int
 106 004e 1CB2     		sxth	r4, r3
 107 0050 2046     		mov	r0, r4
 108 0052 FFF7FEFF 		bl	right_motor_set_speed
 109              	.LVL5:
 110              		.loc 1 51 0
 111 0056 2046     		mov	r0, r4
 112 0058 FFF7FEFF 		bl	left_motor_set_speed
 113              	.LVL6:
 114              		.loc 1 54 0
ARM GAS  /var/folders/km/q6jdms0143g2bddz5bhvdfd00000gn/T//ccrIMm49.s 			page 3


 115 005c 06F10A01 		add	r1, r6, #10
 116 0060 3046     		mov	r0, r6
 117 0062 FFF7FEFF 		bl	chThdSleepUntilWindowed
 118              	.LVL7:
 119              	.L4:
 120              	.LBB54:
 121              	.LBB55:
 122              	.LBB56:
 123              	.LBB57:
 124              	.LBB58:
 125              	.LBB59:
 126              	.LBB60:
 127              		.file 3 "../../lib/e-puck2_main-processor/ChibiOS//os/ext/CMSIS/include/core_cmFunc.h"
 128              		.loc 3 546 0
 129 0066 2023     		movs	r3, #32
 130              		.syntax unified
 131              	@ 546 "../../lib/e-puck2_main-processor/ChibiOS//os/ext/CMSIS/include/core_cmFunc.h" 1
 132 0068 83F31188 		MSR basepri, r3
 133              	@ 0 "" 2
 134              	.LVL8:
 135              		.thumb
 136              		.syntax unified
 137              	.LBE60:
 138              	.LBE59:
 139              	.LBE58:
 140              		.file 4 "../../lib/e-puck2_main-processor/ChibiOS//os/rt/include/chsys.h"
 141              		.loc 4 349 0
 142 006c FFF7FEFF 		bl	_stats_start_measure_crit_thd
 143              	.LVL9:
 144              		.loc 4 350 0
 145 0070 FFF7FEFF 		bl	_dbg_check_lock
 146              	.LVL10:
 147              	.LBE57:
 148              	.LBE56:
 149              	.LBB61:
 150              	.LBB62:
 151              		.file 5 "../../lib/e-puck2_main-processor/ChibiOS//os/rt/include/chvt.h"
 152              		.loc 5 231 0
 153 0074 AE6A     		ldr	r6, [r5, #40]
 154              	.LBE62:
 155              	.LBE61:
 156              	.LBB63:
 157              	.LBB64:
 158              		.loc 4 360 0
 159 0076 FFF7FEFF 		bl	_dbg_check_unlock
 160              	.LVL11:
 161              		.loc 4 361 0
 162 007a FFF7FEFF 		bl	_stats_stop_measure_crit_thd
 163              	.LVL12:
 164              		.loc 4 367 0
 165 007e 2B68     		ldr	r3, [r5]
 166 0080 AB42     		cmp	r3, r5
 167 0082 07D0     		beq	.L2
 168 0084 AA69     		ldr	r2, [r5, #24]
 169 0086 9B68     		ldr	r3, [r3, #8]
 170 0088 9268     		ldr	r2, [r2, #8]
 171 008a 9A42     		cmp	r2, r3
ARM GAS  /var/folders/km/q6jdms0143g2bddz5bhvdfd00000gn/T//ccrIMm49.s 			page 4


 172 008c 02D2     		bcs	.L2
 173 008e 1848     		ldr	r0, .L11+40
 174 0090 FFF7FEFF 		bl	chSysHalt
 175              	.LVL13:
 176              	.L2:
 177              	.LBB65:
 178              	.LBB66:
 179              	.LBB67:
 180              		.loc 3 546 0
 181 0094 0023     		movs	r3, #0
 182              		.syntax unified
 183              	@ 546 "../../lib/e-puck2_main-processor/ChibiOS//os/ext/CMSIS/include/core_cmFunc.h" 1
 184 0096 83F31188 		MSR basepri, r3
 185              	@ 0 "" 2
 186              	.LVL14:
 187              		.thumb
 188              		.syntax unified
 189              	.LBE67:
 190              	.LBE66:
 191              	.LBE65:
 192              	.LBE64:
 193              	.LBE63:
 194              	.LBE55:
 195              	.LBE54:
 196              		.loc 1 30 0
 197 009a FFF7FEFF 		bl	get_distance_cm
 198              	.LVL15:
 199              		.loc 1 32 0
 200 009e F2EE047A 		vmov.f32	s15, #1.0e+1
 201 00a2 30EE670A 		vsub.f32	s0, s0, s15
 202              	.LVL16:
 203 00a6 F0EE497A 		vmov.f32	s15, s18
 204              		.loc 1 33 0
 205 00aa 38EE008A 		vadd.f32	s16, s16, s0
 206              	.LVL17:
 207              		.loc 1 36 0
 208 00ae B4EEE98A 		vcmpe.f32	s16, s19
 209 00b2 F1EE10FA 		vmrs	APSR_nzcv, FPSCR
 210 00b6 BDDD     		ble	.L10
 211              		.loc 1 37 0
 212 00b8 9FED078A 		vldr.32	s16, .L11+16
 213              	.LVL18:
 214 00bc C1E7     		b	.L3
 215              	.LVL19:
 216              	.L7:
 217              		.loc 1 39 0
 218 00be 9FED088A 		vldr.32	s16, .L11+24
 219              	.LVL20:
 220 00c2 F0EE4B7A 		vmov.f32	s15, s22
 221 00c6 BCE7     		b	.L3
 222              	.L12:
 223              		.align	2
 224              	.L11:
 225 00c8 00000000 		.word	ch
 226 00cc 00000000 		.word	__stack_chk_guard
 227 00d0 00000000 		.word	.LANCHOR0
 228 00d4 00000000 		.word	0
ARM GAS  /var/folders/km/q6jdms0143g2bddz5bhvdfd00000gn/T//ccrIMm49.s 			page 5


 229 00d8 92249D43 		.word	1134371986
 230 00dc B76D7B42 		.word	1115385271
 231 00e0 92249DC3 		.word	3281855634
 232 00e4 B76D7BC2 		.word	3262868919
 233 00e8 CDCC4C3E 		.word	1045220557
 234 00ec 0000FA43 		.word	1140457472
 235 00f0 00000000 		.word	.LANCHOR1
 236              		.cfi_endproc
 237              	.LFE257:
 238              		.size	PiRegulator, .-PiRegulator
 239              		.section	.text.pi_regulator_start,"ax",%progbits
 240              		.align	1
 241              		.p2align 4,,15
 242              		.global	pi_regulator_start
 243              		.syntax unified
 244              		.thumb
 245              		.thumb_func
 246              		.fpu fpv4-sp-d16
 247              		.type	pi_regulator_start, %function
 248              	pi_regulator_start:
 249              	.LFB258:
 250              		.loc 1 58 0
 251              		.cfi_startproc
 252              		@ args = 0, pretend = 0, frame = 8
 253              		@ frame_needed = 0, uses_anonymous_args = 0
 254 0000 10B5     		push	{r4, lr}
 255              		.cfi_def_cfa_offset 8
 256              		.cfi_offset 4, -8
 257              		.cfi_offset 14, -4
 258 0002 0A4C     		ldr	r4, .L17
 259              		.loc 1 59 0
 260 0004 0A4B     		ldr	r3, .L17+4
 261              		.loc 1 58 0
 262 0006 2268     		ldr	r2, [r4]
 263              		.loc 1 59 0
 264 0008 0A48     		ldr	r0, .L17+8
 265              		.loc 1 58 0
 266 000a 84B0     		sub	sp, sp, #16
 267              		.cfi_def_cfa_offset 24
 268              		.loc 1 59 0
 269 000c 4FF41E71 		mov	r1, #632
 270              		.loc 1 58 0
 271 0010 0392     		str	r2, [sp, #12]
 272              		.loc 1 59 0
 273 0012 0022     		movs	r2, #0
 274 0014 0092     		str	r2, [sp]
 275 0016 4022     		movs	r2, #64
 276 0018 FFF7FEFF 		bl	chThdCreateStatic
 277              	.LVL21:
 278              		.loc 1 60 0
 279 001c 039A     		ldr	r2, [sp, #12]
 280 001e 2368     		ldr	r3, [r4]
 281 0020 9A42     		cmp	r2, r3
 282 0022 01D1     		bne	.L16
 283 0024 04B0     		add	sp, sp, #16
 284              		.cfi_remember_state
 285              		.cfi_def_cfa_offset 8
ARM GAS  /var/folders/km/q6jdms0143g2bddz5bhvdfd00000gn/T//ccrIMm49.s 			page 6


 286              		@ sp needed
 287 0026 10BD     		pop	{r4, pc}
 288              	.L16:
 289              		.cfi_restore_state
 290 0028 FFF7FEFF 		bl	__stack_chk_fail
 291              	.LVL22:
 292              	.L18:
 293              		.align	2
 294              	.L17:
 295 002c 00000000 		.word	__stack_chk_guard
 296 0030 00000000 		.word	PiRegulator
 297 0034 00000000 		.word	.LANCHOR2
 298              		.cfi_endproc
 299              	.LFE258:
 300              		.size	pi_regulator_start, .-pi_regulator_start
 301              		.section	.bss.waPiRegulator,"aw",%nobits
 302              		.align	3
 303              		.set	.LANCHOR2,. + 0
 304              		.type	waPiRegulator, %object
 305              		.size	waPiRegulator, 632
 306              	waPiRegulator:
 307 0000 00000000 		.space	632
 307      00000000 
 307      00000000 
 307      00000000 
 307      00000000 
 308              		.section	.rodata.__FUNCTION__.11850,"a",%progbits
 309              		.align	2
 310              		.set	.LANCHOR0,. + 0
 311              		.type	__FUNCTION__.11850, %object
 312              		.size	__FUNCTION__.11850, 12
 313              	__FUNCTION__.11850:
 314 0000 50695265 		.ascii	"PiRegulator\000"
 314      67756C61 
 314      746F7200 
 315              		.section	.rodata.__func__.7153,"a",%progbits
 316              		.align	2
 317              		.set	.LANCHOR1,. + 0
 318              		.type	__func__.7153, %object
 319              		.size	__func__.7153, 12
 320              	__func__.7153:
 321 0000 63685379 		.ascii	"chSysUnlock\000"
 321      73556E6C 
 321      6F636B00 
 322              		.text
 323              	.Letext0:
 324              		.file 6 "/Applications/Eclipse_e-puck2.app/Contents/Eclipse_e-puck2/Tools/gcc-arm-none-eabi-7-2017
 325              		.file 7 "/Applications/Eclipse_e-puck2.app/Contents/Eclipse_e-puck2/Tools/gcc-arm-none-eabi-7-2017
 326              		.file 8 "/Applications/Eclipse_e-puck2.app/Contents/Eclipse_e-puck2/Tools/gcc-arm-none-eabi-7-2017
 327              		.file 9 "../../lib/e-puck2_main-processor/ChibiOS//os/rt/ports/ARMCMx/compilers/GCC/chtypes.h"
 328              		.file 10 "../../lib/e-puck2_main-processor/ChibiOS//os/rt/include/chsystypes.h"
 329              		.file 11 "../../lib/e-puck2_main-processor/ChibiOS//os/rt/include/chschd.h"
 330              		.file 12 "../../lib/e-puck2_main-processor/ChibiOS//os/ext/CMSIS/include/core_cm4.h"
 331              		.file 13 "../../lib/e-puck2_main-processor/ChibiOS//os/ext/CMSIS/ST/system_stm32f4xx.h"
 332              		.file 14 "../../lib/e-puck2_main-processor/ChibiOS//os/ext/CMSIS/ST/stm32f407xx.h"
 333              		.file 15 "../../lib/e-puck2_main-processor/ChibiOS//os/rt/ports/ARMCMx/chcore.h"
 334              		.file 16 "../../lib/e-puck2_main-processor/ChibiOS//os/rt/ports/ARMCMx/chcore_v7m.h"
ARM GAS  /var/folders/km/q6jdms0143g2bddz5bhvdfd00000gn/T//ccrIMm49.s 			page 7


 335              		.file 17 "../../lib/e-puck2_main-processor/ChibiOS//os/rt/include/chdebug.h"
 336              		.file 18 "../../lib/e-puck2_main-processor/ChibiOS//os/rt/include/chtm.h"
 337              		.file 19 "../../lib/e-puck2_main-processor/ChibiOS//os/rt/include/chstats.h"
 338              		.file 20 "../../lib/e-puck2_main-processor/ChibiOS//os/rt/include/chsem.h"
 339              		.file 21 "../../lib/e-puck2_main-processor/ChibiOS//os/rt/include/chmtx.h"
 340              		.file 22 "../../lib/e-puck2_main-processor/ChibiOS//os/rt/include/chevents.h"
 341              		.file 23 "../../lib/e-puck2_main-processor/ChibiOS//os/rt/include/chqueues.h"
 342              		.file 24 "../../lib/e-puck2_main-processor/ChibiOS//os/hal/ports/STM32/STM32F4xx/stm32_dma.h"
 343              		.file 25 "../../lib/e-puck2_main-processor/ChibiOS//os/hal/include/hal_ioblock.h"
 344              		.file 26 "../../lib/e-puck2_main-processor/ChibiOS//os/hal/ports/STM32/LLD/GPIOv2/pal_lld.h"
 345              		.file 27 "../../lib/e-puck2_main-processor/ChibiOS//os/hal/include/adc.h"
 346              		.file 28 "../../lib/e-puck2_main-processor/ChibiOS//os/hal/ports/STM32/STM32F4xx/adc_lld.h"
 347              		.file 29 "../../lib/e-puck2_main-processor/ChibiOS//os/hal/include/can.h"
 348              		.file 30 "../../lib/e-puck2_main-processor/ChibiOS//os/hal/ports/STM32/LLD/can_lld.h"
 349              		.file 31 "../../lib/e-puck2_main-processor/ChibiOS//os/hal/include/dac.h"
 350              		.file 32 "../../lib/e-puck2_main-processor/ChibiOS//os/hal/ports/STM32/LLD/DACv1/dac_lld.h"
 351              		.file 33 "../../lib/e-puck2_main-processor/ChibiOS//os/hal/include/ext.h"
 352              		.file 34 "../../lib/e-puck2_main-processor/ChibiOS//os/hal/ports/STM32/LLD/ext_lld.h"
 353              		.file 35 "../../lib/e-puck2_main-processor/ChibiOS//os/hal/include/gpt.h"
 354              		.file 36 "../../lib/e-puck2_main-processor/ChibiOS//os/hal/ports/STM32/LLD/TIMv1/gpt_lld.h"
 355              		.file 37 "../../lib/e-puck2_main-processor/ChibiOS//os/hal/ports/STM32/LLD/TIMv1/stm32_tim.h"
 356              		.file 38 "../../lib/e-puck2_main-processor/ChibiOS//os/hal/include/i2c.h"
 357              		.file 39 "../../lib/e-puck2_main-processor/ChibiOS//os/hal/ports/STM32/LLD/I2Cv1/i2c_lld.h"
 358              		.file 40 "../../lib/e-puck2_main-processor/ChibiOS//os/hal/include/i2s.h"
 359              		.file 41 "../../lib/e-puck2_main-processor/ChibiOS//os/hal/ports/STM32/LLD/SPIv1/i2s_lld.h"
 360              		.file 42 "../../lib/e-puck2_main-processor/ChibiOS//os/hal/include/pwm.h"
 361              		.file 43 "../../lib/e-puck2_main-processor/ChibiOS//os/hal/ports/STM32/LLD/TIMv1/pwm_lld.h"
 362              		.file 44 "../../lib/e-puck2_main-processor/ChibiOS//os/hal/include/serial.h"
 363              		.file 45 "../../lib/e-puck2_main-processor/ChibiOS//os/hal/ports/STM32/LLD/USARTv1/serial_lld.h"
 364              		.file 46 "../../lib/e-puck2_main-processor/ChibiOS//os/hal/include/sdc.h"
 365              		.file 47 "../../lib/e-puck2_main-processor/ChibiOS//os/hal/ports/STM32/LLD/sdc_lld.h"
 366              		.file 48 "../../lib/e-puck2_main-processor/ChibiOS//os/hal/include/spi.h"
 367              		.file 49 "../../lib/e-puck2_main-processor/ChibiOS//os/hal/ports/STM32/LLD/SPIv1/spi_lld.h"
 368              		.file 50 "../../lib/e-puck2_main-processor/ChibiOS//os/hal/include/usb.h"
 369              		.file 51 "../../lib/e-puck2_main-processor/ChibiOS//os/hal/ports/STM32/LLD/OTGv1/usb_lld.h"
 370              		.file 52 "../../lib/e-puck2_main-processor/ChibiOS//os/hal/ports/STM32/LLD/OTGv1/stm32_otg.h"
 371              		.file 53 "../../lib/e-puck2_main-processor/ChibiOS//os/hal/include/serial_usb.h"
 372              		.file 54 "/Applications/Eclipse_e-puck2.app/Contents/Eclipse_e-puck2/Tools/gcc-arm-none-eabi-7-201
 373              		.file 55 "/Applications/Eclipse_e-puck2.app/Contents/Eclipse_e-puck2/Tools/gcc-arm-none-eabi-7-201
 374              		.file 56 "/Applications/Eclipse_e-puck2.app/Contents/Eclipse_e-puck2/Tools/gcc-arm-none-eabi-7-201
 375              		.file 57 "/Applications/Eclipse_e-puck2.app/Contents/Eclipse_e-puck2/Tools/gcc-arm-none-eabi-7-201
 376              		.file 58 "../../lib/e-puck2_main-processor/src/usbcfg.h"
 377              		.file 59 "../../lib/e-puck2_main-processor/ChibiOS_ext/os/hal/include/../ports/STM32/STM32F4xx/dcm
 378              		.file 60 "/Applications/Eclipse_e-puck2.app/Contents/Eclipse_e-puck2/Tools/gcc-arm-none-eabi-7-201
 379              		.file 61 "../../lib/e-puck2_main-processor/src/msgbus/messagebus.h"
 380              		.file 62 "/Applications/Eclipse_e-puck2.app/Contents/Eclipse_e-puck2/Tools/gcc-arm-none-eabi-7-201
 381              		.file 63 "../../lib/e-puck2_main-processor/src/parameter/parameter.h"
 382              		.file 64 "./main.h"
 383              		.file 65 "../../lib/e-puck2_main-processor/ChibiOS//os/rt/include/chthreads.h"
 384              		.file 66 "../../lib/e-puck2_main-processor/src/motors.h"
 385              		.file 67 "./process_image.h"