ARM GAS  /var/folders/km/q6jdms0143g2bddz5bhvdfd00000gn/T//ccgCxb3t.s 			page 1


   1              		.cpu cortex-m4
   2              		.eabi_attribute 27, 1
   3              		.eabi_attribute 28, 1
   4              		.eabi_attribute 20, 1
   5              		.eabi_attribute 21, 1
   6              		.eabi_attribute 23, 3
   7              		.eabi_attribute 24, 1
   8              		.eabi_attribute 25, 1
   9              		.eabi_attribute 26, 1
  10              		.eabi_attribute 30, 2
  11              		.eabi_attribute 34, 1
  12              		.eabi_attribute 18, 4
  13              		.file	"process_image.c"
  14              		.text
  15              	.Ltext0:
  16              		.cfi_sections	.debug_frame
  17              		.section	.text.chprintf.constprop.0,"ax",%progbits
  18              		.align	1
  19              		.p2align 4,,15
  20              		.syntax unified
  21              		.thumb
  22              		.thumb_func
  23              		.fpu fpv4-sp-d16
  24              		.type	chprintf.constprop.0, %function
  25              	chprintf.constprop.0:
  26              	.LFB263:
  27              		.file 1 "../../lib/e-puck2_main-processor/ChibiOS//os/hal/lib/streams/chprintf.h"
  28              		.loc 1 69 0
  29              		.cfi_startproc
  30              		@ args = 4, pretend = 12, frame = 8
  31              		@ frame_needed = 0, uses_anonymous_args = 1
  32              	.LVL0:
  33 0000 0EB4     		push	{r1, r2, r3}
  34              		.cfi_def_cfa_offset 12
  35              		.cfi_offset 1, -12
  36              		.cfi_offset 2, -8
  37              		.cfi_offset 3, -4
  38 0002 10B5     		push	{r4, lr}
  39              		.cfi_def_cfa_offset 20
  40              		.cfi_offset 4, -20
  41              		.cfi_offset 14, -16
  42 0004 83B0     		sub	sp, sp, #12
  43              		.cfi_def_cfa_offset 32
  44              		.loc 1 69 0
  45 0006 05AA     		add	r2, sp, #20
  46 0008 094C     		ldr	r4, .L6
  47 000a 52F8041B 		ldr	r1, [r2], #4
  48 000e 2368     		ldr	r3, [r4]
  49              		.loc 1 74 0
  50 0010 0848     		ldr	r0, .L6+4
  51              	.LVL1:
  52              		.loc 1 73 0
  53 0012 0092     		str	r2, [sp]
  54              		.loc 1 69 0
  55 0014 0193     		str	r3, [sp, #4]
  56              	.LVL2:
  57              		.loc 1 74 0
ARM GAS  /var/folders/km/q6jdms0143g2bddz5bhvdfd00000gn/T//ccgCxb3t.s 			page 2


  58 0016 FFF7FEFF 		bl	chvprintf
  59              	.LVL3:
  60              		.loc 1 78 0
  61 001a 019A     		ldr	r2, [sp, #4]
  62 001c 2368     		ldr	r3, [r4]
  63 001e 9A42     		cmp	r2, r3
  64 0020 04D1     		bne	.L5
  65 0022 03B0     		add	sp, sp, #12
  66              		.cfi_remember_state
  67              		.cfi_def_cfa_offset 20
  68              		@ sp needed
  69 0024 BDE81040 		pop	{r4, lr}
  70              		.cfi_restore 14
  71              		.cfi_restore 4
  72              		.cfi_def_cfa_offset 12
  73 0028 03B0     		add	sp, sp, #12
  74              		.cfi_restore 3
  75              		.cfi_restore 2
  76              		.cfi_restore 1
  77              		.cfi_def_cfa_offset 0
  78 002a 7047     		bx	lr
  79              	.L5:
  80              		.cfi_restore_state
  81 002c FFF7FEFF 		bl	__stack_chk_fail
  82              	.LVL4:
  83              	.L7:
  84              		.align	2
  85              	.L6:
  86 0030 00000000 		.word	__stack_chk_guard
  87 0034 00000000 		.word	SD3
  88              		.cfi_endproc
  89              	.LFE263:
  90              		.size	chprintf.constprop.0, .-chprintf.constprop.0
  91              		.section	.text.CaptureImage,"ax",%progbits
  92              		.align	1
  93              		.p2align 4,,15
  94              		.syntax unified
  95              		.thumb
  96              		.thumb_func
  97              		.fpu fpv4-sp-d16
  98              		.type	CaptureImage, %function
  99              	CaptureImage:
 100              	.LFB257:
 101              		.file 2 "process_image.c"
 102              		.loc 2 24 0
 103              		.cfi_startproc
 104              		@ Volatile: function does not return.
 105              		@ args = 0, pretend = 0, frame = 8
 106              		@ frame_needed = 0, uses_anonymous_args = 0
 107              	.LVL5:
 108 0000 80B5     		push	{r7, lr}
 109              		.cfi_def_cfa_offset 8
 110              		.cfi_offset 7, -8
 111              		.cfi_offset 14, -4
 112              	.LBB82:
 113              	.LBB83:
 114              		.file 3 "../../lib/e-puck2_main-processor/ChibiOS//os/rt/include/chregistry.h"
ARM GAS  /var/folders/km/q6jdms0143g2bddz5bhvdfd00000gn/T//ccgCxb3t.s 			page 3


 115              		.loc 3 135 0
 116 0002 334C     		ldr	r4, .L15
 117              	.LBE83:
 118              	.LBE82:
 119              		.loc 2 24 0
 120 0004 334A     		ldr	r2, .L15+4
 121              	.LBB85:
 122              	.LBB84:
 123              		.loc 3 135 0
 124 0006 A369     		ldr	r3, [r4, #24]
 125 0008 3349     		ldr	r1, .L15+8
 126 000a 9961     		str	r1, [r3, #24]
 127              	.LBE84:
 128              	.LBE85:
 129              		.loc 2 24 0
 130 000c 86B0     		sub	sp, sp, #24
 131              		.cfi_def_cfa_offset 32
 132              		.loc 2 30 0
 133 000e 0223     		movs	r3, #2
 134 0010 2025     		movs	r5, #32
 135              		.loc 2 24 0
 136 0012 1668     		ldr	r6, [r2]
 137              		.loc 2 30 0
 138 0014 0093     		str	r3, [sp]
 139 0016 0A22     		movs	r2, #10
 140 0018 4FF42073 		mov	r3, #640
 141 001c 0021     		movs	r1, #0
 142 001e CDE90155 		strd	r5, r5, [sp, #4]
 143 0022 3020     		movs	r0, #48
 144              	.LVL6:
 145              		.loc 2 24 0
 146 0024 0596     		str	r6, [sp, #20]
 147              		.loc 2 30 0
 148 0026 FFF7FEFF 		bl	po8030_advanced_config
 149              	.LVL7:
 150              		.loc 2 31 0
 151 002a FFF7FEFF 		bl	dcmi_enable_double_buffering
 152              	.LVL8:
 153              		.loc 2 32 0
 154 002e 0020     		movs	r0, #0
 155 0030 FFF7FEFF 		bl	dcmi_set_capture_mode
 156              	.LVL9:
 157 0034 DFF8A880 		ldr	r8, .L15+16
 158 0038 284F     		ldr	r7, .L15+12
 159              	.LBB86:
 160              	.LBB87:
 161              	.LBB88:
 162              	.LBB89:
 163              		.file 4 "../../lib/e-puck2_main-processor/ChibiOS//os/rt/include/chsys.h"
 164              		.loc 4 367 0
 165 003a DFF8A890 		ldr	r9, .L15+20
 166              	.LBE89:
 167              	.LBE88:
 168              	.LBE87:
 169              	.LBE86:
 170              		.loc 2 33 0
 171 003e FFF7FEFF 		bl	dcmi_prepare
ARM GAS  /var/folders/km/q6jdms0143g2bddz5bhvdfd00000gn/T//ccgCxb3t.s 			page 4


 172              	.LVL10:
 173              	.LBB109:
 174              	.LBB107:
 175              	.LBB98:
 176              	.LBB96:
 177              	.LBB90:
 178              	.LBB91:
 179              	.LBB92:
 180              		.file 5 "../../lib/e-puck2_main-processor/ChibiOS//os/ext/CMSIS/include/core_cmFunc.h"
 181              		.loc 5 546 0
 182 0042 0026     		movs	r6, #0
 183 0044 12E0     		b	.L12
 184              	.LVL11:
 185              	.L10:
 186              	.LBE92:
 187              	.LBE91:
 188              	.LBE90:
 189              	.LBE96:
 190              	.LBE98:
 191              	.LBE107:
 192              	.LBE109:
 193              	.LBB110:
 194              	.LBB111:
 195              		.file 6 "../../lib/e-puck2_main-processor/ChibiOS//os/rt/include/chbsem.h"
 196              		.loc 6 286 0
 197 0046 FFF7FEFF 		bl	chSchRescheduleS
 198              	.LVL12:
 199              	.LBB112:
 200              	.LBB113:
 201              		.loc 4 360 0
 202 004a FFF7FEFF 		bl	_dbg_check_unlock
 203              	.LVL13:
 204              		.loc 4 361 0
 205 004e FFF7FEFF 		bl	_stats_stop_measure_crit_thd
 206              	.LVL14:
 207              		.loc 4 367 0
 208 0052 2368     		ldr	r3, [r4]
 209 0054 A342     		cmp	r3, r4
 210 0056 07D0     		beq	.L11
 211 0058 A269     		ldr	r2, [r4, #24]
 212 005a 9B68     		ldr	r3, [r3, #8]
 213 005c 9268     		ldr	r2, [r2, #8]
 214 005e 9A42     		cmp	r2, r3
 215 0060 02D2     		bcs	.L11
 216 0062 4846     		mov	r0, r9
 217 0064 FFF7FEFF 		bl	chSysHalt
 218              	.LVL15:
 219              	.L11:
 220              	.LBB114:
 221              	.LBB115:
 222              	.LBB116:
 223              		.loc 5 546 0
 224              		.syntax unified
 225              	@ 546 "../../lib/e-puck2_main-processor/ChibiOS//os/ext/CMSIS/include/core_cmFunc.h" 1
 226 0068 86F31188 		MSR basepri, r6
 227              	@ 0 "" 2
 228              	.LVL16:
ARM GAS  /var/folders/km/q6jdms0143g2bddz5bhvdfd00000gn/T//ccgCxb3t.s 			page 5


 229              		.thumb
 230              		.syntax unified
 231              	.L12:
 232              	.LBE116:
 233              	.LBE115:
 234              	.LBE114:
 235              	.LBE113:
 236              	.LBE112:
 237              	.LBE111:
 238              	.LBE110:
 239              		.loc 2 38 0 discriminator 1
 240 006c FFF7FEFF 		bl	dcmi_capture_start
 241              	.LVL17:
 242              		.loc 2 40 0 discriminator 1
 243 0070 FFF7FEFF 		bl	wait_image_ready
 244              	.LVL18:
 245              	.LBB125:
 246              	.LBB108:
 247              	.LBB99:
 248              	.LBB100:
 249              	.LBB101:
 250              	.LBB102:
 251              	.LBB103:
 252              		.loc 5 546 0 discriminator 1
 253              		.syntax unified
 254              	@ 546 "../../lib/e-puck2_main-processor/ChibiOS//os/ext/CMSIS/include/core_cmFunc.h" 1
 255 0074 85F31188 		MSR basepri, r5
 256              	@ 0 "" 2
 257              	.LVL19:
 258              		.thumb
 259              		.syntax unified
 260              	.LBE103:
 261              	.LBE102:
 262              	.LBE101:
 263              		.loc 4 349 0 discriminator 1
 264 0078 FFF7FEFF 		bl	_stats_start_measure_crit_thd
 265              	.LVL20:
 266              		.loc 4 350 0 discriminator 1
 267 007c FFF7FEFF 		bl	_dbg_check_lock
 268              	.LVL21:
 269              	.LBE100:
 270              	.LBE99:
 271              	.LBB104:
 272              	.LBB105:
 273              		.file 7 "../../lib/e-puck2_main-processor/ChibiOS//os/rt/include/chvt.h"
 274              		.loc 7 231 0 discriminator 1
 275 0080 D4F828A0 		ldr	r10, [r4, #40]
 276              	.LBE105:
 277              	.LBE104:
 278              	.LBB106:
 279              	.LBB97:
 280              		.loc 4 360 0 discriminator 1
 281 0084 FFF7FEFF 		bl	_dbg_check_unlock
 282              	.LVL22:
 283              		.loc 4 361 0 discriminator 1
 284 0088 FFF7FEFF 		bl	_stats_stop_measure_crit_thd
 285              	.LVL23:
ARM GAS  /var/folders/km/q6jdms0143g2bddz5bhvdfd00000gn/T//ccgCxb3t.s 			page 6


 286              		.loc 4 367 0 discriminator 1
 287 008c 2368     		ldr	r3, [r4]
 288 008e A342     		cmp	r3, r4
 289 0090 07D0     		beq	.L9
 290              		.loc 4 367 0 is_stmt 0
 291 0092 A269     		ldr	r2, [r4, #24]
 292 0094 9B68     		ldr	r3, [r3, #8]
 293 0096 9268     		ldr	r2, [r2, #8]
 294 0098 9A42     		cmp	r2, r3
 295 009a 02D2     		bcs	.L9
 296 009c 4846     		mov	r0, r9
 297 009e FFF7FEFF 		bl	chSysHalt
 298              	.LVL24:
 299              	.L9:
 300              	.LBB95:
 301              	.LBB94:
 302              	.LBB93:
 303              		.loc 5 546 0 is_stmt 1
 304              		.syntax unified
 305              	@ 546 "../../lib/e-puck2_main-processor/ChibiOS//os/ext/CMSIS/include/core_cmFunc.h" 1
 306 00a2 86F31188 		MSR basepri, r6
 307              	@ 0 "" 2
 308              	.LVL25:
 309              		.thumb
 310              		.syntax unified
 311              	.LBE93:
 312              	.LBE94:
 313              	.LBE95:
 314              	.LBE97:
 315              	.LBE106:
 316              	.LBE108:
 317              	.LBE125:
 318              		.loc 2 46 0
 319 00a6 0C20     		movs	r0, #12
 320              		.loc 2 42 0
 321 00a8 C8F800A0 		str	r10, [r8]
 322              		.loc 2 46 0
 323 00ac FFF7FEFF 		bl	chThdSleep
 324              	.LVL26:
 325              	.LBB126:
 326              	.LBB124:
 327              	.LBB117:
 328              	.LBB118:
 329              	.LBB119:
 330              	.LBB120:
 331              	.LBB121:
 332              		.loc 5 546 0
 333              		.syntax unified
 334              	@ 546 "../../lib/e-puck2_main-processor/ChibiOS//os/ext/CMSIS/include/core_cmFunc.h" 1
 335 00b0 85F31188 		MSR basepri, r5
 336              	@ 0 "" 2
 337              	.LVL27:
 338              		.thumb
 339              		.syntax unified
 340              	.LBE121:
 341              	.LBE120:
 342              	.LBE119:
ARM GAS  /var/folders/km/q6jdms0143g2bddz5bhvdfd00000gn/T//ccgCxb3t.s 			page 7


 343              		.loc 4 349 0
 344 00b4 FFF7FEFF 		bl	_stats_start_measure_crit_thd
 345              	.LVL28:
 346              		.loc 4 350 0
 347 00b8 FFF7FEFF 		bl	_dbg_check_lock
 348              	.LVL29:
 349              	.LBE118:
 350              	.LBE117:
 351              	.LBB122:
 352              	.LBB123:
 353              		.loc 6 268 0
 354 00bc FFF7FEFF 		bl	chDbgCheckClassI
 355              	.LVL30:
 356              		.loc 6 270 0
 357 00c0 BB68     		ldr	r3, [r7, #8]
 358 00c2 002B     		cmp	r3, #0
 359 00c4 BFDC     		bgt	.L10
 360              		.loc 6 271 0
 361 00c6 0548     		ldr	r0, .L15+12
 362 00c8 FFF7FEFF 		bl	chSemSignalI
 363              	.LVL31:
 364 00cc BBE7     		b	.L10
 365              	.L16:
 366 00ce 00BF     		.align	2
 367              	.L15:
 368 00d0 00000000 		.word	ch
 369 00d4 00000000 		.word	__stack_chk_guard
 370 00d8 00000000 		.word	.LANCHOR0
 371 00dc 00000000 		.word	.LANCHOR3
 372 00e0 00000000 		.word	.LANCHOR2
 373 00e4 00000000 		.word	.LANCHOR1
 374              	.LBE123:
 375              	.LBE122:
 376              	.LBE124:
 377              	.LBE126:
 378              		.cfi_endproc
 379              	.LFE257:
 380              		.size	CaptureImage, .-CaptureImage
 381              		.section	.text.get_distance_cm,"ax",%progbits
 382              		.align	1
 383              		.p2align 4,,15
 384              		.global	get_distance_cm
 385              		.syntax unified
 386              		.thumb
 387              		.thumb_func
 388              		.fpu fpv4-sp-d16
 389              		.type	get_distance_cm, %function
 390              	get_distance_cm:
 391              	.LFB259:
 392              		.loc 2 94 0
 393              		.cfi_startproc
 394              		@ args = 0, pretend = 0, frame = 8
 395              		@ frame_needed = 0, uses_anonymous_args = 0
 396 0000 00B5     		push	{lr}
 397              		.cfi_def_cfa_offset 4
 398              		.cfi_offset 14, -4
 399 0002 084B     		ldr	r3, .L21
ARM GAS  /var/folders/km/q6jdms0143g2bddz5bhvdfd00000gn/T//ccgCxb3t.s 			page 8


 400              		.loc 2 95 0
 401 0004 0849     		ldr	r1, .L21+4
 402              		.loc 2 94 0
 403 0006 1A68     		ldr	r2, [r3]
 404              		.loc 2 96 0
 405 0008 91ED000A 		vldr.32	s0, [r1]
 406              		.loc 2 94 0
 407 000c 83B0     		sub	sp, sp, #12
 408              		.cfi_def_cfa_offset 16
 409              		.loc 2 94 0
 410 000e 0192     		str	r2, [sp, #4]
 411              		.loc 2 96 0
 412 0010 019A     		ldr	r2, [sp, #4]
 413 0012 1B68     		ldr	r3, [r3]
 414 0014 9A42     		cmp	r2, r3
 415 0016 02D1     		bne	.L20
 416 0018 03B0     		add	sp, sp, #12
 417              		.cfi_remember_state
 418              		.cfi_def_cfa_offset 4
 419              		@ sp needed
 420 001a 5DF804FB 		ldr	pc, [sp], #4
 421              	.L20:
 422              		.cfi_restore_state
 423 001e FFF7FEFF 		bl	__stack_chk_fail
 424              	.LVL32:
 425              	.L22:
 426 0022 00BF     		.align	2
 427              	.L21:
 428 0024 00000000 		.word	__stack_chk_guard
 429 0028 00000000 		.word	.LANCHOR4
 430              		.cfi_endproc
 431              	.LFE259:
 432              		.size	get_distance_cm, .-get_distance_cm
 433              		.section	.text.process_image_start,"ax",%progbits
 434              		.align	1
 435              		.p2align 4,,15
 436              		.global	process_image_start
 437              		.syntax unified
 438              		.thumb
 439              		.thumb_func
 440              		.fpu fpv4-sp-d16
 441              		.type	process_image_start, %function
 442              	process_image_start:
 443              	.LFB260:
 444              		.loc 2 98 0
 445              		.cfi_startproc
 446              		@ args = 0, pretend = 0, frame = 8
 447              		@ frame_needed = 0, uses_anonymous_args = 0
 448 0000 30B5     		push	{r4, r5, lr}
 449              		.cfi_def_cfa_offset 12
 450              		.cfi_offset 4, -12
 451              		.cfi_offset 5, -8
 452              		.cfi_offset 14, -4
 453 0002 0E4C     		ldr	r4, .L27
 454              		.loc 2 99 0
 455 0004 0E4B     		ldr	r3, .L27+4
 456              		.loc 2 98 0
ARM GAS  /var/folders/km/q6jdms0143g2bddz5bhvdfd00000gn/T//ccgCxb3t.s 			page 9


 457 0006 2268     		ldr	r2, [r4]
 458              		.loc 2 99 0
 459 0008 0E48     		ldr	r0, .L27+8
 460              		.loc 2 98 0
 461 000a 85B0     		sub	sp, sp, #20
 462              		.cfi_def_cfa_offset 32
 463              		.loc 2 99 0
 464 000c 0025     		movs	r5, #0
 465              		.loc 2 98 0
 466 000e 0392     		str	r2, [sp, #12]
 467              		.loc 2 99 0
 468 0010 4FF4AF61 		mov	r1, #1400
 469 0014 4022     		movs	r2, #64
 470 0016 0095     		str	r5, [sp]
 471 0018 FFF7FEFF 		bl	chThdCreateStatic
 472              	.LVL33:
 473              		.loc 2 100 0
 474 001c 0A4B     		ldr	r3, .L27+12
 475 001e 0095     		str	r5, [sp]
 476 0020 4022     		movs	r2, #64
 477 0022 0A48     		ldr	r0, .L27+16
 478 0024 4FF41E71 		mov	r1, #632
 479 0028 FFF7FEFF 		bl	chThdCreateStatic
 480              	.LVL34:
 481              		.loc 2 101 0
 482 002c 039A     		ldr	r2, [sp, #12]
 483 002e 2368     		ldr	r3, [r4]
 484 0030 9A42     		cmp	r2, r3
 485 0032 01D1     		bne	.L26
 486 0034 05B0     		add	sp, sp, #20
 487              		.cfi_remember_state
 488              		.cfi_def_cfa_offset 12
 489              		@ sp needed
 490 0036 30BD     		pop	{r4, r5, pc}
 491              	.L26:
 492              		.cfi_restore_state
 493 0038 FFF7FEFF 		bl	__stack_chk_fail
 494              	.LVL35:
 495              	.L28:
 496              		.align	2
 497              	.L27:
 498 003c 00000000 		.word	__stack_chk_guard
 499 0040 00000000 		.word	ProcessImage
 500 0044 00000000 		.word	.LANCHOR5
 501 0048 00000000 		.word	CaptureImage
 502 004c 00000000 		.word	.LANCHOR6
 503              		.cfi_endproc
 504              	.LFE260:
 505              		.size	process_image_start, .-process_image_start
 506              		.section	.text.line_detection,"ax",%progbits
 507              		.align	1
 508              		.p2align 4,,15
 509              		.global	line_detection
 510              		.syntax unified
 511              		.thumb
 512              		.thumb_func
 513              		.fpu fpv4-sp-d16
ARM GAS  /var/folders/km/q6jdms0143g2bddz5bhvdfd00000gn/T//ccgCxb3t.s 			page 10


 514              		.type	line_detection, %function
 515              	line_detection:
 516              	.LFB261:
 517              		.loc 2 103 0
 518              		.cfi_startproc
 519              		@ args = 0, pretend = 0, frame = 8
 520              		@ frame_needed = 0, uses_anonymous_args = 0
 521              	.LVL36:
 522 0000 2DE9F041 		push	{r4, r5, r6, r7, r8, lr}
 523              		.cfi_def_cfa_offset 24
 524              		.cfi_offset 4, -24
 525              		.cfi_offset 5, -20
 526              		.cfi_offset 6, -16
 527              		.cfi_offset 7, -12
 528              		.cfi_offset 8, -8
 529              		.cfi_offset 14, -4
 530 0004 394D     		ldr	r5, .L70
 531 0006 82B0     		sub	sp, sp, #8
 532              		.cfi_def_cfa_offset 32
 533              		.loc 2 103 0
 534 0008 2B68     		ldr	r3, [r5]
 535 000a 0193     		str	r3, [sp, #4]
 536              	.LVL37:
 537 000c 00F27F24 		addw	r4, r0, #639
 538 0010 431E     		subs	r3, r0, #1
 539              		.loc 2 108 0
 540 0012 0022     		movs	r2, #0
 541              	.LVL38:
 542              	.L30:
 543              	.LBB127:
 544              		.loc 2 111 0 discriminator 3
 545 0014 13F8011F 		ldrb	r1, [r3, #1]!	@ zero_extendqisi2
 546              		.loc 2 110 0 discriminator 3
 547 0018 9C42     		cmp	r4, r3
 548              		.loc 2 111 0 discriminator 3
 549 001a 0A44     		add	r2, r2, r1
 550              	.LVL39:
 551              		.loc 2 110 0 discriminator 3
 552 001c FAD1     		bne	.L30
 553              	.LBE127:
 554              		.loc 2 114 0
 555 001e 344B     		ldr	r3, .L70+4
 556              		.loc 2 119 0
 557 0020 0021     		movs	r1, #0
 558              		.loc 2 114 0
 559 0022 A3FB0223 		umull	r2, r3, r3, r2
 560              	.LVL40:
 561 0026 5B0A     		lsrs	r3, r3, #9
 562              	.LVL41:
 563              		.loc 2 105 0
 564 0028 8846     		mov	r8, r1
 565 002a 0E46     		mov	r6, r1
 566              		.loc 2 124 0
 567 002c 40F27A2E 		movw	lr, #634
 568              		.loc 2 134 0
 569 0030 40F27B2C 		movw	ip, #635
 570              	.LVL42:
ARM GAS  /var/folders/km/q6jdms0143g2bddz5bhvdfd00000gn/T//ccgCxb3t.s 			page 11


 571              	.L31:
 572              		.loc 2 124 0
 573 0034 7145     		cmp	r1, lr
 574 0036 48DC     		bgt	.L34
 575 0038 FEB1     		cbz	r6, .L45
 576              		.loc 2 134 0
 577 003a B8F1000F 		cmp	r8, #0
 578 003e 31D1     		bne	.L42
 579              	.L47:
 580              	.LVL43:
 581 0040 4A1E     		subs	r2, r1, #1
 582 0042 0244     		add	r2, r2, r0
 583              	.L43:
 584              		.loc 2 137 0
 585 0044 12F8017F 		ldrb	r7, [r2, #1]!	@ zero_extendqisi2
 586 0048 9F42     		cmp	r7, r3
 587 004a 01F10104 		add	r4, r1, #1
 588 004e 0ED2     		bcs	.L64
 589              	.L39:
 590              		.loc 2 137 0 is_stmt 0 discriminator 1
 591 0050 5779     		ldrb	r7, [r2, #5]	@ zero_extendqisi2
 592 0052 9F42     		cmp	r7, r3
 593 0054 0BD9     		bls	.L64
 594              	.LVL44:
 595              		.loc 2 134 0 is_stmt 1
 596 0056 7445     		cmp	r4, lr
 597 0058 42DC     		bgt	.L49
 598              		.loc 2 134 0 is_stmt 0 discriminator 1
 599 005a 0029     		cmp	r1, #0
 600 005c 3DD1     		bne	.L50
 601              	.LVL45:
 602              		.loc 2 142 0 is_stmt 1
 603 005e 0121     		movs	r1, #1
 604              	.LVL46:
 605 0060 4A1E     		subs	r2, r1, #1
 606 0062 0244     		add	r2, r2, r0
 607 0064 4C1C     		adds	r4, r1, #1
 608              		.loc 2 137 0
 609 0066 12F8017F 		ldrb	r7, [r2, #1]!	@ zero_extendqisi2
 610 006a 9F42     		cmp	r7, r3
 611 006c F0D3     		bcc	.L39
 612              	.LVL47:
 613              	.L64:
 614              		.loc 2 134 0
 615 006e 6445     		cmp	r4, ip
 616 0070 2AD0     		beq	.L66
 617              	.LVL48:
 618              		.loc 2 163 0
 619 0072 2146     		mov	r1, r4
 620 0074 E6E7     		b	.L43
 621              	.LVL49:
 622              	.L67:
 623 0076 4FF00008 		mov	r8, #0
 624              	.L45:
 625 007a 0C46     		mov	r4, r1
 626              	.L36:
 627              	.LVL50:
ARM GAS  /var/folders/km/q6jdms0143g2bddz5bhvdfd00000gn/T//ccgCxb3t.s 			page 12


 628 007c 621E     		subs	r2, r4, #1
 629 007e 0244     		add	r2, r2, r0
 630              	.LVL51:
 631              		.loc 2 108 0
 632 0080 2646     		mov	r6, r4
 633              	.LVL52:
 634              	.L38:
 635              		.loc 2 126 0
 636 0082 12F8014F 		ldrb	r4, [r2, #1]!	@ zero_extendqisi2
 637 0086 9C42     		cmp	r4, r3
 638 0088 06F10101 		add	r1, r6, #1
 639 008c 18D9     		bls	.L62
 640              		.loc 2 126 0 is_stmt 0 discriminator 1
 641 008e 5479     		ldrb	r4, [r2, #5]	@ zero_extendqisi2
 642 0090 9C42     		cmp	r4, r3
 643 0092 15D2     		bcs	.L62
 644              	.LVL53:
 645              		.loc 2 124 0 is_stmt 1
 646 0094 7145     		cmp	r1, lr
 647 0096 18DC     		bgt	.L34
 648              		.loc 2 131 0 discriminator 1
 649 0098 0124     		movs	r4, #1
 650              		.loc 2 124 0 discriminator 1
 651 009a 002E     		cmp	r6, #0
 652 009c EED0     		beq	.L36
 653              	.LVL54:
 654              		.loc 2 134 0
 655 009e B8F1000F 		cmp	r8, #0
 656 00a2 CDD0     		beq	.L47
 657              	.LVL55:
 658              	.L42:
 659              		.loc 2 145 0
 660 00a4 A8EB0602 		sub	r2, r8, r6
 661 00a8 282A     		cmp	r2, #40
 662 00aa E4DD     		ble	.L67
 663              	.L46:
 664              		.loc 2 147 0
 665 00ac FA2A     		cmp	r2, #250
 666 00ae C1DC     		bgt	.L31
 667              	.L29:
 668              		.loc 2 173 0
 669 00b0 0199     		ldr	r1, [sp, #4]
 670 00b2 2B68     		ldr	r3, [r5]
 671              	.LVL56:
 672 00b4 9942     		cmp	r1, r3
 673 00b6 1046     		mov	r0, r2
 674              	.LVL57:
 675 00b8 15D1     		bne	.L68
 676 00ba 02B0     		add	sp, sp, #8
 677              		.cfi_remember_state
 678              		.cfi_def_cfa_offset 24
 679              		@ sp needed
 680 00bc BDE8F081 		pop	{r4, r5, r6, r7, r8, pc}
 681              	.LVL58:
 682              	.L62:
 683              		.cfi_restore_state
 684              		.loc 2 124 0
ARM GAS  /var/folders/km/q6jdms0143g2bddz5bhvdfd00000gn/T//ccgCxb3t.s 			page 13


 685 00c0 6145     		cmp	r1, ip
 686 00c2 08D0     		beq	.L69
 687              	.LVL59:
 688              		.loc 2 108 0
 689 00c4 0E46     		mov	r6, r1
 690 00c6 DCE7     		b	.L38
 691              	.LVL60:
 692              	.L66:
 693              		.loc 2 134 0
 694 00c8 6146     		mov	r1, ip
 695              	.LVL61:
 696              	.L34:
 697              		.loc 2 145 0
 698 00ca A8EB0602 		sub	r2, r8, r6
 699 00ce 282A     		cmp	r2, #40
 700 00d0 ECDC     		bgt	.L46
 701              		.loc 2 159 0
 702 00d2 0022     		movs	r2, #0
 703 00d4 ECE7     		b	.L29
 704              	.LVL62:
 705              	.L69:
 706              		.loc 2 124 0
 707 00d6 0026     		movs	r6, #0
 708 00d8 F7E7     		b	.L34
 709              	.LVL63:
 710              	.L50:
 711 00da 8846     		mov	r8, r1
 712              	.LVL64:
 713 00dc 2146     		mov	r1, r4
 714 00de E1E7     		b	.L42
 715              	.LVL65:
 716              	.L49:
 717 00e0 8846     		mov	r8, r1
 718              	.LVL66:
 719 00e2 2146     		mov	r1, r4
 720 00e4 F1E7     		b	.L34
 721              	.LVL67:
 722              	.L68:
 723              		.loc 2 173 0
 724 00e6 FFF7FEFF 		bl	__stack_chk_fail
 725              	.LVL68:
 726              	.L71:
 727 00ea 00BF     		.align	2
 728              	.L70:
 729 00ec 00000000 		.word	__stack_chk_guard
 730 00f0 CDCCCCCC 		.word	-858993459
 731              		.cfi_endproc
 732              	.LFE261:
 733              		.size	line_detection, .-line_detection
 734              		.global	__aeabi_f2d
 735              		.section	.text.ProcessImage,"ax",%progbits
 736              		.align	1
 737              		.p2align 4,,15
 738              		.syntax unified
 739              		.thumb
 740              		.thumb_func
 741              		.fpu fpv4-sp-d16
ARM GAS  /var/folders/km/q6jdms0143g2bddz5bhvdfd00000gn/T//ccgCxb3t.s 			page 14


 742              		.type	ProcessImage, %function
 743              	ProcessImage:
 744              	.LFB258:
 745              		.loc 2 61 0
 746              		.cfi_startproc
 747              		@ args = 0, pretend = 0, frame = 648
 748              		@ frame_needed = 0, uses_anonymous_args = 0
 749              	.LVL69:
 750 0000 70B5     		push	{r4, r5, r6, lr}
 751              		.cfi_def_cfa_offset 16
 752              		.cfi_offset 4, -16
 753              		.cfi_offset 5, -12
 754              		.cfi_offset 6, -8
 755              		.cfi_offset 14, -4
 756 0002 2DED028B 		vpush.64	{d8}
 757              		.cfi_def_cfa_offset 24
 758              		.cfi_offset 80, -24
 759              		.cfi_offset 81, -20
 760              	.LBB128:
 761              	.LBB129:
 762              		.loc 3 135 0
 763 0006 1E4A     		ldr	r2, .L78
 764              	.LBE129:
 765              	.LBE128:
 766              		.loc 2 61 0
 767 0008 1E4B     		ldr	r3, .L78+4
 768              	.LBB131:
 769              	.LBB130:
 770              		.loc 3 135 0
 771 000a 9269     		ldr	r2, [r2, #24]
 772 000c 1E49     		ldr	r1, .L78+8
 773 000e 9161     		str	r1, [r2, #24]
 774              	.LBE130:
 775              	.LBE131:
 776              		.loc 2 61 0
 777 0010 ADF5227D 		sub	sp, sp, #648
 778              		.cfi_def_cfa_offset 672
 779              		.loc 2 67 0
 780 0014 01AC     		add	r4, sp, #4
 781              		.loc 2 61 0
 782 0016 1B68     		ldr	r3, [r3]
 783 0018 A193     		str	r3, [sp, #644]
 784              		.loc 2 67 0
 785 001a 2046     		mov	r0, r4
 786              	.LVL70:
 787 001c 4FF42072 		mov	r2, #640
 788 0020 0021     		movs	r1, #0
 789 0022 FFF7FEFF 		bl	memset
 790              	.LVL71:
 791 0026 194E     		ldr	r6, .L78+12
 792              	.LBB132:
 793              		.loc 2 85 0
 794 0028 DFED198A 		vldr.32	s17, .L78+16
 795 002c 9FED198A 		vldr.32	s16, .L78+20
 796              		.loc 2 88 0
 797 0030 194D     		ldr	r5, .L78+24
 798              	.L74:
ARM GAS  /var/folders/km/q6jdms0143g2bddz5bhvdfd00000gn/T//ccgCxb3t.s 			page 15


 799              	.LVL72:
 800              	.LBB133:
 801              	.LBB134:
 802              		.loc 6 143 0
 803 0032 1A48     		ldr	r0, .L78+28
 804 0034 FFF7FEFF 		bl	chSemWait
 805              	.LVL73:
 806              	.LBE134:
 807              	.LBE133:
 808              		.loc 2 73 0
 809 0038 FFF7FEFF 		bl	dcmi_get_last_image_ptr
 810              	.LVL74:
 811              	.LBB135:
 812              		.loc 2 75 0
 813 003c 0023     		movs	r3, #0
 814              	.LVL75:
 815              	.L73:
 816              		.loc 2 76 0 discriminator 3
 817 003e C218     		adds	r2, r0, r3
 818 0040 5910     		asrs	r1, r3, #1
 819 0042 5278     		ldrb	r2, [r2, #1]	@ zero_extendqisi2
 820              		.loc 2 75 0 discriminator 3
 821 0044 0233     		adds	r3, r3, #2
 822              	.LVL76:
 823              		.loc 2 76 0 discriminator 3
 824 0046 02F01F02 		and	r2, r2, #31
 825              		.loc 2 75 0 discriminator 3
 826 004a B3F5A06F 		cmp	r3, #1280
 827              		.loc 2 76 0 discriminator 3
 828 004e 6254     		strb	r2, [r4, r1]
 829              		.loc 2 75 0 discriminator 3
 830 0050 F5D1     		bne	.L73
 831              	.LBE135:
 832              		.loc 2 81 0
 833 0052 2046     		mov	r0, r4
 834              	.LVL77:
 835 0054 FFF7FEFF 		bl	line_detection
 836              	.LVL78:
 837              		.loc 2 85 0
 838 0058 C8EE887A 		vdiv.f32	s15, s17, s16
 839              		.loc 2 88 0
 840 005c 0022     		movs	r2, #0
 841 005e 1049     		ldr	r1, .L78+32
 842 0060 2846     		mov	r0, r5
 843              		.loc 2 85 0
 844 0062 C6ED007A 		vstr.32	s15, [r6]
 845              		.loc 2 88 0
 846 0066 FFF7FEFF 		bl	chprintf.constprop.0
 847              	.LVL79:
 848              		.loc 2 89 0
 849 006a 3068     		ldr	r0, [r6]	@ float
 850 006c FFF7FEFF 		bl	__aeabi_f2d
 851              	.LVL80:
 852 0070 0246     		mov	r2, r0
 853 0072 0B46     		mov	r3, r1
 854 0074 2846     		mov	r0, r5
 855 0076 0B49     		ldr	r1, .L78+36
ARM GAS  /var/folders/km/q6jdms0143g2bddz5bhvdfd00000gn/T//ccgCxb3t.s 			page 16


 856 0078 FFF7FEFF 		bl	chprintf.constprop.0
 857              	.LVL81:
 858              	.LBE132:
 859              		.loc 2 69 0
 860 007c D9E7     		b	.L74
 861              	.L79:
 862 007e 00BF     		.align	2
 863              	.L78:
 864 0080 00000000 		.word	ch
 865 0084 00000000 		.word	__stack_chk_guard
 866 0088 00000000 		.word	.LANCHOR7
 867 008c 00000000 		.word	.LANCHOR4
 868 0090 0040C444 		.word	1153712128
 869 0094 00000000 		.word	0
 870 0098 00000000 		.word	SD3
 871 009c 00000000 		.word	.LANCHOR3
 872 00a0 00000000 		.word	.LC0
 873 00a4 10000000 		.word	.LC1
 874              		.cfi_endproc
 875              	.LFE258:
 876              		.size	ProcessImage, .-ProcessImage
 877              		.global	time
 878              		.section	.bss.distance_cm,"aw",%nobits
 879              		.align	2
 880              		.set	.LANCHOR4,. + 0
 881              		.type	distance_cm, %object
 882              		.size	distance_cm, 4
 883              	distance_cm:
 884 0000 00000000 		.space	4
 885              		.section	.bss.time,"aw",%nobits
 886              		.align	2
 887              		.set	.LANCHOR2,. + 0
 888              		.type	time, %object
 889              		.size	time, 4
 890              	time:
 891 0000 00000000 		.space	4
 892              		.section	.bss.waCaptureImage,"aw",%nobits
 893              		.align	3
 894              		.set	.LANCHOR6,. + 0
 895              		.type	waCaptureImage, %object
 896              		.size	waCaptureImage, 632
 897              	waCaptureImage:
 898 0000 00000000 		.space	632
 898      00000000 
 898      00000000 
 898      00000000 
 898      00000000 
 899              		.section	.bss.waProcessImage,"aw",%nobits
 900              		.align	3
 901              		.set	.LANCHOR5,. + 0
 902              		.type	waProcessImage, %object
 903              		.size	waProcessImage, 1400
 904              	waProcessImage:
 905 0000 00000000 		.space	1400
 905      00000000 
 905      00000000 
 905      00000000 
ARM GAS  /var/folders/km/q6jdms0143g2bddz5bhvdfd00000gn/T//ccgCxb3t.s 			page 17


 905      00000000 
 906              		.section	.data.image_ready_sem,"aw",%progbits
 907              		.align	2
 908              		.set	.LANCHOR3,. + 0
 909              		.type	image_ready_sem, %object
 910              		.size	image_ready_sem, 12
 911              	image_ready_sem:
 912 0000 00000000 		.word	image_ready_sem
 913 0004 00000000 		.word	image_ready_sem
 914 0008 00000000 		.word	0
 915              		.section	.rodata.ProcessImage.str1.4,"aMS",%progbits,1
 916              		.align	2
 917              	.LC0:
 918 0000 4C617267 		.ascii	"Largeur = %7d\015\012\000"
 918      65757220 
 918      3D202537 
 918      640D0A00 
 919              	.LC1:
 920 0010 44697374 		.ascii	"Distance = %f\015\012\000"
 920      616E6365 
 920      203D2025 
 920      660D0A00 
 921              		.section	.rodata.__FUNCTION__.11333,"a",%progbits
 922              		.align	2
 923              		.set	.LANCHOR0,. + 0
 924              		.type	__FUNCTION__.11333, %object
 925              		.size	__FUNCTION__.11333, 13
 926              	__FUNCTION__.11333:
 927 0000 43617074 		.ascii	"CaptureImage\000"
 927      75726549 
 927      6D616765 
 927      00
 928              		.section	.rodata.__FUNCTION__.11339,"a",%progbits
 929              		.align	2
 930              		.set	.LANCHOR7,. + 0
 931              		.type	__FUNCTION__.11339, %object
 932              		.size	__FUNCTION__.11339, 13
 933              	__FUNCTION__.11339:
 934 0000 50726F63 		.ascii	"ProcessImage\000"
 934      65737349 
 934      6D616765 
 934      00
 935              		.section	.rodata.__func__.7153,"a",%progbits
 936              		.align	2
 937              		.set	.LANCHOR1,. + 0
 938              		.type	__func__.7153, %object
 939              		.size	__func__.7153, 12
 940              	__func__.7153:
 941 0000 63685379 		.ascii	"chSysUnlock\000"
 941      73556E6C 
 941      6F636B00 
 942              		.text
 943              	.Letext0:
 944              		.file 8 "/Applications/Eclipse_e-puck2.app/Contents/Eclipse_e-puck2/Tools/gcc-arm-none-eabi-7-2017
 945              		.file 9 "/Applications/Eclipse_e-puck2.app/Contents/Eclipse_e-puck2/Tools/gcc-arm-none-eabi-7-2017
 946              		.file 10 "/Applications/Eclipse_e-puck2.app/Contents/Eclipse_e-puck2/Tools/gcc-arm-none-eabi-7-201
 947              		.file 11 "../../lib/e-puck2_main-processor/ChibiOS//os/rt/ports/ARMCMx/compilers/GCC/chtypes.h"
ARM GAS  /var/folders/km/q6jdms0143g2bddz5bhvdfd00000gn/T//ccgCxb3t.s 			page 18


 948              		.file 12 "../../lib/e-puck2_main-processor/ChibiOS//os/rt/include/chsystypes.h"
 949              		.file 13 "../../lib/e-puck2_main-processor/ChibiOS//os/rt/include/chschd.h"
 950              		.file 14 "../../lib/e-puck2_main-processor/ChibiOS//os/ext/CMSIS/include/core_cm4.h"
 951              		.file 15 "../../lib/e-puck2_main-processor/ChibiOS//os/ext/CMSIS/ST/system_stm32f4xx.h"
 952              		.file 16 "../../lib/e-puck2_main-processor/ChibiOS//os/ext/CMSIS/ST/stm32f407xx.h"
 953              		.file 17 "../../lib/e-puck2_main-processor/ChibiOS//os/rt/ports/ARMCMx/chcore.h"
 954              		.file 18 "../../lib/e-puck2_main-processor/ChibiOS//os/rt/ports/ARMCMx/chcore_v7m.h"
 955              		.file 19 "../../lib/e-puck2_main-processor/ChibiOS//os/rt/include/chdebug.h"
 956              		.file 20 "../../lib/e-puck2_main-processor/ChibiOS//os/rt/include/chtm.h"
 957              		.file 21 "../../lib/e-puck2_main-processor/ChibiOS//os/rt/include/chstats.h"
 958              		.file 22 "../../lib/e-puck2_main-processor/ChibiOS//os/rt/include/chsem.h"
 959              		.file 23 "../../lib/e-puck2_main-processor/ChibiOS//os/rt/include/chmtx.h"
 960              		.file 24 "../../lib/e-puck2_main-processor/ChibiOS//os/rt/include/chevents.h"
 961              		.file 25 "../../lib/e-puck2_main-processor/ChibiOS//os/rt/include/chqueues.h"
 962              		.file 26 "../../lib/e-puck2_main-processor/ChibiOS//os/rt/include/chstreams.h"
 963              		.file 27 "../../lib/e-puck2_main-processor/ChibiOS//os/hal/ports/STM32/STM32F4xx/stm32_dma.h"
 964              		.file 28 "../../lib/e-puck2_main-processor/ChibiOS//os/hal/include/hal_ioblock.h"
 965              		.file 29 "../../lib/e-puck2_main-processor/ChibiOS//os/hal/ports/STM32/LLD/GPIOv2/pal_lld.h"
 966              		.file 30 "../../lib/e-puck2_main-processor/ChibiOS//os/hal/include/adc.h"
 967              		.file 31 "../../lib/e-puck2_main-processor/ChibiOS//os/hal/ports/STM32/STM32F4xx/adc_lld.h"
 968              		.file 32 "../../lib/e-puck2_main-processor/ChibiOS//os/hal/include/can.h"
 969              		.file 33 "../../lib/e-puck2_main-processor/ChibiOS//os/hal/ports/STM32/LLD/can_lld.h"
 970              		.file 34 "../../lib/e-puck2_main-processor/ChibiOS//os/hal/include/dac.h"
 971              		.file 35 "../../lib/e-puck2_main-processor/ChibiOS//os/hal/ports/STM32/LLD/DACv1/dac_lld.h"
 972              		.file 36 "../../lib/e-puck2_main-processor/ChibiOS//os/hal/include/ext.h"
 973              		.file 37 "../../lib/e-puck2_main-processor/ChibiOS//os/hal/ports/STM32/LLD/ext_lld.h"
 974              		.file 38 "../../lib/e-puck2_main-processor/ChibiOS//os/hal/include/gpt.h"
 975              		.file 39 "../../lib/e-puck2_main-processor/ChibiOS//os/hal/ports/STM32/LLD/TIMv1/gpt_lld.h"
 976              		.file 40 "../../lib/e-puck2_main-processor/ChibiOS//os/hal/ports/STM32/LLD/TIMv1/stm32_tim.h"
 977              		.file 41 "../../lib/e-puck2_main-processor/ChibiOS//os/hal/include/i2c.h"
 978              		.file 42 "../../lib/e-puck2_main-processor/ChibiOS//os/hal/ports/STM32/LLD/I2Cv1/i2c_lld.h"
 979              		.file 43 "../../lib/e-puck2_main-processor/ChibiOS//os/hal/include/i2s.h"
 980              		.file 44 "../../lib/e-puck2_main-processor/ChibiOS//os/hal/ports/STM32/LLD/SPIv1/i2s_lld.h"
 981              		.file 45 "../../lib/e-puck2_main-processor/ChibiOS//os/hal/include/pwm.h"
 982              		.file 46 "../../lib/e-puck2_main-processor/ChibiOS//os/hal/ports/STM32/LLD/TIMv1/pwm_lld.h"
 983              		.file 47 "../../lib/e-puck2_main-processor/ChibiOS//os/hal/include/serial.h"
 984              		.file 48 "../../lib/e-puck2_main-processor/ChibiOS//os/hal/ports/STM32/LLD/USARTv1/serial_lld.h"
 985              		.file 49 "../../lib/e-puck2_main-processor/ChibiOS//os/hal/include/sdc.h"
 986              		.file 50 "../../lib/e-puck2_main-processor/ChibiOS//os/hal/ports/STM32/LLD/sdc_lld.h"
 987              		.file 51 "../../lib/e-puck2_main-processor/ChibiOS//os/hal/include/spi.h"
 988              		.file 52 "../../lib/e-puck2_main-processor/ChibiOS//os/hal/ports/STM32/LLD/SPIv1/spi_lld.h"
 989              		.file 53 "../../lib/e-puck2_main-processor/ChibiOS//os/hal/include/usb.h"
 990              		.file 54 "../../lib/e-puck2_main-processor/ChibiOS//os/hal/ports/STM32/LLD/OTGv1/usb_lld.h"
 991              		.file 55 "../../lib/e-puck2_main-processor/ChibiOS//os/hal/ports/STM32/LLD/OTGv1/stm32_otg.h"
 992              		.file 56 "../../lib/e-puck2_main-processor/ChibiOS//os/hal/include/serial_usb.h"
 993              		.file 57 "/Applications/Eclipse_e-puck2.app/Contents/Eclipse_e-puck2/Tools/gcc-arm-none-eabi-7-201
 994              		.file 58 "<built-in>"
 995              		.file 59 "../../lib/e-puck2_main-processor/src/usbcfg.h"
 996              		.file 60 "../../lib/e-puck2_main-processor/ChibiOS_ext/os/hal/include/../ports/STM32/STM32F4xx/dcm
 997              		.file 61 "../../lib/e-puck2_main-processor/src/camera/po8030.h"
 998              		.file 62 "../../lib/e-puck2_main-processor/src/camera/dcmi_camera.h"
 999              		.file 63 "/Applications/Eclipse_e-puck2.app/Contents/Eclipse_e-puck2/Tools/gcc-arm-none-eabi-7-201
 1000              		.file 64 "/Applications/Eclipse_e-puck2.app/Contents/Eclipse_e-puck2/Tools/gcc-arm-none-eabi-7-201
 1001              		.file 65 "/Applications/Eclipse_e-puck2.app/Contents/Eclipse_e-puck2/Tools/gcc-arm-none-eabi-7-201
 1002              		.file 66 "../../lib/e-puck2_main-processor/src/msgbus/messagebus.h"
 1003              		.file 67 "/Applications/Eclipse_e-puck2.app/Contents/Eclipse_e-puck2/Tools/gcc-arm-none-eabi-7-201
 1004              		.file 68 "/Applications/Eclipse_e-puck2.app/Contents/Eclipse_e-puck2/Tools/gcc-arm-none-eabi-7-201
ARM GAS  /var/folders/km/q6jdms0143g2bddz5bhvdfd00000gn/T//ccgCxb3t.s 			page 19


 1005              		.file 69 "../../lib/e-puck2_main-processor/src/parameter/parameter.h"
 1006              		.file 70 "./main.h"
 1007              		.file 71 "../../lib/e-puck2_main-processor/ChibiOS//os/rt/include/chthreads.h"