ARM GAS  /var/folders/km/q6jdms0143g2bddz5bhvdfd00000gn/T//ccBySv7c.s 			page 1


   1              		.cpu cortex-m4
   2              		.eabi_attribute 27, 1
   3              		.eabi_attribute 28, 1
   4              		.eabi_attribute 20, 1
   5              		.eabi_attribute 21, 1
   6              		.eabi_attribute 23, 3
   7              		.eabi_attribute 24, 1
   8              		.eabi_attribute 25, 1
   9              		.eabi_attribute 26, 1
  10              		.eabi_attribute 30, 2
  11              		.eabi_attribute 34, 1
  12              		.eabi_attribute 18, 4
  13              		.file	"main.c"
  14              		.text
  15              	.Ltext0:
  16              		.cfi_sections	.debug_frame
  17              		.section	.text.SendUint8ToComputer,"ax",%progbits
  18              		.align	1
  19              		.p2align 4,,15
  20              		.global	SendUint8ToComputer
  21              		.syntax unified
  22              		.thumb
  23              		.thumb_func
  24              		.fpu fpv4-sp-d16
  25              		.type	SendUint8ToComputer, %function
  26              	SendUint8ToComputer:
  27              	.LFB293:
  28              		.file 1 "main.c"
  29              		.loc 1 30 0
  30              		.cfi_startproc
  31              		@ args = 0, pretend = 0, frame = 16
  32              		@ frame_needed = 0, uses_anonymous_args = 0
  33              	.LVL0:
  34 0000 70B5     		push	{r4, r5, r6, lr}
  35              		.cfi_def_cfa_offset 16
  36              		.cfi_offset 4, -16
  37              		.cfi_offset 5, -12
  38              		.cfi_offset 6, -8
  39              		.cfi_offset 14, -4
  40              		.loc 1 31 0
  41 0002 124C     		ldr	r4, .L6
  42              		.loc 1 30 0
  43 0004 124D     		ldr	r5, .L6+4
  44              		.loc 1 31 0
  45 0006 2368     		ldr	r3, [r4]
  46              		.loc 1 30 0
  47 0008 2A68     		ldr	r2, [r5]
  48 000a 84B0     		sub	sp, sp, #16
  49              		.cfi_def_cfa_offset 32
  50              		.loc 1 30 0
  51 000c 0646     		mov	r6, r0
  52 000e ADF80610 		strh	r1, [sp, #6]	@ movhi
  53              		.loc 1 31 0
  54 0012 1B68     		ldr	r3, [r3]
  55 0014 0F49     		ldr	r1, .L6+8
  56              	.LVL1:
  57              		.loc 1 30 0
ARM GAS  /var/folders/km/q6jdms0143g2bddz5bhvdfd00000gn/T//ccBySv7c.s 			page 2


  58 0016 0392     		str	r2, [sp, #12]
  59              		.loc 1 31 0
  60 0018 2046     		mov	r0, r4
  61              	.LVL2:
  62 001a 0522     		movs	r2, #5
  63 001c 9847     		blx	r3
  64              	.LVL3:
  65              		.loc 1 32 0
  66 001e 2368     		ldr	r3, [r4]
  67 0020 0222     		movs	r2, #2
  68 0022 1B68     		ldr	r3, [r3]
  69 0024 0DF10601 		add	r1, sp, #6
  70 0028 2046     		mov	r0, r4
  71 002a 9847     		blx	r3
  72              	.LVL4:
  73              		.loc 1 33 0
  74 002c 2368     		ldr	r3, [r4]
  75 002e BDF80620 		ldrh	r2, [sp, #6]
  76 0032 1B68     		ldr	r3, [r3]
  77 0034 3146     		mov	r1, r6
  78 0036 2046     		mov	r0, r4
  79 0038 9847     		blx	r3
  80              	.LVL5:
  81              		.loc 1 34 0
  82 003a 039A     		ldr	r2, [sp, #12]
  83 003c 2B68     		ldr	r3, [r5]
  84 003e 9A42     		cmp	r2, r3
  85 0040 01D1     		bne	.L5
  86 0042 04B0     		add	sp, sp, #16
  87              		.cfi_remember_state
  88              		.cfi_def_cfa_offset 16
  89              		@ sp needed
  90 0044 70BD     		pop	{r4, r5, r6, pc}
  91              	.LVL6:
  92              	.L5:
  93              		.cfi_restore_state
  94 0046 FFF7FEFF 		bl	__stack_chk_fail
  95              	.LVL7:
  96              	.L7:
  97 004a 00BF     		.align	2
  98              	.L6:
  99 004c 00000000 		.word	SD3
 100 0050 00000000 		.word	__stack_chk_guard
 101 0054 00000000 		.word	.LC0
 102              		.cfi_endproc
 103              	.LFE293:
 104              		.size	SendUint8ToComputer, .-SendUint8ToComputer
 105              		.section	.text.startup.main,"ax",%progbits
 106              		.align	1
 107              		.p2align 4,,15
 108              		.global	main
 109              		.syntax unified
 110              		.thumb
 111              		.thumb_func
 112              		.fpu fpv4-sp-d16
 113              		.type	main, %function
 114              	main:
ARM GAS  /var/folders/km/q6jdms0143g2bddz5bhvdfd00000gn/T//ccBySv7c.s 			page 3


 115              	.LFB295:
 116              		.loc 1 49 0
 117              		.cfi_startproc
 118              		@ Volatile: function does not return.
 119              		@ args = 0, pretend = 0, frame = 8
 120              		@ frame_needed = 0, uses_anonymous_args = 0
 121 0000 00B5     		push	{lr}
 122              		.cfi_def_cfa_offset 4
 123              		.cfi_offset 14, -4
 124 0002 174B     		ldr	r3, .L12
 125 0004 83B0     		sub	sp, sp, #12
 126              		.cfi_def_cfa_offset 16
 127              		.loc 1 49 0
 128 0006 1B68     		ldr	r3, [r3]
 129 0008 0193     		str	r3, [sp, #4]
 130              		.loc 1 51 0
 131 000a FFF7FEFF 		bl	halInit
 132              	.LVL8:
 133              		.loc 1 52 0
 134 000e FFF7FEFF 		bl	chSysInit
 135              	.LVL9:
 136              		.loc 1 53 0
 137 0012 FFF7FEFF 		bl	mpu_init
 138              	.LVL10:
 139              	.LBB4:
 140              	.LBB5:
 141              		.loc 1 45 0
 142 0016 1349     		ldr	r1, .L12+4
 143 0018 1348     		ldr	r0, .L12+8
 144 001a FFF7FEFF 		bl	sdStart
 145              	.LVL11:
 146              	.LBE5:
 147              	.LBE4:
 148              		.loc 1 58 0
 149 001e FFF7FEFF 		bl	usb_start
 150              	.LVL12:
 151              		.loc 1 60 0
 152 0022 124A     		ldr	r2, .L12+12
 153 0024 1249     		ldr	r1, .L12+16
 154 0026 1348     		ldr	r0, .L12+20
 155 0028 FFF7FEFF 		bl	messagebus_init
 156              	.LVL13:
 157              		.loc 1 62 0
 158 002c FFF7FEFF 		bl	dcmi_start
 159              	.LVL14:
 160              		.loc 1 63 0
 161 0030 FFF7FEFF 		bl	po8030_start
 162              	.LVL15:
 163              		.loc 1 65 0
 164 0034 FFF7FEFF 		bl	motors_init
 165              	.LVL16:
 166              		.loc 1 67 0
 167 0038 FFF7FEFF 		bl	movement_start
 168              	.LVL17:
 169              		.loc 1 69 0
 170 003c FFF7FEFF 		bl	proximity_start
 171              	.LVL18:
ARM GAS  /var/folders/km/q6jdms0143g2bddz5bhvdfd00000gn/T//ccBySv7c.s 			page 4


 172              		.loc 1 71 0
 173 0040 FFF7FEFF 		bl	spi_comm_start
 174              	.LVL19:
 175              		.loc 1 74 0
 176 0044 FFF7FEFF 		bl	VL53L0X_start
 177              	.LVL20:
 178              		.loc 1 76 0
 179 0048 0020     		movs	r0, #0
 180 004a FFF7FEFF 		bl	po8030_set_awb
 181              	.LVL21:
 182              		.loc 1 79 0
 183 004e FFF7FEFF 		bl	pi_regulator_start
 184              	.LVL22:
 185              		.loc 1 81 0
 186 0052 FFF7FEFF 		bl	process_image_start
 187              	.LVL23:
 188              	.L9:
 189              		.loc 1 86 0 discriminator 1
 190 0056 4FF47A70 		mov	r0, #1000
 191 005a FFF7FEFF 		bl	chThdSleep
 192              	.LVL24:
 193 005e FAE7     		b	.L9
 194              	.L13:
 195              		.align	2
 196              	.L12:
 197 0060 00000000 		.word	__stack_chk_guard
 198 0064 00000000 		.word	.LANCHOR0
 199 0068 00000000 		.word	SD3
 200 006c 00000000 		.word	.LANCHOR1
 201 0070 00000000 		.word	.LANCHOR2
 202 0074 00000000 		.word	.LANCHOR3
 203              		.cfi_endproc
 204              	.LFE295:
 205              		.size	main, .-main
 206              		.section	.text.__stack_chk_fail,"ax",%progbits
 207              		.align	1
 208              		.p2align 4,,15
 209              		.global	__stack_chk_fail
 210              		.syntax unified
 211              		.thumb
 212              		.thumb_func
 213              		.fpu fpv4-sp-d16
 214              		.type	__stack_chk_fail, %function
 215              	__stack_chk_fail:
 216              	.LFB296:
 217              		.loc 1 94 0
 218              		.cfi_startproc
 219              		@ args = 0, pretend = 0, frame = 8
 220              		@ frame_needed = 0, uses_anonymous_args = 0
 221 0000 00B5     		push	{lr}
 222              		.cfi_def_cfa_offset 4
 223              		.cfi_offset 14, -4
 224 0002 084B     		ldr	r3, .L19
 225 0004 83B0     		sub	sp, sp, #12
 226              		.cfi_def_cfa_offset 16
 227              		.loc 1 94 0
 228 0006 1A68     		ldr	r2, [r3]
ARM GAS  /var/folders/km/q6jdms0143g2bddz5bhvdfd00000gn/T//ccBySv7c.s 			page 5


 229 0008 0192     		str	r2, [sp, #4]
 230              		.loc 1 95 0
 231 000a 019A     		ldr	r2, [sp, #4]
 232 000c 1B68     		ldr	r3, [r3]
 233 000e 9A42     		cmp	r2, r3
 234 0010 05D1     		bne	.L18
 235 0012 0548     		ldr	r0, .L19+4
 236              		.loc 1 96 0
 237 0014 03B0     		add	sp, sp, #12
 238              		.cfi_remember_state
 239              		.cfi_def_cfa_offset 4
 240              		@ sp needed
 241 0016 5DF804EB 		ldr	lr, [sp], #4
 242              		.cfi_restore 14
 243              		.cfi_def_cfa_offset 0
 244              		.loc 1 95 0
 245 001a FFF7FEBF 		b	chSysHalt
 246              	.LVL25:
 247              	.L18:
 248              		.cfi_restore_state
 249 001e FFF7FEFF 		bl	__stack_chk_fail
 250              	.LVL26:
 251              	.L20:
 252 0022 00BF     		.align	2
 253              	.L19:
 254 0024 00000000 		.word	__stack_chk_guard
 255 0028 00000000 		.word	.LC1
 256              		.cfi_endproc
 257              	.LFE296:
 258              		.size	__stack_chk_fail, .-__stack_chk_fail
 259              		.global	__stack_chk_guard
 260              		.global	bus_condvar
 261              		.global	bus_lock
 262              		.global	bus
 263              		.section	.bss.bus,"aw",%nobits
 264              		.align	2
 265              		.set	.LANCHOR3,. + 0
 266              		.type	bus, %object
 267              		.size	bus, 12
 268              	bus:
 269 0000 00000000 		.space	12
 269      00000000 
 269      00000000 
 270              		.section	.data.__stack_chk_guard,"aw",%progbits
 271              		.align	2
 272              		.type	__stack_chk_guard, %object
 273              		.size	__stack_chk_guard, 4
 274              	__stack_chk_guard:
 275 0000 96E3DEE2 		.word	-488709226
 276              		.section	.data.bus_condvar,"aw",%progbits
 277              		.align	2
 278              		.set	.LANCHOR1,. + 0
 279              		.type	bus_condvar, %object
 280              		.size	bus_condvar, 8
 281              	bus_condvar:
 282 0000 00000000 		.word	bus_condvar
 283 0004 00000000 		.word	bus_condvar
ARM GAS  /var/folders/km/q6jdms0143g2bddz5bhvdfd00000gn/T//ccBySv7c.s 			page 6


 284              		.section	.data.bus_lock,"aw",%progbits
 285              		.align	2
 286              		.set	.LANCHOR2,. + 0
 287              		.type	bus_lock, %object
 288              		.size	bus_lock, 20
 289              	bus_lock:
 290 0000 00000000 		.word	bus_lock
 291 0004 00000000 		.word	bus_lock
 292 0008 00000000 		.word	0
 293 000c 00000000 		.word	0
 294 0010 00000000 		.word	0
 295              		.section	.data.ser_cfg.15532,"aw",%progbits
 296              		.align	2
 297              		.set	.LANCHOR0,. + 0
 298              		.type	ser_cfg.15532, %object
 299              		.size	ser_cfg.15532, 12
 300              	ser_cfg.15532:
 301 0000 00C20100 		.word	115200
 302 0004 0000     		.short	0
 303 0006 0000     		.short	0
 304 0008 0000     		.short	0
 305 000a 0000     		.space	2
 306              		.section	.rodata.SendUint8ToComputer.str1.4,"aMS",%progbits,1
 307              		.align	2
 308              	.LC0:
 309 0000 53544152 		.ascii	"START\000"
 309      5400
 310              		.section	.rodata.__stack_chk_fail.str1.4,"aMS",%progbits,1
 311              		.align	2
 312              	.LC1:
 313 0000 53746163 		.ascii	"Stack smashing detected\000"
 313      6B20736D 
 313      61736869 
 313      6E672064 
 313      65746563 
 314              		.text
 315              	.Letext0:
 316              		.file 2 "/Applications/Eclipse_e-puck2.app/Contents/Eclipse_e-puck2/Tools/gcc-arm-none-eabi-7-2017
 317              		.file 3 "/Applications/Eclipse_e-puck2.app/Contents/Eclipse_e-puck2/Tools/gcc-arm-none-eabi-7-2017
 318              		.file 4 "/Applications/Eclipse_e-puck2.app/Contents/Eclipse_e-puck2/Tools/gcc-arm-none-eabi-7-2017
 319              		.file 5 "/Applications/Eclipse_e-puck2.app/Contents/Eclipse_e-puck2/Tools/gcc-arm-none-eabi-7-2017
 320              		.file 6 "/Applications/Eclipse_e-puck2.app/Contents/Eclipse_e-puck2/Tools/gcc-arm-none-eabi-7-2017
 321              		.file 7 "/Applications/Eclipse_e-puck2.app/Contents/Eclipse_e-puck2/Tools/gcc-arm-none-eabi-7-2017
 322              		.file 8 "/Applications/Eclipse_e-puck2.app/Contents/Eclipse_e-puck2/Tools/gcc-arm-none-eabi-7-2017
 323              		.file 9 "/Applications/Eclipse_e-puck2.app/Contents/Eclipse_e-puck2/Tools/gcc-arm-none-eabi-7-2017
 324              		.file 10 "../../lib/e-puck2_main-processor/ChibiOS//os/rt/ports/ARMCMx/compilers/GCC/chtypes.h"
 325              		.file 11 "../../lib/e-puck2_main-processor/ChibiOS//os/rt/include/chsystypes.h"
 326              		.file 12 "../../lib/e-puck2_main-processor/ChibiOS//os/rt/include/chschd.h"
 327              		.file 13 "../../lib/e-puck2_main-processor/ChibiOS//os/ext/CMSIS/include/core_cm4.h"
 328              		.file 14 "../../lib/e-puck2_main-processor/ChibiOS//os/ext/CMSIS/ST/system_stm32f4xx.h"
 329              		.file 15 "../../lib/e-puck2_main-processor/ChibiOS//os/ext/CMSIS/ST/stm32f407xx.h"
 330              		.file 16 "../../lib/e-puck2_main-processor/ChibiOS//os/rt/ports/ARMCMx/chcore.h"
 331              		.file 17 "../../lib/e-puck2_main-processor/ChibiOS//os/rt/ports/ARMCMx/chcore_v7m.h"
 332              		.file 18 "../../lib/e-puck2_main-processor/ChibiOS//os/rt/include/chdebug.h"
 333              		.file 19 "../../lib/e-puck2_main-processor/ChibiOS//os/rt/include/chtm.h"
 334              		.file 20 "../../lib/e-puck2_main-processor/ChibiOS//os/rt/include/chstats.h"
 335              		.file 21 "../../lib/e-puck2_main-processor/ChibiOS//os/rt/include/chsem.h"
ARM GAS  /var/folders/km/q6jdms0143g2bddz5bhvdfd00000gn/T//ccBySv7c.s 			page 7


 336              		.file 22 "../../lib/e-puck2_main-processor/ChibiOS//os/rt/include/chmtx.h"
 337              		.file 23 "../../lib/e-puck2_main-processor/ChibiOS//os/rt/include/chregistry.h"
 338              		.file 24 "../../lib/e-puck2_main-processor/ChibiOS//os/rt/include/chcond.h"
 339              		.file 25 "../../lib/e-puck2_main-processor/ChibiOS//os/rt/include/chevents.h"
 340              		.file 26 "../../lib/e-puck2_main-processor/ChibiOS//os/rt/include/chqueues.h"
 341              		.file 27 "../../lib/e-puck2_main-processor/ChibiOS//os/rt/include/chstreams.h"
 342              		.file 28 "../../lib/e-puck2_main-processor/ChibiOS//os/hal/ports/STM32/STM32F4xx/stm32_dma.h"
 343              		.file 29 "../../lib/e-puck2_main-processor/ChibiOS//os/hal/include/hal_ioblock.h"
 344              		.file 30 "../../lib/e-puck2_main-processor/ChibiOS//os/hal/ports/STM32/LLD/GPIOv2/pal_lld.h"
 345              		.file 31 "../../lib/e-puck2_main-processor/ChibiOS//os/hal/include/adc.h"
 346              		.file 32 "../../lib/e-puck2_main-processor/ChibiOS//os/hal/ports/STM32/STM32F4xx/adc_lld.h"
 347              		.file 33 "../../lib/e-puck2_main-processor/ChibiOS//os/hal/include/can.h"
 348              		.file 34 "../../lib/e-puck2_main-processor/ChibiOS//os/hal/ports/STM32/LLD/can_lld.h"
 349              		.file 35 "../../lib/e-puck2_main-processor/ChibiOS//os/hal/include/dac.h"
 350              		.file 36 "../../lib/e-puck2_main-processor/ChibiOS//os/hal/ports/STM32/LLD/DACv1/dac_lld.h"
 351              		.file 37 "../../lib/e-puck2_main-processor/ChibiOS//os/hal/include/ext.h"
 352              		.file 38 "../../lib/e-puck2_main-processor/ChibiOS//os/hal/ports/STM32/LLD/ext_lld.h"
 353              		.file 39 "../../lib/e-puck2_main-processor/ChibiOS//os/hal/include/gpt.h"
 354              		.file 40 "../../lib/e-puck2_main-processor/ChibiOS//os/hal/ports/STM32/LLD/TIMv1/gpt_lld.h"
 355              		.file 41 "../../lib/e-puck2_main-processor/ChibiOS//os/hal/ports/STM32/LLD/TIMv1/stm32_tim.h"
 356              		.file 42 "../../lib/e-puck2_main-processor/ChibiOS//os/hal/include/i2c.h"
 357              		.file 43 "../../lib/e-puck2_main-processor/ChibiOS//os/hal/ports/STM32/LLD/I2Cv1/i2c_lld.h"
 358              		.file 44 "../../lib/e-puck2_main-processor/ChibiOS//os/hal/include/i2s.h"
 359              		.file 45 "../../lib/e-puck2_main-processor/ChibiOS//os/hal/ports/STM32/LLD/SPIv1/i2s_lld.h"
 360              		.file 46 "../../lib/e-puck2_main-processor/ChibiOS//os/hal/include/pwm.h"
 361              		.file 47 "../../lib/e-puck2_main-processor/ChibiOS//os/hal/ports/STM32/LLD/TIMv1/pwm_lld.h"
 362              		.file 48 "../../lib/e-puck2_main-processor/ChibiOS//os/hal/include/serial.h"
 363              		.file 49 "../../lib/e-puck2_main-processor/ChibiOS//os/hal/ports/STM32/LLD/USARTv1/serial_lld.h"
 364              		.file 50 "../../lib/e-puck2_main-processor/ChibiOS//os/hal/include/sdc.h"
 365              		.file 51 "../../lib/e-puck2_main-processor/ChibiOS//os/hal/ports/STM32/LLD/sdc_lld.h"
 366              		.file 52 "../../lib/e-puck2_main-processor/ChibiOS//os/hal/include/spi.h"
 367              		.file 53 "../../lib/e-puck2_main-processor/ChibiOS//os/hal/ports/STM32/LLD/SPIv1/spi_lld.h"
 368              		.file 54 "../../lib/e-puck2_main-processor/ChibiOS//os/hal/include/usb.h"
 369              		.file 55 "../../lib/e-puck2_main-processor/ChibiOS//os/hal/ports/STM32/LLD/OTGv1/usb_lld.h"
 370              		.file 56 "../../lib/e-puck2_main-processor/ChibiOS//os/hal/ports/STM32/LLD/OTGv1/stm32_otg.h"
 371              		.file 57 "../../lib/e-puck2_main-processor/ChibiOS//os/hal/include/serial_usb.h"
 372              		.file 58 "../../lib/e-puck2_main-processor/src/usbcfg.h"
 373              		.file 59 "../../lib/e-puck2_main-processor/ChibiOS_ext/os/hal/include/../ports/STM32/STM32F4xx/dcm
 374              		.file 60 "/Applications/Eclipse_e-puck2.app/Contents/Eclipse_e-puck2/Tools/gcc-arm-none-eabi-7-201
 375              		.file 61 "../../lib/e-puck2_main-processor/src/msgbus/messagebus.h"
 376              		.file 62 "../../lib/e-puck2_main-processor/src/parameter/parameter.h"
 377              		.file 63 "./main.h"
 378              		.file 64 "../../lib/e-puck2_main-processor/ChibiOS//os/rt/include/chsys.h"
 379              		.file 65 "../../lib/e-puck2_main-processor/ChibiOS//os/hal/include/hal.h"
 380              		.file 66 "../../lib/e-puck2_main-processor/src/memory_protection.h"
 381              		.file 67 "../../lib/e-puck2_main-processor/src/camera/dcmi_camera.h"
 382              		.file 68 "../../lib/e-puck2_main-processor/src/camera/po8030.h"
 383              		.file 69 "../../lib/e-puck2_main-processor/src/motors.h"
 384              		.file 70 "./movement.h"
 385              		.file 71 "../../lib/e-puck2_main-processor/src/sensors/proximity.h"
 386              		.file 72 "../../lib/e-puck2_main-processor/src/spi_comm.h"
 387              		.file 73 "../../lib/e-puck2_main-processor/src/sensors/VL53L0X/VL53L0X.h"
 388              		.file 74 "./pi_regulator.h"
 389              		.file 75 "./process_image.h"
 390              		.file 76 "../../lib/e-puck2_main-processor/ChibiOS//os/rt/include/chthreads.h"