ARM GAS  /var/folders/km/q6jdms0143g2bddz5bhvdfd00000gn/T//ccDKW1rn.s 			page 1


   1              		.cpu cortex-m4
   2              		.eabi_attribute 27, 1
   3              		.eabi_attribute 28, 1
   4              		.eabi_attribute 20, 1
   5              		.eabi_attribute 21, 1
   6              		.eabi_attribute 23, 3
   7              		.eabi_attribute 24, 1
   8              		.eabi_attribute 25, 1
   9              		.eabi_attribute 26, 1
  10              		.eabi_attribute 30, 2
  11              		.eabi_attribute 34, 1
  12              		.eabi_attribute 18, 4
  13              		.file	"movement.c"
  14              		.text
  15              	.Ltext0:
  16              		.cfi_sections	.debug_frame
  17              		.section	.text.get_no_more_color_needed,"ax",%progbits
  18              		.align	1
  19              		.p2align 4,,15
  20              		.global	get_no_more_color_needed
  21              		.syntax unified
  22              		.thumb
  23              		.thumb_func
  24              		.fpu fpv4-sp-d16
  25              		.type	get_no_more_color_needed, %function
  26              	get_no_more_color_needed:
  27              	.LFB261:
  28              		.file 1 "movement.c"
  29              		.loc 1 165 0
  30              		.cfi_startproc
  31              		@ args = 0, pretend = 0, frame = 8
  32              		@ frame_needed = 0, uses_anonymous_args = 0
  33 0000 00B5     		push	{lr}
  34              		.cfi_def_cfa_offset 4
  35              		.cfi_offset 14, -4
  36 0002 074B     		ldr	r3, .L6
  37              		.loc 1 166 0
  38 0004 0749     		ldr	r1, .L6+4
  39              		.loc 1 165 0
  40 0006 1A68     		ldr	r2, [r3]
  41              		.loc 1 167 0
  42 0008 0878     		ldrb	r0, [r1]	@ zero_extendqisi2
  43              		.loc 1 165 0
  44 000a 83B0     		sub	sp, sp, #12
  45              		.cfi_def_cfa_offset 16
  46              		.loc 1 165 0
  47 000c 0192     		str	r2, [sp, #4]
  48              		.loc 1 167 0
  49 000e 019A     		ldr	r2, [sp, #4]
  50 0010 1B68     		ldr	r3, [r3]
  51 0012 9A42     		cmp	r2, r3
  52 0014 02D1     		bne	.L5
  53 0016 03B0     		add	sp, sp, #12
  54              		.cfi_remember_state
  55              		.cfi_def_cfa_offset 4
  56              		@ sp needed
  57 0018 5DF804FB 		ldr	pc, [sp], #4
ARM GAS  /var/folders/km/q6jdms0143g2bddz5bhvdfd00000gn/T//ccDKW1rn.s 			page 2


  58              	.L5:
  59              		.cfi_restore_state
  60 001c FFF7FEFF 		bl	__stack_chk_fail
  61              	.LVL0:
  62              	.L7:
  63              		.align	2
  64              	.L6:
  65 0020 00000000 		.word	__stack_chk_guard
  66 0024 00000000 		.word	.LANCHOR0
  67              		.cfi_endproc
  68              	.LFE261:
  69              		.size	get_no_more_color_needed, .-get_no_more_color_needed
  70              		.section	.text.proximity,"ax",%progbits
  71              		.align	1
  72              		.p2align 4,,15
  73              		.global	proximity
  74              		.syntax unified
  75              		.thumb
  76              		.thumb_func
  77              		.fpu fpv4-sp-d16
  78              		.type	proximity, %function
  79              	proximity:
  80              	.LFB262:
  81              		.loc 1 169 0
  82              		.cfi_startproc
  83              		@ args = 0, pretend = 0, frame = 8
  84              		@ frame_needed = 0, uses_anonymous_args = 0
  85 0000 10B5     		push	{r4, lr}
  86              		.cfi_def_cfa_offset 8
  87              		.cfi_offset 4, -8
  88              		.cfi_offset 14, -4
  89 0002 214C     		ldr	r4, .L22
  90 0004 82B0     		sub	sp, sp, #8
  91              		.cfi_def_cfa_offset 16
  92              		.loc 1 169 0
  93 0006 2368     		ldr	r3, [r4]
  94 0008 0193     		str	r3, [sp, #4]
  95              		.loc 1 170 0
  96 000a 0620     		movs	r0, #6
  97 000c FFF7FEFF 		bl	get_prox
  98              	.LVL1:
  99 0010 B0F5FA7F 		cmp	r0, #500
 100 0014 05DC     		bgt	.L11
 101              		.loc 1 171 0
 102 0016 0720     		movs	r0, #7
 103 0018 FFF7FEFF 		bl	get_prox
 104              	.LVL2:
 105 001c B0F5FA7F 		cmp	r0, #500
 106 0020 0EDD     		ble	.L20
 107              	.L11:
 108              		.loc 1 173 0
 109 0022 4FF44870 		mov	r0, #800
 110 0026 FFF7FEFF 		bl	left_motor_set_speed
 111              	.LVL3:
 112              		.loc 1 174 0
 113 002a 019A     		ldr	r2, [sp, #4]
 114 002c 2368     		ldr	r3, [r4]
ARM GAS  /var/folders/km/q6jdms0143g2bddz5bhvdfd00000gn/T//ccDKW1rn.s 			page 3


 115 002e 9A42     		cmp	r2, r3
 116 0030 08BF     		it	eq
 117 0032 C820     		moveq	r0, #200
 118 0034 1AD1     		bne	.L19
 119              	.L18:
 120              		.loc 1 186 0
 121 0036 02B0     		add	sp, sp, #8
 122              		.cfi_remember_state
 123              		.cfi_def_cfa_offset 8
 124              		@ sp needed
 125 0038 BDE81040 		pop	{r4, lr}
 126              		.cfi_restore 14
 127              		.cfi_restore 4
 128              		.cfi_def_cfa_offset 0
 129              	.LBB34:
 130              	.LBB35:
 131              		.loc 1 184 0
 132 003c FFF7FEBF 		b	right_motor_set_speed
 133              	.LVL4:
 134              	.L20:
 135              		.cfi_restore_state
 136              	.LBE35:
 137              	.LBE34:
 138              		.loc 1 176 0
 139 0040 0120     		movs	r0, #1
 140 0042 FFF7FEFF 		bl	get_prox
 141              	.LVL5:
 142 0046 B0F5FA7F 		cmp	r0, #500
 143 004a 05DC     		bgt	.L14
 144              		.loc 1 177 0
 145 004c 0020     		movs	r0, #0
 146 004e FFF7FEFF 		bl	get_prox
 147              	.LVL6:
 148 0052 B0F5FA7F 		cmp	r0, #500
 149 0056 0BDD     		ble	.L21
 150              	.L14:
 151              		.loc 1 179 0
 152 0058 C820     		movs	r0, #200
 153 005a FFF7FEFF 		bl	left_motor_set_speed
 154              	.LVL7:
 155              		.loc 1 180 0
 156 005e 019A     		ldr	r2, [sp, #4]
 157 0060 2368     		ldr	r3, [r4]
 158 0062 9A42     		cmp	r2, r3
 159 0064 08BF     		it	eq
 160 0066 4FF44870 		moveq	r0, #800
 161 006a E4D0     		beq	.L18
 162              	.L19:
 163              	.LBB37:
 164              	.LBB36:
 165              		.loc 1 184 0
 166 006c FFF7FEFF 		bl	__stack_chk_fail
 167              	.LVL8:
 168              	.L21:
 169              		.loc 1 183 0
 170 0070 4FF4FA70 		mov	r0, #500
 171 0074 FFF7FEFF 		bl	left_motor_set_speed
ARM GAS  /var/folders/km/q6jdms0143g2bddz5bhvdfd00000gn/T//ccDKW1rn.s 			page 4


 172              	.LVL9:
 173              		.loc 1 184 0
 174 0078 019A     		ldr	r2, [sp, #4]
 175 007a 2368     		ldr	r3, [r4]
 176 007c 9A42     		cmp	r2, r3
 177 007e 08BF     		it	eq
 178 0080 4FF4FA70 		moveq	r0, #500
 179 0084 D7D0     		beq	.L18
 180 0086 F1E7     		b	.L19
 181              	.L23:
 182              		.align	2
 183              	.L22:
 184 0088 00000000 		.word	__stack_chk_guard
 185              	.LBE36:
 186              	.LBE37:
 187              		.cfi_endproc
 188              	.LFE262:
 189              		.size	proximity, .-proximity
 190              		.section	.text.movement,"ax",%progbits
 191              		.align	1
 192              		.p2align 4,,15
 193              		.syntax unified
 194              		.thumb
 195              		.thumb_func
 196              		.fpu fpv4-sp-d16
 197              		.type	movement, %function
 198              	movement:
 199              	.LFB260:
 200              		.loc 1 67 0
 201              		.cfi_startproc
 202              		@ args = 0, pretend = 0, frame = 8
 203              		@ frame_needed = 0, uses_anonymous_args = 0
 204              	.LVL10:
 205 0000 2DE9F04F 		push	{r4, r5, r6, r7, r8, r9, r10, fp, lr}
 206              		.cfi_def_cfa_offset 36
 207              		.cfi_offset 4, -36
 208              		.cfi_offset 5, -32
 209              		.cfi_offset 6, -28
 210              		.cfi_offset 7, -24
 211              		.cfi_offset 8, -20
 212              		.cfi_offset 9, -16
 213              		.cfi_offset 10, -12
 214              		.cfi_offset 11, -8
 215              		.cfi_offset 14, -4
 216              	.LBB54:
 217              	.LBB55:
 218              		.file 2 "../../lib/e-puck2_main-processor/ChibiOS//os/rt/include/chregistry.h"
 219              		.loc 2 135 0
 220 0004 754C     		ldr	r4, .L73
 221              	.LBE55:
 222              	.LBE54:
 223              		.loc 1 67 0
 224 0006 764B     		ldr	r3, .L73+4
 225              	.LBB58:
 226              	.LBB56:
 227              		.loc 2 135 0
 228 0008 A269     		ldr	r2, [r4, #24]
ARM GAS  /var/folders/km/q6jdms0143g2bddz5bhvdfd00000gn/T//ccDKW1rn.s 			page 5


 229 000a 7649     		ldr	r1, .L73+8
 230              	.LBE56:
 231              	.LBE58:
 232              		.loc 1 67 0
 233 000c 1B68     		ldr	r3, [r3]
 234 000e 764F     		ldr	r7, .L73+12
 235              	.LBB59:
 236              	.LBB60:
 237              	.LBB61:
 238              	.LBB62:
 239              		.file 3 "../../lib/e-puck2_main-processor/ChibiOS//os/rt/include/chsys.h"
 240              		.loc 3 367 0
 241 0010 DFF8DC81 		ldr	r8, .L73+20
 242              	.LBE62:
 243              	.LBE61:
 244              	.LBE60:
 245              	.LBE59:
 246              	.LBB82:
 247              	.LBB57:
 248              		.loc 2 135 0
 249 0014 9161     		str	r1, [r2, #24]
 250              	.LBE57:
 251              	.LBE82:
 252              		.loc 1 67 0
 253 0016 83B0     		sub	sp, sp, #12
 254              		.cfi_def_cfa_offset 48
 255              		.loc 1 98 0
 256 0018 DFF8D891 		ldr	r9, .L73+24
 257              		.loc 1 67 0
 258 001c 0193     		str	r3, [sp, #4]
 259              	.LVL11:
 260              	.LBB83:
 261              	.LBB80:
 262              	.LBB67:
 263              	.LBB68:
 264              	.LBB69:
 265              	.LBB70:
 266              	.LBB71:
 267              		.file 4 "../../lib/e-puck2_main-processor/ChibiOS//os/ext/CMSIS/include/core_cmFunc.h"
 268              		.loc 4 546 0
 269 001e 2026     		movs	r6, #32
 270 0020 16E0     		b	.L51
 271              	.LVL12:
 272              	.L26:
 273              	.LBE71:
 274              	.LBE70:
 275              	.LBE69:
 276              	.LBE68:
 277              	.LBE67:
 278              	.LBE80:
 279              	.LBE83:
 280              		.loc 1 113 0
 281 0022 FFF7FEFF 		bl	get_mode
 282              	.LVL13:
 283 0026 0128     		cmp	r0, #1
 284 0028 45D0     		beq	.L65
 285              		.loc 1 129 0
ARM GAS  /var/folders/km/q6jdms0143g2bddz5bhvdfd00000gn/T//ccDKW1rn.s 			page 6


 286 002a FFF7FEFF 		bl	get_mode
 287              	.LVL14:
 288 002e 0328     		cmp	r0, #3
 289 0030 63D0     		beq	.L66
 290              		.loc 1 152 0
 291 0032 5846     		mov	r0, fp
 292 0034 FFF7FEFF 		bl	left_motor_set_speed
 293              	.LVL15:
 294              		.loc 1 153 0
 295 0038 5846     		mov	r0, fp
 296 003a FFF7FEFF 		bl	right_motor_set_speed
 297              	.LVL16:
 298              	.L30:
 299              		.loc 1 157 0
 300 003e FFF7FEFF 		bl	get_color_detected
 301              	.LVL17:
 302 0042 0328     		cmp	r0, #3
 303 0044 30D0     		beq	.L67
 304              	.L49:
 305              		.loc 1 160 0
 306 0046 05F10A01 		add	r1, r5, #10
 307 004a 2846     		mov	r0, r5
 308 004c FFF7FEFF 		bl	chThdSleepUntilWindowed
 309              	.LVL18:
 310              	.L51:
 311              	.LBB84:
 312              	.LBB81:
 313              	.LBB76:
 314              	.LBB75:
 315              	.LBB74:
 316              	.LBB73:
 317              	.LBB72:
 318              		.loc 4 546 0
 319              		.syntax unified
 320              	@ 546 "../../lib/e-puck2_main-processor/ChibiOS//os/ext/CMSIS/include/core_cmFunc.h" 1
 321 0050 86F31188 		MSR basepri, r6
 322              	@ 0 "" 2
 323              	.LVL19:
 324              		.thumb
 325              		.syntax unified
 326              	.LBE72:
 327              	.LBE73:
 328              	.LBE74:
 329              		.loc 3 349 0
 330 0054 FFF7FEFF 		bl	_stats_start_measure_crit_thd
 331              	.LVL20:
 332              		.loc 3 350 0
 333 0058 FFF7FEFF 		bl	_dbg_check_lock
 334              	.LVL21:
 335              	.LBE75:
 336              	.LBE76:
 337              	.LBB77:
 338              	.LBB78:
 339              		.file 5 "../../lib/e-puck2_main-processor/ChibiOS//os/rt/include/chvt.h"
 340              		.loc 5 231 0
 341 005c A56A     		ldr	r5, [r4, #40]
 342              	.LBE78:
ARM GAS  /var/folders/km/q6jdms0143g2bddz5bhvdfd00000gn/T//ccDKW1rn.s 			page 7


 343              	.LBE77:
 344              	.LBB79:
 345              	.LBB66:
 346              		.loc 3 360 0
 347 005e FFF7FEFF 		bl	_dbg_check_unlock
 348              	.LVL22:
 349              		.loc 3 361 0
 350 0062 FFF7FEFF 		bl	_stats_stop_measure_crit_thd
 351              	.LVL23:
 352              		.loc 3 367 0
 353 0066 2368     		ldr	r3, [r4]
 354 0068 A342     		cmp	r3, r4
 355 006a 07D0     		beq	.L25
 356 006c A269     		ldr	r2, [r4, #24]
 357 006e 9B68     		ldr	r3, [r3, #8]
 358 0070 9268     		ldr	r2, [r2, #8]
 359 0072 9A42     		cmp	r2, r3
 360 0074 02D2     		bcs	.L25
 361 0076 4046     		mov	r0, r8
 362 0078 FFF7FEFF 		bl	chSysHalt
 363              	.LVL24:
 364              	.L25:
 365              	.LBB63:
 366              	.LBB64:
 367              	.LBB65:
 368              		.loc 4 546 0
 369 007c 4FF0000B 		mov	fp, #0
 370              		.syntax unified
 371              	@ 546 "../../lib/e-puck2_main-processor/ChibiOS//os/ext/CMSIS/include/core_cmFunc.h" 1
 372 0080 8BF31188 		MSR basepri, fp
 373              	@ 0 "" 2
 374              	.LVL25:
 375              		.thumb
 376              		.syntax unified
 377              	.LBE65:
 378              	.LBE64:
 379              	.LBE63:
 380              	.LBE66:
 381              	.LBE79:
 382              	.LBE81:
 383              	.LBE84:
 384              		.loc 1 81 0
 385 0084 FFF7FEFF 		bl	get_mode
 386              	.LVL26:
 387 0088 0228     		cmp	r0, #2
 388 008a CAD1     		bne	.L26
 389              		.loc 1 82 0
 390 008c FFF7FEFF 		bl	get_color_detected
 391              	.LVL27:
 392 0090 00BB     		cbnz	r0, .L27
 393              		.loc 1 83 0
 394 0092 FFF7FEFF 		bl	VL53L0X_get_dist_mm
 395              	.LVL28:
 396 0096 3128     		cmp	r0, #49
 397 0098 40F28E80 		bls	.L68
 398              	.L32:
 399              		.loc 1 87 0
ARM GAS  /var/folders/km/q6jdms0143g2bddz5bhvdfd00000gn/T//ccDKW1rn.s 			page 8


 400 009c FFF7FEFF 		bl	proximity
 401              	.LVL29:
 402              		.loc 1 157 0
 403 00a0 FFF7FEFF 		bl	get_color_detected
 404              	.LVL30:
 405 00a4 0328     		cmp	r0, #3
 406 00a6 CED1     		bne	.L49
 407              	.L67:
 408              		.loc 1 157 0 is_stmt 0 discriminator 1
 409 00a8 FFF7FEFF 		bl	get_mode
 410              	.LVL31:
 411 00ac 0228     		cmp	r0, #2
 412 00ae CAD1     		bne	.L49
 413              		.loc 1 158 0 is_stmt 1
 414 00b0 FFF7FEFF 		bl	next_mode
 415              	.LVL32:
 416 00b4 C7E7     		b	.L49
 417              	.L65:
 418              		.loc 1 114 0
 419 00b6 FFF7FEFF 		bl	get_color_selected
 420              	.LVL33:
 421 00ba 0128     		cmp	r0, #1
 422 00bc 6CD0     		beq	.L69
 423              		.loc 1 119 0
 424 00be FFF7FEFF 		bl	get_color_selected
 425              	.LVL34:
 426 00c2 0228     		cmp	r0, #2
 427 00c4 70D0     		beq	.L70
 428              		.loc 1 123 0
 429 00c6 FFF7FEFF 		bl	get_color_selected
 430              	.LVL35:
 431 00ca 0328     		cmp	r0, #3
 432 00cc 7CD0     		beq	.L71
 433              	.L64:
 434              		.loc 1 140 0
 435 00ce FFF7FEFF 		bl	next_mode
 436              	.LVL36:
 437 00d2 B4E7     		b	.L30
 438              	.L27:
 439              		.loc 1 90 0
 440 00d4 FFF7FEFF 		bl	get_color_detected
 441              	.LVL37:
 442 00d8 8246     		mov	r10, r0
 443 00da FFF7FEFF 		bl	get_color_selected
 444              	.LVL38:
 445 00de 8245     		cmp	r10, r0
 446 00e0 29D0     		beq	.L72
 447              		.loc 1 103 0
 448 00e2 FFF7FEFF 		bl	VL53L0X_get_dist_mm
 449              	.LVL39:
 450 00e6 3C28     		cmp	r0, #60
 451 00e8 D8D8     		bhi	.L32
 452              		.loc 1 107 0
 453 00ea FFF7FEFF 		bl	left_turn
 454              	.LVL40:
 455              	.L35:
 456              		.loc 1 108 0 discriminator 1
ARM GAS  /var/folders/km/q6jdms0143g2bddz5bhvdfd00000gn/T//ccDKW1rn.s 			page 9


 457 00ee FFF7FEFF 		bl	right_motor_get_pos
 458              	.LVL41:
 459 00f2 B0F5877F 		cmp	r0, #270
 460 00f6 FAD1     		bne	.L35
 461 00f8 A1E7     		b	.L30
 462              	.L66:
 463              		.loc 1 130 0
 464 00fa FFF7FEFF 		bl	VL53L0X_get_dist_mm
 465              	.LVL42:
 466 00fe 3228     		cmp	r0, #50
 467 0100 02D9     		bls	.L44
 468              		.loc 1 130 0 is_stmt 0 discriminator 1
 469 0102 3B78     		ldrb	r3, [r7]	@ zero_extendqisi2
 470 0104 002B     		cmp	r3, #0
 471 0106 C9D0     		beq	.L32
 472              	.L44:
 473              		.loc 1 134 0 is_stmt 1
 474 0108 0020     		movs	r0, #0
 475 010a FFF7FEFF 		bl	left_motor_set_speed
 476              	.LVL43:
 477              		.loc 1 136 0
 478 010e 4FF0010B 		mov	fp, #1
 479              		.loc 1 135 0
 480 0112 0020     		movs	r0, #0
 481 0114 FFF7FEFF 		bl	right_motor_set_speed
 482              	.LVL44:
 483              		.loc 1 136 0
 484 0118 87F800B0 		strb	fp, [r7]
 485              		.loc 1 137 0
 486 011c FFF7FEFF 		bl	get_color_detected
 487              	.LVL45:
 488 0120 8246     		mov	r10, r0
 489 0122 FFF7FEFF 		bl	get_color_selected
 490              	.LVL46:
 491 0126 8245     		cmp	r10, r0
 492 0128 23D1     		bne	.L45
 493              		.loc 1 138 0
 494 012a 0023     		movs	r3, #0
 495              		.loc 1 139 0
 496 012c 5846     		mov	r0, fp
 497              		.loc 1 138 0
 498 012e 3B70     		strb	r3, [r7]
 499              		.loc 1 139 0
 500 0130 FFF7FEFF 		bl	set_body_led
 501              	.LVL47:
 502 0134 CBE7     		b	.L64
 503              	.L72:
 504              		.loc 1 91 0
 505 0136 FFF7FEFF 		bl	VL53L0X_get_dist_mm
 506              	.LVL48:
 507 013a 1E28     		cmp	r0, #30
 508 013c AED8     		bhi	.L32
 509              		.loc 1 95 0
 510 013e 2B4A     		ldr	r2, .L73+16
 511 0140 0123     		movs	r3, #1
 512              		.loc 1 96 0
 513 0142 4FF4FA70 		mov	r0, #500
ARM GAS  /var/folders/km/q6jdms0143g2bddz5bhvdfd00000gn/T//ccDKW1rn.s 			page 10


 514              		.loc 1 95 0
 515 0146 1370     		strb	r3, [r2]
 516              		.loc 1 96 0
 517 0148 FFF7FEFF 		bl	left_motor_set_speed
 518              	.LVL49:
 519              		.loc 1 97 0
 520 014c 4FF4FA70 		mov	r0, #500
 521 0150 FFF7FEFF 		bl	right_motor_set_speed
 522              	.LVL50:
 523              		.loc 1 98 0
 524 0154 CDF800B0 		str	fp, [sp]
 525 0158 009B     		ldr	r3, [sp]
 526 015a 4B45     		cmp	r3, r9
 527 015c 05DC     		bgt	.L33
 528              	.L34:
 529              		.loc 1 98 0 is_stmt 0 discriminator 3
 530 015e 009B     		ldr	r3, [sp]
 531 0160 0133     		adds	r3, r3, #1
 532 0162 0093     		str	r3, [sp]
 533 0164 009B     		ldr	r3, [sp]
 534 0166 4B45     		cmp	r3, r9
 535 0168 F9DD     		ble	.L34
 536              	.L33:
 537              		.loc 1 99 0 is_stmt 1
 538 016a 204A     		ldr	r2, .L73+16
 539 016c 0023     		movs	r3, #0
 540 016e 1370     		strb	r3, [r2]
 541 0170 65E7     		b	.L30
 542              	.L45:
 543              		.loc 1 143 0
 544 0172 0020     		movs	r0, #0
 545 0174 FFF7FEFF 		bl	right_motor_set_pos
 546              	.LVL51:
 547              		.loc 1 144 0
 548 0178 0020     		movs	r0, #0
 549 017a FFF7FEFF 		bl	left_motor_set_pos
 550              	.LVL52:
 551              		.loc 1 145 0
 552 017e 6FF0D100 		mvn	r0, #209
 553 0182 FFF7FEFF 		bl	left_motor_set_speed
 554              	.LVL53:
 555              		.loc 1 146 0
 556 0186 D220     		movs	r0, #210
 557 0188 FFF7FEFF 		bl	right_motor_set_speed
 558              	.LVL54:
 559              	.L46:
 560              		.loc 1 147 0 discriminator 1
 561 018c FFF7FEFF 		bl	right_motor_get_pos
 562              	.LVL55:
 563 0190 B0F5877F 		cmp	r0, #270
 564 0194 FAD1     		bne	.L46
 565 0196 52E7     		b	.L30
 566              	.L69:
 567              		.loc 1 115 0
 568 0198 FFF7FEFF 		bl	left_turn
 569              	.LVL56:
 570              	.L38:
ARM GAS  /var/folders/km/q6jdms0143g2bddz5bhvdfd00000gn/T//ccDKW1rn.s 			page 11


 571              		.loc 1 116 0 discriminator 1
 572 019c FFF7FEFF 		bl	right_motor_get_pos
 573              	.LVL57:
 574 01a0 B0F5F07F 		cmp	r0, #480
 575 01a4 FAD1     		bne	.L38
 576 01a6 92E7     		b	.L64
 577              	.L70:
 578              		.loc 1 120 0
 579 01a8 FFF7FEFF 		bl	left_turn
 580              	.LVL58:
 581              	.L41:
 582              		.loc 1 121 0 discriminator 1
 583 01ac FFF7FEFF 		bl	right_motor_get_pos
 584              	.LVL59:
 585 01b0 B0F5C87F 		cmp	r0, #400
 586 01b4 FAD1     		bne	.L41
 587 01b6 8AE7     		b	.L64
 588              	.L68:
 589              		.loc 1 84 0
 590 01b8 FFF7FEFF 		bl	left_turn
 591              	.LVL60:
 592              	.L29:
 593              		.loc 1 85 0 discriminator 1
 594 01bc FFF7FEFF 		bl	right_motor_get_pos
 595              	.LVL61:
 596 01c0 B0F5877F 		cmp	r0, #270
 597 01c4 FAD1     		bne	.L29
 598 01c6 69E7     		b	.L32
 599              	.L71:
 600              		.loc 1 124 0
 601 01c8 FFF7FEFF 		bl	left_turn
 602              	.LVL62:
 603              		.loc 1 125 0
 604 01cc 40F2262B 		movw	fp, #550
 605              	.L42:
 606              		.loc 1 125 0 is_stmt 0 discriminator 1
 607 01d0 FFF7FEFF 		bl	right_motor_get_pos
 608              	.LVL63:
 609 01d4 5845     		cmp	r0, fp
 610 01d6 FBD1     		bne	.L42
 611 01d8 79E7     		b	.L64
 612              	.L74:
 613 01da 00BF     		.align	2
 614              	.L73:
 615 01dc 00000000 		.word	ch
 616 01e0 00000000 		.word	__stack_chk_guard
 617 01e4 00000000 		.word	.LANCHOR1
 618 01e8 00000000 		.word	.LANCHOR3
 619 01ec 00000000 		.word	.LANCHOR0
 620 01f0 00000000 		.word	.LANCHOR2
 621 01f4 7F969800 		.word	9999999
 622              		.cfi_endproc
 623              	.LFE260:
 624              		.size	movement, .-movement
 625              		.section	.text.movement_start,"ax",%progbits
 626              		.align	1
 627              		.p2align 4,,15
ARM GAS  /var/folders/km/q6jdms0143g2bddz5bhvdfd00000gn/T//ccDKW1rn.s 			page 12


 628              		.global	movement_start
 629              		.syntax unified
 630              		.thumb
 631              		.thumb_func
 632              		.fpu fpv4-sp-d16
 633              		.type	movement_start, %function
 634              	movement_start:
 635              	.LFB263:
 636              		.loc 1 188 0 is_stmt 1
 637              		.cfi_startproc
 638              		@ args = 0, pretend = 0, frame = 8
 639              		@ frame_needed = 0, uses_anonymous_args = 0
 640 0000 10B5     		push	{r4, lr}
 641              		.cfi_def_cfa_offset 8
 642              		.cfi_offset 4, -8
 643              		.cfi_offset 14, -4
 644 0002 0A4C     		ldr	r4, .L79
 645              		.loc 1 189 0
 646 0004 0A4B     		ldr	r3, .L79+4
 647              		.loc 1 188 0
 648 0006 2268     		ldr	r2, [r4]
 649              		.loc 1 189 0
 650 0008 0A48     		ldr	r0, .L79+8
 651              		.loc 1 188 0
 652 000a 84B0     		sub	sp, sp, #16
 653              		.cfi_def_cfa_offset 24
 654              		.loc 1 189 0
 655 000c 4FF45E71 		mov	r1, #888
 656              		.loc 1 188 0
 657 0010 0392     		str	r2, [sp, #12]
 658              		.loc 1 189 0
 659 0012 0022     		movs	r2, #0
 660 0014 0092     		str	r2, [sp]
 661 0016 4022     		movs	r2, #64
 662 0018 FFF7FEFF 		bl	chThdCreateStatic
 663              	.LVL64:
 664              		.loc 1 190 0
 665 001c 039A     		ldr	r2, [sp, #12]
 666 001e 2368     		ldr	r3, [r4]
 667 0020 9A42     		cmp	r2, r3
 668 0022 01D1     		bne	.L78
 669 0024 04B0     		add	sp, sp, #16
 670              		.cfi_remember_state
 671              		.cfi_def_cfa_offset 8
 672              		@ sp needed
 673 0026 10BD     		pop	{r4, pc}
 674              	.L78:
 675              		.cfi_restore_state
 676 0028 FFF7FEFF 		bl	__stack_chk_fail
 677              	.LVL65:
 678              	.L80:
 679              		.align	2
 680              	.L79:
 681 002c 00000000 		.word	__stack_chk_guard
 682 0030 00000000 		.word	movement
 683 0034 00000000 		.word	.LANCHOR4
 684              		.cfi_endproc
ARM GAS  /var/folders/km/q6jdms0143g2bddz5bhvdfd00000gn/T//ccDKW1rn.s 			page 13


 685              	.LFE263:
 686              		.size	movement_start, .-movement_start
 687              		.section	.bss.find_the_end,"aw",%nobits
 688              		.set	.LANCHOR3,. + 0
 689              		.type	find_the_end, %object
 690              		.size	find_the_end, 1
 691              	find_the_end:
 692 0000 00       		.space	1
 693              		.section	.bss.no_more_color_needed,"aw",%nobits
 694              		.set	.LANCHOR0,. + 0
 695              		.type	no_more_color_needed, %object
 696              		.size	no_more_color_needed, 1
 697              	no_more_color_needed:
 698 0000 00       		.space	1
 699              		.section	.bss.wamovement,"aw",%nobits
 700              		.align	3
 701              		.set	.LANCHOR4,. + 0
 702              		.type	wamovement, %object
 703              		.size	wamovement, 888
 704              	wamovement:
 705 0000 00000000 		.space	888
 705      00000000 
 705      00000000 
 705      00000000 
 705      00000000 
 706              		.section	.rodata.__FUNCTION__.13445,"a",%progbits
 707              		.align	2
 708              		.set	.LANCHOR1,. + 0
 709              		.type	__FUNCTION__.13445, %object
 710              		.size	__FUNCTION__.13445, 9
 711              	__FUNCTION__.13445:
 712 0000 6D6F7665 		.ascii	"movement\000"
 712      6D656E74 
 712      00
 713              		.section	.rodata.__func__.8977,"a",%progbits
 714              		.align	2
 715              		.set	.LANCHOR2,. + 0
 716              		.type	__func__.8977, %object
 717              		.size	__func__.8977, 12
 718              	__func__.8977:
 719 0000 63685379 		.ascii	"chSysUnlock\000"
 719      73556E6C 
 719      6F636B00 
 720              		.text
 721              	.Letext0:
 722              		.file 6 "/Applications/Eclipse_e-puck2.app/Contents/Eclipse_e-puck2/Tools/gcc-arm-none-eabi-7-2017
 723              		.file 7 "/Applications/Eclipse_e-puck2.app/Contents/Eclipse_e-puck2/Tools/gcc-arm-none-eabi-7-2017
 724              		.file 8 "/Applications/Eclipse_e-puck2.app/Contents/Eclipse_e-puck2/Tools/gcc-arm-none-eabi-7-2017
 725              		.file 9 "/Applications/Eclipse_e-puck2.app/Contents/Eclipse_e-puck2/Tools/gcc-arm-none-eabi-7-2017
 726              		.file 10 "/Applications/Eclipse_e-puck2.app/Contents/Eclipse_e-puck2/Tools/gcc-arm-none-eabi-7-201
 727              		.file 11 "/Applications/Eclipse_e-puck2.app/Contents/Eclipse_e-puck2/Tools/gcc-arm-none-eabi-7-201
 728              		.file 12 "../../lib/e-puck2_main-processor/ChibiOS//os/rt/ports/ARMCMx/compilers/GCC/chtypes.h"
 729              		.file 13 "../../lib/e-puck2_main-processor/ChibiOS//os/rt/include/chsystypes.h"
 730              		.file 14 "../../lib/e-puck2_main-processor/ChibiOS//os/rt/include/chschd.h"
 731              		.file 15 "../../lib/e-puck2_main-processor/ChibiOS//os/ext/CMSIS/include/core_cm4.h"
 732              		.file 16 "../../lib/e-puck2_main-processor/ChibiOS//os/ext/CMSIS/ST/system_stm32f4xx.h"
 733              		.file 17 "../../lib/e-puck2_main-processor/ChibiOS//os/ext/CMSIS/ST/stm32f407xx.h"
ARM GAS  /var/folders/km/q6jdms0143g2bddz5bhvdfd00000gn/T//ccDKW1rn.s 			page 14


 734              		.file 18 "../../lib/e-puck2_main-processor/ChibiOS//os/rt/ports/ARMCMx/chcore.h"
 735              		.file 19 "../../lib/e-puck2_main-processor/ChibiOS//os/rt/ports/ARMCMx/chcore_v7m.h"
 736              		.file 20 "../../lib/e-puck2_main-processor/ChibiOS//os/rt/include/chdebug.h"
 737              		.file 21 "../../lib/e-puck2_main-processor/ChibiOS//os/rt/include/chtm.h"
 738              		.file 22 "../../lib/e-puck2_main-processor/ChibiOS//os/rt/include/chstats.h"
 739              		.file 23 "../../lib/e-puck2_main-processor/ChibiOS//os/rt/include/chsem.h"
 740              		.file 24 "../../lib/e-puck2_main-processor/ChibiOS//os/rt/include/chmtx.h"
 741              		.file 25 "../../lib/e-puck2_main-processor/ChibiOS//os/rt/include/chevents.h"
 742              		.file 26 "../../lib/e-puck2_main-processor/ChibiOS//os/rt/include/chqueues.h"
 743              		.file 27 "../../lib/e-puck2_main-processor/ChibiOS//os/hal/ports/STM32/STM32F4xx/stm32_dma.h"
 744              		.file 28 "../../lib/e-puck2_main-processor/ChibiOS//os/hal/include/hal_ioblock.h"
 745              		.file 29 "../../lib/e-puck2_main-processor/ChibiOS//os/hal/ports/STM32/LLD/GPIOv2/pal_lld.h"
 746              		.file 30 "../../lib/e-puck2_main-processor/ChibiOS//os/hal/include/adc.h"
 747              		.file 31 "../../lib/e-puck2_main-processor/ChibiOS//os/hal/ports/STM32/STM32F4xx/adc_lld.h"
 748              		.file 32 "../../lib/e-puck2_main-processor/ChibiOS//os/hal/include/can.h"
 749              		.file 33 "../../lib/e-puck2_main-processor/ChibiOS//os/hal/ports/STM32/LLD/can_lld.h"
 750              		.file 34 "../../lib/e-puck2_main-processor/ChibiOS//os/hal/include/dac.h"
 751              		.file 35 "../../lib/e-puck2_main-processor/ChibiOS//os/hal/ports/STM32/LLD/DACv1/dac_lld.h"
 752              		.file 36 "../../lib/e-puck2_main-processor/ChibiOS//os/hal/include/ext.h"
 753              		.file 37 "../../lib/e-puck2_main-processor/ChibiOS//os/hal/ports/STM32/LLD/ext_lld.h"
 754              		.file 38 "../../lib/e-puck2_main-processor/ChibiOS//os/hal/include/gpt.h"
 755              		.file 39 "../../lib/e-puck2_main-processor/ChibiOS//os/hal/ports/STM32/LLD/TIMv1/gpt_lld.h"
 756              		.file 40 "../../lib/e-puck2_main-processor/ChibiOS//os/hal/ports/STM32/LLD/TIMv1/stm32_tim.h"
 757              		.file 41 "../../lib/e-puck2_main-processor/ChibiOS//os/hal/include/i2c.h"
 758              		.file 42 "../../lib/e-puck2_main-processor/ChibiOS//os/hal/ports/STM32/LLD/I2Cv1/i2c_lld.h"
 759              		.file 43 "../../lib/e-puck2_main-processor/ChibiOS//os/hal/include/i2s.h"
 760              		.file 44 "../../lib/e-puck2_main-processor/ChibiOS//os/hal/ports/STM32/LLD/SPIv1/i2s_lld.h"
 761              		.file 45 "../../lib/e-puck2_main-processor/ChibiOS//os/hal/include/pwm.h"
 762              		.file 46 "../../lib/e-puck2_main-processor/ChibiOS//os/hal/ports/STM32/LLD/TIMv1/pwm_lld.h"
 763              		.file 47 "../../lib/e-puck2_main-processor/ChibiOS//os/hal/include/serial.h"
 764              		.file 48 "../../lib/e-puck2_main-processor/ChibiOS//os/hal/ports/STM32/LLD/USARTv1/serial_lld.h"
 765              		.file 49 "../../lib/e-puck2_main-processor/ChibiOS//os/hal/include/sdc.h"
 766              		.file 50 "../../lib/e-puck2_main-processor/ChibiOS//os/hal/ports/STM32/LLD/sdc_lld.h"
 767              		.file 51 "../../lib/e-puck2_main-processor/ChibiOS//os/hal/include/spi.h"
 768              		.file 52 "../../lib/e-puck2_main-processor/ChibiOS//os/hal/ports/STM32/LLD/SPIv1/spi_lld.h"
 769              		.file 53 "../../lib/e-puck2_main-processor/ChibiOS//os/hal/include/usb.h"
 770              		.file 54 "../../lib/e-puck2_main-processor/ChibiOS//os/hal/ports/STM32/LLD/OTGv1/usb_lld.h"
 771              		.file 55 "../../lib/e-puck2_main-processor/ChibiOS//os/hal/ports/STM32/LLD/OTGv1/stm32_otg.h"
 772              		.file 56 "../../lib/e-puck2_main-processor/ChibiOS//os/hal/include/serial_usb.h"
 773              		.file 57 "/Applications/Eclipse_e-puck2.app/Contents/Eclipse_e-puck2/Tools/gcc-arm-none-eabi-7-201
 774              		.file 58 "../../lib/e-puck2_main-processor/src/usbcfg.h"
 775              		.file 59 "../../lib/e-puck2_main-processor/ChibiOS_ext/os/hal/include/../ports/STM32/STM32F4xx/dcm
 776              		.file 60 "/Applications/Eclipse_e-puck2.app/Contents/Eclipse_e-puck2/Tools/gcc-arm-none-eabi-7-201
 777              		.file 61 "../../lib/e-puck2_main-processor/src/msgbus/messagebus.h"
 778              		.file 62 "/Applications/Eclipse_e-puck2.app/Contents/Eclipse_e-puck2/Tools/gcc-arm-none-eabi-7-201
 779              		.file 63 "../../lib/e-puck2_main-processor/src/parameter/parameter.h"
 780              		.file 64 "./main.h"
 781              		.file 65 "../../lib/e-puck2_main-processor/ChibiOS//os/rt/include/chthreads.h"
 782              		.file 66 "../../lib/e-puck2_main-processor/src/motors.h"
 783              		.file 67 "./process_image.h"
 784              		.file 68 "../../lib/e-puck2_main-processor/src/sensors/VL53L0X/VL53L0X.h"
 785              		.file 69 "../../lib/e-puck2_main-processor/src/leds.h"
 786              		.file 70 "../../lib/e-puck2_main-processor/src/sensors/proximity.h"