ARM GAS  /var/folders/km/q6jdms0143g2bddz5bhvdfd00000gn/T//ccNW9ko5.s 			page 1


   1              		.cpu cortex-m4
   2              		.eabi_attribute 27, 1
   3              		.eabi_attribute 28, 1
   4              		.eabi_attribute 20, 1
   5              		.eabi_attribute 21, 1
   6              		.eabi_attribute 23, 3
   7              		.eabi_attribute 24, 1
   8              		.eabi_attribute 25, 1
   9              		.eabi_attribute 26, 1
  10              		.eabi_attribute 30, 2
  11              		.eabi_attribute 34, 1
  12              		.eabi_attribute 18, 4
  13              		.file	"pi_regulator.c"
  14              		.text
  15              	.Ltext0:
  16              		.cfi_sections	.debug_frame
  17              		.section	.text.PiRegulator,"ax",%progbits
  18              		.align	1
  19              		.p2align 4,,15
  20              		.syntax unified
  21              		.thumb
  22              		.thumb_func
  23              		.fpu fpv4-sp-d16
  24              		.type	PiRegulator, %function
  25              	PiRegulator:
  26              	.LFB258:
  27              		.file 1 "pi_regulator.c"
  28              		.loc 1 47 0
  29              		.cfi_startproc
  30              		@ args = 0, pretend = 0, frame = 8
  31              		@ frame_needed = 0, uses_anonymous_args = 0
  32              	.LVL0:
  33 0000 2DE9F041 		push	{r4, r5, r6, r7, r8, lr}
  34              		.cfi_def_cfa_offset 24
  35              		.cfi_offset 4, -24
  36              		.cfi_offset 5, -20
  37              		.cfi_offset 6, -16
  38              		.cfi_offset 7, -12
  39              		.cfi_offset 8, -8
  40              		.cfi_offset 14, -4
  41              	.LBB50:
  42              	.LBB51:
  43              		.file 2 "../../lib/e-puck2_main-processor/ChibiOS//os/rt/include/chregistry.h"
  44              		.loc 2 135 0
  45 0004 164C     		ldr	r4, .L7
  46              	.LBE51:
  47              	.LBE50:
  48              		.loc 1 47 0
  49 0006 174B     		ldr	r3, .L7+4
  50              	.LBB54:
  51              	.LBB52:
  52              		.loc 2 135 0
  53 0008 A269     		ldr	r2, [r4, #24]
  54 000a 1749     		ldr	r1, .L7+8
  55              	.LBE52:
  56              	.LBE54:
  57              		.loc 1 47 0
ARM GAS  /var/folders/km/q6jdms0143g2bddz5bhvdfd00000gn/T//ccNW9ko5.s 			page 2


  58 000c 1B68     		ldr	r3, [r3]
  59              	.LBB55:
  60              	.LBB56:
  61              	.LBB57:
  62              	.LBB58:
  63              	.LBB59:
  64              		.file 3 "../../lib/e-puck2_main-processor/ChibiOS//os/rt/include/chsys.h"
  65              		.loc 3 367 0
  66 000e DFF85C80 		ldr	r8, .L7+12
  67              	.LBE59:
  68              	.LBE58:
  69              	.LBE57:
  70              	.LBE56:
  71              	.LBE55:
  72              	.LBB86:
  73              	.LBB53:
  74              		.loc 2 135 0
  75 0012 9161     		str	r1, [r2, #24]
  76              	.LBE53:
  77              	.LBE86:
  78              		.loc 1 47 0
  79 0014 82B0     		sub	sp, sp, #8
  80              		.cfi_def_cfa_offset 32
  81              	.LBB87:
  82              	.LBB84:
  83              	.LBB82:
  84              	.LBB68:
  85              	.LBB69:
  86              	.LBB70:
  87              	.LBB71:
  88              	.LBB72:
  89              		.file 4 "../../lib/e-puck2_main-processor/ChibiOS//os/ext/CMSIS/include/core_cmFunc.h"
  90              		.loc 4 546 0
  91 0016 2027     		movs	r7, #32
  92              	.LBE72:
  93              	.LBE71:
  94              	.LBE70:
  95              	.LBE69:
  96              	.LBE68:
  97              	.LBE82:
  98              	.LBE84:
  99              	.LBE87:
 100              		.loc 1 47 0
 101 0018 0193     		str	r3, [sp, #4]
 102              	.LVL1:
 103              	.LBB88:
 104              	.LBB85:
 105              	.LBB83:
 106              	.LBB77:
 107              	.LBB66:
 108              	.LBB60:
 109              	.LBB61:
 110              	.LBB62:
 111              		.loc 4 546 0
 112 001a 0026     		movs	r6, #0
 113              	.LVL2:
 114              	.L3:
ARM GAS  /var/folders/km/q6jdms0143g2bddz5bhvdfd00000gn/T//ccNW9ko5.s 			page 3


 115              	.LBE62:
 116              	.LBE61:
 117              	.LBE60:
 118              	.LBE66:
 119              	.LBE77:
 120              	.LBB78:
 121              	.LBB76:
 122              	.LBB75:
 123              	.LBB74:
 124              	.LBB73:
 125              		.loc 4 546 0 is_stmt 0 discriminator 1
 126              		.syntax unified
 127              	@ 546 "../../lib/e-puck2_main-processor/ChibiOS//os/ext/CMSIS/include/core_cmFunc.h" 1
 128 001c 87F31188 		MSR basepri, r7
 129              	@ 0 "" 2
 130              	.LVL3:
 131              		.thumb
 132              		.syntax unified
 133              	.LBE73:
 134              	.LBE74:
 135              	.LBE75:
 136              		.loc 3 349 0 is_stmt 1 discriminator 1
 137 0020 FFF7FEFF 		bl	_stats_start_measure_crit_thd
 138              	.LVL4:
 139              		.loc 3 350 0 discriminator 1
 140 0024 FFF7FEFF 		bl	_dbg_check_lock
 141              	.LVL5:
 142              	.LBE76:
 143              	.LBE78:
 144              	.LBB79:
 145              	.LBB80:
 146              		.file 5 "../../lib/e-puck2_main-processor/ChibiOS//os/rt/include/chvt.h"
 147              		.loc 5 231 0 discriminator 1
 148 0028 A56A     		ldr	r5, [r4, #40]
 149              	.LBE80:
 150              	.LBE79:
 151              	.LBB81:
 152              	.LBB67:
 153              		.loc 3 360 0 discriminator 1
 154 002a FFF7FEFF 		bl	_dbg_check_unlock
 155              	.LVL6:
 156              		.loc 3 361 0 discriminator 1
 157 002e FFF7FEFF 		bl	_stats_stop_measure_crit_thd
 158              	.LVL7:
 159              		.loc 3 367 0 discriminator 1
 160 0032 2368     		ldr	r3, [r4]
 161 0034 A342     		cmp	r3, r4
 162 0036 07D0     		beq	.L2
 163              		.loc 3 367 0 is_stmt 0
 164 0038 A269     		ldr	r2, [r4, #24]
 165 003a 9B68     		ldr	r3, [r3, #8]
 166 003c 9268     		ldr	r2, [r2, #8]
 167 003e 9A42     		cmp	r2, r3
 168 0040 02D2     		bcs	.L2
 169 0042 4046     		mov	r0, r8
 170 0044 FFF7FEFF 		bl	chSysHalt
 171              	.LVL8:
ARM GAS  /var/folders/km/q6jdms0143g2bddz5bhvdfd00000gn/T//ccNW9ko5.s 			page 4


 172              	.L2:
 173              	.LBB65:
 174              	.LBB64:
 175              	.LBB63:
 176              		.loc 4 546 0 is_stmt 1
 177              		.syntax unified
 178              	@ 546 "../../lib/e-puck2_main-processor/ChibiOS//os/ext/CMSIS/include/core_cmFunc.h" 1
 179 0048 86F31188 		MSR basepri, r6
 180              	@ 0 "" 2
 181              	.LVL9:
 182              		.thumb
 183              		.syntax unified
 184              	.LBE63:
 185              	.LBE64:
 186              	.LBE65:
 187              	.LBE67:
 188              	.LBE81:
 189              	.LBE83:
 190              	.LBE85:
 191              		.loc 1 62 0
 192 004c FFF7FEFF 		bl	VL53L0X_get_dist_mm
 193              	.LVL10:
 194              		.loc 1 64 0
 195 0050 FFF7FEFF 		bl	get_line_not_found
 196              	.LVL11:
 197              		.loc 1 101 0
 198 0054 05F10A01 		add	r1, r5, #10
 199 0058 2846     		mov	r0, r5
 200 005a FFF7FEFF 		bl	chThdSleepUntilWindowed
 201              	.LVL12:
 202 005e DDE7     		b	.L3
 203              	.L8:
 204              		.align	2
 205              	.L7:
 206 0060 00000000 		.word	ch
 207 0064 00000000 		.word	__stack_chk_guard
 208 0068 00000000 		.word	.LANCHOR0
 209 006c 00000000 		.word	.LANCHOR1
 210              	.LBE88:
 211              		.cfi_endproc
 212              	.LFE258:
 213              		.size	PiRegulator, .-PiRegulator
 214              		.section	.text.pi_regulator,"ax",%progbits
 215              		.align	1
 216              		.p2align 4,,15
 217              		.global	pi_regulator
 218              		.syntax unified
 219              		.thumb
 220              		.thumb_func
 221              		.fpu fpv4-sp-d16
 222              		.type	pi_regulator, %function
 223              	pi_regulator:
 224              	.LFB257:
 225              		.loc 1 17 0
 226              		.cfi_startproc
 227              		@ args = 0, pretend = 0, frame = 8
 228              		@ frame_needed = 0, uses_anonymous_args = 0
ARM GAS  /var/folders/km/q6jdms0143g2bddz5bhvdfd00000gn/T//ccNW9ko5.s 			page 5


 229              	.LVL13:
 230 0000 00B5     		push	{lr}
 231              		.cfi_def_cfa_offset 4
 232              		.cfi_offset 14, -4
 233              		.loc 1 24 0
 234 0002 70EE600A 		vsub.f32	s1, s0, s1
 235              	.LVL14:
 236              		.loc 1 29 0
 237 0006 DFED227A 		vldr.32	s15, .L22
 238              		.loc 1 17 0
 239 000a 224B     		ldr	r3, .L22+4
 240              		.loc 1 29 0
 241 000c B0EEE07A 		vabs.f32	s14, s1
 242              		.loc 1 17 0
 243 0010 83B0     		sub	sp, sp, #12
 244              		.cfi_def_cfa_offset 16
 245              		.loc 1 29 0
 246 0012 B4EEE77A 		vcmpe.f32	s14, s15
 247              		.loc 1 17 0
 248 0016 1A68     		ldr	r2, [r3]
 249 0018 0192     		str	r2, [sp, #4]
 250              	.LVL15:
 251              		.loc 1 29 0
 252 001a F1EE10FA 		vmrs	APSR_nzcv, FPSCR
 253 001e 2BD4     		bmi	.L16
 254              		.loc 1 33 0
 255 0020 1D4A     		ldr	r2, .L22+8
 256              		.loc 1 36 0
 257 0022 9FED1E7A 		vldr.32	s14, .L22+12
 258              		.loc 1 33 0
 259 0026 D2ED007A 		vldr.32	s15, [r2]
 260 002a 70EEA77A 		vadd.f32	s15, s1, s15
 261              		.loc 1 36 0
 262 002e F4EEC77A 		vcmpe.f32	s15, s14
 263 0032 F1EE10FA 		vmrs	APSR_nzcv, FPSCR
 264 0036 13DD     		ble	.L18
 265 0038 DFED197A 		vldr.32	s15, .L22+16
 266              		.loc 1 37 0
 267 003c 82ED007A 		vstr.32	s14, [r2]
 268              	.L13:
 269              	.LVL16:
 270              		.loc 1 42 0
 271 0040 9FED187A 		vldr.32	s14, .L22+20
 272 0044 E0EE877A 		vfma.f32	s15, s1, s14
 273              	.LVL17:
 274              		.loc 1 43 0
 275 0048 FDEEE77A 		vcvt.s32.f32	s15, s15
 276              	.LVL18:
 277 004c 17EE902A 		vmov	r2, s15	@ int
 278 0050 10B2     		sxth	r0, r2
 279              	.L10:
 280              		.loc 1 44 0
 281 0052 019A     		ldr	r2, [sp, #4]
 282 0054 1B68     		ldr	r3, [r3]
 283 0056 9A42     		cmp	r2, r3
 284 0058 17D1     		bne	.L20
 285 005a 03B0     		add	sp, sp, #12
ARM GAS  /var/folders/km/q6jdms0143g2bddz5bhvdfd00000gn/T//ccNW9ko5.s 			page 6


 286              		.cfi_remember_state
 287              		.cfi_def_cfa_offset 4
 288              		@ sp needed
 289 005c 5DF804FB 		ldr	pc, [sp], #4
 290              	.LVL19:
 291              	.L18:
 292              		.cfi_restore_state
 293              		.loc 1 38 0
 294 0060 9FED117A 		vldr.32	s14, .L22+24
 295 0064 F4EEC77A 		vcmpe.f32	s15, s14
 296 0068 F1EE10FA 		vmrs	APSR_nzcv, FPSCR
 297 006c 06D5     		bpl	.L21
 298              		.loc 1 39 0
 299 006e DFED0F7A 		vldr.32	s15, .L22+28
 300 0072 82ED007A 		vstr.32	s14, [r2]
 301 0076 E3E7     		b	.L13
 302              	.L16:
 303              		.loc 1 30 0
 304 0078 0020     		movs	r0, #0
 305 007a EAE7     		b	.L10
 306              	.L21:
 307 007c B0EE0C7A 		vmov.f32	s14, #3.5e+0
 308              		.loc 1 33 0
 309 0080 C2ED007A 		vstr.32	s15, [r2]
 310 0084 67EE877A 		vmul.f32	s15, s15, s14
 311 0088 DAE7     		b	.L13
 312              	.LVL20:
 313              	.L20:
 314              		.loc 1 44 0
 315 008a FFF7FEFF 		bl	__stack_chk_fail
 316              	.LVL21:
 317              	.L23:
 318 008e 00BF     		.align	2
 319              	.L22:
 320 0090 CDCCCC3D 		.word	1036831949
 321 0094 00000000 		.word	__stack_chk_guard
 322 0098 00000000 		.word	.LANCHOR2
 323 009c 92249D43 		.word	1134371986
 324 00a0 00808944 		.word	1149861888
 325 00a4 00004844 		.word	1145569280
 326 00a8 92249DC3 		.word	3281855634
 327 00ac 008089C4 		.word	3297345536
 328              		.cfi_endproc
 329              	.LFE257:
 330              		.size	pi_regulator, .-pi_regulator
 331              		.section	.text.pi_regulator_start,"ax",%progbits
 332              		.align	1
 333              		.p2align 4,,15
 334              		.global	pi_regulator_start
 335              		.syntax unified
 336              		.thumb
 337              		.thumb_func
 338              		.fpu fpv4-sp-d16
 339              		.type	pi_regulator_start, %function
 340              	pi_regulator_start:
 341              	.LFB259:
 342              		.loc 1 105 0
ARM GAS  /var/folders/km/q6jdms0143g2bddz5bhvdfd00000gn/T//ccNW9ko5.s 			page 7


 343              		.cfi_startproc
 344              		@ args = 0, pretend = 0, frame = 8
 345              		@ frame_needed = 0, uses_anonymous_args = 0
 346 0000 10B5     		push	{r4, lr}
 347              		.cfi_def_cfa_offset 8
 348              		.cfi_offset 4, -8
 349              		.cfi_offset 14, -4
 350 0002 0A4C     		ldr	r4, .L28
 351              		.loc 1 106 0
 352 0004 0A4B     		ldr	r3, .L28+4
 353              		.loc 1 105 0
 354 0006 2268     		ldr	r2, [r4]
 355              		.loc 1 106 0
 356 0008 0A48     		ldr	r0, .L28+8
 357              		.loc 1 105 0
 358 000a 84B0     		sub	sp, sp, #16
 359              		.cfi_def_cfa_offset 24
 360              		.loc 1 106 0
 361 000c 4FF41E71 		mov	r1, #632
 362              		.loc 1 105 0
 363 0010 0392     		str	r2, [sp, #12]
 364              		.loc 1 106 0
 365 0012 0022     		movs	r2, #0
 366 0014 0092     		str	r2, [sp]
 367 0016 4022     		movs	r2, #64
 368 0018 FFF7FEFF 		bl	chThdCreateStatic
 369              	.LVL22:
 370              		.loc 1 107 0
 371 001c 039A     		ldr	r2, [sp, #12]
 372 001e 2368     		ldr	r3, [r4]
 373 0020 9A42     		cmp	r2, r3
 374 0022 01D1     		bne	.L27
 375 0024 04B0     		add	sp, sp, #16
 376              		.cfi_remember_state
 377              		.cfi_def_cfa_offset 8
 378              		@ sp needed
 379 0026 10BD     		pop	{r4, pc}
 380              	.L27:
 381              		.cfi_restore_state
 382 0028 FFF7FEFF 		bl	__stack_chk_fail
 383              	.LVL23:
 384              	.L29:
 385              		.align	2
 386              	.L28:
 387 002c 00000000 		.word	__stack_chk_guard
 388 0030 00000000 		.word	PiRegulator
 389 0034 00000000 		.word	.LANCHOR3
 390              		.cfi_endproc
 391              	.LFE259:
 392              		.size	pi_regulator_start, .-pi_regulator_start
 393              		.section	.bss.sum_error.11864,"aw",%nobits
 394              		.align	2
 395              		.set	.LANCHOR2,. + 0
 396              		.type	sum_error.11864, %object
 397              		.size	sum_error.11864, 4
 398              	sum_error.11864:
 399 0000 00000000 		.space	4
ARM GAS  /var/folders/km/q6jdms0143g2bddz5bhvdfd00000gn/T//ccNW9ko5.s 			page 8


 400              		.section	.bss.waPiRegulator,"aw",%nobits
 401              		.align	3
 402              		.set	.LANCHOR3,. + 0
 403              		.type	waPiRegulator, %object
 404              		.size	waPiRegulator, 632
 405              	waPiRegulator:
 406 0000 00000000 		.space	632
 406      00000000 
 406      00000000 
 406      00000000 
 406      00000000 
 407              		.section	.rodata.__FUNCTION__.11869,"a",%progbits
 408              		.align	2
 409              		.set	.LANCHOR0,. + 0
 410              		.type	__FUNCTION__.11869, %object
 411              		.size	__FUNCTION__.11869, 12
 412              	__FUNCTION__.11869:
 413 0000 50695265 		.ascii	"PiRegulator\000"
 413      67756C61 
 413      746F7200 
 414              		.section	.rodata.__func__.7153,"a",%progbits
 415              		.align	2
 416              		.set	.LANCHOR1,. + 0
 417              		.type	__func__.7153, %object
 418              		.size	__func__.7153, 12
 419              	__func__.7153:
 420 0000 63685379 		.ascii	"chSysUnlock\000"
 420      73556E6C 
 420      6F636B00 
 421              		.text
 422              	.Letext0:
 423              		.file 6 "/Applications/Eclipse_e-puck2.app/Contents/Eclipse_e-puck2/Tools/gcc-arm-none-eabi-7-2017
 424              		.file 7 "/Applications/Eclipse_e-puck2.app/Contents/Eclipse_e-puck2/Tools/gcc-arm-none-eabi-7-2017
 425              		.file 8 "/Applications/Eclipse_e-puck2.app/Contents/Eclipse_e-puck2/Tools/gcc-arm-none-eabi-7-2017
 426              		.file 9 "../../lib/e-puck2_main-processor/ChibiOS//os/rt/ports/ARMCMx/compilers/GCC/chtypes.h"
 427              		.file 10 "../../lib/e-puck2_main-processor/ChibiOS//os/rt/include/chsystypes.h"
 428              		.file 11 "../../lib/e-puck2_main-processor/ChibiOS//os/rt/include/chschd.h"
 429              		.file 12 "../../lib/e-puck2_main-processor/ChibiOS//os/ext/CMSIS/include/core_cm4.h"
 430              		.file 13 "../../lib/e-puck2_main-processor/ChibiOS//os/ext/CMSIS/ST/system_stm32f4xx.h"
 431              		.file 14 "../../lib/e-puck2_main-processor/ChibiOS//os/ext/CMSIS/ST/stm32f407xx.h"
 432              		.file 15 "../../lib/e-puck2_main-processor/ChibiOS//os/rt/ports/ARMCMx/chcore.h"
 433              		.file 16 "../../lib/e-puck2_main-processor/ChibiOS//os/rt/ports/ARMCMx/chcore_v7m.h"
 434              		.file 17 "../../lib/e-puck2_main-processor/ChibiOS//os/rt/include/chdebug.h"
 435              		.file 18 "../../lib/e-puck2_main-processor/ChibiOS//os/rt/include/chtm.h"
 436              		.file 19 "../../lib/e-puck2_main-processor/ChibiOS//os/rt/include/chstats.h"
 437              		.file 20 "../../lib/e-puck2_main-processor/ChibiOS//os/rt/include/chsem.h"
 438              		.file 21 "../../lib/e-puck2_main-processor/ChibiOS//os/rt/include/chmtx.h"
 439              		.file 22 "../../lib/e-puck2_main-processor/ChibiOS//os/rt/include/chevents.h"
 440              		.file 23 "../../lib/e-puck2_main-processor/ChibiOS//os/rt/include/chqueues.h"
 441              		.file 24 "../../lib/e-puck2_main-processor/ChibiOS//os/hal/ports/STM32/STM32F4xx/stm32_dma.h"
 442              		.file 25 "../../lib/e-puck2_main-processor/ChibiOS//os/hal/include/hal_ioblock.h"
 443              		.file 26 "../../lib/e-puck2_main-processor/ChibiOS//os/hal/ports/STM32/LLD/GPIOv2/pal_lld.h"
 444              		.file 27 "../../lib/e-puck2_main-processor/ChibiOS//os/hal/include/adc.h"
 445              		.file 28 "../../lib/e-puck2_main-processor/ChibiOS//os/hal/ports/STM32/STM32F4xx/adc_lld.h"
 446              		.file 29 "../../lib/e-puck2_main-processor/ChibiOS//os/hal/include/can.h"
 447              		.file 30 "../../lib/e-puck2_main-processor/ChibiOS//os/hal/ports/STM32/LLD/can_lld.h"
 448              		.file 31 "../../lib/e-puck2_main-processor/ChibiOS//os/hal/include/dac.h"
ARM GAS  /var/folders/km/q6jdms0143g2bddz5bhvdfd00000gn/T//ccNW9ko5.s 			page 9


 449              		.file 32 "../../lib/e-puck2_main-processor/ChibiOS//os/hal/ports/STM32/LLD/DACv1/dac_lld.h"
 450              		.file 33 "../../lib/e-puck2_main-processor/ChibiOS//os/hal/include/ext.h"
 451              		.file 34 "../../lib/e-puck2_main-processor/ChibiOS//os/hal/ports/STM32/LLD/ext_lld.h"
 452              		.file 35 "../../lib/e-puck2_main-processor/ChibiOS//os/hal/include/gpt.h"
 453              		.file 36 "../../lib/e-puck2_main-processor/ChibiOS//os/hal/ports/STM32/LLD/TIMv1/gpt_lld.h"
 454              		.file 37 "../../lib/e-puck2_main-processor/ChibiOS//os/hal/ports/STM32/LLD/TIMv1/stm32_tim.h"
 455              		.file 38 "../../lib/e-puck2_main-processor/ChibiOS//os/hal/include/i2c.h"
 456              		.file 39 "../../lib/e-puck2_main-processor/ChibiOS//os/hal/ports/STM32/LLD/I2Cv1/i2c_lld.h"
 457              		.file 40 "../../lib/e-puck2_main-processor/ChibiOS//os/hal/include/i2s.h"
 458              		.file 41 "../../lib/e-puck2_main-processor/ChibiOS//os/hal/ports/STM32/LLD/SPIv1/i2s_lld.h"
 459              		.file 42 "../../lib/e-puck2_main-processor/ChibiOS//os/hal/include/pwm.h"
 460              		.file 43 "../../lib/e-puck2_main-processor/ChibiOS//os/hal/ports/STM32/LLD/TIMv1/pwm_lld.h"
 461              		.file 44 "../../lib/e-puck2_main-processor/ChibiOS//os/hal/include/serial.h"
 462              		.file 45 "../../lib/e-puck2_main-processor/ChibiOS//os/hal/ports/STM32/LLD/USARTv1/serial_lld.h"
 463              		.file 46 "../../lib/e-puck2_main-processor/ChibiOS//os/hal/include/sdc.h"
 464              		.file 47 "../../lib/e-puck2_main-processor/ChibiOS//os/hal/ports/STM32/LLD/sdc_lld.h"
 465              		.file 48 "../../lib/e-puck2_main-processor/ChibiOS//os/hal/include/spi.h"
 466              		.file 49 "../../lib/e-puck2_main-processor/ChibiOS//os/hal/ports/STM32/LLD/SPIv1/spi_lld.h"
 467              		.file 50 "../../lib/e-puck2_main-processor/ChibiOS//os/hal/include/usb.h"
 468              		.file 51 "../../lib/e-puck2_main-processor/ChibiOS//os/hal/ports/STM32/LLD/OTGv1/usb_lld.h"
 469              		.file 52 "../../lib/e-puck2_main-processor/ChibiOS//os/hal/ports/STM32/LLD/OTGv1/stm32_otg.h"
 470              		.file 53 "../../lib/e-puck2_main-processor/ChibiOS//os/hal/include/serial_usb.h"
 471              		.file 54 "/Applications/Eclipse_e-puck2.app/Contents/Eclipse_e-puck2/Tools/gcc-arm-none-eabi-7-201
 472              		.file 55 "/Applications/Eclipse_e-puck2.app/Contents/Eclipse_e-puck2/Tools/gcc-arm-none-eabi-7-201
 473              		.file 56 "/Applications/Eclipse_e-puck2.app/Contents/Eclipse_e-puck2/Tools/gcc-arm-none-eabi-7-201
 474              		.file 57 "/Applications/Eclipse_e-puck2.app/Contents/Eclipse_e-puck2/Tools/gcc-arm-none-eabi-7-201
 475              		.file 58 "../../lib/e-puck2_main-processor/src/usbcfg.h"
 476              		.file 59 "../../lib/e-puck2_main-processor/ChibiOS_ext/os/hal/include/../ports/STM32/STM32F4xx/dcm
 477              		.file 60 "/Applications/Eclipse_e-puck2.app/Contents/Eclipse_e-puck2/Tools/gcc-arm-none-eabi-7-201
 478              		.file 61 "../../lib/e-puck2_main-processor/src/msgbus/messagebus.h"
 479              		.file 62 "/Applications/Eclipse_e-puck2.app/Contents/Eclipse_e-puck2/Tools/gcc-arm-none-eabi-7-201
 480              		.file 63 "../../lib/e-puck2_main-processor/src/parameter/parameter.h"
 481              		.file 64 "./main.h"
 482              		.file 65 "../../lib/e-puck2_main-processor/ChibiOS//os/rt/include/chthreads.h"
 483              		.file 66 "./process_image.h"