ARM GAS  /var/folders/km/q6jdms0143g2bddz5bhvdfd00000gn/T//cc0aHLWI.s 			page 1


   1              		.cpu cortex-m4
   2              		.eabi_attribute 27, 1
   3              		.eabi_attribute 28, 1
   4              		.eabi_attribute 20, 1
   5              		.eabi_attribute 21, 1
   6              		.eabi_attribute 23, 3
   7              		.eabi_attribute 24, 1
   8              		.eabi_attribute 25, 1
   9              		.eabi_attribute 26, 1
  10              		.eabi_attribute 30, 2
  11              		.eabi_attribute 34, 1
  12              		.eabi_attribute 18, 4
  13              		.file	"process_image.c"
  14              		.text
  15              	.Ltext0:
  16              		.cfi_sections	.debug_frame
  17              		.section	.text.chprintf.constprop.0,"ax",%progbits
  18              		.align	1
  19              		.p2align 4,,15
  20              		.syntax unified
  21              		.thumb
  22              		.thumb_func
  23              		.fpu fpv4-sp-d16
  24              		.type	chprintf.constprop.0, %function
  25              	chprintf.constprop.0:
  26              	.LFB264:
  27              		.file 1 "../../lib/e-puck2_main-processor/ChibiOS//os/hal/lib/streams/chprintf.h"
  28              		.loc 1 69 0
  29              		.cfi_startproc
  30              		@ args = 4, pretend = 12, frame = 8
  31              		@ frame_needed = 0, uses_anonymous_args = 1
  32              	.LVL0:
  33 0000 0EB4     		push	{r1, r2, r3}
  34              		.cfi_def_cfa_offset 12
  35              		.cfi_offset 1, -12
  36              		.cfi_offset 2, -8
  37              		.cfi_offset 3, -4
  38 0002 10B5     		push	{r4, lr}
  39              		.cfi_def_cfa_offset 20
  40              		.cfi_offset 4, -20
  41              		.cfi_offset 14, -16
  42 0004 0A4C     		ldr	r4, .L6
  43              		.loc 1 74 0
  44 0006 0B49     		ldr	r1, .L6+4
  45              		.loc 1 69 0
  46 0008 2368     		ldr	r3, [r4]
  47              		.loc 1 74 0
  48 000a 0B48     		ldr	r0, .L6+8
  49              	.LVL1:
  50              		.loc 1 69 0
  51 000c 83B0     		sub	sp, sp, #12
  52              		.cfi_def_cfa_offset 32
  53              		.loc 1 69 0
  54 000e 0193     		str	r3, [sp, #4]
  55              	.LVL2:
  56              		.loc 1 73 0
  57 0010 06AB     		add	r3, sp, #24
ARM GAS  /var/folders/km/q6jdms0143g2bddz5bhvdfd00000gn/T//cc0aHLWI.s 			page 2


  58              		.loc 1 74 0
  59 0012 1A46     		mov	r2, r3
  60              		.loc 1 73 0
  61 0014 0093     		str	r3, [sp]
  62              		.loc 1 74 0
  63 0016 FFF7FEFF 		bl	chvprintf
  64              	.LVL3:
  65              		.loc 1 78 0
  66 001a 019A     		ldr	r2, [sp, #4]
  67 001c 2368     		ldr	r3, [r4]
  68 001e 9A42     		cmp	r2, r3
  69 0020 04D1     		bne	.L5
  70 0022 03B0     		add	sp, sp, #12
  71              		.cfi_remember_state
  72              		.cfi_def_cfa_offset 20
  73              		@ sp needed
  74 0024 BDE81040 		pop	{r4, lr}
  75              		.cfi_restore 14
  76              		.cfi_restore 4
  77              		.cfi_def_cfa_offset 12
  78 0028 03B0     		add	sp, sp, #12
  79              		.cfi_restore 3
  80              		.cfi_restore 2
  81              		.cfi_restore 1
  82              		.cfi_def_cfa_offset 0
  83 002a 7047     		bx	lr
  84              	.L5:
  85              		.cfi_restore_state
  86 002c FFF7FEFF 		bl	__stack_chk_fail
  87              	.LVL4:
  88              	.L7:
  89              		.align	2
  90              	.L6:
  91 0030 00000000 		.word	__stack_chk_guard
  92 0034 00000000 		.word	.LC0
  93 0038 00000000 		.word	SD3
  94              		.cfi_endproc
  95              	.LFE264:
  96              		.size	chprintf.constprop.0, .-chprintf.constprop.0
  97              		.section	.text.CaptureImage,"ax",%progbits
  98              		.align	1
  99              		.p2align 4,,15
 100              		.syntax unified
 101              		.thumb
 102              		.thumb_func
 103              		.fpu fpv4-sp-d16
 104              		.type	CaptureImage, %function
 105              	CaptureImage:
 106              	.LFB258:
 107              		.file 2 "process_image.c"
 108              		.loc 2 110 0
 109              		.cfi_startproc
 110              		@ Volatile: function does not return.
 111              		@ args = 0, pretend = 0, frame = 8
 112              		@ frame_needed = 0, uses_anonymous_args = 0
 113              	.LVL5:
 114 0000 80B5     		push	{r7, lr}
ARM GAS  /var/folders/km/q6jdms0143g2bddz5bhvdfd00000gn/T//cc0aHLWI.s 			page 3


 115              		.cfi_def_cfa_offset 8
 116              		.cfi_offset 7, -8
 117              		.cfi_offset 14, -4
 118              	.LBB52:
 119              	.LBB53:
 120              		.file 3 "../../lib/e-puck2_main-processor/ChibiOS//os/rt/include/chregistry.h"
 121              		.loc 3 135 0
 122 0002 234C     		ldr	r4, .L14
 123              	.LBE53:
 124              	.LBE52:
 125              		.loc 2 110 0
 126 0004 234A     		ldr	r2, .L14+4
 127              	.LBB56:
 128              	.LBB54:
 129              		.loc 3 135 0
 130 0006 A369     		ldr	r3, [r4, #24]
 131 0008 2349     		ldr	r1, .L14+8
 132              	.LBE54:
 133              	.LBE56:
 134              		.loc 2 110 0
 135 000a 1668     		ldr	r6, [r2]
 136              	.LBB57:
 137              	.LBB55:
 138              		.loc 3 135 0
 139 000c 9961     		str	r1, [r3, #24]
 140              	.LBE55:
 141              	.LBE57:
 142              		.loc 2 110 0
 143 000e 86B0     		sub	sp, sp, #24
 144              		.cfi_def_cfa_offset 32
 145              		.loc 2 116 0
 146 0010 0223     		movs	r3, #2
 147 0012 2025     		movs	r5, #32
 148 0014 0A22     		movs	r2, #10
 149 0016 0021     		movs	r1, #0
 150 0018 0093     		str	r3, [sp]
 151              		.loc 2 110 0
 152 001a 0596     		str	r6, [sp, #20]
 153              		.loc 2 116 0
 154 001c 4FF42073 		mov	r3, #640
 155 0020 CDE90155 		strd	r5, r5, [sp, #4]
 156 0024 3020     		movs	r0, #48
 157              	.LVL6:
 158 0026 1D4E     		ldr	r6, .L14+12
 159              	.LBB58:
 160              	.LBB59:
 161              	.LBB60:
 162              	.LBB61:
 163              		.file 4 "../../lib/e-puck2_main-processor/ChibiOS//os/rt/include/chsys.h"
 164              		.loc 4 367 0
 165 0028 1D4F     		ldr	r7, .L14+16
 166              	.LBE61:
 167              	.LBE60:
 168              	.LBE59:
 169              	.LBE58:
 170              		.loc 2 116 0
 171 002a FFF7FEFF 		bl	po8030_advanced_config
ARM GAS  /var/folders/km/q6jdms0143g2bddz5bhvdfd00000gn/T//cc0aHLWI.s 			page 4


 172              	.LVL7:
 173              		.loc 2 117 0
 174 002e FFF7FEFF 		bl	dcmi_enable_double_buffering
 175              	.LVL8:
 176              		.loc 2 118 0
 177 0032 0020     		movs	r0, #0
 178 0034 FFF7FEFF 		bl	dcmi_set_capture_mode
 179              	.LVL9:
 180              	.LBB79:
 181              	.LBB76:
 182              	.LBB66:
 183              	.LBB67:
 184              		.file 5 "../../lib/e-puck2_main-processor/ChibiOS//os/rt/include/chbsem.h"
 185              		.loc 5 271 0
 186 0038 B046     		mov	r8, r6
 187              	.LBE67:
 188              	.LBE66:
 189              	.LBE76:
 190              	.LBE79:
 191              		.loc 2 119 0
 192 003a FFF7FEFF 		bl	dcmi_prepare
 193              	.LVL10:
 194 003e 13E0     		b	.L11
 195              	.LVL11:
 196              	.L9:
 197              	.LBB80:
 198              	.LBB77:
 199              		.loc 5 286 0
 200 0040 FFF7FEFF 		bl	chSchRescheduleS
 201              	.LVL12:
 202              	.LBB69:
 203              	.LBB65:
 204              		.loc 4 360 0
 205 0044 FFF7FEFF 		bl	_dbg_check_unlock
 206              	.LVL13:
 207              		.loc 4 361 0
 208 0048 FFF7FEFF 		bl	_stats_stop_measure_crit_thd
 209              	.LVL14:
 210              		.loc 4 367 0
 211 004c 2368     		ldr	r3, [r4]
 212 004e A342     		cmp	r3, r4
 213 0050 07D0     		beq	.L10
 214 0052 A269     		ldr	r2, [r4, #24]
 215 0054 9B68     		ldr	r3, [r3, #8]
 216 0056 9268     		ldr	r2, [r2, #8]
 217 0058 9A42     		cmp	r2, r3
 218 005a 02D2     		bcs	.L10
 219 005c 3846     		mov	r0, r7
 220 005e FFF7FEFF 		bl	chSysHalt
 221              	.LVL15:
 222              	.L10:
 223              	.LBB62:
 224              	.LBB63:
 225              	.LBB64:
 226              		.file 6 "../../lib/e-puck2_main-processor/ChibiOS//os/ext/CMSIS/include/core_cmFunc.h"
 227              		.loc 6 546 0
 228 0062 0023     		movs	r3, #0
ARM GAS  /var/folders/km/q6jdms0143g2bddz5bhvdfd00000gn/T//cc0aHLWI.s 			page 5


 229              		.syntax unified
 230              	@ 546 "../../lib/e-puck2_main-processor/ChibiOS//os/ext/CMSIS/include/core_cmFunc.h" 1
 231 0064 83F31188 		MSR basepri, r3
 232              	@ 0 "" 2
 233              	.LVL16:
 234              		.thumb
 235              		.syntax unified
 236              	.L11:
 237              	.LBE64:
 238              	.LBE63:
 239              	.LBE62:
 240              	.LBE65:
 241              	.LBE69:
 242              	.LBE77:
 243              	.LBE80:
 244              		.loc 2 123 0 discriminator 1
 245 0068 FFF7FEFF 		bl	dcmi_capture_start
 246              	.LVL17:
 247              		.loc 2 125 0 discriminator 1
 248 006c FFF7FEFF 		bl	wait_image_ready
 249              	.LVL18:
 250              	.LBB81:
 251              	.LBB78:
 252              	.LBB70:
 253              	.LBB71:
 254              	.LBB72:
 255              	.LBB73:
 256              	.LBB74:
 257              		.loc 6 546 0 discriminator 1
 258              		.syntax unified
 259              	@ 546 "../../lib/e-puck2_main-processor/ChibiOS//os/ext/CMSIS/include/core_cmFunc.h" 1
 260 0070 85F31188 		MSR basepri, r5
 261              	@ 0 "" 2
 262              	.LVL19:
 263              		.thumb
 264              		.syntax unified
 265              	.LBE74:
 266              	.LBE73:
 267              	.LBE72:
 268              		.loc 4 349 0 discriminator 1
 269 0074 FFF7FEFF 		bl	_stats_start_measure_crit_thd
 270              	.LVL20:
 271              		.loc 4 350 0 discriminator 1
 272 0078 FFF7FEFF 		bl	_dbg_check_lock
 273              	.LVL21:
 274              	.LBE71:
 275              	.LBE70:
 276              	.LBB75:
 277              	.LBB68:
 278              		.loc 5 268 0 discriminator 1
 279 007c FFF7FEFF 		bl	chDbgCheckClassI
 280              	.LVL22:
 281              		.loc 5 270 0 discriminator 1
 282 0080 B368     		ldr	r3, [r6, #8]
 283 0082 002B     		cmp	r3, #0
 284 0084 DCDC     		bgt	.L9
 285              		.loc 5 271 0
ARM GAS  /var/folders/km/q6jdms0143g2bddz5bhvdfd00000gn/T//cc0aHLWI.s 			page 6


 286 0086 4046     		mov	r0, r8
 287 0088 FFF7FEFF 		bl	chSemSignalI
 288              	.LVL23:
 289 008c D8E7     		b	.L9
 290              	.L15:
 291 008e 00BF     		.align	2
 292              	.L14:
 293 0090 00000000 		.word	ch
 294 0094 00000000 		.word	__stack_chk_guard
 295 0098 00000000 		.word	.LANCHOR0
 296 009c 00000000 		.word	.LANCHOR1
 297 00a0 00000000 		.word	.LANCHOR2
 298              	.LBE68:
 299              	.LBE75:
 300              	.LBE78:
 301              	.LBE81:
 302              		.cfi_endproc
 303              	.LFE258:
 304              		.size	CaptureImage, .-CaptureImage
 305              		.section	.text.extract_line_width,"ax",%progbits
 306              		.align	1
 307              		.p2align 4,,15
 308              		.global	extract_line_width
 309              		.syntax unified
 310              		.thumb
 311              		.thumb_func
 312              		.fpu fpv4-sp-d16
 313              		.type	extract_line_width, %function
 314              	extract_line_width:
 315              	.LFB257:
 316              		.loc 2 22 0
 317              		.cfi_startproc
 318              		@ args = 0, pretend = 0, frame = 8
 319              		@ frame_needed = 0, uses_anonymous_args = 0
 320              	.LVL24:
 321 0000 2DE9F041 		push	{r4, r5, r6, r7, r8, lr}
 322              		.cfi_def_cfa_offset 24
 323              		.cfi_offset 4, -24
 324              		.cfi_offset 5, -20
 325              		.cfi_offset 6, -16
 326              		.cfi_offset 7, -12
 327              		.cfi_offset 8, -8
 328              		.cfi_offset 14, -4
 329 0004 3A4D     		ldr	r5, .L44
 330 0006 82B0     		sub	sp, sp, #8
 331              		.cfi_def_cfa_offset 32
 332              		.loc 2 22 0
 333 0008 2B68     		ldr	r3, [r5]
 334 000a 0193     		str	r3, [sp, #4]
 335              	.LVL25:
 336 000c 0646     		mov	r6, r0
 337 000e 4B1E     		subs	r3, r1, #1
 338 0010 01F27F24 		addw	r4, r1, #639
 339              		.loc 2 26 0
 340 0014 0022     		movs	r2, #0
 341              	.LVL26:
 342              	.L17:
ARM GAS  /var/folders/km/q6jdms0143g2bddz5bhvdfd00000gn/T//cc0aHLWI.s 			page 7


 343              	.LBB82:
 344              		.loc 2 35 0 discriminator 3
 345 0016 13F8010F 		ldrb	r0, [r3, #1]!	@ zero_extendqisi2
 346              		.loc 2 34 0 discriminator 3
 347 001a 9C42     		cmp	r4, r3
 348              		.loc 2 35 0 discriminator 3
 349 001c 0244     		add	r2, r2, r0
 350              	.LVL27:
 351              		.loc 2 34 0 discriminator 3
 352 001e FAD1     		bne	.L17
 353              	.LBE82:
 354              		.loc 2 37 0
 355 0020 344B     		ldr	r3, .L44+4
 356 0022 0C78     		ldrb	r4, [r1]	@ zero_extendqisi2
 357 0024 A3FB0232 		umull	r3, r2, r3, r2
 358              	.LVL28:
 359 0028 520A     		lsrs	r2, r2, #9
 360              	.LVL29:
 361              		.loc 2 24 0
 362 002a 0020     		movs	r0, #0
 363              		.loc 2 42 0
 364 002c 40F27A27 		movw	r7, #634
 365              	.LVL30:
 366              	.L18:
 367 0030 431C     		adds	r3, r0, #1
 368              		.loc 2 46 0
 369 0032 9442     		cmp	r4, r2
 370 0034 9BB2     		uxth	r3, r3
 371 0036 20D2     		bcs	.L20
 372              	.L42:
 373              		.loc 2 46 0 is_stmt 0 discriminator 1
 374 0038 0C18     		adds	r4, r1, r0
 375 003a 6479     		ldrb	r4, [r4, #5]	@ zero_extendqisi2
 376 003c 9442     		cmp	r4, r2
 377 003e 1CD9     		bls	.L20
 378              	.LVL31:
 379              		.loc 2 54 0 is_stmt 1
 380 0040 BB42     		cmp	r3, r7
 381 0042 28D8     		bhi	.L19
 382              		.loc 2 54 0 is_stmt 0 discriminator 1
 383 0044 38B3     		cbz	r0, .L19
 384 0046 03F1FF3E 		add	lr, r3, #-1
 385 004a 8E44     		add	lr, lr, r1
 386              	.LVL32:
 387              	.L28:
 388              		.loc 2 60 0 is_stmt 1
 389 004c 1EF8014F 		ldrb	r4, [lr, #1]!	@ zero_extendqisi2
 390 0050 9442     		cmp	r4, r2
 391 0052 1FFA83FC 		uxth	ip, r3
 392 0056 15D2     		bcs	.L23
 393              		.loc 2 60 0 is_stmt 0 discriminator 1
 394 0058 1EF8058C 		ldrb	r8, [lr, #-5]	@ zero_extendqisi2
 395 005c 9045     		cmp	r8, r2
 396 005e 11D9     		bls	.L23
 397              	.LVL33:
 398              		.loc 2 79 0 is_stmt 1
 399 0060 ACEB000E 		sub	lr, ip, r0
ARM GAS  /var/folders/km/q6jdms0143g2bddz5bhvdfd00000gn/T//cc0aHLWI.s 			page 8


 400 0064 BEF1270F 		cmp	lr, #39
 401 0068 6346     		mov	r3, ip
 402 006a 35DC     		bgt	.L41
 403              	.LVL34:
 404              		.loc 2 42 0
 405 006c BC45     		cmp	ip, r7
 406 006e 12D8     		bhi	.L19
 407 0070 6046     		mov	r0, ip
 408 0072 431C     		adds	r3, r0, #1
 409              		.loc 2 46 0
 410 0074 9442     		cmp	r4, r2
 411 0076 9BB2     		uxth	r3, r3
 412 0078 DED3     		bcc	.L42
 413              	.LVL35:
 414              	.L20:
 415              		.loc 2 42 0 discriminator 1
 416 007a BB42     		cmp	r3, r7
 417 007c 0BD8     		bhi	.L19
 418 007e CC5C     		ldrb	r4, [r1, r3]	@ zero_extendqisi2
 419              	.LVL36:
 420              		.loc 2 42 0 is_stmt 0
 421 0080 1846     		mov	r0, r3
 422 0082 D5E7     		b	.L18
 423              	.LVL37:
 424              	.L23:
 425 0084 0CF1010C 		add	ip, ip, #1
 426 0088 1FFA8CFC 		uxth	ip, ip
 427              	.LVL38:
 428              		.loc 2 58 0 is_stmt 1
 429 008c BCF5207F 		cmp	ip, #640
 430 0090 03F10103 		add	r3, r3, #1
 431 0094 DAD1     		bne	.L28
 432              	.LVL39:
 433              	.L19:
 434              		.loc 2 91 0
 435 0096 184B     		ldr	r3, .L44+8
 436              		.loc 2 90 0
 437 0098 4FF0000C 		mov	ip, #0
 438              		.loc 2 91 0
 439 009c 1B88     		ldrh	r3, [r3]
 440              	.LVL40:
 441              		.loc 2 89 0
 442 009e 6046     		mov	r0, ip
 443              	.LVL41:
 444              	.L30:
 445              		.loc 2 98 0
 446 00a0 07EE903A 		vmov	s15, r3	@ int
 447 00a4 DFED156A 		vldr.32	s13, .L44+12
 448              		.loc 2 107 0
 449 00a8 0199     		ldr	r1, [sp, #4]
 450 00aa 2A68     		ldr	r2, [r5]
 451              		.loc 2 106 0
 452 00ac 3080     		strh	r0, [r6]	@ movhi
 453              		.loc 2 98 0
 454 00ae F8EEE77A 		vcvt.f32.s32	s15, s15
 455              		.loc 2 106 0
 456 00b2 A6F802C0 		strh	ip, [r6, #2]	@ movhi
ARM GAS  /var/folders/km/q6jdms0143g2bddz5bhvdfd00000gn/T//cc0aHLWI.s 			page 9


 457              		.loc 2 98 0
 458 00b6 86EEA77A 		vdiv.f32	s14, s13, s15
 459              		.loc 2 107 0
 460 00ba 3046     		mov	r0, r6
 461              		.loc 2 98 0
 462 00bc F3EE097A 		vmov.f32	s15, #2.5e+1
 463              		.loc 2 99 0
 464 00c0 B4EE677A 		vcmp.f32	s14, s15
 465 00c4 F1EE10FA 		vmrs	APSR_nzcv, FPSCR
 466 00c8 C8BF     		it	gt
 467 00ca 3E23     		movgt	r3, #62
 468              	.LVL42:
 469              		.loc 2 107 0
 470 00cc 9142     		cmp	r1, r2
 471              		.loc 2 106 0
 472 00ce B380     		strh	r3, [r6, #4]	@ movhi
 473              	.LVL43:
 474              		.loc 2 107 0
 475 00d0 0CD1     		bne	.L43
 476              	.LVL44:
 477 00d2 02B0     		add	sp, sp, #8
 478              		.cfi_remember_state
 479              		.cfi_def_cfa_offset 24
 480              		@ sp needed
 481 00d4 BDE8F081 		pop	{r4, r5, r6, r7, r8, pc}
 482              	.LVL45:
 483              	.L41:
 484              		.cfi_restore_state
 485              		.loc 2 94 0
 486 00d8 0344     		add	r3, r3, r0
 487 00da 0949     		ldr	r1, .L44+16
 488              	.LVL46:
 489              		.loc 2 93 0
 490 00dc 064A     		ldr	r2, .L44+8
 491              	.LVL47:
 492              		.loc 2 94 0
 493 00de 5B10     		asrs	r3, r3, #1
 494 00e0 0B80     		strh	r3, [r1]	@ movhi
 495              		.loc 2 93 0
 496 00e2 ACEB0003 		sub	r3, ip, r0
 497 00e6 9BB2     		uxth	r3, r3
 498              	.LVL48:
 499 00e8 1380     		strh	r3, [r2]	@ movhi
 500 00ea D9E7     		b	.L30
 501              	.LVL49:
 502              	.L43:
 503              		.loc 2 107 0
 504 00ec FFF7FEFF 		bl	__stack_chk_fail
 505              	.LVL50:
 506              	.L45:
 507              		.align	2
 508              	.L44:
 509 00f0 00000000 		.word	__stack_chk_guard
 510 00f4 CDCCCCCC 		.word	-858993459
 511 00f8 00000000 		.word	.LANCHOR3
 512 00fc 0040C444 		.word	1153712128
 513 0100 00000000 		.word	.LANCHOR4
ARM GAS  /var/folders/km/q6jdms0143g2bddz5bhvdfd00000gn/T//cc0aHLWI.s 			page 10


 514              		.cfi_endproc
 515              	.LFE257:
 516              		.size	extract_line_width, .-extract_line_width
 517              		.section	.text.ProcessImage,"ax",%progbits
 518              		.align	1
 519              		.p2align 4,,15
 520              		.syntax unified
 521              		.thumb
 522              		.thumb_func
 523              		.fpu fpv4-sp-d16
 524              		.type	ProcessImage, %function
 525              	ProcessImage:
 526              	.LFB259:
 527              		.loc 2 133 0
 528              		.cfi_startproc
 529              		@ args = 0, pretend = 0, frame = 1952
 530              		@ frame_needed = 0, uses_anonymous_args = 0
 531              	.LVL51:
 532 0000 2DE9F047 		push	{r4, r5, r6, r7, r8, r9, r10, lr}
 533              		.cfi_def_cfa_offset 32
 534              		.cfi_offset 4, -32
 535              		.cfi_offset 5, -28
 536              		.cfi_offset 6, -24
 537              		.cfi_offset 7, -20
 538              		.cfi_offset 8, -16
 539              		.cfi_offset 9, -12
 540              		.cfi_offset 10, -8
 541              		.cfi_offset 14, -4
 542              	.LBB83:
 543              	.LBB84:
 544              		.loc 3 135 0
 545 0004 2C4A     		ldr	r2, .L52
 546              	.LBE84:
 547              	.LBE83:
 548              		.loc 2 133 0
 549 0006 2D4B     		ldr	r3, .L52+4
 550              	.LBB87:
 551              	.LBB85:
 552              		.loc 3 135 0
 553 0008 9269     		ldr	r2, [r2, #24]
 554 000a 2D49     		ldr	r1, .L52+8
 555              	.LBE85:
 556              	.LBE87:
 557              		.loc 2 133 0
 558 000c 1B68     		ldr	r3, [r3]
 559              	.LBB88:
 560              	.LBB86:
 561              		.loc 3 135 0
 562 000e 9161     		str	r1, [r2, #24]
 563              	.LBE86:
 564              	.LBE88:
 565              		.loc 2 133 0
 566 0010 ADF5F46D 		sub	sp, sp, #1952
 567              		.cfi_def_cfa_offset 1984
 568              		.loc 2 139 0
 569 0014 0DF11C09 		add	r9, sp, #28
 570 0018 4FF42072 		mov	r2, #640
ARM GAS  /var/folders/km/q6jdms0143g2bddz5bhvdfd00000gn/T//cc0aHLWI.s 			page 11


 571 001c 0021     		movs	r1, #0
 572 001e 4846     		mov	r0, r9
 573              	.LVL52:
 574              		.loc 2 140 0
 575 0020 A7AD     		add	r5, sp, #668
 576              		.loc 2 133 0
 577 0022 CDF89C37 		str	r3, [sp, #1948]
 578              		.loc 2 141 0
 579 0026 0DF21C54 		addw	r4, sp, #1308
 580              		.loc 2 139 0
 581 002a FFF7FEFF 		bl	memset
 582              	.LVL53:
 583              		.loc 2 140 0
 584 002e 4FF42072 		mov	r2, #640
 585 0032 0021     		movs	r1, #0
 586 0034 2846     		mov	r0, r5
 587 0036 FFF7FEFF 		bl	memset
 588              	.LVL54:
 589              		.loc 2 141 0
 590 003a 2046     		mov	r0, r4
 591 003c 4FF42072 		mov	r2, #640
 592 0040 0021     		movs	r1, #0
 593 0042 FFF7FEFF 		bl	memset
 594              	.LVL55:
 595              	.LBB89:
 596              	.LBB90:
 597              	.LBB91:
 598              		.loc 5 143 0
 599 0046 DFF88480 		ldr	r8, .L52+20
 600              	.LBE91:
 601              	.LBE90:
 602              		.loc 2 152 0
 603 004a 1E4F     		ldr	r7, .L52+12
 604 004c 1E4E     		ldr	r6, .L52+16
 605              	.L48:
 606              	.LVL56:
 607              	.LBB93:
 608              	.LBB92:
 609              		.loc 5 143 0
 610 004e 4046     		mov	r0, r8
 611 0050 FFF7FEFF 		bl	chSemWait
 612              	.LVL57:
 613              	.LBE92:
 614              	.LBE93:
 615              		.loc 2 151 0
 616 0054 FFF7FEFF 		bl	dcmi_get_last_image_ptr
 617              	.LVL58:
 618              		.loc 2 152 0
 619 0058 3946     		mov	r1, r7
 620              		.loc 2 151 0
 621 005a 8246     		mov	r10, r0
 622              	.LVL59:
 623              		.loc 2 152 0
 624 005c 3046     		mov	r0, r6
 625              	.LVL60:
 626 005e FFF7FEFF 		bl	chprintf.constprop.0
 627              	.LVL61:
ARM GAS  /var/folders/km/q6jdms0143g2bddz5bhvdfd00000gn/T//cc0aHLWI.s 			page 12


 628 0062 5146     		mov	r1, r10
 629 0064 0AF5A06C 		add	ip, r10, #1280
 630 0068 0022     		movs	r2, #0
 631              	.LVL62:
 632              	.L47:
 633              	.LBB94:
 634              		.loc 2 157 0 discriminator 3
 635 006a 4B78     		ldrb	r3, [r1, #1]	@ zero_extendqisi2
 636 006c C2F34E00 		ubfx	r0, r2, #1, #15
 637 0070 03F01F03 		and	r3, r3, #31
 638 0074 2354     		strb	r3, [r4, r0]
 639              		.loc 2 158 0 discriminator 3
 640 0076 1AF80230 		ldrb	r3, [r10, r2]	@ zero_extendqisi2
 641 007a DB08     		lsrs	r3, r3, #3
 642 007c 09F80030 		strb	r3, [r9, r0]
 643              		.loc 2 159 0 discriminator 3
 644 0080 1AF80230 		ldrb	r3, [r10, r2]	@ zero_extendqisi2
 645 0084 91F801E0 		ldrb	lr, [r1, #1]	@ zero_extendqisi2
 646 0088 DB00     		lsls	r3, r3, #3
 647 008a 03F03803 		and	r3, r3, #56
 648 008e 0231     		adds	r1, r1, #2
 649 0090 43EA5E13 		orr	r3, r3, lr, lsr #5
 650              		.loc 2 154 0 discriminator 3
 651 0094 6145     		cmp	r1, ip
 652 0096 02F10202 		add	r2, r2, #2
 653              	.LVL63:
 654              		.loc 2 159 0 discriminator 3
 655 009a 2B54     		strb	r3, [r5, r0]
 656              		.loc 2 154 0 discriminator 3
 657 009c E5D1     		bne	.L47
 658              	.LBE94:
 659              		.loc 2 165 0
 660 009e 4946     		mov	r1, r9
 661 00a0 01A8     		add	r0, sp, #4
 662 00a2 FFF7FEFF 		bl	extract_line_width
 663              	.LVL64:
 664              		.loc 2 166 0
 665 00a6 2946     		mov	r1, r5
 666 00a8 03A8     		add	r0, sp, #12
 667 00aa FFF7FEFF 		bl	extract_line_width
 668              	.LVL65:
 669              		.loc 2 167 0
 670 00ae 2146     		mov	r1, r4
 671 00b0 05A8     		add	r0, sp, #20
 672 00b2 FFF7FEFF 		bl	extract_line_width
 673              	.LVL66:
 674              	.LBE89:
 675              		.loc 2 146 0
 676 00b6 CAE7     		b	.L48
 677              	.L53:
 678              		.align	2
 679              	.L52:
 680 00b8 00000000 		.word	ch
 681 00bc 00000000 		.word	__stack_chk_guard
 682 00c0 00000000 		.word	.LANCHOR5
 683 00c4 00000000 		.word	.LC0
 684 00c8 00000000 		.word	SD3
ARM GAS  /var/folders/km/q6jdms0143g2bddz5bhvdfd00000gn/T//cc0aHLWI.s 			page 13


 685 00cc 00000000 		.word	.LANCHOR1
 686              		.cfi_endproc
 687              	.LFE259:
 688              		.size	ProcessImage, .-ProcessImage
 689              		.section	.text.get_distance_cm,"ax",%progbits
 690              		.align	1
 691              		.p2align 4,,15
 692              		.global	get_distance_cm
 693              		.syntax unified
 694              		.thumb
 695              		.thumb_func
 696              		.fpu fpv4-sp-d16
 697              		.type	get_distance_cm, %function
 698              	get_distance_cm:
 699              	.LFB260:
 700              		.loc 2 221 0
 701              		.cfi_startproc
 702              		@ args = 0, pretend = 0, frame = 8
 703              		@ frame_needed = 0, uses_anonymous_args = 0
 704 0000 00B5     		push	{lr}
 705              		.cfi_def_cfa_offset 4
 706              		.cfi_offset 14, -4
 707 0002 074B     		ldr	r3, .L58
 708 0004 83B0     		sub	sp, sp, #12
 709              		.cfi_def_cfa_offset 16
 710              		.loc 2 221 0
 711 0006 1A68     		ldr	r2, [r3]
 712 0008 0192     		str	r2, [sp, #4]
 713              		.loc 2 223 0
 714 000a 019A     		ldr	r2, [sp, #4]
 715 000c 1B68     		ldr	r3, [r3]
 716 000e 9A42     		cmp	r2, r3
 717 0010 04D1     		bne	.L57
 718 0012 9FED040A 		vldr.32	s0, .L58+4
 719 0016 03B0     		add	sp, sp, #12
 720              		.cfi_remember_state
 721              		.cfi_def_cfa_offset 4
 722              		@ sp needed
 723 0018 5DF804FB 		ldr	pc, [sp], #4
 724              	.L57:
 725              		.cfi_restore_state
 726 001c FFF7FEFF 		bl	__stack_chk_fail
 727              	.LVL67:
 728              	.L59:
 729              		.align	2
 730              	.L58:
 731 0020 00000000 		.word	__stack_chk_guard
 732 0024 00000000 		.word	0
 733              		.cfi_endproc
 734              	.LFE260:
 735              		.size	get_distance_cm, .-get_distance_cm
 736              		.section	.text.get_line_position,"ax",%progbits
 737              		.align	1
 738              		.p2align 4,,15
 739              		.global	get_line_position
 740              		.syntax unified
 741              		.thumb
ARM GAS  /var/folders/km/q6jdms0143g2bddz5bhvdfd00000gn/T//cc0aHLWI.s 			page 14


 742              		.thumb_func
 743              		.fpu fpv4-sp-d16
 744              		.type	get_line_position, %function
 745              	get_line_position:
 746              	.LFB261:
 747              		.loc 2 225 0
 748              		.cfi_startproc
 749              		@ args = 0, pretend = 0, frame = 8
 750              		@ frame_needed = 0, uses_anonymous_args = 0
 751 0000 00B5     		push	{lr}
 752              		.cfi_def_cfa_offset 4
 753              		.cfi_offset 14, -4
 754 0002 074B     		ldr	r3, .L64
 755              		.loc 2 226 0
 756 0004 0749     		ldr	r1, .L64+4
 757              		.loc 2 225 0
 758 0006 1A68     		ldr	r2, [r3]
 759              		.loc 2 227 0
 760 0008 0888     		ldrh	r0, [r1]
 761              		.loc 2 225 0
 762 000a 83B0     		sub	sp, sp, #12
 763              		.cfi_def_cfa_offset 16
 764              		.loc 2 225 0
 765 000c 0192     		str	r2, [sp, #4]
 766              		.loc 2 227 0
 767 000e 019A     		ldr	r2, [sp, #4]
 768 0010 1B68     		ldr	r3, [r3]
 769 0012 9A42     		cmp	r2, r3
 770 0014 02D1     		bne	.L63
 771 0016 03B0     		add	sp, sp, #12
 772              		.cfi_remember_state
 773              		.cfi_def_cfa_offset 4
 774              		@ sp needed
 775 0018 5DF804FB 		ldr	pc, [sp], #4
 776              	.L63:
 777              		.cfi_restore_state
 778 001c FFF7FEFF 		bl	__stack_chk_fail
 779              	.LVL68:
 780              	.L65:
 781              		.align	2
 782              	.L64:
 783 0020 00000000 		.word	__stack_chk_guard
 784 0024 00000000 		.word	.LANCHOR4
 785              		.cfi_endproc
 786              	.LFE261:
 787              		.size	get_line_position, .-get_line_position
 788              		.section	.text.process_image_start,"ax",%progbits
 789              		.align	1
 790              		.p2align 4,,15
 791              		.global	process_image_start
 792              		.syntax unified
 793              		.thumb
 794              		.thumb_func
 795              		.fpu fpv4-sp-d16
 796              		.type	process_image_start, %function
 797              	process_image_start:
 798              	.LFB262:
ARM GAS  /var/folders/km/q6jdms0143g2bddz5bhvdfd00000gn/T//cc0aHLWI.s 			page 15


 799              		.loc 2 229 0
 800              		.cfi_startproc
 801              		@ args = 0, pretend = 0, frame = 8
 802              		@ frame_needed = 0, uses_anonymous_args = 0
 803 0000 30B5     		push	{r4, r5, lr}
 804              		.cfi_def_cfa_offset 12
 805              		.cfi_offset 4, -12
 806              		.cfi_offset 5, -8
 807              		.cfi_offset 14, -4
 808 0002 0E4C     		ldr	r4, .L70
 809              		.loc 2 230 0
 810 0004 0E4B     		ldr	r3, .L70+4
 811              		.loc 2 229 0
 812 0006 2268     		ldr	r2, [r4]
 813              		.loc 2 230 0
 814 0008 0E48     		ldr	r0, .L70+8
 815              		.loc 2 229 0
 816 000a 85B0     		sub	sp, sp, #20
 817              		.cfi_def_cfa_offset 32
 818              		.loc 2 230 0
 819 000c 0025     		movs	r5, #0
 820              		.loc 2 229 0
 821 000e 0392     		str	r2, [sp, #12]
 822              		.loc 2 230 0
 823 0010 4FF4AF61 		mov	r1, #1400
 824 0014 4022     		movs	r2, #64
 825 0016 0095     		str	r5, [sp]
 826 0018 FFF7FEFF 		bl	chThdCreateStatic
 827              	.LVL69:
 828              		.loc 2 231 0
 829 001c 0A4B     		ldr	r3, .L70+12
 830 001e 0095     		str	r5, [sp]
 831 0020 4022     		movs	r2, #64
 832 0022 0A48     		ldr	r0, .L70+16
 833 0024 4FF41E71 		mov	r1, #632
 834 0028 FFF7FEFF 		bl	chThdCreateStatic
 835              	.LVL70:
 836              		.loc 2 232 0
 837 002c 039A     		ldr	r2, [sp, #12]
 838 002e 2368     		ldr	r3, [r4]
 839 0030 9A42     		cmp	r2, r3
 840 0032 01D1     		bne	.L69
 841 0034 05B0     		add	sp, sp, #20
 842              		.cfi_remember_state
 843              		.cfi_def_cfa_offset 12
 844              		@ sp needed
 845 0036 30BD     		pop	{r4, r5, pc}
 846              	.L69:
 847              		.cfi_restore_state
 848 0038 FFF7FEFF 		bl	__stack_chk_fail
 849              	.LVL71:
 850              	.L71:
 851              		.align	2
 852              	.L70:
 853 003c 00000000 		.word	__stack_chk_guard
 854 0040 00000000 		.word	ProcessImage
 855 0044 00000000 		.word	.LANCHOR6
ARM GAS  /var/folders/km/q6jdms0143g2bddz5bhvdfd00000gn/T//cc0aHLWI.s 			page 16


 856 0048 00000000 		.word	CaptureImage
 857 004c 00000000 		.word	.LANCHOR7
 858              		.cfi_endproc
 859              	.LFE262:
 860              		.size	process_image_start, .-process_image_start
 861              		.section	.bss.waCaptureImage,"aw",%nobits
 862              		.align	3
 863              		.set	.LANCHOR7,. + 0
 864              		.type	waCaptureImage, %object
 865              		.size	waCaptureImage, 632
 866              	waCaptureImage:
 867 0000 00000000 		.space	632
 867      00000000 
 867      00000000 
 867      00000000 
 867      00000000 
 868              		.section	.bss.waProcessImage,"aw",%nobits
 869              		.align	3
 870              		.set	.LANCHOR6,. + 0
 871              		.type	waProcessImage, %object
 872              		.size	waProcessImage, 1400
 873              	waProcessImage:
 874 0000 00000000 		.space	1400
 874      00000000 
 874      00000000 
 874      00000000 
 874      00000000 
 875              		.section	.data.image_ready_sem,"aw",%progbits
 876              		.align	2
 877              		.set	.LANCHOR1,. + 0
 878              		.type	image_ready_sem, %object
 879              		.size	image_ready_sem, 12
 880              	image_ready_sem:
 881 0000 00000000 		.word	image_ready_sem
 882 0004 00000000 		.word	image_ready_sem
 883 0008 00000000 		.word	0
 884              		.section	.data.last_width.11345,"aw",%progbits
 885              		.align	1
 886              		.set	.LANCHOR3,. + 0
 887              		.type	last_width.11345, %object
 888              		.size	last_width.11345, 2
 889              	last_width.11345:
 890 0000 9D00     		.short	157
 891              		.section	.data.line_position,"aw",%progbits
 892              		.align	1
 893              		.set	.LANCHOR4,. + 0
 894              		.type	line_position, %object
 895              		.size	line_position, 2
 896              	line_position:
 897 0000 4001     		.short	320
 898              		.section	.rodata.__FUNCTION__.11362,"a",%progbits
 899              		.align	2
 900              		.set	.LANCHOR0,. + 0
 901              		.type	__FUNCTION__.11362, %object
 902              		.size	__FUNCTION__.11362, 13
 903              	__FUNCTION__.11362:
 904 0000 43617074 		.ascii	"CaptureImage\000"
ARM GAS  /var/folders/km/q6jdms0143g2bddz5bhvdfd00000gn/T//cc0aHLWI.s 			page 17


 904      75726549 
 904      6D616765 
 904      00
 905              		.section	.rodata.__FUNCTION__.11368,"a",%progbits
 906              		.align	2
 907              		.set	.LANCHOR5,. + 0
 908              		.type	__FUNCTION__.11368, %object
 909              		.size	__FUNCTION__.11368, 13
 910              	__FUNCTION__.11368:
 911 0000 50726F63 		.ascii	"ProcessImage\000"
 911      65737349 
 911      6D616765 
 911      00
 912              		.section	.rodata.__func__.7153,"a",%progbits
 913              		.align	2
 914              		.set	.LANCHOR2,. + 0
 915              		.type	__func__.7153, %object
 916              		.size	__func__.7153, 12
 917              	__func__.7153:
 918 0000 63685379 		.ascii	"chSysUnlock\000"
 918      73556E6C 
 918      6F636B00 
 919              		.section	.rodata.chprintf.constprop.0.str1.4,"aMS",%progbits,1
 920              		.align	2
 921              	.LC0:
 922 0000 77657368 		.ascii	"wesh bien j'ai pris une photo \012\000"
 922      20626965 
 922      6E206A27 
 922      61692070 
 922      72697320 
 923              		.text
 924              	.Letext0:
 925              		.file 7 "/Applications/Eclipse_e-puck2.app/Contents/Eclipse_e-puck2/Tools/gcc-arm-none-eabi-7-2017
 926              		.file 8 "/Applications/Eclipse_e-puck2.app/Contents/Eclipse_e-puck2/Tools/gcc-arm-none-eabi-7-2017
 927              		.file 9 "/Applications/Eclipse_e-puck2.app/Contents/Eclipse_e-puck2/Tools/gcc-arm-none-eabi-7-2017
 928              		.file 10 "../../lib/e-puck2_main-processor/ChibiOS//os/rt/ports/ARMCMx/compilers/GCC/chtypes.h"
 929              		.file 11 "../../lib/e-puck2_main-processor/ChibiOS//os/rt/include/chsystypes.h"
 930              		.file 12 "../../lib/e-puck2_main-processor/ChibiOS//os/rt/include/chschd.h"
 931              		.file 13 "../../lib/e-puck2_main-processor/ChibiOS//os/ext/CMSIS/include/core_cm4.h"
 932              		.file 14 "../../lib/e-puck2_main-processor/ChibiOS//os/ext/CMSIS/ST/system_stm32f4xx.h"
 933              		.file 15 "../../lib/e-puck2_main-processor/ChibiOS//os/ext/CMSIS/ST/stm32f407xx.h"
 934              		.file 16 "../../lib/e-puck2_main-processor/ChibiOS//os/rt/ports/ARMCMx/chcore.h"
 935              		.file 17 "../../lib/e-puck2_main-processor/ChibiOS//os/rt/ports/ARMCMx/chcore_v7m.h"
 936              		.file 18 "../../lib/e-puck2_main-processor/ChibiOS//os/rt/include/chdebug.h"
 937              		.file 19 "../../lib/e-puck2_main-processor/ChibiOS//os/rt/include/chtm.h"
 938              		.file 20 "../../lib/e-puck2_main-processor/ChibiOS//os/rt/include/chstats.h"
 939              		.file 21 "../../lib/e-puck2_main-processor/ChibiOS//os/rt/include/chsem.h"
 940              		.file 22 "../../lib/e-puck2_main-processor/ChibiOS//os/rt/include/chmtx.h"
 941              		.file 23 "../../lib/e-puck2_main-processor/ChibiOS//os/rt/include/chevents.h"
 942              		.file 24 "../../lib/e-puck2_main-processor/ChibiOS//os/rt/include/chqueues.h"
 943              		.file 25 "../../lib/e-puck2_main-processor/ChibiOS//os/rt/include/chstreams.h"
 944              		.file 26 "../../lib/e-puck2_main-processor/ChibiOS//os/hal/ports/STM32/STM32F4xx/stm32_dma.h"
 945              		.file 27 "../../lib/e-puck2_main-processor/ChibiOS//os/hal/include/hal_ioblock.h"
 946              		.file 28 "../../lib/e-puck2_main-processor/ChibiOS//os/hal/ports/STM32/LLD/GPIOv2/pal_lld.h"
 947              		.file 29 "../../lib/e-puck2_main-processor/ChibiOS//os/hal/include/adc.h"
 948              		.file 30 "../../lib/e-puck2_main-processor/ChibiOS//os/hal/ports/STM32/STM32F4xx/adc_lld.h"
 949              		.file 31 "../../lib/e-puck2_main-processor/ChibiOS//os/hal/include/can.h"
ARM GAS  /var/folders/km/q6jdms0143g2bddz5bhvdfd00000gn/T//cc0aHLWI.s 			page 18


 950              		.file 32 "../../lib/e-puck2_main-processor/ChibiOS//os/hal/ports/STM32/LLD/can_lld.h"
 951              		.file 33 "../../lib/e-puck2_main-processor/ChibiOS//os/hal/include/dac.h"
 952              		.file 34 "../../lib/e-puck2_main-processor/ChibiOS//os/hal/ports/STM32/LLD/DACv1/dac_lld.h"
 953              		.file 35 "../../lib/e-puck2_main-processor/ChibiOS//os/hal/include/ext.h"
 954              		.file 36 "../../lib/e-puck2_main-processor/ChibiOS//os/hal/ports/STM32/LLD/ext_lld.h"
 955              		.file 37 "../../lib/e-puck2_main-processor/ChibiOS//os/hal/include/gpt.h"
 956              		.file 38 "../../lib/e-puck2_main-processor/ChibiOS//os/hal/ports/STM32/LLD/TIMv1/gpt_lld.h"
 957              		.file 39 "../../lib/e-puck2_main-processor/ChibiOS//os/hal/ports/STM32/LLD/TIMv1/stm32_tim.h"
 958              		.file 40 "../../lib/e-puck2_main-processor/ChibiOS//os/hal/include/i2c.h"
 959              		.file 41 "../../lib/e-puck2_main-processor/ChibiOS//os/hal/ports/STM32/LLD/I2Cv1/i2c_lld.h"
 960              		.file 42 "../../lib/e-puck2_main-processor/ChibiOS//os/hal/include/i2s.h"
 961              		.file 43 "../../lib/e-puck2_main-processor/ChibiOS//os/hal/ports/STM32/LLD/SPIv1/i2s_lld.h"
 962              		.file 44 "../../lib/e-puck2_main-processor/ChibiOS//os/hal/include/pwm.h"
 963              		.file 45 "../../lib/e-puck2_main-processor/ChibiOS//os/hal/ports/STM32/LLD/TIMv1/pwm_lld.h"
 964              		.file 46 "../../lib/e-puck2_main-processor/ChibiOS//os/hal/include/serial.h"
 965              		.file 47 "../../lib/e-puck2_main-processor/ChibiOS//os/hal/ports/STM32/LLD/USARTv1/serial_lld.h"
 966              		.file 48 "../../lib/e-puck2_main-processor/ChibiOS//os/hal/include/sdc.h"
 967              		.file 49 "../../lib/e-puck2_main-processor/ChibiOS//os/hal/ports/STM32/LLD/sdc_lld.h"
 968              		.file 50 "../../lib/e-puck2_main-processor/ChibiOS//os/hal/include/spi.h"
 969              		.file 51 "../../lib/e-puck2_main-processor/ChibiOS//os/hal/ports/STM32/LLD/SPIv1/spi_lld.h"
 970              		.file 52 "../../lib/e-puck2_main-processor/ChibiOS//os/hal/include/usb.h"
 971              		.file 53 "../../lib/e-puck2_main-processor/ChibiOS//os/hal/ports/STM32/LLD/OTGv1/usb_lld.h"
 972              		.file 54 "../../lib/e-puck2_main-processor/ChibiOS//os/hal/ports/STM32/LLD/OTGv1/stm32_otg.h"
 973              		.file 55 "../../lib/e-puck2_main-processor/ChibiOS//os/hal/include/serial_usb.h"
 974              		.file 56 "/Applications/Eclipse_e-puck2.app/Contents/Eclipse_e-puck2/Tools/gcc-arm-none-eabi-7-201
 975              		.file 57 "<built-in>"
 976              		.file 58 "../../lib/e-puck2_main-processor/src/usbcfg.h"
 977              		.file 59 "../../lib/e-puck2_main-processor/ChibiOS_ext/os/hal/include/../ports/STM32/STM32F4xx/dcm
 978              		.file 60 "../../lib/e-puck2_main-processor/src/camera/po8030.h"
 979              		.file 61 "../../lib/e-puck2_main-processor/src/camera/dcmi_camera.h"
 980              		.file 62 "/Applications/Eclipse_e-puck2.app/Contents/Eclipse_e-puck2/Tools/gcc-arm-none-eabi-7-201
 981              		.file 63 "/Applications/Eclipse_e-puck2.app/Contents/Eclipse_e-puck2/Tools/gcc-arm-none-eabi-7-201
 982              		.file 64 "/Applications/Eclipse_e-puck2.app/Contents/Eclipse_e-puck2/Tools/gcc-arm-none-eabi-7-201
 983              		.file 65 "../../lib/e-puck2_main-processor/src/msgbus/messagebus.h"
 984              		.file 66 "/Applications/Eclipse_e-puck2.app/Contents/Eclipse_e-puck2/Tools/gcc-arm-none-eabi-7-201
 985              		.file 67 "/Applications/Eclipse_e-puck2.app/Contents/Eclipse_e-puck2/Tools/gcc-arm-none-eabi-7-201
 986              		.file 68 "../../lib/e-puck2_main-processor/src/parameter/parameter.h"
 987              		.file 69 "./main.h"
 988              		.file 70 "./process_image.h"
 989              		.file 71 "../../lib/e-puck2_main-processor/ChibiOS//os/rt/include/chthreads.h"