ARM GAS  /var/folders/km/q6jdms0143g2bddz5bhvdfd00000gn/T//ccBbBvoU.s 			page 1


   1              		.cpu cortex-m4
   2              		.eabi_attribute 27, 1
   3              		.eabi_attribute 28, 1
   4              		.eabi_attribute 20, 1
   5              		.eabi_attribute 21, 1
   6              		.eabi_attribute 23, 3
   7              		.eabi_attribute 24, 1
   8              		.eabi_attribute 25, 1
   9              		.eabi_attribute 26, 1
  10              		.eabi_attribute 30, 2
  11              		.eabi_attribute 34, 1
  12              		.eabi_attribute 18, 4
  13              		.file	"main.c"
  14              		.text
  15              	.Ltext0:
  16              		.cfi_sections	.debug_frame
  17              		.section	.text.startup.main,"ax",%progbits
  18              		.align	1
  19              		.p2align 4,,15
  20              		.global	main
  21              		.syntax unified
  22              		.thumb
  23              		.thumb_func
  24              		.fpu fpv4-sp-d16
  25              		.type	main, %function
  26              	main:
  27              	.LFB295:
  28              		.file 1 "main.c"
  29              		.loc 1 54 0
  30              		.cfi_startproc
  31              		@ args = 0, pretend = 0, frame = 16
  32              		@ frame_needed = 0, uses_anonymous_args = 0
  33 0000 2DE9F043 		push	{r4, r5, r6, r7, r8, r9, lr}
  34              		.cfi_def_cfa_offset 28
  35              		.cfi_offset 4, -28
  36              		.cfi_offset 5, -24
  37              		.cfi_offset 6, -20
  38              		.cfi_offset 7, -16
  39              		.cfi_offset 8, -12
  40              		.cfi_offset 9, -8
  41              		.cfi_offset 14, -4
  42 0004 464B     		ldr	r3, .L10
  43 0006 DFF82C91 		ldr	r9, .L10+20
  44 000a 1B68     		ldr	r3, [r3]
  45 000c DFF82881 		ldr	r8, .L10+24
  46 0010 85B0     		sub	sp, sp, #20
  47              		.cfi_def_cfa_offset 48
  48              	.LBB52:
  49              		.loc 1 96 0
  50 0012 0024     		movs	r4, #0
  51              	.LBE52:
  52              		.loc 1 54 0
  53 0014 0393     		str	r3, [sp, #12]
  54              		.loc 1 56 0
  55 0016 FFF7FEFF 		bl	halInit
  56              	.LVL0:
  57              		.loc 1 57 0
ARM GAS  /var/folders/km/q6jdms0143g2bddz5bhvdfd00000gn/T//ccBbBvoU.s 			page 2


  58 001a FFF7FEFF 		bl	chSysInit
  59              	.LVL1:
  60              		.loc 1 58 0
  61 001e FFF7FEFF 		bl	mpu_init
  62              	.LVL2:
  63              	.LBB73:
  64              	.LBB74:
  65              		.loc 1 34 0
  66 0022 4048     		ldr	r0, .L10+4
  67 0024 4049     		ldr	r1, .L10+8
  68              	.LBE74:
  69              	.LBE73:
  70              	.LBB76:
  71              		.loc 1 102 0
  72 0026 0746     		mov	r7, r0
  73              	.LBE76:
  74              	.LBB77:
  75              	.LBB75:
  76              		.loc 1 34 0
  77 0028 FFF7FEFF 		bl	sdStart
  78              	.LVL3:
  79              	.LBE75:
  80              	.LBE77:
  81              		.loc 1 63 0
  82 002c FFF7FEFF 		bl	usb_start
  83              	.LVL4:
  84              	.LBB78:
  85              	.LBB79:
  86              		.loc 1 48 0
  87 0030 3E49     		ldr	r1, .L10+12
  88 0032 4846     		mov	r0, r9
  89 0034 FFF7FEFF 		bl	gptStart
  90              	.LVL5:
  91              		.loc 1 50 0
  92 0038 4FF6FF71 		movw	r1, #65535
  93 003c 4846     		mov	r0, r9
  94 003e FFF7FEFF 		bl	gptStartContinuous
  95              	.LVL6:
  96              	.LBE79:
  97              	.LBE78:
  98              		.loc 1 67 0
  99 0042 FFF7FEFF 		bl	motors_init
 100              	.LVL7:
 101              	.L2:
 102              	.LBB80:
 103              		.loc 1 99 0
 104 0046 0020     		movs	r0, #0
 105              		.loc 1 96 0
 106 0048 ADF80840 		strh	r4, [sp, #8]	@ movhi
 107              		.loc 1 97 0
 108 004c ADF80A40 		strh	r4, [sp, #10]	@ movhi
 109              		.loc 1 99 0
 110 0050 FFF7FEFF 		bl	get_audio_buffer_ptr
 111              	.LVL8:
 112 0054 0546     		mov	r5, r0
 113              	.LVL9:
 114              		.loc 1 100 0
ARM GAS  /var/folders/km/q6jdms0143g2bddz5bhvdfd00000gn/T//ccBbBvoU.s 			page 3


 115 0056 0420     		movs	r0, #4
 116              	.LVL10:
 117 0058 FFF7FEFF 		bl	get_audio_buffer_ptr
 118              	.LVL11:
 119              		.loc 1 102 0
 120 005c 2946     		mov	r1, r5
 121              		.loc 1 100 0
 122 005e 0646     		mov	r6, r0
 123              	.LVL12:
 124              		.loc 1 102 0
 125 0060 4FF48062 		mov	r2, #1024
 126 0064 3846     		mov	r0, r7
 127              	.LVL13:
 128 0066 FFF7FEFF 		bl	ReceiveInt16FromComputer
 129              	.LVL14:
 130              		.loc 1 104 0
 131 006a B0F5806F 		cmp	r0, #1024
 132 006e EAD1     		bne	.L2
 133 0070 0190     		str	r0, [sp, #4]
 134              	.LVL15:
 135              	.LBB53:
 136              	.LBB54:
 137              	.LBB55:
 138              	.LBB56:
 139              	.LBB57:
 140              		.file 2 "../../lib/e-puck2_main-processor/ChibiOS//os/ext/CMSIS/include/core_cmFunc.h"
 141              		.loc 2 546 0
 142 0072 2023     		movs	r3, #32
 143              		.syntax unified
 144              	@ 546 "../../lib/e-puck2_main-processor/ChibiOS//os/ext/CMSIS/include/core_cmFunc.h" 1
 145 0074 83F31188 		MSR basepri, r3
 146              	@ 0 "" 2
 147              	.LVL16:
 148              		.thumb
 149              		.syntax unified
 150              	.LBE57:
 151              	.LBE56:
 152              	.LBE55:
 153              		.file 3 "../../lib/e-puck2_main-processor/ChibiOS//os/rt/include/chsys.h"
 154              		.loc 3 349 0
 155 0078 FFF7FEFF 		bl	_stats_start_measure_crit_thd
 156              	.LVL17:
 157              		.loc 3 350 0
 158 007c FFF7FEFF 		bl	_dbg_check_lock
 159              	.LVL18:
 160              	.LBE54:
 161              	.LBE53:
 162              		.loc 1 111 0
 163 0080 D9F80C30 		ldr	r3, [r9, #12]
 164              		.loc 1 113 0
 165 0084 0198     		ldr	r0, [sp, #4]
 166              		.loc 1 111 0
 167 0086 5C62     		str	r4, [r3, #36]
 168              		.loc 1 113 0
 169 0088 2946     		mov	r1, r5
 170 008a FFF7FEFF 		bl	doFFT_optimized
 171              	.LVL19:
ARM GAS  /var/folders/km/q6jdms0143g2bddz5bhvdfd00000gn/T//ccBbBvoU.s 			page 4


 172              		.loc 1 115 0
 173 008e D9F80C30 		ldr	r3, [r9, #12]
 174 0092 5B6A     		ldr	r3, [r3, #36]
 175 0094 9BB2     		uxth	r3, r3
 176 0096 ADF80830 		strh	r3, [sp, #8]	@ movhi
 177              	.LBB58:
 178              	.LBB59:
 179              		.loc 3 360 0
 180 009a FFF7FEFF 		bl	_dbg_check_unlock
 181              	.LVL20:
 182              		.loc 3 361 0
 183 009e FFF7FEFF 		bl	_stats_stop_measure_crit_thd
 184              	.LVL21:
 185              		.loc 3 367 0
 186 00a2 D8F80030 		ldr	r3, [r8]
 187 00a6 4345     		cmp	r3, r8
 188 00a8 08D0     		beq	.L3
 189 00aa D8F81820 		ldr	r2, [r8, #24]
 190 00ae 9B68     		ldr	r3, [r3, #8]
 191 00b0 9268     		ldr	r2, [r2, #8]
 192 00b2 9A42     		cmp	r2, r3
 193 00b4 02D2     		bcs	.L3
 194 00b6 1E48     		ldr	r0, .L10+16
 195 00b8 FFF7FEFF 		bl	chSysHalt
 196              	.LVL22:
 197              	.L3:
 198              	.LBB60:
 199              	.LBB61:
 200              	.LBB62:
 201              		.loc 2 546 0
 202              		.syntax unified
 203              	@ 546 "../../lib/e-puck2_main-processor/ChibiOS//os/ext/CMSIS/include/core_cmFunc.h" 1
 204 00bc 84F31188 		MSR basepri, r4
 205              	@ 0 "" 2
 206              	.LVL23:
 207              		.thumb
 208              		.syntax unified
 209              	.LBE62:
 210              	.LBE61:
 211              	.LBE60:
 212              	.LBE59:
 213              	.LBE58:
 214              	.LBB63:
 215              	.LBB64:
 216              	.LBB65:
 217              	.LBB66:
 218              	.LBB67:
 219 00c0 2023     		movs	r3, #32
 220              		.syntax unified
 221              	@ 546 "../../lib/e-puck2_main-processor/ChibiOS//os/ext/CMSIS/include/core_cmFunc.h" 1
 222 00c2 83F31188 		MSR basepri, r3
 223              	@ 0 "" 2
 224              	.LVL24:
 225              		.thumb
 226              		.syntax unified
 227              	.LBE67:
 228              	.LBE66:
ARM GAS  /var/folders/km/q6jdms0143g2bddz5bhvdfd00000gn/T//ccBbBvoU.s 			page 5


 229              	.LBE65:
 230              		.loc 3 349 0
 231 00c6 FFF7FEFF 		bl	_stats_start_measure_crit_thd
 232              	.LVL25:
 233              		.loc 3 350 0
 234 00ca FFF7FEFF 		bl	_dbg_check_lock
 235              	.LVL26:
 236              	.LBE64:
 237              	.LBE63:
 238              		.loc 1 154 0
 239 00ce D9F80C30 		ldr	r3, [r9, #12]
 240              		.loc 1 156 0
 241 00d2 2846     		mov	r0, r5
 242 00d4 3146     		mov	r1, r6
 243 00d6 4FF48062 		mov	r2, #1024
 244              		.loc 1 154 0
 245 00da 5C62     		str	r4, [r3, #36]
 246              		.loc 1 156 0
 247 00dc FFF7FEFF 		bl	arm_cmplx_mag_f32
 248              	.LVL27:
 249              		.loc 1 158 0
 250 00e0 D9F80C30 		ldr	r3, [r9, #12]
 251 00e4 5B6A     		ldr	r3, [r3, #36]
 252 00e6 9BB2     		uxth	r3, r3
 253 00e8 ADF80A30 		strh	r3, [sp, #10]	@ movhi
 254              	.LBB68:
 255              	.LBB69:
 256              		.loc 3 360 0
 257 00ec FFF7FEFF 		bl	_dbg_check_unlock
 258              	.LVL28:
 259              		.loc 3 361 0
 260 00f0 FFF7FEFF 		bl	_stats_stop_measure_crit_thd
 261              	.LVL29:
 262              		.loc 3 367 0
 263 00f4 D8F80030 		ldr	r3, [r8]
 264 00f8 4345     		cmp	r3, r8
 265 00fa 08D0     		beq	.L4
 266 00fc D8F81820 		ldr	r2, [r8, #24]
 267 0100 9B68     		ldr	r3, [r3, #8]
 268 0102 9268     		ldr	r2, [r2, #8]
 269 0104 9A42     		cmp	r2, r3
 270 0106 02D2     		bcs	.L4
 271 0108 0948     		ldr	r0, .L10+16
 272 010a FFF7FEFF 		bl	chSysHalt
 273              	.LVL30:
 274              	.L4:
 275              	.LBB70:
 276              	.LBB71:
 277              	.LBB72:
 278              		.loc 2 546 0
 279              		.syntax unified
 280              	@ 546 "../../lib/e-puck2_main-processor/ChibiOS//os/ext/CMSIS/include/core_cmFunc.h" 1
 281 010e 84F31188 		MSR basepri, r4
 282              	@ 0 "" 2
 283              	.LVL31:
 284              		.thumb
 285              		.syntax unified
ARM GAS  /var/folders/km/q6jdms0143g2bddz5bhvdfd00000gn/T//ccBbBvoU.s 			page 6


 286              	.LBE72:
 287              	.LBE71:
 288              	.LBE70:
 289              	.LBE69:
 290              	.LBE68:
 291              		.loc 1 161 0
 292 0112 4FF48062 		mov	r2, #1024
 293 0116 3146     		mov	r1, r6
 294 0118 3846     		mov	r0, r7
 295 011a FFF7FEFF 		bl	SendFloatToComputer
 296              	.LVL32:
 297 011e 92E7     		b	.L2
 298              	.L11:
 299              		.align	2
 300              	.L10:
 301 0120 00000000 		.word	__stack_chk_guard
 302 0124 00000000 		.word	SD3
 303 0128 00000000 		.word	.LANCHOR0
 304 012c 00000000 		.word	.LANCHOR1
 305 0130 00000000 		.word	.LANCHOR2
 306 0134 00000000 		.word	GPTD12
 307 0138 00000000 		.word	ch
 308              	.LBE80:
 309              		.cfi_endproc
 310              	.LFE295:
 311              		.size	main, .-main
 312              		.section	.text.__stack_chk_fail,"ax",%progbits
 313              		.align	1
 314              		.p2align 4,,15
 315              		.global	__stack_chk_fail
 316              		.syntax unified
 317              		.thumb
 318              		.thumb_func
 319              		.fpu fpv4-sp-d16
 320              		.type	__stack_chk_fail, %function
 321              	__stack_chk_fail:
 322              	.LFB296:
 323              		.loc 1 173 0
 324              		.cfi_startproc
 325              		@ args = 0, pretend = 0, frame = 8
 326              		@ frame_needed = 0, uses_anonymous_args = 0
 327 0000 00B5     		push	{lr}
 328              		.cfi_def_cfa_offset 4
 329              		.cfi_offset 14, -4
 330 0002 084B     		ldr	r3, .L17
 331 0004 83B0     		sub	sp, sp, #12
 332              		.cfi_def_cfa_offset 16
 333              		.loc 1 173 0
 334 0006 1A68     		ldr	r2, [r3]
 335 0008 0192     		str	r2, [sp, #4]
 336              		.loc 1 174 0
 337 000a 019A     		ldr	r2, [sp, #4]
 338 000c 1B68     		ldr	r3, [r3]
 339 000e 9A42     		cmp	r2, r3
 340 0010 05D1     		bne	.L16
 341 0012 0548     		ldr	r0, .L17+4
 342              		.loc 1 175 0
ARM GAS  /var/folders/km/q6jdms0143g2bddz5bhvdfd00000gn/T//ccBbBvoU.s 			page 7


 343 0014 03B0     		add	sp, sp, #12
 344              		.cfi_remember_state
 345              		.cfi_def_cfa_offset 4
 346              		@ sp needed
 347 0016 5DF804EB 		ldr	lr, [sp], #4
 348              		.cfi_restore 14
 349              		.cfi_def_cfa_offset 0
 350              		.loc 1 174 0
 351 001a FFF7FEBF 		b	chSysHalt
 352              	.LVL33:
 353              	.L16:
 354              		.cfi_restore_state
 355 001e FFF7FEFF 		bl	__stack_chk_fail
 356              	.LVL34:
 357              	.L18:
 358 0022 00BF     		.align	2
 359              	.L17:
 360 0024 00000000 		.word	__stack_chk_guard
 361 0028 00000000 		.word	.LC0
 362              		.cfi_endproc
 363              	.LFE296:
 364              		.size	__stack_chk_fail, .-__stack_chk_fail
 365              		.global	__stack_chk_guard
 366              		.section	.data.__stack_chk_guard,"aw",%progbits
 367              		.align	2
 368              		.type	__stack_chk_guard, %object
 369              		.size	__stack_chk_guard, 4
 370              	__stack_chk_guard:
 371 0000 96E3DEE2 		.word	-488709226
 372              		.section	.data.ser_cfg.14894,"aw",%progbits
 373              		.align	2
 374              		.set	.LANCHOR0,. + 0
 375              		.type	ser_cfg.14894, %object
 376              		.size	ser_cfg.14894, 12
 377              	ser_cfg.14894:
 378 0000 00C20100 		.word	115200
 379 0004 0000     		.short	0
 380 0006 0000     		.short	0
 381 0008 0000     		.short	0
 382 000a 0000     		.space	2
 383              		.section	.rodata.__func__.8784,"a",%progbits
 384              		.align	2
 385              		.set	.LANCHOR2,. + 0
 386              		.type	__func__.8784, %object
 387              		.size	__func__.8784, 12
 388              	__func__.8784:
 389 0000 63685379 		.ascii	"chSysUnlock\000"
 389      73556E6C 
 389      6F636B00 
 390              		.section	.rodata.__stack_chk_fail.str1.4,"aMS",%progbits,1
 391              		.align	2
 392              	.LC0:
 393 0000 53746163 		.ascii	"Stack smashing detected\000"
 393      6B20736D 
 393      61736869 
 393      6E672064 
 393      65746563 
ARM GAS  /var/folders/km/q6jdms0143g2bddz5bhvdfd00000gn/T//ccBbBvoU.s 			page 8


 394              		.section	.rodata.gpt12cfg.14898,"a",%progbits
 395              		.align	2
 396              		.set	.LANCHOR1,. + 0
 397              		.type	gpt12cfg.14898, %object
 398              		.size	gpt12cfg.14898, 16
 399              	gpt12cfg.14898:
 400 0000 40420F00 		.word	1000000
 401 0004 00000000 		.word	0
 402 0008 00000000 		.word	0
 403 000c 00000000 		.word	0
 404              		.text
 405              	.Letext0:
 406              		.file 4 "/Applications/Eclipse_e-puck2.app/Contents/Eclipse_e-puck2/Tools/gcc-arm-none-eabi-7-2017
 407              		.file 5 "/Applications/Eclipse_e-puck2.app/Contents/Eclipse_e-puck2/Tools/gcc-arm-none-eabi-7-2017
 408              		.file 6 "/Applications/Eclipse_e-puck2.app/Contents/Eclipse_e-puck2/Tools/gcc-arm-none-eabi-7-2017
 409              		.file 7 "/Applications/Eclipse_e-puck2.app/Contents/Eclipse_e-puck2/Tools/gcc-arm-none-eabi-7-2017
 410              		.file 8 "/Applications/Eclipse_e-puck2.app/Contents/Eclipse_e-puck2/Tools/gcc-arm-none-eabi-7-2017
 411              		.file 9 "/Applications/Eclipse_e-puck2.app/Contents/Eclipse_e-puck2/Tools/gcc-arm-none-eabi-7-2017
 412              		.file 10 "/Applications/Eclipse_e-puck2.app/Contents/Eclipse_e-puck2/Tools/gcc-arm-none-eabi-7-201
 413              		.file 11 "../../lib/e-puck2_main-processor/ChibiOS//os/rt/ports/ARMCMx/compilers/GCC/chtypes.h"
 414              		.file 12 "../../lib/e-puck2_main-processor/ChibiOS//os/rt/include/chsystypes.h"
 415              		.file 13 "../../lib/e-puck2_main-processor/ChibiOS//os/rt/include/chschd.h"
 416              		.file 14 "../../lib/e-puck2_main-processor/ChibiOS//os/ext/CMSIS/include/core_cm4.h"
 417              		.file 15 "../../lib/e-puck2_main-processor/ChibiOS//os/ext/CMSIS/ST/system_stm32f4xx.h"
 418              		.file 16 "../../lib/e-puck2_main-processor/ChibiOS//os/ext/CMSIS/ST/stm32f407xx.h"
 419              		.file 17 "../../lib/e-puck2_main-processor/ChibiOS//os/rt/ports/ARMCMx/chcore.h"
 420              		.file 18 "../../lib/e-puck2_main-processor/ChibiOS//os/rt/ports/ARMCMx/chcore_v7m.h"
 421              		.file 19 "../../lib/e-puck2_main-processor/ChibiOS//os/rt/include/chdebug.h"
 422              		.file 20 "../../lib/e-puck2_main-processor/ChibiOS//os/rt/include/chtm.h"
 423              		.file 21 "../../lib/e-puck2_main-processor/ChibiOS//os/rt/include/chstats.h"
 424              		.file 22 "../../lib/e-puck2_main-processor/ChibiOS//os/rt/include/chsem.h"
 425              		.file 23 "../../lib/e-puck2_main-processor/ChibiOS//os/rt/include/chmtx.h"
 426              		.file 24 "../../lib/e-puck2_main-processor/ChibiOS//os/rt/include/chregistry.h"
 427              		.file 25 "../../lib/e-puck2_main-processor/ChibiOS//os/rt/include/chevents.h"
 428              		.file 26 "../../lib/e-puck2_main-processor/ChibiOS//os/rt/include/chqueues.h"
 429              		.file 27 "../../lib/e-puck2_main-processor/ChibiOS//os/rt/include/chstreams.h"
 430              		.file 28 "../../lib/e-puck2_main-processor/ChibiOS//os/hal/ports/STM32/STM32F4xx/stm32_dma.h"
 431              		.file 29 "../../lib/e-puck2_main-processor/ChibiOS//os/hal/include/hal_ioblock.h"
 432              		.file 30 "../../lib/e-puck2_main-processor/ChibiOS//os/hal/ports/STM32/LLD/GPIOv2/pal_lld.h"
 433              		.file 31 "../../lib/e-puck2_main-processor/ChibiOS//os/hal/include/adc.h"
 434              		.file 32 "../../lib/e-puck2_main-processor/ChibiOS//os/hal/ports/STM32/STM32F4xx/adc_lld.h"
 435              		.file 33 "../../lib/e-puck2_main-processor/ChibiOS//os/hal/include/can.h"
 436              		.file 34 "../../lib/e-puck2_main-processor/ChibiOS//os/hal/ports/STM32/LLD/can_lld.h"
 437              		.file 35 "../../lib/e-puck2_main-processor/ChibiOS//os/hal/include/dac.h"
 438              		.file 36 "../../lib/e-puck2_main-processor/ChibiOS//os/hal/ports/STM32/LLD/DACv1/dac_lld.h"
 439              		.file 37 "../../lib/e-puck2_main-processor/ChibiOS//os/hal/include/ext.h"
 440              		.file 38 "../../lib/e-puck2_main-processor/ChibiOS//os/hal/ports/STM32/LLD/ext_lld.h"
 441              		.file 39 "../../lib/e-puck2_main-processor/ChibiOS//os/hal/include/gpt.h"
 442              		.file 40 "../../lib/e-puck2_main-processor/ChibiOS//os/hal/ports/STM32/LLD/TIMv1/gpt_lld.h"
 443              		.file 41 "../../lib/e-puck2_main-processor/ChibiOS//os/hal/ports/STM32/LLD/TIMv1/stm32_tim.h"
 444              		.file 42 "../../lib/e-puck2_main-processor/ChibiOS//os/hal/include/i2c.h"
 445              		.file 43 "../../lib/e-puck2_main-processor/ChibiOS//os/hal/ports/STM32/LLD/I2Cv1/i2c_lld.h"
 446              		.file 44 "../../lib/e-puck2_main-processor/ChibiOS//os/hal/include/i2s.h"
 447              		.file 45 "../../lib/e-puck2_main-processor/ChibiOS//os/hal/ports/STM32/LLD/SPIv1/i2s_lld.h"
 448              		.file 46 "../../lib/e-puck2_main-processor/ChibiOS//os/hal/include/pwm.h"
 449              		.file 47 "../../lib/e-puck2_main-processor/ChibiOS//os/hal/ports/STM32/LLD/TIMv1/pwm_lld.h"
 450              		.file 48 "../../lib/e-puck2_main-processor/ChibiOS//os/hal/include/serial.h"
ARM GAS  /var/folders/km/q6jdms0143g2bddz5bhvdfd00000gn/T//ccBbBvoU.s 			page 9


 451              		.file 49 "../../lib/e-puck2_main-processor/ChibiOS//os/hal/ports/STM32/LLD/USARTv1/serial_lld.h"
 452              		.file 50 "../../lib/e-puck2_main-processor/ChibiOS//os/hal/include/sdc.h"
 453              		.file 51 "../../lib/e-puck2_main-processor/ChibiOS//os/hal/ports/STM32/LLD/sdc_lld.h"
 454              		.file 52 "../../lib/e-puck2_main-processor/ChibiOS//os/hal/include/spi.h"
 455              		.file 53 "../../lib/e-puck2_main-processor/ChibiOS//os/hal/ports/STM32/LLD/SPIv1/spi_lld.h"
 456              		.file 54 "../../lib/e-puck2_main-processor/ChibiOS//os/hal/include/usb.h"
 457              		.file 55 "../../lib/e-puck2_main-processor/ChibiOS//os/hal/ports/STM32/LLD/OTGv1/usb_lld.h"
 458              		.file 56 "../../lib/e-puck2_main-processor/ChibiOS//os/hal/ports/STM32/LLD/OTGv1/stm32_otg.h"
 459              		.file 57 "../../lib/e-puck2_main-processor/ChibiOS//os/hal/include/serial_usb.h"
 460              		.file 58 "../../lib/e-puck2_main-processor/src/usbcfg.h"
 461              		.file 59 "../../lib/e-puck2_main-processor/ChibiOS_ext/os/hal/include/../ports/STM32/STM32F4xx/dcm
 462              		.file 60 "/Applications/Eclipse_e-puck2.app/Contents/Eclipse_e-puck2/Tools/gcc-arm-none-eabi-7-201
 463              		.file 61 "../../lib/e-puck2_main-processor/src/msgbus/messagebus.h"
 464              		.file 62 "../../lib/e-puck2_main-processor/src/parameter/parameter.h"
 465              		.file 63 "./main.h"
 466              		.file 64 "./audio_processing.h"
 467              		.file 65 "./fft.h"
 468              		.file 66 "/Applications/Eclipse_e-puck2.app/Contents/Eclipse_e-puck2/Tools/gcc-arm-none-eabi-7-201
 469              		.file 67 "./communications.h"
 470              		.file 68 "../../lib/e-puck2_main-processor/ChibiOS//os/ext/CMSIS/include/arm_math.h"
 471              		.file 69 "../../lib/e-puck2_main-processor/ChibiOS//os/hal/include/hal.h"
 472              		.file 70 "../../lib/e-puck2_main-processor/src/memory_protection.h"
 473              		.file 71 "../../lib/e-puck2_main-processor/src/motors.h"