ARM GAS  /var/folders/km/q6jdms0143g2bddz5bhvdfd00000gn/T//ccvUr3AS.s 			page 1


   1              		.cpu cortex-m4
   2              		.eabi_attribute 27, 1
   3              		.eabi_attribute 28, 1
   4              		.eabi_attribute 20, 1
   5              		.eabi_attribute 21, 1
   6              		.eabi_attribute 23, 3
   7              		.eabi_attribute 24, 1
   8              		.eabi_attribute 25, 1
   9              		.eabi_attribute 26, 1
  10              		.eabi_attribute 30, 2
  11              		.eabi_attribute 34, 1
  12              		.eabi_attribute 18, 4
  13              		.file	"audio_processing.c"
  14              		.text
  15              	.Ltext0:
  16              		.cfi_sections	.debug_frame
  17              		.section	.text.processAudioData,"ax",%progbits
  18              		.align	1
  19              		.p2align 4,,15
  20              		.global	processAudioData
  21              		.syntax unified
  22              		.thumb
  23              		.thumb_func
  24              		.fpu fpv4-sp-d16
  25              		.type	processAudioData, %function
  26              	processAudioData:
  27              	.LFB290:
  28              		.file 1 "audio_processing.c"
  29              		.loc 1 37 0
  30              		.cfi_startproc
  31              		@ args = 0, pretend = 0, frame = 8
  32              		@ frame_needed = 0, uses_anonymous_args = 0
  33              	.LVL0:
  34 0000 2DE9F04F 		push	{r4, r5, r6, r7, r8, r9, r10, fp, lr}
  35              		.cfi_def_cfa_offset 36
  36              		.cfi_offset 4, -36
  37              		.cfi_offset 5, -32
  38              		.cfi_offset 6, -28
  39              		.cfi_offset 7, -24
  40              		.cfi_offset 8, -20
  41              		.cfi_offset 9, -16
  42              		.cfi_offset 10, -12
  43              		.cfi_offset 11, -8
  44              		.cfi_offset 14, -4
  45              	.LBB7:
  46              		.loc 1 51 0
  47 0004 DFF8F880 		ldr	r8, .L12+16
  48              	.LBE7:
  49              		.loc 1 37 0
  50 0008 394F     		ldr	r7, .L12
  51              	.LBB8:
  52              		.loc 1 51 0
  53 000a D8F80090 		ldr	r9, [r8]
  54 000e 394E     		ldr	r6, .L12+4
  55              	.LBE8:
  56              		.loc 1 37 0
  57 0010 3B68     		ldr	r3, [r7]
ARM GAS  /var/folders/km/q6jdms0143g2bddz5bhvdfd00000gn/T//ccvUr3AS.s 			page 2


  58              	.LBB9:
  59              		.loc 1 55 0
  60 0012 DFF8F0E0 		ldr	lr, .L12+20
  61              		.loc 1 57 0
  62 0016 DFF8F0C0 		ldr	ip, .L12+24
  63              		.loc 1 59 0
  64 001a DFF8F0A0 		ldr	r10, .L12+28
  65              	.LBE9:
  66              		.loc 1 37 0
  67 001e 83B0     		sub	sp, sp, #12
  68              		.cfi_def_cfa_offset 48
  69              	.LBB10:
  70              		.loc 1 54 0
  71 0020 09EB8904 		add	r4, r9, r9, lsl #2
  72              	.LBE10:
  73              		.loc 1 37 0
  74 0024 0193     		str	r3, [sp, #4]
  75              	.LVL1:
  76 0026 06F5A065 		add	r5, r6, #1280
  77 002a E301     		lsls	r3, r4, #7
  78              	.LBB11:
  79              		.loc 1 54 0
  80 002c 4FF0000B 		mov	fp, #0
  81 0030 C0EB4414 		rsb	r4, r0, r4, lsl #5
  82 0034 F218     		adds	r2, r6, r3
  83 0036 1D44     		add	r5, r5, r3
  84              	.LVL2:
  85              	.L3:
  86              		.loc 1 51 0
  87 0038 0119     		adds	r1, r0, r4
  88 003a B1F5806F 		cmp	r1, #1024
  89 003e 28DA     		bge	.L2
  90              		.loc 1 53 0
  91 0040 B0F90010 		ldrsh	r1, [r0]
  92 0044 07EE901A 		vmov	s15, r1	@ int
  93 0048 F8EEE77A 		vcvt.f32.s32	s15, s15
  94 004c F118     		adds	r1, r6, r3
  95 004e C1ED007A 		vstr.32	s15, [r1]
  96              		.loc 1 54 0
  97 0052 C2F804B0 		str	fp, [r2, #4]	@ float
  98              		.loc 1 55 0
  99 0056 B0F90210 		ldrsh	r1, [r0, #2]
 100 005a 07EE901A 		vmov	s15, r1	@ int
 101 005e F8EEE77A 		vcvt.f32.s32	s15, s15
 102 0062 03EB0E01 		add	r1, r3, lr
 103 0066 C1ED007A 		vstr.32	s15, [r1]
 104              		.loc 1 57 0
 105 006a B0F90410 		ldrsh	r1, [r0, #4]
 106 006e 07EE901A 		vmov	s15, r1	@ int
 107 0072 F8EEE77A 		vcvt.f32.s32	s15, s15
 108 0076 03EB0C01 		add	r1, r3, ip
 109 007a C1ED007A 		vstr.32	s15, [r1]
 110              		.loc 1 59 0
 111 007e B0F90610 		ldrsh	r1, [r0, #6]
 112 0082 07EE901A 		vmov	s15, r1	@ int
 113 0086 F8EEE77A 		vcvt.f32.s32	s15, s15
 114 008a 03EB0A01 		add	r1, r3, r10
ARM GAS  /var/folders/km/q6jdms0143g2bddz5bhvdfd00000gn/T//ccvUr3AS.s 			page 3


 115 008e C1ED007A 		vstr.32	s15, [r1]
 116              	.L2:
 117 0092 2032     		adds	r2, r2, #32
 118              		.loc 1 50 0 discriminator 2
 119 0094 AA42     		cmp	r2, r5
 120 0096 00F10800 		add	r0, r0, #8
 121 009a 03F12003 		add	r3, r3, #32
 122 009e CBD1     		bne	.L3
 123              	.LBE11:
 124              		.loc 1 63 0
 125 00a0 09F10103 		add	r3, r9, #1
 126              		.loc 1 64 0
 127 00a4 072B     		cmp	r3, #7
 128 00a6 08D0     		beq	.L4
 129              		.loc 1 72 0
 130 00a8 0199     		ldr	r1, [sp, #4]
 131 00aa 3A68     		ldr	r2, [r7]
 132              		.loc 1 63 0
 133 00ac C8F80030 		str	r3, [r8]
 134              		.loc 1 72 0
 135 00b0 9142     		cmp	r1, r2
 136 00b2 1AD1     		bne	.L9
 137 00b4 03B0     		add	sp, sp, #12
 138              		.cfi_remember_state
 139              		.cfi_def_cfa_offset 36
 140              		@ sp needed
 141 00b6 BDE8F08F 		pop	{r4, r5, r6, r7, r8, r9, r10, fp, pc}
 142              	.L4:
 143              		.cfi_restore_state
 144              		.loc 1 65 0
 145 00ba 0023     		movs	r3, #0
 146              		.loc 1 66 0
 147 00bc 0D49     		ldr	r1, .L12+4
 148              		.loc 1 65 0
 149 00be C8F80030 		str	r3, [r8]
 150              		.loc 1 66 0
 151 00c2 4FF40060 		mov	r0, #2048
 152 00c6 FFF7FEFF 		bl	doFFT_optimized
 153              	.LVL3:
 154              		.loc 1 67 0
 155 00ca 4FF48062 		mov	r2, #1024
 156 00ce 0A49     		ldr	r1, .L12+8
 157 00d0 0848     		ldr	r0, .L12+4
 158 00d2 FFF7FEFF 		bl	arm_cmplx_mag_f32
 159              	.LVL4:
 160              	.LBB12:
 161              	.LBB13:
 162              		.file 2 "../../lib/e-puck2_main-processor/ChibiOS//os/rt/include/chbsem.h"
 163              		.loc 2 143 0
 164 00d6 019A     		ldr	r2, [sp, #4]
 165 00d8 3B68     		ldr	r3, [r7]
 166 00da 9A42     		cmp	r2, r3
 167 00dc 05D1     		bne	.L9
 168 00de 0748     		ldr	r0, .L12+12
 169              	.LBE13:
 170              	.LBE12:
 171              		.loc 1 72 0
ARM GAS  /var/folders/km/q6jdms0143g2bddz5bhvdfd00000gn/T//ccvUr3AS.s 			page 4


 172 00e0 03B0     		add	sp, sp, #12
 173              		.cfi_remember_state
 174              		.cfi_def_cfa_offset 36
 175              		@ sp needed
 176 00e2 BDE8F04F 		pop	{r4, r5, r6, r7, r8, r9, r10, fp, lr}
 177              		.cfi_restore 14
 178              		.cfi_restore 11
 179              		.cfi_restore 10
 180              		.cfi_restore 9
 181              		.cfi_restore 8
 182              		.cfi_restore 7
 183              		.cfi_restore 6
 184              		.cfi_restore 5
 185              		.cfi_restore 4
 186              		.cfi_def_cfa_offset 0
 187              	.LBB15:
 188              	.LBB14:
 189              		.loc 2 143 0
 190 00e6 FFF7FEBF 		b	chSemWait
 191              	.LVL5:
 192              	.L9:
 193              		.cfi_restore_state
 194              	.LBE14:
 195              	.LBE15:
 196              		.loc 1 72 0
 197 00ea FFF7FEFF 		bl	__stack_chk_fail
 198              	.LVL6:
 199              	.L13:
 200 00ee 00BF     		.align	2
 201              	.L12:
 202 00f0 00000000 		.word	__stack_chk_guard
 203 00f4 00000000 		.word	micRight_cmplx_input
 204 00f8 00000000 		.word	micRight_output
 205 00fc 00000000 		.word	.LANCHOR1
 206 0100 00000000 		.word	.LANCHOR0
 207 0104 00000000 		.word	micLeft_cmplx_input
 208 0108 00000000 		.word	micFront_cmplx_input
 209 010c 00000000 		.word	micBack_cmplx_input
 210              		.cfi_endproc
 211              	.LFE290:
 212              		.size	processAudioData, .-processAudioData
 213              		.section	.text.wait_send_to_computer,"ax",%progbits
 214              		.align	1
 215              		.p2align 4,,15
 216              		.global	wait_send_to_computer
 217              		.syntax unified
 218              		.thumb
 219              		.thumb_func
 220              		.fpu fpv4-sp-d16
 221              		.type	wait_send_to_computer, %function
 222              	wait_send_to_computer:
 223              	.LFB291:
 224              		.loc 1 75 0
 225              		.cfi_startproc
 226              		@ args = 0, pretend = 0, frame = 8
 227              		@ frame_needed = 0, uses_anonymous_args = 0
 228 0000 00B5     		push	{lr}
ARM GAS  /var/folders/km/q6jdms0143g2bddz5bhvdfd00000gn/T//ccvUr3AS.s 			page 5


 229              		.cfi_def_cfa_offset 4
 230              		.cfi_offset 14, -4
 231 0002 084B     		ldr	r3, .L19
 232 0004 83B0     		sub	sp, sp, #12
 233              		.cfi_def_cfa_offset 16
 234              		.loc 1 75 0
 235 0006 1A68     		ldr	r2, [r3]
 236 0008 0192     		str	r2, [sp, #4]
 237              	.LVL7:
 238              	.LBB16:
 239              	.LBB17:
 240              		.loc 2 143 0
 241 000a 019A     		ldr	r2, [sp, #4]
 242 000c 1B68     		ldr	r3, [r3]
 243 000e 9A42     		cmp	r2, r3
 244 0010 05D1     		bne	.L18
 245 0012 0548     		ldr	r0, .L19+4
 246              	.LBE17:
 247              	.LBE16:
 248              		.loc 1 77 0
 249 0014 03B0     		add	sp, sp, #12
 250              		.cfi_remember_state
 251              		.cfi_def_cfa_offset 4
 252              		@ sp needed
 253 0016 5DF804EB 		ldr	lr, [sp], #4
 254              		.cfi_restore 14
 255              		.cfi_def_cfa_offset 0
 256              	.LBB19:
 257              	.LBB18:
 258              		.loc 2 143 0
 259 001a FFF7FEBF 		b	chSemWait
 260              	.LVL8:
 261              	.L18:
 262              		.cfi_restore_state
 263 001e FFF7FEFF 		bl	__stack_chk_fail
 264              	.LVL9:
 265              	.L20:
 266 0022 00BF     		.align	2
 267              	.L19:
 268 0024 00000000 		.word	__stack_chk_guard
 269 0028 00000000 		.word	.LANCHOR1
 270              	.LBE18:
 271              	.LBE19:
 272              		.cfi_endproc
 273              	.LFE291:
 274              		.size	wait_send_to_computer, .-wait_send_to_computer
 275              		.section	.text.get_audio_buffer_ptr,"ax",%progbits
 276              		.align	1
 277              		.p2align 4,,15
 278              		.global	get_audio_buffer_ptr
 279              		.syntax unified
 280              		.thumb
 281              		.thumb_func
 282              		.fpu fpv4-sp-d16
 283              		.type	get_audio_buffer_ptr, %function
 284              	get_audio_buffer_ptr:
 285              	.LFB292:
ARM GAS  /var/folders/km/q6jdms0143g2bddz5bhvdfd00000gn/T//ccvUr3AS.s 			page 6


 286              		.loc 1 79 0
 287              		.cfi_startproc
 288              		@ args = 0, pretend = 0, frame = 8
 289              		@ frame_needed = 0, uses_anonymous_args = 0
 290              	.LVL10:
 291 0000 00B5     		push	{lr}
 292              		.cfi_def_cfa_offset 4
 293              		.cfi_offset 14, -4
 294 0002 164B     		ldr	r3, .L34
 295 0004 83B0     		sub	sp, sp, #12
 296              		.cfi_def_cfa_offset 16
 297              		.loc 1 79 0
 298 0006 1A68     		ldr	r2, [r3]
 299 0008 0192     		str	r2, [sp, #4]
 300              		.loc 1 80 0
 301 000a 88B1     		cbz	r0, .L24
 302              		.loc 1 83 0
 303 000c 0128     		cmp	r0, #1
 304 000e 17D0     		beq	.L25
 305              		.loc 1 86 0
 306 0010 0228     		cmp	r0, #2
 307 0012 19D0     		beq	.L26
 308              		.loc 1 89 0
 309 0014 0328     		cmp	r0, #3
 310 0016 15D0     		beq	.L27
 311              		.loc 1 92 0
 312 0018 0428     		cmp	r0, #4
 313 001a 17D0     		beq	.L28
 314              		.loc 1 95 0
 315 001c 0528     		cmp	r0, #5
 316 001e 17D0     		beq	.L29
 317              		.loc 1 98 0
 318 0020 0628     		cmp	r0, #6
 319 0022 17D0     		beq	.L30
 320              		.loc 1 105 0
 321 0024 0E4A     		ldr	r2, .L34+4
 322              		.loc 1 101 0
 323 0026 0728     		cmp	r0, #7
 324              		.loc 1 105 0
 325 0028 0CBF     		ite	eq
 326 002a 1046     		moveq	r0, r2
 327              	.LVL11:
 328 002c 0020     		movne	r0, #0
 329 002e 00E0     		b	.L21
 330              	.LVL12:
 331              	.L24:
 332              		.loc 1 81 0
 333 0030 0C48     		ldr	r0, .L34+8
 334              	.LVL13:
 335              	.L21:
 336              		.loc 1 107 0
 337 0032 019A     		ldr	r2, [sp, #4]
 338 0034 1B68     		ldr	r3, [r3]
 339 0036 9A42     		cmp	r2, r3
 340 0038 0ED1     		bne	.L33
 341 003a 03B0     		add	sp, sp, #12
 342              		.cfi_remember_state
ARM GAS  /var/folders/km/q6jdms0143g2bddz5bhvdfd00000gn/T//ccvUr3AS.s 			page 7


 343              		.cfi_def_cfa_offset 4
 344              		@ sp needed
 345 003c 5DF804FB 		ldr	pc, [sp], #4
 346              	.LVL14:
 347              	.L25:
 348              		.cfi_restore_state
 349              		.loc 1 84 0
 350 0040 0948     		ldr	r0, .L34+12
 351              	.LVL15:
 352 0042 F6E7     		b	.L21
 353              	.LVL16:
 354              	.L27:
 355              		.loc 1 90 0
 356 0044 0948     		ldr	r0, .L34+16
 357              	.LVL17:
 358 0046 F4E7     		b	.L21
 359              	.LVL18:
 360              	.L26:
 361              		.loc 1 87 0
 362 0048 0948     		ldr	r0, .L34+20
 363              	.LVL19:
 364 004a F2E7     		b	.L21
 365              	.LVL20:
 366              	.L28:
 367              		.loc 1 93 0
 368 004c 0948     		ldr	r0, .L34+24
 369              	.LVL21:
 370 004e F0E7     		b	.L21
 371              	.LVL22:
 372              	.L29:
 373              		.loc 1 96 0
 374 0050 0948     		ldr	r0, .L34+28
 375              	.LVL23:
 376 0052 EEE7     		b	.L21
 377              	.LVL24:
 378              	.L30:
 379              		.loc 1 99 0
 380 0054 0948     		ldr	r0, .L34+32
 381              	.LVL25:
 382 0056 ECE7     		b	.L21
 383              	.L33:
 384              		.loc 1 107 0
 385 0058 FFF7FEFF 		bl	__stack_chk_fail
 386              	.LVL26:
 387              	.L35:
 388              		.align	2
 389              	.L34:
 390 005c 00000000 		.word	__stack_chk_guard
 391 0060 00000000 		.word	micBack_output
 392 0064 00000000 		.word	micLeft_cmplx_input
 393 0068 00000000 		.word	micRight_cmplx_input
 394 006c 00000000 		.word	micBack_cmplx_input
 395 0070 00000000 		.word	micFront_cmplx_input
 396 0074 00000000 		.word	micLeft_output
 397 0078 00000000 		.word	micRight_output
 398 007c 00000000 		.word	micFront_output
 399              		.cfi_endproc
ARM GAS  /var/folders/km/q6jdms0143g2bddz5bhvdfd00000gn/T//ccvUr3AS.s 			page 8


 400              	.LFE292:
 401              		.size	get_audio_buffer_ptr, .-get_audio_buffer_ptr
 402              		.section	.bss.j.14163,"aw",%nobits
 403              		.align	2
 404              		.set	.LANCHOR0,. + 0
 405              		.type	j.14163, %object
 406              		.size	j.14163, 4
 407              	j.14163:
 408 0000 00000000 		.space	4
 409              		.section	.bss.micBack_cmplx_input,"aw",%nobits
 410              		.align	2
 411              		.type	micBack_cmplx_input, %object
 412              		.size	micBack_cmplx_input, 8192
 413              	micBack_cmplx_input:
 414 0000 00000000 		.space	8192
 414      00000000 
 414      00000000 
 414      00000000 
 414      00000000 
 415              		.section	.bss.micBack_output,"aw",%nobits
 416              		.align	2
 417              		.type	micBack_output, %object
 418              		.size	micBack_output, 4096
 419              	micBack_output:
 420 0000 00000000 		.space	4096
 420      00000000 
 420      00000000 
 420      00000000 
 420      00000000 
 421              		.section	.bss.micFront_cmplx_input,"aw",%nobits
 422              		.align	2
 423              		.type	micFront_cmplx_input, %object
 424              		.size	micFront_cmplx_input, 8192
 425              	micFront_cmplx_input:
 426 0000 00000000 		.space	8192
 426      00000000 
 426      00000000 
 426      00000000 
 426      00000000 
 427              		.section	.bss.micFront_output,"aw",%nobits
 428              		.align	2
 429              		.type	micFront_output, %object
 430              		.size	micFront_output, 4096
 431              	micFront_output:
 432 0000 00000000 		.space	4096
 432      00000000 
 432      00000000 
 432      00000000 
 432      00000000 
 433              		.section	.bss.micLeft_cmplx_input,"aw",%nobits
 434              		.align	2
 435              		.type	micLeft_cmplx_input, %object
 436              		.size	micLeft_cmplx_input, 8192
 437              	micLeft_cmplx_input:
 438 0000 00000000 		.space	8192
 438      00000000 
 438      00000000 
ARM GAS  /var/folders/km/q6jdms0143g2bddz5bhvdfd00000gn/T//ccvUr3AS.s 			page 9


 438      00000000 
 438      00000000 
 439              		.section	.bss.micLeft_output,"aw",%nobits
 440              		.align	2
 441              		.type	micLeft_output, %object
 442              		.size	micLeft_output, 4096
 443              	micLeft_output:
 444 0000 00000000 		.space	4096
 444      00000000 
 444      00000000 
 444      00000000 
 444      00000000 
 445              		.section	.bss.micRight_cmplx_input,"aw",%nobits
 446              		.align	2
 447              		.type	micRight_cmplx_input, %object
 448              		.size	micRight_cmplx_input, 8192
 449              	micRight_cmplx_input:
 450 0000 00000000 		.space	8192
 450      00000000 
 450      00000000 
 450      00000000 
 450      00000000 
 451              		.section	.bss.micRight_output,"aw",%nobits
 452              		.align	2
 453              		.type	micRight_output, %object
 454              		.size	micRight_output, 4096
 455              	micRight_output:
 456 0000 00000000 		.space	4096
 456      00000000 
 456      00000000 
 456      00000000 
 456      00000000 
 457              		.section	.data.sendToComputer_sem,"aw",%progbits
 458              		.align	2
 459              		.set	.LANCHOR1,. + 0
 460              		.type	sendToComputer_sem, %object
 461              		.size	sendToComputer_sem, 12
 462              	sendToComputer_sem:
 463 0000 00000000 		.word	sendToComputer_sem
 464 0004 00000000 		.word	sendToComputer_sem
 465 0008 00000000 		.word	0
 466              		.text
 467              	.Letext0:
 468              		.file 3 "/Applications/Eclipse_e-puck2.app/Contents/Eclipse_e-puck2/Tools/gcc-arm-none-eabi-7-2017
 469              		.file 4 "/Applications/Eclipse_e-puck2.app/Contents/Eclipse_e-puck2/Tools/gcc-arm-none-eabi-7-2017
 470              		.file 5 "/Applications/Eclipse_e-puck2.app/Contents/Eclipse_e-puck2/Tools/gcc-arm-none-eabi-7-2017
 471              		.file 6 "../../lib/e-puck2_main-processor/ChibiOS//os/rt/ports/ARMCMx/compilers/GCC/chtypes.h"
 472              		.file 7 "../../lib/e-puck2_main-processor/ChibiOS//os/rt/include/chsystypes.h"
 473              		.file 8 "../../lib/e-puck2_main-processor/ChibiOS//os/rt/include/chschd.h"
 474              		.file 9 "../../lib/e-puck2_main-processor/ChibiOS//os/ext/CMSIS/include/core_cm4.h"
 475              		.file 10 "../../lib/e-puck2_main-processor/ChibiOS//os/ext/CMSIS/ST/system_stm32f4xx.h"
 476              		.file 11 "../../lib/e-puck2_main-processor/ChibiOS//os/ext/CMSIS/ST/stm32f407xx.h"
 477              		.file 12 "../../lib/e-puck2_main-processor/ChibiOS//os/rt/ports/ARMCMx/chcore.h"
 478              		.file 13 "../../lib/e-puck2_main-processor/ChibiOS//os/rt/ports/ARMCMx/chcore_v7m.h"
 479              		.file 14 "../../lib/e-puck2_main-processor/ChibiOS//os/rt/include/chdebug.h"
 480              		.file 15 "../../lib/e-puck2_main-processor/ChibiOS//os/rt/include/chtm.h"
 481              		.file 16 "../../lib/e-puck2_main-processor/ChibiOS//os/rt/include/chstats.h"
ARM GAS  /var/folders/km/q6jdms0143g2bddz5bhvdfd00000gn/T//ccvUr3AS.s 			page 10


 482              		.file 17 "../../lib/e-puck2_main-processor/ChibiOS//os/rt/include/chsem.h"
 483              		.file 18 "../../lib/e-puck2_main-processor/ChibiOS//os/rt/include/chmtx.h"
 484              		.file 19 "../../lib/e-puck2_main-processor/ChibiOS//os/rt/include/chregistry.h"
 485              		.file 20 "../../lib/e-puck2_main-processor/ChibiOS//os/rt/include/chevents.h"
 486              		.file 21 "../../lib/e-puck2_main-processor/ChibiOS//os/rt/include/chqueues.h"
 487              		.file 22 "../../lib/e-puck2_main-processor/ChibiOS//os/hal/ports/STM32/STM32F4xx/stm32_dma.h"
 488              		.file 23 "../../lib/e-puck2_main-processor/ChibiOS//os/hal/include/hal_ioblock.h"
 489              		.file 24 "../../lib/e-puck2_main-processor/ChibiOS//os/hal/ports/STM32/LLD/GPIOv2/pal_lld.h"
 490              		.file 25 "../../lib/e-puck2_main-processor/ChibiOS//os/hal/include/adc.h"
 491              		.file 26 "../../lib/e-puck2_main-processor/ChibiOS//os/hal/ports/STM32/STM32F4xx/adc_lld.h"
 492              		.file 27 "../../lib/e-puck2_main-processor/ChibiOS//os/hal/include/can.h"
 493              		.file 28 "../../lib/e-puck2_main-processor/ChibiOS//os/hal/ports/STM32/LLD/can_lld.h"
 494              		.file 29 "../../lib/e-puck2_main-processor/ChibiOS//os/hal/include/dac.h"
 495              		.file 30 "../../lib/e-puck2_main-processor/ChibiOS//os/hal/ports/STM32/LLD/DACv1/dac_lld.h"
 496              		.file 31 "../../lib/e-puck2_main-processor/ChibiOS//os/hal/include/ext.h"
 497              		.file 32 "../../lib/e-puck2_main-processor/ChibiOS//os/hal/ports/STM32/LLD/ext_lld.h"
 498              		.file 33 "../../lib/e-puck2_main-processor/ChibiOS//os/hal/include/gpt.h"
 499              		.file 34 "../../lib/e-puck2_main-processor/ChibiOS//os/hal/ports/STM32/LLD/TIMv1/gpt_lld.h"
 500              		.file 35 "../../lib/e-puck2_main-processor/ChibiOS//os/hal/ports/STM32/LLD/TIMv1/stm32_tim.h"
 501              		.file 36 "../../lib/e-puck2_main-processor/ChibiOS//os/hal/include/i2c.h"
 502              		.file 37 "../../lib/e-puck2_main-processor/ChibiOS//os/hal/ports/STM32/LLD/I2Cv1/i2c_lld.h"
 503              		.file 38 "../../lib/e-puck2_main-processor/ChibiOS//os/hal/include/i2s.h"
 504              		.file 39 "../../lib/e-puck2_main-processor/ChibiOS//os/hal/ports/STM32/LLD/SPIv1/i2s_lld.h"
 505              		.file 40 "../../lib/e-puck2_main-processor/ChibiOS//os/hal/include/pwm.h"
 506              		.file 41 "../../lib/e-puck2_main-processor/ChibiOS//os/hal/ports/STM32/LLD/TIMv1/pwm_lld.h"
 507              		.file 42 "../../lib/e-puck2_main-processor/ChibiOS//os/hal/include/serial.h"
 508              		.file 43 "../../lib/e-puck2_main-processor/ChibiOS//os/hal/ports/STM32/LLD/USARTv1/serial_lld.h"
 509              		.file 44 "../../lib/e-puck2_main-processor/ChibiOS//os/hal/include/sdc.h"
 510              		.file 45 "../../lib/e-puck2_main-processor/ChibiOS//os/hal/ports/STM32/LLD/sdc_lld.h"
 511              		.file 46 "../../lib/e-puck2_main-processor/ChibiOS//os/hal/include/spi.h"
 512              		.file 47 "../../lib/e-puck2_main-processor/ChibiOS//os/hal/ports/STM32/LLD/SPIv1/spi_lld.h"
 513              		.file 48 "../../lib/e-puck2_main-processor/ChibiOS//os/hal/include/usb.h"
 514              		.file 49 "../../lib/e-puck2_main-processor/ChibiOS//os/hal/ports/STM32/LLD/OTGv1/usb_lld.h"
 515              		.file 50 "../../lib/e-puck2_main-processor/ChibiOS//os/hal/ports/STM32/LLD/OTGv1/stm32_otg.h"
 516              		.file 51 "../../lib/e-puck2_main-processor/ChibiOS//os/hal/include/serial_usb.h"
 517              		.file 52 "../../lib/e-puck2_main-processor/ChibiOS_ext/os/hal/include/../ports/STM32/STM32F4xx/dcm
 518              		.file 53 "/Applications/Eclipse_e-puck2.app/Contents/Eclipse_e-puck2/Tools/gcc-arm-none-eabi-7-201
 519              		.file 54 "/Applications/Eclipse_e-puck2.app/Contents/Eclipse_e-puck2/Tools/gcc-arm-none-eabi-7-201
 520              		.file 55 "/Applications/Eclipse_e-puck2.app/Contents/Eclipse_e-puck2/Tools/gcc-arm-none-eabi-7-201
 521              		.file 56 "../../lib/e-puck2_main-processor/src/msgbus/messagebus.h"
 522              		.file 57 "/Applications/Eclipse_e-puck2.app/Contents/Eclipse_e-puck2/Tools/gcc-arm-none-eabi-7-201
 523              		.file 58 "/Applications/Eclipse_e-puck2.app/Contents/Eclipse_e-puck2/Tools/gcc-arm-none-eabi-7-201
 524              		.file 59 "../../lib/e-puck2_main-processor/src/parameter/parameter.h"
 525              		.file 60 "./main.h"
 526              		.file 61 "../../lib/e-puck2_main-processor/src/usbcfg.h"
 527              		.file 62 "./audio_processing.h"
 528              		.file 63 "/Applications/Eclipse_e-puck2.app/Contents/Eclipse_e-puck2/Tools/gcc-arm-none-eabi-7-201
 529              		.file 64 "./fft.h"
 530              		.file 65 "../../lib/e-puck2_main-processor/ChibiOS//os/ext/CMSIS/include/arm_math.h"