ARM GAS  /var/folders/km/q6jdms0143g2bddz5bhvdfd00000gn/T//ccb7VrQI.s 			page 1


   1              		.cpu cortex-m4
   2              		.eabi_attribute 27, 1
   3              		.eabi_attribute 28, 1
   4              		.eabi_attribute 20, 1
   5              		.eabi_attribute 21, 1
   6              		.eabi_attribute 23, 3
   7              		.eabi_attribute 24, 1
   8              		.eabi_attribute 25, 1
   9              		.eabi_attribute 26, 1
  10              		.eabi_attribute 30, 2
  11              		.eabi_attribute 34, 1
  12              		.eabi_attribute 18, 4
  13              		.file	"process_image.c"
  14              		.text
  15              	.Ltext0:
  16              		.cfi_sections	.debug_frame
  17              		.section	.text.ProcessImage,"ax",%progbits
  18              		.align	1
  19              		.p2align 4,,15
  20              		.syntax unified
  21              		.thumb
  22              		.thumb_func
  23              		.fpu fpv4-sp-d16
  24              		.type	ProcessImage, %function
  25              	ProcessImage:
  26              	.LFB258:
  27              		.file 1 "process_image.c"
  28              		.loc 1 61 0
  29              		.cfi_startproc
  30              		@ args = 0, pretend = 0, frame = 648
  31              		@ frame_needed = 0, uses_anonymous_args = 0
  32              	.LVL0:
  33 0000 30B5     		push	{r4, r5, lr}
  34              		.cfi_def_cfa_offset 12
  35              		.cfi_offset 4, -12
  36              		.cfi_offset 5, -8
  37              		.cfi_offset 14, -4
  38              	.LBB51:
  39              	.LBB52:
  40              		.file 2 "../../lib/e-puck2_main-processor/ChibiOS//os/rt/include/chregistry.h"
  41              		.loc 2 135 0
  42 0002 134A     		ldr	r2, .L8
  43              	.LBE52:
  44              	.LBE51:
  45              		.loc 1 61 0
  46 0004 134B     		ldr	r3, .L8+4
  47              	.LBB54:
  48              	.LBB53:
  49              		.loc 2 135 0
  50 0006 9269     		ldr	r2, [r2, #24]
  51 0008 1349     		ldr	r1, .L8+8
  52 000a 9161     		str	r1, [r2, #24]
  53              	.LBE53:
  54              	.LBE54:
  55              		.loc 1 61 0
  56 000c ADF5237D 		sub	sp, sp, #652
  57              		.cfi_def_cfa_offset 664
ARM GAS  /var/folders/km/q6jdms0143g2bddz5bhvdfd00000gn/T//ccb7VrQI.s 			page 2


  58              		.loc 1 67 0
  59 0010 01AC     		add	r4, sp, #4
  60              		.loc 1 61 0
  61 0012 1B68     		ldr	r3, [r3]
  62 0014 A193     		str	r3, [sp, #644]
  63              		.loc 1 67 0
  64 0016 2046     		mov	r0, r4
  65              	.LVL1:
  66 0018 4FF42072 		mov	r2, #640
  67 001c 0021     		movs	r1, #0
  68 001e FFF7FEFF 		bl	memset
  69              	.LVL2:
  70              	.LBB55:
  71              	.LBB56:
  72              		.file 3 "../../lib/e-puck2_main-processor/ChibiOS//os/rt/include/chbsem.h"
  73              		.loc 3 143 0
  74 0022 0E4D     		ldr	r5, .L8+12
  75              	.L3:
  76              	.LVL3:
  77 0024 2846     		mov	r0, r5
  78 0026 FFF7FEFF 		bl	chSemWait
  79              	.LVL4:
  80              	.LBE56:
  81              	.LBE55:
  82              		.loc 1 73 0
  83 002a FFF7FEFF 		bl	dcmi_get_last_image_ptr
  84              	.LVL5:
  85              	.LBB57:
  86              		.loc 1 75 0
  87 002e 0023     		movs	r3, #0
  88              	.LVL6:
  89              	.L2:
  90              		.loc 1 76 0 discriminator 3
  91 0030 C218     		adds	r2, r0, r3
  92 0032 5910     		asrs	r1, r3, #1
  93 0034 5278     		ldrb	r2, [r2, #1]	@ zero_extendqisi2
  94              		.loc 1 75 0 discriminator 3
  95 0036 0233     		adds	r3, r3, #2
  96              	.LVL7:
  97              		.loc 1 76 0 discriminator 3
  98 0038 02F01F02 		and	r2, r2, #31
  99              		.loc 1 75 0 discriminator 3
 100 003c B3F5A06F 		cmp	r3, #1280
 101              		.loc 1 76 0 discriminator 3
 102 0040 6254     		strb	r2, [r4, r1]
 103              		.loc 1 75 0 discriminator 3
 104 0042 F5D1     		bne	.L2
 105              	.LBE57:
 106              		.loc 1 79 0
 107 0044 4FF42071 		mov	r1, #640
 108 0048 2046     		mov	r0, r4
 109              	.LVL8:
 110 004a FFF7FEFF 		bl	SendUint8ToComputer
 111              	.LVL9:
 112              		.loc 1 71 0
 113 004e E9E7     		b	.L3
 114              	.L9:
ARM GAS  /var/folders/km/q6jdms0143g2bddz5bhvdfd00000gn/T//ccb7VrQI.s 			page 3


 115              		.align	2
 116              	.L8:
 117 0050 00000000 		.word	ch
 118 0054 00000000 		.word	__stack_chk_guard
 119 0058 00000000 		.word	.LANCHOR0
 120 005c 00000000 		.word	.LANCHOR1
 121              		.cfi_endproc
 122              	.LFE258:
 123              		.size	ProcessImage, .-ProcessImage
 124              		.section	.text.CaptureImage,"ax",%progbits
 125              		.align	1
 126              		.p2align 4,,15
 127              		.syntax unified
 128              		.thumb
 129              		.thumb_func
 130              		.fpu fpv4-sp-d16
 131              		.type	CaptureImage, %function
 132              	CaptureImage:
 133              	.LFB257:
 134              		.loc 1 24 0
 135              		.cfi_startproc
 136              		@ Volatile: function does not return.
 137              		@ args = 0, pretend = 0, frame = 8
 138              		@ frame_needed = 0, uses_anonymous_args = 0
 139              	.LVL10:
 140 0000 80B5     		push	{r7, lr}
 141              		.cfi_def_cfa_offset 8
 142              		.cfi_offset 7, -8
 143              		.cfi_offset 14, -4
 144              	.LBB88:
 145              	.LBB89:
 146              		.loc 2 135 0
 147 0002 334C     		ldr	r4, .L17
 148              	.LBE89:
 149              	.LBE88:
 150              		.loc 1 24 0
 151 0004 334A     		ldr	r2, .L17+4
 152              	.LBB91:
 153              	.LBB90:
 154              		.loc 2 135 0
 155 0006 A369     		ldr	r3, [r4, #24]
 156 0008 3349     		ldr	r1, .L17+8
 157 000a 9961     		str	r1, [r3, #24]
 158              	.LBE90:
 159              	.LBE91:
 160              		.loc 1 24 0
 161 000c 86B0     		sub	sp, sp, #24
 162              		.cfi_def_cfa_offset 32
 163              		.loc 1 30 0
 164 000e 0223     		movs	r3, #2
 165 0010 2025     		movs	r5, #32
 166              		.loc 1 24 0
 167 0012 1668     		ldr	r6, [r2]
 168              		.loc 1 30 0
 169 0014 0093     		str	r3, [sp]
 170 0016 0A22     		movs	r2, #10
 171 0018 4FF42073 		mov	r3, #640
ARM GAS  /var/folders/km/q6jdms0143g2bddz5bhvdfd00000gn/T//ccb7VrQI.s 			page 4


 172 001c 0021     		movs	r1, #0
 173 001e CDE90155 		strd	r5, r5, [sp, #4]
 174 0022 3020     		movs	r0, #48
 175              	.LVL11:
 176              		.loc 1 24 0
 177 0024 0596     		str	r6, [sp, #20]
 178              		.loc 1 30 0
 179 0026 FFF7FEFF 		bl	po8030_advanced_config
 180              	.LVL12:
 181              		.loc 1 31 0
 182 002a FFF7FEFF 		bl	dcmi_enable_double_buffering
 183              	.LVL13:
 184              		.loc 1 32 0
 185 002e 0020     		movs	r0, #0
 186 0030 FFF7FEFF 		bl	dcmi_set_capture_mode
 187              	.LVL14:
 188 0034 DFF8A880 		ldr	r8, .L17+16
 189 0038 284F     		ldr	r7, .L17+12
 190              	.LBB92:
 191              	.LBB93:
 192              	.LBB94:
 193              	.LBB95:
 194              		.file 4 "../../lib/e-puck2_main-processor/ChibiOS//os/rt/include/chsys.h"
 195              		.loc 4 367 0
 196 003a DFF8A890 		ldr	r9, .L17+20
 197              	.LBE95:
 198              	.LBE94:
 199              	.LBE93:
 200              	.LBE92:
 201              		.loc 1 33 0
 202 003e FFF7FEFF 		bl	dcmi_prepare
 203              	.LVL15:
 204              	.LBB115:
 205              	.LBB113:
 206              	.LBB104:
 207              	.LBB102:
 208              	.LBB96:
 209              	.LBB97:
 210              	.LBB98:
 211              		.file 5 "../../lib/e-puck2_main-processor/ChibiOS//os/ext/CMSIS/include/core_cmFunc.h"
 212              		.loc 5 546 0
 213 0042 0026     		movs	r6, #0
 214 0044 12E0     		b	.L14
 215              	.LVL16:
 216              	.L12:
 217              	.LBE98:
 218              	.LBE97:
 219              	.LBE96:
 220              	.LBE102:
 221              	.LBE104:
 222              	.LBE113:
 223              	.LBE115:
 224              	.LBB116:
 225              	.LBB117:
 226              		.loc 3 286 0
 227 0046 FFF7FEFF 		bl	chSchRescheduleS
 228              	.LVL17:
ARM GAS  /var/folders/km/q6jdms0143g2bddz5bhvdfd00000gn/T//ccb7VrQI.s 			page 5


 229              	.LBB118:
 230              	.LBB119:
 231              		.loc 4 360 0
 232 004a FFF7FEFF 		bl	_dbg_check_unlock
 233              	.LVL18:
 234              		.loc 4 361 0
 235 004e FFF7FEFF 		bl	_stats_stop_measure_crit_thd
 236              	.LVL19:
 237              		.loc 4 367 0
 238 0052 2368     		ldr	r3, [r4]
 239 0054 A342     		cmp	r3, r4
 240 0056 07D0     		beq	.L13
 241 0058 A269     		ldr	r2, [r4, #24]
 242 005a 9B68     		ldr	r3, [r3, #8]
 243 005c 9268     		ldr	r2, [r2, #8]
 244 005e 9A42     		cmp	r2, r3
 245 0060 02D2     		bcs	.L13
 246 0062 4846     		mov	r0, r9
 247 0064 FFF7FEFF 		bl	chSysHalt
 248              	.LVL20:
 249              	.L13:
 250              	.LBB120:
 251              	.LBB121:
 252              	.LBB122:
 253              		.loc 5 546 0
 254              		.syntax unified
 255              	@ 546 "../../lib/e-puck2_main-processor/ChibiOS//os/ext/CMSIS/include/core_cmFunc.h" 1
 256 0068 86F31188 		MSR basepri, r6
 257              	@ 0 "" 2
 258              	.LVL21:
 259              		.thumb
 260              		.syntax unified
 261              	.L14:
 262              	.LBE122:
 263              	.LBE121:
 264              	.LBE120:
 265              	.LBE119:
 266              	.LBE118:
 267              	.LBE117:
 268              	.LBE116:
 269              		.loc 1 38 0 discriminator 1
 270 006c FFF7FEFF 		bl	dcmi_capture_start
 271              	.LVL22:
 272              		.loc 1 40 0 discriminator 1
 273 0070 FFF7FEFF 		bl	wait_image_ready
 274              	.LVL23:
 275              	.LBB131:
 276              	.LBB114:
 277              	.LBB105:
 278              	.LBB106:
 279              	.LBB107:
 280              	.LBB108:
 281              	.LBB109:
 282              		.loc 5 546 0 discriminator 1
 283              		.syntax unified
 284              	@ 546 "../../lib/e-puck2_main-processor/ChibiOS//os/ext/CMSIS/include/core_cmFunc.h" 1
 285 0074 85F31188 		MSR basepri, r5
ARM GAS  /var/folders/km/q6jdms0143g2bddz5bhvdfd00000gn/T//ccb7VrQI.s 			page 6


 286              	@ 0 "" 2
 287              	.LVL24:
 288              		.thumb
 289              		.syntax unified
 290              	.LBE109:
 291              	.LBE108:
 292              	.LBE107:
 293              		.loc 4 349 0 discriminator 1
 294 0078 FFF7FEFF 		bl	_stats_start_measure_crit_thd
 295              	.LVL25:
 296              		.loc 4 350 0 discriminator 1
 297 007c FFF7FEFF 		bl	_dbg_check_lock
 298              	.LVL26:
 299              	.LBE106:
 300              	.LBE105:
 301              	.LBB110:
 302              	.LBB111:
 303              		.file 6 "../../lib/e-puck2_main-processor/ChibiOS//os/rt/include/chvt.h"
 304              		.loc 6 231 0 discriminator 1
 305 0080 D4F828A0 		ldr	r10, [r4, #40]
 306              	.LBE111:
 307              	.LBE110:
 308              	.LBB112:
 309              	.LBB103:
 310              		.loc 4 360 0 discriminator 1
 311 0084 FFF7FEFF 		bl	_dbg_check_unlock
 312              	.LVL27:
 313              		.loc 4 361 0 discriminator 1
 314 0088 FFF7FEFF 		bl	_stats_stop_measure_crit_thd
 315              	.LVL28:
 316              		.loc 4 367 0 discriminator 1
 317 008c 2368     		ldr	r3, [r4]
 318 008e A342     		cmp	r3, r4
 319 0090 07D0     		beq	.L11
 320              		.loc 4 367 0 is_stmt 0
 321 0092 A269     		ldr	r2, [r4, #24]
 322 0094 9B68     		ldr	r3, [r3, #8]
 323 0096 9268     		ldr	r2, [r2, #8]
 324 0098 9A42     		cmp	r2, r3
 325 009a 02D2     		bcs	.L11
 326 009c 4846     		mov	r0, r9
 327 009e FFF7FEFF 		bl	chSysHalt
 328              	.LVL29:
 329              	.L11:
 330              	.LBB101:
 331              	.LBB100:
 332              	.LBB99:
 333              		.loc 5 546 0 is_stmt 1
 334              		.syntax unified
 335              	@ 546 "../../lib/e-puck2_main-processor/ChibiOS//os/ext/CMSIS/include/core_cmFunc.h" 1
 336 00a2 86F31188 		MSR basepri, r6
 337              	@ 0 "" 2
 338              	.LVL30:
 339              		.thumb
 340              		.syntax unified
 341              	.LBE99:
 342              	.LBE100:
ARM GAS  /var/folders/km/q6jdms0143g2bddz5bhvdfd00000gn/T//ccb7VrQI.s 			page 7


 343              	.LBE101:
 344              	.LBE103:
 345              	.LBE112:
 346              	.LBE114:
 347              	.LBE131:
 348              		.loc 1 46 0
 349 00a6 0C20     		movs	r0, #12
 350              		.loc 1 42 0
 351 00a8 C8F800A0 		str	r10, [r8]
 352              		.loc 1 46 0
 353 00ac FFF7FEFF 		bl	chThdSleep
 354              	.LVL31:
 355              	.LBB132:
 356              	.LBB130:
 357              	.LBB123:
 358              	.LBB124:
 359              	.LBB125:
 360              	.LBB126:
 361              	.LBB127:
 362              		.loc 5 546 0
 363              		.syntax unified
 364              	@ 546 "../../lib/e-puck2_main-processor/ChibiOS//os/ext/CMSIS/include/core_cmFunc.h" 1
 365 00b0 85F31188 		MSR basepri, r5
 366              	@ 0 "" 2
 367              	.LVL32:
 368              		.thumb
 369              		.syntax unified
 370              	.LBE127:
 371              	.LBE126:
 372              	.LBE125:
 373              		.loc 4 349 0
 374 00b4 FFF7FEFF 		bl	_stats_start_measure_crit_thd
 375              	.LVL33:
 376              		.loc 4 350 0
 377 00b8 FFF7FEFF 		bl	_dbg_check_lock
 378              	.LVL34:
 379              	.LBE124:
 380              	.LBE123:
 381              	.LBB128:
 382              	.LBB129:
 383              		.loc 3 268 0
 384 00bc FFF7FEFF 		bl	chDbgCheckClassI
 385              	.LVL35:
 386              		.loc 3 270 0
 387 00c0 BB68     		ldr	r3, [r7, #8]
 388 00c2 002B     		cmp	r3, #0
 389 00c4 BFDC     		bgt	.L12
 390              		.loc 3 271 0
 391 00c6 0548     		ldr	r0, .L17+12
 392 00c8 FFF7FEFF 		bl	chSemSignalI
 393              	.LVL36:
 394 00cc BBE7     		b	.L12
 395              	.L18:
 396 00ce 00BF     		.align	2
 397              	.L17:
 398 00d0 00000000 		.word	ch
 399 00d4 00000000 		.word	__stack_chk_guard
ARM GAS  /var/folders/km/q6jdms0143g2bddz5bhvdfd00000gn/T//ccb7VrQI.s 			page 8


 400 00d8 00000000 		.word	.LANCHOR2
 401 00dc 00000000 		.word	.LANCHOR1
 402 00e0 00000000 		.word	.LANCHOR4
 403 00e4 00000000 		.word	.LANCHOR3
 404              	.LBE129:
 405              	.LBE128:
 406              	.LBE130:
 407              	.LBE132:
 408              		.cfi_endproc
 409              	.LFE257:
 410              		.size	CaptureImage, .-CaptureImage
 411              		.section	.text.get_distance_cm,"ax",%progbits
 412              		.align	1
 413              		.p2align 4,,15
 414              		.global	get_distance_cm
 415              		.syntax unified
 416              		.thumb
 417              		.thumb_func
 418              		.fpu fpv4-sp-d16
 419              		.type	get_distance_cm, %function
 420              	get_distance_cm:
 421              	.LFB259:
 422              		.loc 1 94 0
 423              		.cfi_startproc
 424              		@ args = 0, pretend = 0, frame = 8
 425              		@ frame_needed = 0, uses_anonymous_args = 0
 426 0000 00B5     		push	{lr}
 427              		.cfi_def_cfa_offset 4
 428              		.cfi_offset 14, -4
 429 0002 074B     		ldr	r3, .L23
 430 0004 83B0     		sub	sp, sp, #12
 431              		.cfi_def_cfa_offset 16
 432              		.loc 1 94 0
 433 0006 1A68     		ldr	r2, [r3]
 434 0008 0192     		str	r2, [sp, #4]
 435              		.loc 1 96 0
 436 000a 019A     		ldr	r2, [sp, #4]
 437 000c 1B68     		ldr	r3, [r3]
 438 000e 9A42     		cmp	r2, r3
 439 0010 04D1     		bne	.L22
 440 0012 9FED040A 		vldr.32	s0, .L23+4
 441 0016 03B0     		add	sp, sp, #12
 442              		.cfi_remember_state
 443              		.cfi_def_cfa_offset 4
 444              		@ sp needed
 445 0018 5DF804FB 		ldr	pc, [sp], #4
 446              	.L22:
 447              		.cfi_restore_state
 448 001c FFF7FEFF 		bl	__stack_chk_fail
 449              	.LVL37:
 450              	.L24:
 451              		.align	2
 452              	.L23:
 453 0020 00000000 		.word	__stack_chk_guard
 454 0024 00000000 		.word	0
 455              		.cfi_endproc
 456              	.LFE259:
ARM GAS  /var/folders/km/q6jdms0143g2bddz5bhvdfd00000gn/T//ccb7VrQI.s 			page 9


 457              		.size	get_distance_cm, .-get_distance_cm
 458              		.section	.text.process_image_start,"ax",%progbits
 459              		.align	1
 460              		.p2align 4,,15
 461              		.global	process_image_start
 462              		.syntax unified
 463              		.thumb
 464              		.thumb_func
 465              		.fpu fpv4-sp-d16
 466              		.type	process_image_start, %function
 467              	process_image_start:
 468              	.LFB260:
 469              		.loc 1 98 0
 470              		.cfi_startproc
 471              		@ args = 0, pretend = 0, frame = 8
 472              		@ frame_needed = 0, uses_anonymous_args = 0
 473 0000 30B5     		push	{r4, r5, lr}
 474              		.cfi_def_cfa_offset 12
 475              		.cfi_offset 4, -12
 476              		.cfi_offset 5, -8
 477              		.cfi_offset 14, -4
 478 0002 0E4C     		ldr	r4, .L29
 479              		.loc 1 99 0
 480 0004 0E4B     		ldr	r3, .L29+4
 481              		.loc 1 98 0
 482 0006 2268     		ldr	r2, [r4]
 483              		.loc 1 99 0
 484 0008 0E48     		ldr	r0, .L29+8
 485              		.loc 1 98 0
 486 000a 85B0     		sub	sp, sp, #20
 487              		.cfi_def_cfa_offset 32
 488              		.loc 1 99 0
 489 000c 0025     		movs	r5, #0
 490              		.loc 1 98 0
 491 000e 0392     		str	r2, [sp, #12]
 492              		.loc 1 99 0
 493 0010 4FF4AF61 		mov	r1, #1400
 494 0014 4022     		movs	r2, #64
 495 0016 0095     		str	r5, [sp]
 496 0018 FFF7FEFF 		bl	chThdCreateStatic
 497              	.LVL38:
 498              		.loc 1 100 0
 499 001c 0A4B     		ldr	r3, .L29+12
 500 001e 0095     		str	r5, [sp]
 501 0020 4022     		movs	r2, #64
 502 0022 0A48     		ldr	r0, .L29+16
 503 0024 4FF41E71 		mov	r1, #632
 504 0028 FFF7FEFF 		bl	chThdCreateStatic
 505              	.LVL39:
 506              		.loc 1 101 0
 507 002c 039A     		ldr	r2, [sp, #12]
 508 002e 2368     		ldr	r3, [r4]
 509 0030 9A42     		cmp	r2, r3
 510 0032 01D1     		bne	.L28
 511 0034 05B0     		add	sp, sp, #20
 512              		.cfi_remember_state
 513              		.cfi_def_cfa_offset 12
ARM GAS  /var/folders/km/q6jdms0143g2bddz5bhvdfd00000gn/T//ccb7VrQI.s 			page 10


 514              		@ sp needed
 515 0036 30BD     		pop	{r4, r5, pc}
 516              	.L28:
 517              		.cfi_restore_state
 518 0038 FFF7FEFF 		bl	__stack_chk_fail
 519              	.LVL40:
 520              	.L30:
 521              		.align	2
 522              	.L29:
 523 003c 00000000 		.word	__stack_chk_guard
 524 0040 00000000 		.word	ProcessImage
 525 0044 00000000 		.word	.LANCHOR5
 526 0048 00000000 		.word	CaptureImage
 527 004c 00000000 		.word	.LANCHOR6
 528              		.cfi_endproc
 529              	.LFE260:
 530              		.size	process_image_start, .-process_image_start
 531              		.section	.text.line_detection,"ax",%progbits
 532              		.align	1
 533              		.p2align 4,,15
 534              		.global	line_detection
 535              		.syntax unified
 536              		.thumb
 537              		.thumb_func
 538              		.fpu fpv4-sp-d16
 539              		.type	line_detection, %function
 540              	line_detection:
 541              	.LFB261:
 542              		.loc 1 103 0
 543              		.cfi_startproc
 544              		@ args = 0, pretend = 0, frame = 8
 545              		@ frame_needed = 0, uses_anonymous_args = 0
 546              	.LVL41:
 547 0000 2DE9F041 		push	{r4, r5, r6, r7, r8, lr}
 548              		.cfi_def_cfa_offset 24
 549              		.cfi_offset 4, -24
 550              		.cfi_offset 5, -20
 551              		.cfi_offset 6, -16
 552              		.cfi_offset 7, -12
 553              		.cfi_offset 8, -8
 554              		.cfi_offset 14, -4
 555 0004 394D     		ldr	r5, .L72
 556 0006 82B0     		sub	sp, sp, #8
 557              		.cfi_def_cfa_offset 32
 558              		.loc 1 103 0
 559 0008 2B68     		ldr	r3, [r5]
 560 000a 0193     		str	r3, [sp, #4]
 561              	.LVL42:
 562 000c 00F27F24 		addw	r4, r0, #639
 563 0010 431E     		subs	r3, r0, #1
 564              		.loc 1 108 0
 565 0012 0022     		movs	r2, #0
 566              	.LVL43:
 567              	.L32:
 568              	.LBB133:
 569              		.loc 1 111 0 discriminator 3
 570 0014 13F8011F 		ldrb	r1, [r3, #1]!	@ zero_extendqisi2
ARM GAS  /var/folders/km/q6jdms0143g2bddz5bhvdfd00000gn/T//ccb7VrQI.s 			page 11


 571              		.loc 1 110 0 discriminator 3
 572 0018 9C42     		cmp	r4, r3
 573              		.loc 1 111 0 discriminator 3
 574 001a 0A44     		add	r2, r2, r1
 575              	.LVL44:
 576              		.loc 1 110 0 discriminator 3
 577 001c FAD1     		bne	.L32
 578              	.LBE133:
 579              		.loc 1 114 0
 580 001e 344B     		ldr	r3, .L72+4
 581              		.loc 1 119 0
 582 0020 0021     		movs	r1, #0
 583              		.loc 1 114 0
 584 0022 A3FB0223 		umull	r2, r3, r3, r2
 585              	.LVL45:
 586 0026 5B0A     		lsrs	r3, r3, #9
 587              	.LVL46:
 588              		.loc 1 105 0
 589 0028 8846     		mov	r8, r1
 590 002a 0E46     		mov	r6, r1
 591              		.loc 1 124 0
 592 002c 40F27A2E 		movw	lr, #634
 593              		.loc 1 134 0
 594 0030 40F27B2C 		movw	ip, #635
 595              	.LVL47:
 596              	.L33:
 597              		.loc 1 124 0
 598 0034 7145     		cmp	r1, lr
 599 0036 48DC     		bgt	.L36
 600 0038 FEB1     		cbz	r6, .L47
 601              		.loc 1 134 0
 602 003a B8F1000F 		cmp	r8, #0
 603 003e 31D1     		bne	.L44
 604              	.L49:
 605              	.LVL48:
 606 0040 4A1E     		subs	r2, r1, #1
 607 0042 0244     		add	r2, r2, r0
 608              	.L45:
 609              		.loc 1 137 0
 610 0044 12F8017F 		ldrb	r7, [r2, #1]!	@ zero_extendqisi2
 611 0048 9F42     		cmp	r7, r3
 612 004a 01F10104 		add	r4, r1, #1
 613 004e 0ED2     		bcs	.L66
 614              	.L41:
 615              		.loc 1 137 0 is_stmt 0 discriminator 1
 616 0050 5779     		ldrb	r7, [r2, #5]	@ zero_extendqisi2
 617 0052 9F42     		cmp	r7, r3
 618 0054 0BD9     		bls	.L66
 619              	.LVL49:
 620              		.loc 1 134 0 is_stmt 1
 621 0056 7445     		cmp	r4, lr
 622 0058 42DC     		bgt	.L51
 623              		.loc 1 134 0 is_stmt 0 discriminator 1
 624 005a 0029     		cmp	r1, #0
 625 005c 3DD1     		bne	.L52
 626              	.LVL50:
 627              		.loc 1 142 0 is_stmt 1
ARM GAS  /var/folders/km/q6jdms0143g2bddz5bhvdfd00000gn/T//ccb7VrQI.s 			page 12


 628 005e 0121     		movs	r1, #1
 629              	.LVL51:
 630 0060 4A1E     		subs	r2, r1, #1
 631 0062 0244     		add	r2, r2, r0
 632 0064 4C1C     		adds	r4, r1, #1
 633              		.loc 1 137 0
 634 0066 12F8017F 		ldrb	r7, [r2, #1]!	@ zero_extendqisi2
 635 006a 9F42     		cmp	r7, r3
 636 006c F0D3     		bcc	.L41
 637              	.LVL52:
 638              	.L66:
 639              		.loc 1 134 0
 640 006e 6445     		cmp	r4, ip
 641 0070 2AD0     		beq	.L68
 642              	.LVL53:
 643              		.loc 1 163 0
 644 0072 2146     		mov	r1, r4
 645 0074 E6E7     		b	.L45
 646              	.LVL54:
 647              	.L69:
 648 0076 4FF00008 		mov	r8, #0
 649              	.L47:
 650 007a 0C46     		mov	r4, r1
 651              	.L38:
 652              	.LVL55:
 653 007c 621E     		subs	r2, r4, #1
 654 007e 0244     		add	r2, r2, r0
 655              	.LVL56:
 656              		.loc 1 108 0
 657 0080 2646     		mov	r6, r4
 658              	.LVL57:
 659              	.L40:
 660              		.loc 1 126 0
 661 0082 12F8014F 		ldrb	r4, [r2, #1]!	@ zero_extendqisi2
 662 0086 9C42     		cmp	r4, r3
 663 0088 06F10101 		add	r1, r6, #1
 664 008c 18D9     		bls	.L64
 665              		.loc 1 126 0 is_stmt 0 discriminator 1
 666 008e 5479     		ldrb	r4, [r2, #5]	@ zero_extendqisi2
 667 0090 9C42     		cmp	r4, r3
 668 0092 15D2     		bcs	.L64
 669              	.LVL58:
 670              		.loc 1 124 0 is_stmt 1
 671 0094 7145     		cmp	r1, lr
 672 0096 18DC     		bgt	.L36
 673              		.loc 1 131 0 discriminator 1
 674 0098 0124     		movs	r4, #1
 675              		.loc 1 124 0 discriminator 1
 676 009a 002E     		cmp	r6, #0
 677 009c EED0     		beq	.L38
 678              	.LVL59:
 679              		.loc 1 134 0
 680 009e B8F1000F 		cmp	r8, #0
 681 00a2 CDD0     		beq	.L49
 682              	.LVL60:
 683              	.L44:
 684              		.loc 1 145 0
ARM GAS  /var/folders/km/q6jdms0143g2bddz5bhvdfd00000gn/T//ccb7VrQI.s 			page 13


 685 00a4 A8EB0602 		sub	r2, r8, r6
 686 00a8 282A     		cmp	r2, #40
 687 00aa E4DD     		ble	.L69
 688              	.L48:
 689              		.loc 1 147 0
 690 00ac FA2A     		cmp	r2, #250
 691 00ae C1DC     		bgt	.L33
 692              	.L31:
 693              		.loc 1 173 0
 694 00b0 0199     		ldr	r1, [sp, #4]
 695 00b2 2B68     		ldr	r3, [r5]
 696              	.LVL61:
 697 00b4 9942     		cmp	r1, r3
 698 00b6 1046     		mov	r0, r2
 699              	.LVL62:
 700 00b8 15D1     		bne	.L70
 701 00ba 02B0     		add	sp, sp, #8
 702              		.cfi_remember_state
 703              		.cfi_def_cfa_offset 24
 704              		@ sp needed
 705 00bc BDE8F081 		pop	{r4, r5, r6, r7, r8, pc}
 706              	.LVL63:
 707              	.L64:
 708              		.cfi_restore_state
 709              		.loc 1 124 0
 710 00c0 6145     		cmp	r1, ip
 711 00c2 08D0     		beq	.L71
 712              	.LVL64:
 713              		.loc 1 108 0
 714 00c4 0E46     		mov	r6, r1
 715 00c6 DCE7     		b	.L40
 716              	.LVL65:
 717              	.L68:
 718              		.loc 1 134 0
 719 00c8 6146     		mov	r1, ip
 720              	.LVL66:
 721              	.L36:
 722              		.loc 1 145 0
 723 00ca A8EB0602 		sub	r2, r8, r6
 724 00ce 282A     		cmp	r2, #40
 725 00d0 ECDC     		bgt	.L48
 726              		.loc 1 159 0
 727 00d2 0022     		movs	r2, #0
 728 00d4 ECE7     		b	.L31
 729              	.LVL67:
 730              	.L71:
 731              		.loc 1 124 0
 732 00d6 0026     		movs	r6, #0
 733 00d8 F7E7     		b	.L36
 734              	.LVL68:
 735              	.L52:
 736 00da 8846     		mov	r8, r1
 737              	.LVL69:
 738 00dc 2146     		mov	r1, r4
 739 00de E1E7     		b	.L44
 740              	.LVL70:
 741              	.L51:
ARM GAS  /var/folders/km/q6jdms0143g2bddz5bhvdfd00000gn/T//ccb7VrQI.s 			page 14


 742 00e0 8846     		mov	r8, r1
 743              	.LVL71:
 744 00e2 2146     		mov	r1, r4
 745 00e4 F1E7     		b	.L36
 746              	.LVL72:
 747              	.L70:
 748              		.loc 1 173 0
 749 00e6 FFF7FEFF 		bl	__stack_chk_fail
 750              	.LVL73:
 751              	.L73:
 752 00ea 00BF     		.align	2
 753              	.L72:
 754 00ec 00000000 		.word	__stack_chk_guard
 755 00f0 CDCCCCCC 		.word	-858993459
 756              		.cfi_endproc
 757              	.LFE261:
 758              		.size	line_detection, .-line_detection
 759              		.global	time
 760              		.section	.bss.time,"aw",%nobits
 761              		.align	2
 762              		.set	.LANCHOR4,. + 0
 763              		.type	time, %object
 764              		.size	time, 4
 765              	time:
 766 0000 00000000 		.space	4
 767              		.section	.bss.waCaptureImage,"aw",%nobits
 768              		.align	3
 769              		.set	.LANCHOR6,. + 0
 770              		.type	waCaptureImage, %object
 771              		.size	waCaptureImage, 632
 772              	waCaptureImage:
 773 0000 00000000 		.space	632
 773      00000000 
 773      00000000 
 773      00000000 
 773      00000000 
 774              		.section	.bss.waProcessImage,"aw",%nobits
 775              		.align	3
 776              		.set	.LANCHOR5,. + 0
 777              		.type	waProcessImage, %object
 778              		.size	waProcessImage, 1400
 779              	waProcessImage:
 780 0000 00000000 		.space	1400
 780      00000000 
 780      00000000 
 780      00000000 
 780      00000000 
 781              		.section	.data.image_ready_sem,"aw",%progbits
 782              		.align	2
 783              		.set	.LANCHOR1,. + 0
 784              		.type	image_ready_sem, %object
 785              		.size	image_ready_sem, 12
 786              	image_ready_sem:
 787 0000 00000000 		.word	image_ready_sem
 788 0004 00000000 		.word	image_ready_sem
 789 0008 00000000 		.word	0
 790              		.section	.rodata.__FUNCTION__.11333,"a",%progbits
ARM GAS  /var/folders/km/q6jdms0143g2bddz5bhvdfd00000gn/T//ccb7VrQI.s 			page 15


 791              		.align	2
 792              		.set	.LANCHOR2,. + 0
 793              		.type	__FUNCTION__.11333, %object
 794              		.size	__FUNCTION__.11333, 13
 795              	__FUNCTION__.11333:
 796 0000 43617074 		.ascii	"CaptureImage\000"
 796      75726549 
 796      6D616765 
 796      00
 797              		.section	.rodata.__FUNCTION__.11339,"a",%progbits
 798              		.align	2
 799              		.set	.LANCHOR0,. + 0
 800              		.type	__FUNCTION__.11339, %object
 801              		.size	__FUNCTION__.11339, 13
 802              	__FUNCTION__.11339:
 803 0000 50726F63 		.ascii	"ProcessImage\000"
 803      65737349 
 803      6D616765 
 803      00
 804              		.section	.rodata.__func__.7153,"a",%progbits
 805              		.align	2
 806              		.set	.LANCHOR3,. + 0
 807              		.type	__func__.7153, %object
 808              		.size	__func__.7153, 12
 809              	__func__.7153:
 810 0000 63685379 		.ascii	"chSysUnlock\000"
 810      73556E6C 
 810      6F636B00 
 811              		.text
 812              	.Letext0:
 813              		.file 7 "/Applications/Eclipse_e-puck2.app/Contents/Eclipse_e-puck2/Tools/gcc-arm-none-eabi-7-2017
 814              		.file 8 "/Applications/Eclipse_e-puck2.app/Contents/Eclipse_e-puck2/Tools/gcc-arm-none-eabi-7-2017
 815              		.file 9 "/Applications/Eclipse_e-puck2.app/Contents/Eclipse_e-puck2/Tools/gcc-arm-none-eabi-7-2017
 816              		.file 10 "../../lib/e-puck2_main-processor/ChibiOS//os/rt/ports/ARMCMx/compilers/GCC/chtypes.h"
 817              		.file 11 "../../lib/e-puck2_main-processor/ChibiOS//os/rt/include/chsystypes.h"
 818              		.file 12 "../../lib/e-puck2_main-processor/ChibiOS//os/rt/include/chschd.h"
 819              		.file 13 "../../lib/e-puck2_main-processor/ChibiOS//os/ext/CMSIS/include/core_cm4.h"
 820              		.file 14 "../../lib/e-puck2_main-processor/ChibiOS//os/ext/CMSIS/ST/system_stm32f4xx.h"
 821              		.file 15 "../../lib/e-puck2_main-processor/ChibiOS//os/ext/CMSIS/ST/stm32f407xx.h"
 822              		.file 16 "../../lib/e-puck2_main-processor/ChibiOS//os/rt/ports/ARMCMx/chcore.h"
 823              		.file 17 "../../lib/e-puck2_main-processor/ChibiOS//os/rt/ports/ARMCMx/chcore_v7m.h"
 824              		.file 18 "../../lib/e-puck2_main-processor/ChibiOS//os/rt/include/chdebug.h"
 825              		.file 19 "../../lib/e-puck2_main-processor/ChibiOS//os/rt/include/chtm.h"
 826              		.file 20 "../../lib/e-puck2_main-processor/ChibiOS//os/rt/include/chstats.h"
 827              		.file 21 "../../lib/e-puck2_main-processor/ChibiOS//os/rt/include/chsem.h"
 828              		.file 22 "../../lib/e-puck2_main-processor/ChibiOS//os/rt/include/chmtx.h"
 829              		.file 23 "../../lib/e-puck2_main-processor/ChibiOS//os/rt/include/chevents.h"
 830              		.file 24 "../../lib/e-puck2_main-processor/ChibiOS//os/rt/include/chqueues.h"
 831              		.file 25 "../../lib/e-puck2_main-processor/ChibiOS//os/hal/ports/STM32/STM32F4xx/stm32_dma.h"
 832              		.file 26 "../../lib/e-puck2_main-processor/ChibiOS//os/hal/include/hal_ioblock.h"
 833              		.file 27 "../../lib/e-puck2_main-processor/ChibiOS//os/hal/ports/STM32/LLD/GPIOv2/pal_lld.h"
 834              		.file 28 "../../lib/e-puck2_main-processor/ChibiOS//os/hal/include/adc.h"
 835              		.file 29 "../../lib/e-puck2_main-processor/ChibiOS//os/hal/ports/STM32/STM32F4xx/adc_lld.h"
 836              		.file 30 "../../lib/e-puck2_main-processor/ChibiOS//os/hal/include/can.h"
 837              		.file 31 "../../lib/e-puck2_main-processor/ChibiOS//os/hal/ports/STM32/LLD/can_lld.h"
 838              		.file 32 "../../lib/e-puck2_main-processor/ChibiOS//os/hal/include/dac.h"
 839              		.file 33 "../../lib/e-puck2_main-processor/ChibiOS//os/hal/ports/STM32/LLD/DACv1/dac_lld.h"
ARM GAS  /var/folders/km/q6jdms0143g2bddz5bhvdfd00000gn/T//ccb7VrQI.s 			page 16


 840              		.file 34 "../../lib/e-puck2_main-processor/ChibiOS//os/hal/include/ext.h"
 841              		.file 35 "../../lib/e-puck2_main-processor/ChibiOS//os/hal/ports/STM32/LLD/ext_lld.h"
 842              		.file 36 "../../lib/e-puck2_main-processor/ChibiOS//os/hal/include/gpt.h"
 843              		.file 37 "../../lib/e-puck2_main-processor/ChibiOS//os/hal/ports/STM32/LLD/TIMv1/gpt_lld.h"
 844              		.file 38 "../../lib/e-puck2_main-processor/ChibiOS//os/hal/ports/STM32/LLD/TIMv1/stm32_tim.h"
 845              		.file 39 "../../lib/e-puck2_main-processor/ChibiOS//os/hal/include/i2c.h"
 846              		.file 40 "../../lib/e-puck2_main-processor/ChibiOS//os/hal/ports/STM32/LLD/I2Cv1/i2c_lld.h"
 847              		.file 41 "../../lib/e-puck2_main-processor/ChibiOS//os/hal/include/i2s.h"
 848              		.file 42 "../../lib/e-puck2_main-processor/ChibiOS//os/hal/ports/STM32/LLD/SPIv1/i2s_lld.h"
 849              		.file 43 "../../lib/e-puck2_main-processor/ChibiOS//os/hal/include/pwm.h"
 850              		.file 44 "../../lib/e-puck2_main-processor/ChibiOS//os/hal/ports/STM32/LLD/TIMv1/pwm_lld.h"
 851              		.file 45 "../../lib/e-puck2_main-processor/ChibiOS//os/hal/include/serial.h"
 852              		.file 46 "../../lib/e-puck2_main-processor/ChibiOS//os/hal/ports/STM32/LLD/USARTv1/serial_lld.h"
 853              		.file 47 "../../lib/e-puck2_main-processor/ChibiOS//os/hal/include/sdc.h"
 854              		.file 48 "../../lib/e-puck2_main-processor/ChibiOS//os/hal/ports/STM32/LLD/sdc_lld.h"
 855              		.file 49 "../../lib/e-puck2_main-processor/ChibiOS//os/hal/include/spi.h"
 856              		.file 50 "../../lib/e-puck2_main-processor/ChibiOS//os/hal/ports/STM32/LLD/SPIv1/spi_lld.h"
 857              		.file 51 "../../lib/e-puck2_main-processor/ChibiOS//os/hal/include/usb.h"
 858              		.file 52 "../../lib/e-puck2_main-processor/ChibiOS//os/hal/ports/STM32/LLD/OTGv1/usb_lld.h"
 859              		.file 53 "../../lib/e-puck2_main-processor/ChibiOS//os/hal/ports/STM32/LLD/OTGv1/stm32_otg.h"
 860              		.file 54 "../../lib/e-puck2_main-processor/ChibiOS//os/hal/include/serial_usb.h"
 861              		.file 55 "../../lib/e-puck2_main-processor/src/usbcfg.h"
 862              		.file 56 "../../lib/e-puck2_main-processor/ChibiOS_ext/os/hal/include/../ports/STM32/STM32F4xx/dcm
 863              		.file 57 "../../lib/e-puck2_main-processor/src/camera/po8030.h"
 864              		.file 58 "../../lib/e-puck2_main-processor/src/camera/dcmi_camera.h"
 865              		.file 59 "/Applications/Eclipse_e-puck2.app/Contents/Eclipse_e-puck2/Tools/gcc-arm-none-eabi-7-201
 866              		.file 60 "/Applications/Eclipse_e-puck2.app/Contents/Eclipse_e-puck2/Tools/gcc-arm-none-eabi-7-201
 867              		.file 61 "/Applications/Eclipse_e-puck2.app/Contents/Eclipse_e-puck2/Tools/gcc-arm-none-eabi-7-201
 868              		.file 62 "../../lib/e-puck2_main-processor/src/msgbus/messagebus.h"
 869              		.file 63 "/Applications/Eclipse_e-puck2.app/Contents/Eclipse_e-puck2/Tools/gcc-arm-none-eabi-7-201
 870              		.file 64 "/Applications/Eclipse_e-puck2.app/Contents/Eclipse_e-puck2/Tools/gcc-arm-none-eabi-7-201
 871              		.file 65 "../../lib/e-puck2_main-processor/src/parameter/parameter.h"
 872              		.file 66 "./main.h"
 873              		.file 67 "../../lib/e-puck2_main-processor/ChibiOS//os/rt/include/chthreads.h"
 874              		.file 68 "<built-in>"