ARM GAS  C:\Users\stoma\AppData\Local\Temp\ccOU8z64.s 			page 1


   1              		.cpu cortex-m4
   2              		.eabi_attribute 27, 1
   3              		.eabi_attribute 28, 1
   4              		.eabi_attribute 20, 1
   5              		.eabi_attribute 21, 1
   6              		.eabi_attribute 23, 3
   7              		.eabi_attribute 24, 1
   8              		.eabi_attribute 25, 1
   9              		.eabi_attribute 26, 1
  10              		.eabi_attribute 30, 2
  11              		.eabi_attribute 34, 1
  12              		.eabi_attribute 18, 4
  13              		.file	"chevents.c"
  14              		.text
  15              	.Ltext0:
  16              		.cfi_sections	.debug_frame
  17              		.section	.text.chEvtRegisterMaskWithFlags,"ax",%progbits
  18              		.align	1
  19              		.p2align 4,,15
  20              		.global	chEvtRegisterMaskWithFlags
  21              		.syntax unified
  22              		.thumb
  23              		.thumb_func
  24              		.fpu fpv4-sp-d16
  25              		.type	chEvtRegisterMaskWithFlags, %function
  26              	chEvtRegisterMaskWithFlags:
  27              	.LFB219:
  28              		.file 1 "../../lib/ChibiOS/os/rt/src/chevents.c"
  29              		.loc 1 106 0
  30              		.cfi_startproc
  31              		@ args = 0, pretend = 0, frame = 0
  32              		@ frame_needed = 0, uses_anonymous_args = 0
  33              	.LVL0:
  34 0000 2DE9F041 		push	{r4, r5, r6, r7, r8, lr}
  35              		.cfi_def_cfa_offset 24
  36              		.cfi_offset 4, -24
  37              		.cfi_offset 5, -20
  38              		.cfi_offset 6, -16
  39              		.cfi_offset 7, -12
  40              		.cfi_offset 8, -8
  41              		.cfi_offset 14, -4
  42              		.loc 1 106 0
  43 0004 0C46     		mov	r4, r1
  44 0006 9046     		mov	r8, r2
  45 0008 1F46     		mov	r7, r3
  46              		.loc 1 108 0
  47 000a 0646     		mov	r6, r0
  48 000c 50B3     		cbz	r0, .L2
  49              		.loc 1 108 0 is_stmt 0 discriminator 3
  50 000e 49B3     		cbz	r1, .L2
  51              	.LVL1:
  52              	.L3:
  53              	.LBB89:
  54              	.LBB90:
  55              	.LBB91:
  56              	.LBB92:
  57              	.LBB93:
ARM GAS  C:\Users\stoma\AppData\Local\Temp\ccOU8z64.s 			page 2


  58              		.file 2 "../../lib/ChibiOS/os/ext/CMSIS/include/core_cmFunc.h"
  59              		.loc 2 546 0 is_stmt 1
  60 0010 2023     		movs	r3, #32
  61              		.syntax unified
  62              	@ 546 "../../lib/ChibiOS/os/ext/CMSIS/include/core_cmFunc.h" 1
  63 0012 83F31188 		MSR basepri, r3
  64              	@ 0 "" 2
  65              	.LVL2:
  66              		.thumb
  67              		.syntax unified
  68              	.LBE93:
  69              	.LBE92:
  70              	.LBE91:
  71              	.LBE90:
  72              	.LBE89:
  73              		.loc 1 113 0
  74 0016 154D     		ldr	r5, .L11
  75              	.LBB95:
  76              	.LBB94:
  77              		.file 3 "../../lib/ChibiOS/os/rt/include/chsys.h"
  78              		.loc 3 349 0
  79 0018 FFF7FEFF 		bl	_stats_start_measure_crit_thd
  80              	.LVL3:
  81              		.loc 3 350 0
  82 001c FFF7FEFF 		bl	_dbg_check_lock
  83              	.LVL4:
  84              	.LBE94:
  85              	.LBE95:
  86              		.loc 1 111 0
  87 0020 3368     		ldr	r3, [r6]
  88              		.loc 1 113 0
  89 0022 AA69     		ldr	r2, [r5, #24]
  90              		.loc 1 111 0
  91 0024 2360     		str	r3, [r4]
  92              		.loc 1 115 0
  93 0026 0023     		movs	r3, #0
  94              		.loc 1 112 0
  95 0028 3460     		str	r4, [r6]
  96              		.loc 1 115 0
  97 002a C4E90337 		strd	r3, r7, [r4, #12]
  98              		.loc 1 114 0
  99 002e C4E90128 		strd	r2, r8, [r4, #4]
 100              	.LBB96:
 101              	.LBB97:
 102              		.loc 3 360 0
 103 0032 FFF7FEFF 		bl	_dbg_check_unlock
 104              	.LVL5:
 105              		.loc 3 361 0
 106 0036 FFF7FEFF 		bl	_stats_stop_measure_crit_thd
 107              	.LVL6:
 108              		.loc 3 367 0
 109 003a 2B68     		ldr	r3, [r5]
 110 003c AB42     		cmp	r3, r5
 111 003e 04D0     		beq	.L4
 112 0040 AA69     		ldr	r2, [r5, #24]
 113 0042 9B68     		ldr	r3, [r3, #8]
 114 0044 9268     		ldr	r2, [r2, #8]
ARM GAS  C:\Users\stoma\AppData\Local\Temp\ccOU8z64.s 			page 3


 115 0046 9A42     		cmp	r2, r3
 116 0048 04D3     		bcc	.L10
 117              	.L4:
 118              	.LVL7:
 119              	.LBB98:
 120              	.LBB99:
 121              	.LBB100:
 122              		.loc 2 546 0
 123 004a 0023     		movs	r3, #0
 124              		.syntax unified
 125              	@ 546 "../../lib/ChibiOS/os/ext/CMSIS/include/core_cmFunc.h" 1
 126 004c 83F31188 		MSR basepri, r3
 127              	@ 0 "" 2
 128              	.LVL8:
 129              		.thumb
 130              		.syntax unified
 131              	.LBE100:
 132              	.LBE99:
 133              	.LBE98:
 134              	.LBE97:
 135              	.LBE96:
 136              		.loc 1 118 0
 137 0050 BDE8F081 		pop	{r4, r5, r6, r7, r8, pc}
 138              	.LVL9:
 139              	.L10:
 140              	.LBB105:
 141              	.LBB104:
 142              		.loc 3 367 0
 143 0054 0648     		ldr	r0, .L11+4
 144 0056 FFF7FEFF 		bl	chSysHalt
 145              	.LVL10:
 146              	.LBB103:
 147              	.LBB102:
 148              	.LBB101:
 149              		.loc 2 546 0
 150 005a 0023     		movs	r3, #0
 151              		.syntax unified
 152              	@ 546 "../../lib/ChibiOS/os/ext/CMSIS/include/core_cmFunc.h" 1
 153 005c 83F31188 		MSR basepri, r3
 154              	@ 0 "" 2
 155              	.LVL11:
 156              		.thumb
 157              		.syntax unified
 158              	.LBE101:
 159              	.LBE102:
 160              	.LBE103:
 161              	.LBE104:
 162              	.LBE105:
 163              		.loc 1 118 0
 164 0060 BDE8F081 		pop	{r4, r5, r6, r7, r8, pc}
 165              	.LVL12:
 166              	.L2:
 167              		.loc 1 108 0 discriminator 4
 168 0064 0348     		ldr	r0, .L11+8
 169              	.LVL13:
 170 0066 FFF7FEFF 		bl	chSysHalt
 171              	.LVL14:
ARM GAS  C:\Users\stoma\AppData\Local\Temp\ccOU8z64.s 			page 4


 172 006a D1E7     		b	.L3
 173              	.L12:
 174              		.align	2
 175              	.L11:
 176 006c 00000000 		.word	ch
 177 0070 00000000 		.word	.LANCHOR1
 178 0074 00000000 		.word	.LANCHOR0
 179              		.cfi_endproc
 180              	.LFE219:
 181              		.size	chEvtRegisterMaskWithFlags, .-chEvtRegisterMaskWithFlags
 182              		.section	.text.chEvtUnregister,"ax",%progbits
 183              		.align	1
 184              		.p2align 4,,15
 185              		.global	chEvtUnregister
 186              		.syntax unified
 187              		.thumb
 188              		.thumb_func
 189              		.fpu fpv4-sp-d16
 190              		.type	chEvtUnregister, %function
 191              	chEvtUnregister:
 192              	.LFB220:
 193              		.loc 1 133 0
 194              		.cfi_startproc
 195              		@ args = 0, pretend = 0, frame = 0
 196              		@ frame_needed = 0, uses_anonymous_args = 0
 197              	.LVL15:
 198 0000 38B5     		push	{r3, r4, r5, lr}
 199              		.cfi_def_cfa_offset 16
 200              		.cfi_offset 3, -16
 201              		.cfi_offset 4, -12
 202              		.cfi_offset 5, -8
 203              		.cfi_offset 14, -4
 204              		.loc 1 133 0
 205 0002 0D46     		mov	r5, r1
 206              		.loc 1 136 0
 207 0004 0446     		mov	r4, r0
 208 0006 50B3     		cbz	r0, .L14
 209              		.loc 1 136 0 is_stmt 0 discriminator 3
 210 0008 49B3     		cbz	r1, .L14
 211              	.LVL16:
 212              	.L15:
 213              	.LBB116:
 214              	.LBB117:
 215              	.LBB118:
 216              	.LBB119:
 217              	.LBB120:
 218              		.loc 2 546 0 is_stmt 1
 219 000a 2023     		movs	r3, #32
 220              		.syntax unified
 221              	@ 546 "../../lib/ChibiOS/os/ext/CMSIS/include/core_cmFunc.h" 1
 222 000c 83F31188 		MSR basepri, r3
 223              	@ 0 "" 2
 224              	.LVL17:
 225              		.thumb
 226              		.syntax unified
 227              	.LBE120:
 228              	.LBE119:
ARM GAS  C:\Users\stoma\AppData\Local\Temp\ccOU8z64.s 			page 5


 229              	.LBE118:
 230              		.loc 3 349 0
 231 0010 FFF7FEFF 		bl	_stats_start_measure_crit_thd
 232              	.LVL18:
 233              		.loc 3 350 0
 234 0014 FFF7FEFF 		bl	_dbg_check_lock
 235              	.LVL19:
 236 0018 2246     		mov	r2, r4
 237 001a 02E0     		b	.L16
 238              	.LVL20:
 239              	.L18:
 240              	.LBE117:
 241              	.LBE116:
 242              		.loc 1 145 0
 243 001c AB42     		cmp	r3, r5
 244 001e 1BD0     		beq	.L25
 245 0020 1A46     		mov	r2, r3
 246              	.LVL21:
 247              	.L16:
 248              		.loc 1 143 0
 249 0022 1368     		ldr	r3, [r2]
 250 0024 A342     		cmp	r3, r4
 251 0026 F9D1     		bne	.L18
 252              	.L17:
 253              	.LBB121:
 254              	.LBB122:
 255              		.loc 3 360 0
 256 0028 FFF7FEFF 		bl	_dbg_check_unlock
 257              	.LVL22:
 258              		.loc 3 361 0
 259 002c FFF7FEFF 		bl	_stats_stop_measure_crit_thd
 260              	.LVL23:
 261              		.loc 3 367 0
 262 0030 0D4B     		ldr	r3, .L27
 263 0032 1A68     		ldr	r2, [r3]
 264 0034 9A42     		cmp	r2, r3
 265 0036 04D0     		beq	.L19
 266 0038 9969     		ldr	r1, [r3, #24]
 267 003a 9368     		ldr	r3, [r2, #8]
 268 003c 8A68     		ldr	r2, [r1, #8]
 269 003e 9A42     		cmp	r2, r3
 270 0040 03D3     		bcc	.L26
 271              	.L19:
 272              	.LVL24:
 273              	.LBB123:
 274              	.LBB124:
 275              	.LBB125:
 276              		.loc 2 546 0
 277 0042 0023     		movs	r3, #0
 278              		.syntax unified
 279              	@ 546 "../../lib/ChibiOS/os/ext/CMSIS/include/core_cmFunc.h" 1
 280 0044 83F31188 		MSR basepri, r3
 281              	@ 0 "" 2
 282              	.LVL25:
 283              		.thumb
 284              		.syntax unified
 285              	.LBE125:
ARM GAS  C:\Users\stoma\AppData\Local\Temp\ccOU8z64.s 			page 6


 286              	.LBE124:
 287              	.LBE123:
 288              	.LBE122:
 289              	.LBE121:
 290              		.loc 1 152 0
 291 0048 38BD     		pop	{r3, r4, r5, pc}
 292              	.LVL26:
 293              	.L26:
 294              	.LBB130:
 295              	.LBB129:
 296              		.loc 3 367 0
 297 004a 0848     		ldr	r0, .L27+4
 298 004c FFF7FEFF 		bl	chSysHalt
 299              	.LVL27:
 300              	.LBB128:
 301              	.LBB127:
 302              	.LBB126:
 303              		.loc 2 546 0
 304 0050 0023     		movs	r3, #0
 305              		.syntax unified
 306              	@ 546 "../../lib/ChibiOS/os/ext/CMSIS/include/core_cmFunc.h" 1
 307 0052 83F31188 		MSR basepri, r3
 308              	@ 0 "" 2
 309              	.LVL28:
 310              		.thumb
 311              		.syntax unified
 312              	.LBE126:
 313              	.LBE127:
 314              	.LBE128:
 315              	.LBE129:
 316              	.LBE130:
 317              		.loc 1 152 0
 318 0056 38BD     		pop	{r3, r4, r5, pc}
 319              	.LVL29:
 320              	.L25:
 321              		.loc 1 146 0
 322 0058 2B68     		ldr	r3, [r5]
 323 005a 1360     		str	r3, [r2]
 324              		.loc 1 147 0
 325 005c E4E7     		b	.L17
 326              	.LVL30:
 327              	.L14:
 328              		.loc 1 136 0 discriminator 4
 329 005e 0448     		ldr	r0, .L27+8
 330              	.LVL31:
 331 0060 FFF7FEFF 		bl	chSysHalt
 332              	.LVL32:
 333 0064 D1E7     		b	.L15
 334              	.L28:
 335 0066 00BF     		.align	2
 336              	.L27:
 337 0068 00000000 		.word	ch
 338 006c 00000000 		.word	.LANCHOR1
 339 0070 00000000 		.word	.LANCHOR2
 340              		.cfi_endproc
 341              	.LFE220:
 342              		.size	chEvtUnregister, .-chEvtUnregister
ARM GAS  C:\Users\stoma\AppData\Local\Temp\ccOU8z64.s 			page 7


 343              		.section	.text.chEvtGetAndClearEvents,"ax",%progbits
 344              		.align	1
 345              		.p2align 4,,15
 346              		.global	chEvtGetAndClearEvents
 347              		.syntax unified
 348              		.thumb
 349              		.thumb_func
 350              		.fpu fpv4-sp-d16
 351              		.type	chEvtGetAndClearEvents, %function
 352              	chEvtGetAndClearEvents:
 353              	.LFB221:
 354              		.loc 1 162 0
 355              		.cfi_startproc
 356              		@ args = 0, pretend = 0, frame = 0
 357              		@ frame_needed = 0, uses_anonymous_args = 0
 358              	.LVL33:
 359 0000 38B5     		push	{r3, r4, r5, lr}
 360              		.cfi_def_cfa_offset 16
 361              		.cfi_offset 3, -16
 362              		.cfi_offset 4, -12
 363              		.cfi_offset 5, -8
 364              		.cfi_offset 14, -4
 365              		.loc 1 162 0
 366 0002 0446     		mov	r4, r0
 367              	.LBB141:
 368              	.LBB142:
 369              	.LBB143:
 370              	.LBB144:
 371              	.LBB145:
 372              		.loc 2 546 0
 373 0004 2023     		movs	r3, #32
 374              		.syntax unified
 375              	@ 546 "../../lib/ChibiOS/os/ext/CMSIS/include/core_cmFunc.h" 1
 376 0006 83F31188 		MSR basepri, r3
 377              	@ 0 "" 2
 378              	.LVL34:
 379              		.thumb
 380              		.syntax unified
 381              	.LBE145:
 382              	.LBE144:
 383              	.LBE143:
 384              	.LBE142:
 385              	.LBE141:
 386              		.loc 1 166 0
 387 000a 124D     		ldr	r5, .L33
 388              	.LBB147:
 389              	.LBB146:
 390              		.loc 3 349 0
 391 000c FFF7FEFF 		bl	_stats_start_measure_crit_thd
 392              	.LVL35:
 393              		.loc 3 350 0
 394 0010 FFF7FEFF 		bl	_dbg_check_lock
 395              	.LVL36:
 396              	.LBE146:
 397              	.LBE147:
 398              		.loc 1 166 0
 399 0014 AA69     		ldr	r2, [r5, #24]
ARM GAS  C:\Users\stoma\AppData\Local\Temp\ccOU8z64.s 			page 8


 400 0016 D36B     		ldr	r3, [r2, #60]
 401              		.loc 1 167 0
 402 0018 23EA0401 		bic	r1, r3, r4
 403 001c D163     		str	r1, [r2, #60]
 404              		.loc 1 166 0
 405 001e 1C40     		ands	r4, r4, r3
 406              	.LVL37:
 407              	.LBB148:
 408              	.LBB149:
 409              		.loc 3 360 0
 410 0020 FFF7FEFF 		bl	_dbg_check_unlock
 411              	.LVL38:
 412              		.loc 3 361 0
 413 0024 FFF7FEFF 		bl	_stats_stop_measure_crit_thd
 414              	.LVL39:
 415              		.loc 3 367 0
 416 0028 2B68     		ldr	r3, [r5]
 417 002a AB42     		cmp	r3, r5
 418 002c 04D0     		beq	.L30
 419 002e AA69     		ldr	r2, [r5, #24]
 420 0030 9B68     		ldr	r3, [r3, #8]
 421 0032 9268     		ldr	r2, [r2, #8]
 422 0034 9A42     		cmp	r2, r3
 423 0036 04D3     		bcc	.L32
 424              	.L30:
 425              	.LVL40:
 426              	.LBB150:
 427              	.LBB151:
 428              	.LBB152:
 429              		.loc 2 546 0
 430 0038 0023     		movs	r3, #0
 431              		.syntax unified
 432              	@ 546 "../../lib/ChibiOS/os/ext/CMSIS/include/core_cmFunc.h" 1
 433 003a 83F31188 		MSR basepri, r3
 434              	@ 0 "" 2
 435              	.LVL41:
 436              		.thumb
 437              		.syntax unified
 438              	.LBE152:
 439              	.LBE151:
 440              	.LBE150:
 441              	.LBE149:
 442              	.LBE148:
 443              		.loc 1 171 0
 444 003e 2046     		mov	r0, r4
 445 0040 38BD     		pop	{r3, r4, r5, pc}
 446              	.LVL42:
 447              	.L32:
 448              	.LBB157:
 449              	.LBB156:
 450              		.loc 3 367 0
 451 0042 0548     		ldr	r0, .L33+4
 452 0044 FFF7FEFF 		bl	chSysHalt
 453              	.LVL43:
 454              	.LBB155:
 455              	.LBB154:
 456              	.LBB153:
ARM GAS  C:\Users\stoma\AppData\Local\Temp\ccOU8z64.s 			page 9


 457              		.loc 2 546 0
 458 0048 0023     		movs	r3, #0
 459              		.syntax unified
 460              	@ 546 "../../lib/ChibiOS/os/ext/CMSIS/include/core_cmFunc.h" 1
 461 004a 83F31188 		MSR basepri, r3
 462              	@ 0 "" 2
 463              	.LVL44:
 464              		.thumb
 465              		.syntax unified
 466              	.LBE153:
 467              	.LBE154:
 468              	.LBE155:
 469              	.LBE156:
 470              	.LBE157:
 471              		.loc 1 171 0
 472 004e 2046     		mov	r0, r4
 473 0050 38BD     		pop	{r3, r4, r5, pc}
 474              	.LVL45:
 475              	.L34:
 476 0052 00BF     		.align	2
 477              	.L33:
 478 0054 00000000 		.word	ch
 479 0058 00000000 		.word	.LANCHOR1
 480              		.cfi_endproc
 481              	.LFE221:
 482              		.size	chEvtGetAndClearEvents, .-chEvtGetAndClearEvents
 483              		.section	.text.chEvtAddEvents,"ax",%progbits
 484              		.align	1
 485              		.p2align 4,,15
 486              		.global	chEvtAddEvents
 487              		.syntax unified
 488              		.thumb
 489              		.thumb_func
 490              		.fpu fpv4-sp-d16
 491              		.type	chEvtAddEvents, %function
 492              	chEvtAddEvents:
 493              	.LFB222:
 494              		.loc 1 182 0
 495              		.cfi_startproc
 496              		@ args = 0, pretend = 0, frame = 0
 497              		@ frame_needed = 0, uses_anonymous_args = 0
 498              	.LVL46:
 499 0000 38B5     		push	{r3, r4, r5, lr}
 500              		.cfi_def_cfa_offset 16
 501              		.cfi_offset 3, -16
 502              		.cfi_offset 4, -12
 503              		.cfi_offset 5, -8
 504              		.cfi_offset 14, -4
 505              		.loc 1 182 0
 506 0002 0446     		mov	r4, r0
 507              	.LBB168:
 508              	.LBB169:
 509              	.LBB170:
 510              	.LBB171:
 511              	.LBB172:
 512              		.loc 2 546 0
 513 0004 2023     		movs	r3, #32
ARM GAS  C:\Users\stoma\AppData\Local\Temp\ccOU8z64.s 			page 10


 514              		.syntax unified
 515              	@ 546 "../../lib/ChibiOS/os/ext/CMSIS/include/core_cmFunc.h" 1
 516 0006 83F31188 		MSR basepri, r3
 517              	@ 0 "" 2
 518              	.LVL47:
 519              		.thumb
 520              		.syntax unified
 521              	.LBE172:
 522              	.LBE171:
 523              	.LBE170:
 524              	.LBE169:
 525              	.LBE168:
 526              		.loc 1 185 0
 527 000a 114D     		ldr	r5, .L39
 528              	.LBB174:
 529              	.LBB173:
 530              		.loc 3 349 0
 531 000c FFF7FEFF 		bl	_stats_start_measure_crit_thd
 532              	.LVL48:
 533              		.loc 3 350 0
 534 0010 FFF7FEFF 		bl	_dbg_check_lock
 535              	.LVL49:
 536              	.LBE173:
 537              	.LBE174:
 538              		.loc 1 185 0
 539 0014 AB69     		ldr	r3, [r5, #24]
 540 0016 D86B     		ldr	r0, [r3, #60]
 541 0018 0443     		orrs	r4, r4, r0
 542              	.LVL50:
 543 001a DC63     		str	r4, [r3, #60]
 544              	.LVL51:
 545              	.LBB175:
 546              	.LBB176:
 547              		.loc 3 360 0
 548 001c FFF7FEFF 		bl	_dbg_check_unlock
 549              	.LVL52:
 550              		.loc 3 361 0
 551 0020 FFF7FEFF 		bl	_stats_stop_measure_crit_thd
 552              	.LVL53:
 553              		.loc 3 367 0
 554 0024 2B68     		ldr	r3, [r5]
 555 0026 AB42     		cmp	r3, r5
 556 0028 04D0     		beq	.L36
 557 002a AA69     		ldr	r2, [r5, #24]
 558 002c 9B68     		ldr	r3, [r3, #8]
 559 002e 9268     		ldr	r2, [r2, #8]
 560 0030 9A42     		cmp	r2, r3
 561 0032 04D3     		bcc	.L38
 562              	.L36:
 563              	.LVL54:
 564              	.LBB177:
 565              	.LBB178:
 566              	.LBB179:
 567              		.loc 2 546 0
 568 0034 0023     		movs	r3, #0
 569              		.syntax unified
 570              	@ 546 "../../lib/ChibiOS/os/ext/CMSIS/include/core_cmFunc.h" 1
ARM GAS  C:\Users\stoma\AppData\Local\Temp\ccOU8z64.s 			page 11


 571 0036 83F31188 		MSR basepri, r3
 572              	@ 0 "" 2
 573              	.LVL55:
 574              		.thumb
 575              		.syntax unified
 576              	.LBE179:
 577              	.LBE178:
 578              	.LBE177:
 579              	.LBE176:
 580              	.LBE175:
 581              		.loc 1 190 0
 582 003a 2046     		mov	r0, r4
 583 003c 38BD     		pop	{r3, r4, r5, pc}
 584              	.LVL56:
 585              	.L38:
 586              	.LBB184:
 587              	.LBB183:
 588              		.loc 3 367 0
 589 003e 0548     		ldr	r0, .L39+4
 590 0040 FFF7FEFF 		bl	chSysHalt
 591              	.LVL57:
 592              	.LBB182:
 593              	.LBB181:
 594              	.LBB180:
 595              		.loc 2 546 0
 596 0044 0023     		movs	r3, #0
 597              		.syntax unified
 598              	@ 546 "../../lib/ChibiOS/os/ext/CMSIS/include/core_cmFunc.h" 1
 599 0046 83F31188 		MSR basepri, r3
 600              	@ 0 "" 2
 601              	.LVL58:
 602              		.thumb
 603              		.syntax unified
 604              	.LBE180:
 605              	.LBE181:
 606              	.LBE182:
 607              	.LBE183:
 608              	.LBE184:
 609              		.loc 1 190 0
 610 004a 2046     		mov	r0, r4
 611 004c 38BD     		pop	{r3, r4, r5, pc}
 612              	.LVL59:
 613              	.L40:
 614 004e 00BF     		.align	2
 615              	.L39:
 616 0050 00000000 		.word	ch
 617 0054 00000000 		.word	.LANCHOR1
 618              		.cfi_endproc
 619              	.LFE222:
 620              		.size	chEvtAddEvents, .-chEvtAddEvents
 621              		.section	.text.chEvtGetAndClearFlags,"ax",%progbits
 622              		.align	1
 623              		.p2align 4,,15
 624              		.global	chEvtGetAndClearFlags
 625              		.syntax unified
 626              		.thumb
 627              		.thumb_func
ARM GAS  C:\Users\stoma\AppData\Local\Temp\ccOU8z64.s 			page 12


 628              		.fpu fpv4-sp-d16
 629              		.type	chEvtGetAndClearFlags, %function
 630              	chEvtGetAndClearFlags:
 631              	.LFB224:
 632              		.loc 1 241 0
 633              		.cfi_startproc
 634              		@ args = 0, pretend = 0, frame = 0
 635              		@ frame_needed = 0, uses_anonymous_args = 0
 636              	.LVL60:
 637 0000 38B5     		push	{r3, r4, r5, lr}
 638              		.cfi_def_cfa_offset 16
 639              		.cfi_offset 3, -16
 640              		.cfi_offset 4, -12
 641              		.cfi_offset 5, -8
 642              		.cfi_offset 14, -4
 643              		.loc 1 241 0
 644 0002 0446     		mov	r4, r0
 645              	.LBB195:
 646              	.LBB196:
 647              	.LBB197:
 648              	.LBB198:
 649              	.LBB199:
 650              		.loc 2 546 0
 651 0004 2023     		movs	r3, #32
 652              		.syntax unified
 653              	@ 546 "../../lib/ChibiOS/os/ext/CMSIS/include/core_cmFunc.h" 1
 654 0006 83F31188 		MSR basepri, r3
 655              	@ 0 "" 2
 656              	.LVL61:
 657              		.thumb
 658              		.syntax unified
 659              	.LBE199:
 660              	.LBE198:
 661              	.LBE197:
 662              		.loc 3 349 0
 663 000a FFF7FEFF 		bl	_stats_start_measure_crit_thd
 664              	.LVL62:
 665              		.loc 3 350 0
 666 000e FFF7FEFF 		bl	_dbg_check_lock
 667              	.LVL63:
 668              	.LBE196:
 669              	.LBE195:
 670              		.loc 1 246 0
 671 0012 0023     		movs	r3, #0
 672              		.loc 1 245 0
 673 0014 E568     		ldr	r5, [r4, #12]
 674              	.LVL64:
 675              		.loc 1 246 0
 676 0016 E360     		str	r3, [r4, #12]
 677              	.LBB200:
 678              	.LBB201:
 679              		.loc 3 360 0
 680 0018 FFF7FEFF 		bl	_dbg_check_unlock
 681              	.LVL65:
 682              		.loc 3 361 0
 683 001c FFF7FEFF 		bl	_stats_stop_measure_crit_thd
 684              	.LVL66:
ARM GAS  C:\Users\stoma\AppData\Local\Temp\ccOU8z64.s 			page 13


 685              		.loc 3 367 0
 686 0020 0A4B     		ldr	r3, .L45
 687 0022 1A68     		ldr	r2, [r3]
 688 0024 9A42     		cmp	r2, r3
 689 0026 04D0     		beq	.L42
 690 0028 9969     		ldr	r1, [r3, #24]
 691 002a 9368     		ldr	r3, [r2, #8]
 692 002c 8A68     		ldr	r2, [r1, #8]
 693 002e 9A42     		cmp	r2, r3
 694 0030 04D3     		bcc	.L44
 695              	.L42:
 696              	.LVL67:
 697              	.LBB202:
 698              	.LBB203:
 699              	.LBB204:
 700              		.loc 2 546 0
 701 0032 0023     		movs	r3, #0
 702              		.syntax unified
 703              	@ 546 "../../lib/ChibiOS/os/ext/CMSIS/include/core_cmFunc.h" 1
 704 0034 83F31188 		MSR basepri, r3
 705              	@ 0 "" 2
 706              	.LVL68:
 707              		.thumb
 708              		.syntax unified
 709              	.LBE204:
 710              	.LBE203:
 711              	.LBE202:
 712              	.LBE201:
 713              	.LBE200:
 714              		.loc 1 250 0
 715 0038 2846     		mov	r0, r5
 716 003a 38BD     		pop	{r3, r4, r5, pc}
 717              	.LVL69:
 718              	.L44:
 719              	.LBB209:
 720              	.LBB208:
 721              		.loc 3 367 0
 722 003c 0448     		ldr	r0, .L45+4
 723 003e FFF7FEFF 		bl	chSysHalt
 724              	.LVL70:
 725              	.LBB207:
 726              	.LBB206:
 727              	.LBB205:
 728              		.loc 2 546 0
 729 0042 0023     		movs	r3, #0
 730              		.syntax unified
 731              	@ 546 "../../lib/ChibiOS/os/ext/CMSIS/include/core_cmFunc.h" 1
 732 0044 83F31188 		MSR basepri, r3
 733              	@ 0 "" 2
 734              	.LVL71:
 735              		.thumb
 736              		.syntax unified
 737              	.LBE205:
 738              	.LBE206:
 739              	.LBE207:
 740              	.LBE208:
 741              	.LBE209:
ARM GAS  C:\Users\stoma\AppData\Local\Temp\ccOU8z64.s 			page 14


 742              		.loc 1 250 0
 743 0048 2846     		mov	r0, r5
 744 004a 38BD     		pop	{r3, r4, r5, pc}
 745              	.LVL72:
 746              	.L46:
 747              		.align	2
 748              	.L45:
 749 004c 00000000 		.word	ch
 750 0050 00000000 		.word	.LANCHOR1
 751              		.cfi_endproc
 752              	.LFE224:
 753              		.size	chEvtGetAndClearFlags, .-chEvtGetAndClearFlags
 754              		.section	.text.chEvtSignalI,"ax",%progbits
 755              		.align	1
 756              		.p2align 4,,15
 757              		.global	chEvtSignalI
 758              		.syntax unified
 759              		.thumb
 760              		.thumb_func
 761              		.fpu fpv4-sp-d16
 762              		.type	chEvtSignalI, %function
 763              	chEvtSignalI:
 764              	.LFB226:
 765              		.loc 1 282 0
 766              		.cfi_startproc
 767              		@ args = 0, pretend = 0, frame = 0
 768              		@ frame_needed = 0, uses_anonymous_args = 0
 769              	.LVL73:
 770 0000 38B5     		push	{r3, r4, r5, lr}
 771              		.cfi_def_cfa_offset 16
 772              		.cfi_offset 3, -16
 773              		.cfi_offset 4, -12
 774              		.cfi_offset 5, -8
 775              		.cfi_offset 14, -4
 776              		.loc 1 282 0
 777 0002 0446     		mov	r4, r0
 778 0004 0D46     		mov	r5, r1
 779              		.loc 1 284 0
 780 0006 FFF7FEFF 		bl	chDbgCheckClassI
 781              	.LVL74:
 782              		.loc 1 285 0
 783 000a BCB1     		cbz	r4, .L53
 784              	.L48:
 785              		.loc 1 287 0
 786 000c E16B     		ldr	r1, [r4, #60]
 787              		.loc 1 289 0
 788 000e 94F82030 		ldrb	r3, [r4, #32]	@ zero_extendqisi2
 789              		.loc 1 287 0
 790 0012 2943     		orrs	r1, r1, r5
 791              		.loc 1 289 0
 792 0014 0A2B     		cmp	r3, #10
 793              		.loc 1 287 0
 794 0016 E163     		str	r1, [r4, #60]
 795              		.loc 1 289 0
 796 0018 0CD0     		beq	.L54
 797              		.loc 1 290 0
 798 001a 0B2B     		cmp	r3, #11
ARM GAS  C:\Users\stoma\AppData\Local\Temp\ccOU8z64.s 			page 15


 799 001c 00D0     		beq	.L55
 800              	.L47:
 801              		.loc 1 296 0
 802 001e 38BD     		pop	{r3, r4, r5, pc}
 803              	.LVL75:
 804              	.L55:
 805              		.loc 1 292 0
 806 0020 A36A     		ldr	r3, [r4, #40]
 807              		.loc 1 291 0
 808 0022 8B43     		bics	r3, r3, r1
 809 0024 FBD1     		bne	.L47
 810              	.L50:
 811              		.loc 1 293 0
 812 0026 0023     		movs	r3, #0
 813 0028 A362     		str	r3, [r4, #40]
 814              		.loc 1 294 0
 815 002a 2046     		mov	r0, r4
 816              		.loc 1 296 0
 817 002c BDE83840 		pop	{r3, r4, r5, lr}
 818              		.cfi_remember_state
 819              		.cfi_restore 14
 820              		.cfi_restore 5
 821              		.cfi_restore 4
 822              		.cfi_restore 3
 823              		.cfi_def_cfa_offset 0
 824              	.LVL76:
 825              		.loc 1 294 0
 826 0030 FFF7FEBF 		b	chSchReadyI
 827              	.LVL77:
 828              	.L54:
 829              		.cfi_restore_state
 830              		.loc 1 290 0 discriminator 1
 831 0034 A36A     		ldr	r3, [r4, #40]
 832              		.loc 1 289 0 discriminator 1
 833 0036 1942     		tst	r1, r3
 834 0038 F5D1     		bne	.L50
 835 003a F0E7     		b	.L47
 836              	.L53:
 837              		.loc 1 285 0 discriminator 2
 838 003c 0148     		ldr	r0, .L56
 839 003e FFF7FEFF 		bl	chSysHalt
 840              	.LVL78:
 841 0042 E3E7     		b	.L48
 842              	.L57:
 843              		.align	2
 844              	.L56:
 845 0044 00000000 		.word	.LANCHOR3
 846              		.cfi_endproc
 847              	.LFE226:
 848              		.size	chEvtSignalI, .-chEvtSignalI
 849              		.section	.text.chEvtBroadcastFlagsI,"ax",%progbits
 850              		.align	1
 851              		.p2align 4,,15
 852              		.global	chEvtBroadcastFlagsI
 853              		.syntax unified
 854              		.thumb
 855              		.thumb_func
ARM GAS  C:\Users\stoma\AppData\Local\Temp\ccOU8z64.s 			page 16


 856              		.fpu fpv4-sp-d16
 857              		.type	chEvtBroadcastFlagsI, %function
 858              	chEvtBroadcastFlagsI:
 859              	.LFB223:
 860              		.loc 1 209 0
 861              		.cfi_startproc
 862              		@ args = 0, pretend = 0, frame = 0
 863              		@ frame_needed = 0, uses_anonymous_args = 0
 864              	.LVL79:
 865 0000 70B5     		push	{r4, r5, r6, lr}
 866              		.cfi_def_cfa_offset 16
 867              		.cfi_offset 4, -16
 868              		.cfi_offset 5, -12
 869              		.cfi_offset 6, -8
 870              		.cfi_offset 14, -4
 871              		.loc 1 209 0
 872 0002 0646     		mov	r6, r0
 873 0004 0D46     		mov	r5, r1
 874              		.loc 1 212 0
 875 0006 FFF7FEFF 		bl	chDbgCheckClassI
 876              	.LVL80:
 877              		.loc 1 213 0
 878 000a 8EB1     		cbz	r6, .L72
 879              	.L59:
 880              		.loc 1 215 0
 881 000c 3468     		ldr	r4, [r6]
 882              	.LVL81:
 883              		.loc 1 217 0
 884 000e A642     		cmp	r6, r4
 885 0010 0DD0     		beq	.L58
 886              	.L63:
 887              		.loc 1 219 0
 888 0012 E368     		ldr	r3, [r4, #12]
 889 0014 2B43     		orrs	r3, r3, r5
 890 0016 E360     		str	r3, [r4, #12]
 891              		.loc 1 222 0
 892 0018 15B1     		cbz	r5, .L61
 893              		.loc 1 223 0 discriminator 1
 894 001a 2269     		ldr	r2, [r4, #16]
 895              		.loc 1 222 0 discriminator 1
 896 001c 1342     		tst	r3, r2
 897 001e 03D0     		beq	.L62
 898              	.L61:
 899              		.loc 1 224 0
 900 0020 D4E90101 		ldrd	r0, r1, [r4, #4]
 901 0024 FFF7FEFF 		bl	chEvtSignalI
 902              	.LVL82:
 903              	.L62:
 904              		.loc 1 226 0
 905 0028 2468     		ldr	r4, [r4]
 906              	.LVL83:
 907              		.loc 1 217 0
 908 002a A642     		cmp	r6, r4
 909 002c F1D1     		bne	.L63
 910              	.L58:
 911              		.loc 1 228 0
 912 002e 70BD     		pop	{r4, r5, r6, pc}
ARM GAS  C:\Users\stoma\AppData\Local\Temp\ccOU8z64.s 			page 17


 913              	.LVL84:
 914              	.L72:
 915              		.loc 1 213 0 discriminator 2
 916 0030 0148     		ldr	r0, .L73
 917 0032 FFF7FEFF 		bl	chSysHalt
 918              	.LVL85:
 919 0036 E9E7     		b	.L59
 920              	.L74:
 921              		.align	2
 922              	.L73:
 923 0038 00000000 		.word	.LANCHOR4
 924              		.cfi_endproc
 925              	.LFE223:
 926              		.size	chEvtBroadcastFlagsI, .-chEvtBroadcastFlagsI
 927              		.section	.text.chEvtSignal,"ax",%progbits
 928              		.align	1
 929              		.p2align 4,,15
 930              		.global	chEvtSignal
 931              		.syntax unified
 932              		.thumb
 933              		.thumb_func
 934              		.fpu fpv4-sp-d16
 935              		.type	chEvtSignal, %function
 936              	chEvtSignal:
 937              	.LFB225:
 938              		.loc 1 260 0
 939              		.cfi_startproc
 940              		@ args = 0, pretend = 0, frame = 0
 941              		@ frame_needed = 0, uses_anonymous_args = 0
 942              	.LVL86:
 943 0000 38B5     		push	{r3, r4, r5, lr}
 944              		.cfi_def_cfa_offset 16
 945              		.cfi_offset 3, -16
 946              		.cfi_offset 4, -12
 947              		.cfi_offset 5, -8
 948              		.cfi_offset 14, -4
 949              		.loc 1 260 0
 950 0002 0D46     		mov	r5, r1
 951              		.loc 1 262 0
 952 0004 0446     		mov	r4, r0
 953 0006 20B3     		cbz	r0, .L79
 954              	.LVL87:
 955              	.L76:
 956              	.LBB220:
 957              	.LBB221:
 958              	.LBB222:
 959              	.LBB223:
 960              	.LBB224:
 961              		.loc 2 546 0
 962 0008 2023     		movs	r3, #32
 963              		.syntax unified
 964              	@ 546 "../../lib/ChibiOS/os/ext/CMSIS/include/core_cmFunc.h" 1
 965 000a 83F31188 		MSR basepri, r3
 966              	@ 0 "" 2
 967              	.LVL88:
 968              		.thumb
 969              		.syntax unified
ARM GAS  C:\Users\stoma\AppData\Local\Temp\ccOU8z64.s 			page 18


 970              	.LBE224:
 971              	.LBE223:
 972              	.LBE222:
 973              		.loc 3 349 0
 974 000e FFF7FEFF 		bl	_stats_start_measure_crit_thd
 975              	.LVL89:
 976              		.loc 3 350 0
 977 0012 FFF7FEFF 		bl	_dbg_check_lock
 978              	.LVL90:
 979              	.LBE221:
 980              	.LBE220:
 981              		.loc 1 265 0
 982 0016 2946     		mov	r1, r5
 983 0018 2046     		mov	r0, r4
 984 001a FFF7FEFF 		bl	chEvtSignalI
 985              	.LVL91:
 986              		.loc 1 266 0
 987 001e FFF7FEFF 		bl	chSchRescheduleS
 988              	.LVL92:
 989              	.LBB225:
 990              	.LBB226:
 991              		.loc 3 360 0
 992 0022 FFF7FEFF 		bl	_dbg_check_unlock
 993              	.LVL93:
 994              		.loc 3 361 0
 995 0026 FFF7FEFF 		bl	_stats_stop_measure_crit_thd
 996              	.LVL94:
 997              		.loc 3 367 0
 998 002a 0C4B     		ldr	r3, .L81
 999 002c 1A68     		ldr	r2, [r3]
 1000 002e 9A42     		cmp	r2, r3
 1001 0030 04D0     		beq	.L77
 1002 0032 9969     		ldr	r1, [r3, #24]
 1003 0034 9368     		ldr	r3, [r2, #8]
 1004 0036 8A68     		ldr	r2, [r1, #8]
 1005 0038 9A42     		cmp	r2, r3
 1006 003a 03D3     		bcc	.L80
 1007              	.L77:
 1008              	.LVL95:
 1009              	.LBB227:
 1010              	.LBB228:
 1011              	.LBB229:
 1012              		.loc 2 546 0
 1013 003c 0023     		movs	r3, #0
 1014              		.syntax unified
 1015              	@ 546 "../../lib/ChibiOS/os/ext/CMSIS/include/core_cmFunc.h" 1
 1016 003e 83F31188 		MSR basepri, r3
 1017              	@ 0 "" 2
 1018              	.LVL96:
 1019              		.thumb
 1020              		.syntax unified
 1021              	.LBE229:
 1022              	.LBE228:
 1023              	.LBE227:
 1024              	.LBE226:
 1025              	.LBE225:
 1026              		.loc 1 268 0
ARM GAS  C:\Users\stoma\AppData\Local\Temp\ccOU8z64.s 			page 19


 1027 0042 38BD     		pop	{r3, r4, r5, pc}
 1028              	.LVL97:
 1029              	.L80:
 1030              	.LBB234:
 1031              	.LBB233:
 1032              		.loc 3 367 0
 1033 0044 0648     		ldr	r0, .L81+4
 1034 0046 FFF7FEFF 		bl	chSysHalt
 1035              	.LVL98:
 1036              	.LBB232:
 1037              	.LBB231:
 1038              	.LBB230:
 1039              		.loc 2 546 0
 1040 004a 0023     		movs	r3, #0
 1041              		.syntax unified
 1042              	@ 546 "../../lib/ChibiOS/os/ext/CMSIS/include/core_cmFunc.h" 1
 1043 004c 83F31188 		MSR basepri, r3
 1044              	@ 0 "" 2
 1045              	.LVL99:
 1046              		.thumb
 1047              		.syntax unified
 1048              	.LBE230:
 1049              	.LBE231:
 1050              	.LBE232:
 1051              	.LBE233:
 1052              	.LBE234:
 1053              		.loc 1 268 0
 1054 0050 38BD     		pop	{r3, r4, r5, pc}
 1055              	.LVL100:
 1056              	.L79:
 1057              		.loc 1 262 0 discriminator 2
 1058 0052 0448     		ldr	r0, .L81+8
 1059              	.LVL101:
 1060 0054 FFF7FEFF 		bl	chSysHalt
 1061              	.LVL102:
 1062 0058 D6E7     		b	.L76
 1063              	.L82:
 1064 005a 00BF     		.align	2
 1065              	.L81:
 1066 005c 00000000 		.word	ch
 1067 0060 00000000 		.word	.LANCHOR1
 1068 0064 00000000 		.word	.LANCHOR5
 1069              		.cfi_endproc
 1070              	.LFE225:
 1071              		.size	chEvtSignal, .-chEvtSignal
 1072              		.section	.text.chEvtBroadcastFlags,"ax",%progbits
 1073              		.align	1
 1074              		.p2align 4,,15
 1075              		.global	chEvtBroadcastFlags
 1076              		.syntax unified
 1077              		.thumb
 1078              		.thumb_func
 1079              		.fpu fpv4-sp-d16
 1080              		.type	chEvtBroadcastFlags, %function
 1081              	chEvtBroadcastFlags:
 1082              	.LFB227:
 1083              		.loc 1 311 0
ARM GAS  C:\Users\stoma\AppData\Local\Temp\ccOU8z64.s 			page 20


 1084              		.cfi_startproc
 1085              		@ args = 0, pretend = 0, frame = 0
 1086              		@ frame_needed = 0, uses_anonymous_args = 0
 1087              	.LVL103:
 1088 0000 38B5     		push	{r3, r4, r5, lr}
 1089              		.cfi_def_cfa_offset 16
 1090              		.cfi_offset 3, -16
 1091              		.cfi_offset 4, -12
 1092              		.cfi_offset 5, -8
 1093              		.cfi_offset 14, -4
 1094              		.loc 1 311 0
 1095 0002 0446     		mov	r4, r0
 1096 0004 0D46     		mov	r5, r1
 1097              	.LBB245:
 1098              	.LBB246:
 1099              	.LBB247:
 1100              	.LBB248:
 1101              	.LBB249:
 1102              		.loc 2 546 0
 1103 0006 2023     		movs	r3, #32
 1104              		.syntax unified
 1105              	@ 546 "../../lib/ChibiOS/os/ext/CMSIS/include/core_cmFunc.h" 1
 1106 0008 83F31188 		MSR basepri, r3
 1107              	@ 0 "" 2
 1108              	.LVL104:
 1109              		.thumb
 1110              		.syntax unified
 1111              	.LBE249:
 1112              	.LBE248:
 1113              	.LBE247:
 1114              		.loc 3 349 0
 1115 000c FFF7FEFF 		bl	_stats_start_measure_crit_thd
 1116              	.LVL105:
 1117              		.loc 3 350 0
 1118 0010 FFF7FEFF 		bl	_dbg_check_lock
 1119              	.LVL106:
 1120              	.LBE246:
 1121              	.LBE245:
 1122              		.loc 1 314 0
 1123 0014 2946     		mov	r1, r5
 1124 0016 2046     		mov	r0, r4
 1125 0018 FFF7FEFF 		bl	chEvtBroadcastFlagsI
 1126              	.LVL107:
 1127              		.loc 1 315 0
 1128 001c FFF7FEFF 		bl	chSchRescheduleS
 1129              	.LVL108:
 1130              	.LBB250:
 1131              	.LBB251:
 1132              		.loc 3 360 0
 1133 0020 FFF7FEFF 		bl	_dbg_check_unlock
 1134              	.LVL109:
 1135              		.loc 3 361 0
 1136 0024 FFF7FEFF 		bl	_stats_stop_measure_crit_thd
 1137              	.LVL110:
 1138              		.loc 3 367 0
 1139 0028 094B     		ldr	r3, .L87
 1140 002a 1A68     		ldr	r2, [r3]
ARM GAS  C:\Users\stoma\AppData\Local\Temp\ccOU8z64.s 			page 21


 1141 002c 9A42     		cmp	r2, r3
 1142 002e 04D0     		beq	.L84
 1143 0030 9969     		ldr	r1, [r3, #24]
 1144 0032 9368     		ldr	r3, [r2, #8]
 1145 0034 8A68     		ldr	r2, [r1, #8]
 1146 0036 9A42     		cmp	r2, r3
 1147 0038 03D3     		bcc	.L86
 1148              	.L84:
 1149              	.LVL111:
 1150              	.LBB252:
 1151              	.LBB253:
 1152              	.LBB254:
 1153              		.loc 2 546 0
 1154 003a 0023     		movs	r3, #0
 1155              		.syntax unified
 1156              	@ 546 "../../lib/ChibiOS/os/ext/CMSIS/include/core_cmFunc.h" 1
 1157 003c 83F31188 		MSR basepri, r3
 1158              	@ 0 "" 2
 1159              	.LVL112:
 1160              		.thumb
 1161              		.syntax unified
 1162              	.LBE254:
 1163              	.LBE253:
 1164              	.LBE252:
 1165              	.LBE251:
 1166              	.LBE250:
 1167              		.loc 1 317 0
 1168 0040 38BD     		pop	{r3, r4, r5, pc}
 1169              	.LVL113:
 1170              	.L86:
 1171              	.LBB259:
 1172              	.LBB258:
 1173              		.loc 3 367 0
 1174 0042 0448     		ldr	r0, .L87+4
 1175 0044 FFF7FEFF 		bl	chSysHalt
 1176              	.LVL114:
 1177              	.LBB257:
 1178              	.LBB256:
 1179              	.LBB255:
 1180              		.loc 2 546 0
 1181 0048 0023     		movs	r3, #0
 1182              		.syntax unified
 1183              	@ 546 "../../lib/ChibiOS/os/ext/CMSIS/include/core_cmFunc.h" 1
 1184 004a 83F31188 		MSR basepri, r3
 1185              	@ 0 "" 2
 1186              	.LVL115:
 1187              		.thumb
 1188              		.syntax unified
 1189              	.LBE255:
 1190              	.LBE256:
 1191              	.LBE257:
 1192              	.LBE258:
 1193              	.LBE259:
 1194              		.loc 1 317 0
 1195 004e 38BD     		pop	{r3, r4, r5, pc}
 1196              	.LVL116:
 1197              	.L88:
ARM GAS  C:\Users\stoma\AppData\Local\Temp\ccOU8z64.s 			page 22


 1198              		.align	2
 1199              	.L87:
 1200 0050 00000000 		.word	ch
 1201 0054 00000000 		.word	.LANCHOR1
 1202              		.cfi_endproc
 1203              	.LFE227:
 1204              		.size	chEvtBroadcastFlags, .-chEvtBroadcastFlags
 1205              		.section	.text.chEvtGetAndClearFlagsI,"ax",%progbits
 1206              		.align	1
 1207              		.p2align 4,,15
 1208              		.global	chEvtGetAndClearFlagsI
 1209              		.syntax unified
 1210              		.thumb
 1211              		.thumb_func
 1212              		.fpu fpv4-sp-d16
 1213              		.type	chEvtGetAndClearFlagsI, %function
 1214              	chEvtGetAndClearFlagsI:
 1215              	.LFB228:
 1216              		.loc 1 330 0
 1217              		.cfi_startproc
 1218              		@ args = 0, pretend = 0, frame = 0
 1219              		@ frame_needed = 0, uses_anonymous_args = 0
 1220              		@ link register save eliminated.
 1221              	.LVL117:
 1222              		.loc 1 330 0
 1223 0000 0346     		mov	r3, r0
 1224              		.loc 1 334 0
 1225 0002 0022     		movs	r2, #0
 1226              		.loc 1 333 0
 1227 0004 C068     		ldr	r0, [r0, #12]
 1228              	.LVL118:
 1229              		.loc 1 334 0
 1230 0006 DA60     		str	r2, [r3, #12]
 1231              		.loc 1 337 0
 1232 0008 7047     		bx	lr
 1233              		.cfi_endproc
 1234              	.LFE228:
 1235              		.size	chEvtGetAndClearFlagsI, .-chEvtGetAndClearFlagsI
 1236 000a 00BF     		.section	.text.chEvtDispatch,"ax",%progbits
 1237              		.align	1
 1238              		.p2align 4,,15
 1239              		.global	chEvtDispatch
 1240              		.syntax unified
 1241              		.thumb
 1242              		.thumb_func
 1243              		.fpu fpv4-sp-d16
 1244              		.type	chEvtDispatch, %function
 1245              	chEvtDispatch:
 1246              	.LFB229:
 1247              		.loc 1 348 0
 1248              		.cfi_startproc
 1249              		@ args = 0, pretend = 0, frame = 0
 1250              		@ frame_needed = 0, uses_anonymous_args = 0
 1251              	.LVL119:
 1252 0000 2DE9F041 		push	{r4, r5, r6, r7, r8, lr}
 1253              		.cfi_def_cfa_offset 24
 1254              		.cfi_offset 4, -24
ARM GAS  C:\Users\stoma\AppData\Local\Temp\ccOU8z64.s 			page 23


 1255              		.cfi_offset 5, -20
 1256              		.cfi_offset 6, -16
 1257              		.cfi_offset 7, -12
 1258              		.cfi_offset 8, -8
 1259              		.cfi_offset 14, -4
 1260              		.loc 1 348 0
 1261 0004 0D46     		mov	r5, r1
 1262              		.loc 1 351 0
 1263 0006 0646     		mov	r6, r0
 1264 0008 F0B1     		cbz	r0, .L99
 1265              	.LVL120:
 1266              	.L91:
 1267              		.loc 1 354 0
 1268 000a 9DB1     		cbz	r5, .L90
 1269              		.loc 1 356 0
 1270 000c DFF84080 		ldr	r8, .L101
 1271              		.loc 1 354 0
 1272 0010 0024     		movs	r4, #0
 1273              		.loc 1 357 0
 1274 0012 0127     		movs	r7, #1
 1275              	.LVL121:
 1276              	.L92:
 1277              		.loc 1 355 0
 1278 0014 25FA04F3 		lsr	r3, r5, r4
 1279 0018 DB07     		lsls	r3, r3, #31
 1280 001a 0DD5     		bpl	.L94
 1281              		.loc 1 356 0 discriminator 1
 1282 001c 56F82430 		ldr	r3, [r6, r4, lsl #2]
 1283 0020 63B1     		cbz	r3, .L100
 1284              	.L95:
 1285              		.loc 1 357 0
 1286 0022 07FA04F2 		lsl	r2, r7, r4
 1287              		.loc 1 358 0
 1288 0026 2046     		mov	r0, r4
 1289              		.loc 1 357 0
 1290 0028 25EA0205 		bic	r5, r5, r2
 1291              	.LVL122:
 1292              		.loc 1 360 0
 1293 002c 0134     		adds	r4, r4, #1
 1294              	.LVL123:
 1295              		.loc 1 358 0
 1296 002e 9847     		blx	r3
 1297              	.LVL124:
 1298              		.loc 1 354 0
 1299 0030 002D     		cmp	r5, #0
 1300 0032 EFD1     		bne	.L92
 1301              	.LVL125:
 1302              	.L90:
 1303              		.loc 1 362 0
 1304 0034 BDE8F081 		pop	{r4, r5, r6, r7, r8, pc}
 1305              	.LVL126:
 1306              	.L94:
 1307              		.loc 1 360 0
 1308 0038 0134     		adds	r4, r4, #1
 1309              	.LVL127:
 1310 003a EBE7     		b	.L92
 1311              	.L100:
ARM GAS  C:\Users\stoma\AppData\Local\Temp\ccOU8z64.s 			page 24


 1312              		.loc 1 356 0 discriminator 2
 1313 003c 4046     		mov	r0, r8
 1314 003e FFF7FEFF 		bl	chSysHalt
 1315              	.LVL128:
 1316 0042 56F82430 		ldr	r3, [r6, r4, lsl #2]
 1317 0046 ECE7     		b	.L95
 1318              	.LVL129:
 1319              	.L99:
 1320              		.loc 1 351 0 discriminator 2
 1321 0048 0148     		ldr	r0, .L101
 1322              	.LVL130:
 1323 004a FFF7FEFF 		bl	chSysHalt
 1324              	.LVL131:
 1325 004e DCE7     		b	.L91
 1326              	.L102:
 1327              		.align	2
 1328              	.L101:
 1329 0050 00000000 		.word	.LANCHOR6
 1330              		.cfi_endproc
 1331              	.LFE229:
 1332              		.size	chEvtDispatch, .-chEvtDispatch
 1333              		.section	.text.chEvtWaitOne,"ax",%progbits
 1334              		.align	1
 1335              		.p2align 4,,15
 1336              		.global	chEvtWaitOne
 1337              		.syntax unified
 1338              		.thumb
 1339              		.thumb_func
 1340              		.fpu fpv4-sp-d16
 1341              		.type	chEvtWaitOne, %function
 1342              	chEvtWaitOne:
 1343              	.LFB230:
 1344              		.loc 1 383 0
 1345              		.cfi_startproc
 1346              		@ args = 0, pretend = 0, frame = 0
 1347              		@ frame_needed = 0, uses_anonymous_args = 0
 1348              	.LVL132:
 1349 0000 F8B5     		push	{r3, r4, r5, r6, r7, lr}
 1350              		.cfi_def_cfa_offset 24
 1351              		.cfi_offset 3, -24
 1352              		.cfi_offset 4, -20
 1353              		.cfi_offset 5, -16
 1354              		.cfi_offset 6, -12
 1355              		.cfi_offset 7, -8
 1356              		.cfi_offset 14, -4
 1357              		.loc 1 384 0
 1358 0002 194D     		ldr	r5, .L108
 1359              		.loc 1 383 0
 1360 0004 0746     		mov	r7, r0
 1361              		.loc 1 384 0
 1362 0006 AE69     		ldr	r6, [r5, #24]
 1363              	.LVL133:
 1364              	.LBB270:
 1365              	.LBB271:
 1366              	.LBB272:
 1367              	.LBB273:
 1368              	.LBB274:
ARM GAS  C:\Users\stoma\AppData\Local\Temp\ccOU8z64.s 			page 25


 1369              		.loc 2 546 0
 1370 0008 2023     		movs	r3, #32
 1371              		.syntax unified
 1372              	@ 546 "../../lib/ChibiOS/os/ext/CMSIS/include/core_cmFunc.h" 1
 1373 000a 83F31188 		MSR basepri, r3
 1374              	@ 0 "" 2
 1375              	.LVL134:
 1376              		.thumb
 1377              		.syntax unified
 1378              	.LBE274:
 1379              	.LBE273:
 1380              	.LBE272:
 1381              		.loc 3 349 0
 1382 000e FFF7FEFF 		bl	_stats_start_measure_crit_thd
 1383              	.LVL135:
 1384              		.loc 3 350 0
 1385 0012 FFF7FEFF 		bl	_dbg_check_lock
 1386              	.LVL136:
 1387              	.LBE271:
 1388              	.LBE270:
 1389              		.loc 1 388 0
 1390 0016 F36B     		ldr	r3, [r6, #60]
 1391              	.LVL137:
 1392              		.loc 1 389 0
 1393 0018 13EA0702 		ands	r2, r3, r7
 1394              	.LVL138:
 1395 001c 06D1     		bne	.L104
 1396              		.loc 1 390 0
 1397 001e B762     		str	r7, [r6, #40]
 1398              		.loc 1 391 0
 1399 0020 0A20     		movs	r0, #10
 1400 0022 FFF7FEFF 		bl	chSchGoSleepS
 1401              	.LVL139:
 1402              		.loc 1 392 0
 1403 0026 F36B     		ldr	r3, [r6, #60]
 1404 0028 03EA0702 		and	r2, r3, r7
 1405              	.LVL140:
 1406              	.L104:
 1407              		.loc 1 394 0
 1408 002c 5442     		negs	r4, r2
 1409 002e 1440     		ands	r4, r4, r2
 1410              	.LVL141:
 1411              		.loc 1 395 0
 1412 0030 23EA0403 		bic	r3, r3, r4
 1413 0034 F363     		str	r3, [r6, #60]
 1414              	.LBB275:
 1415              	.LBB276:
 1416              		.loc 3 360 0
 1417 0036 FFF7FEFF 		bl	_dbg_check_unlock
 1418              	.LVL142:
 1419              		.loc 3 361 0
 1420 003a FFF7FEFF 		bl	_stats_stop_measure_crit_thd
 1421              	.LVL143:
 1422              		.loc 3 367 0
 1423 003e 2B68     		ldr	r3, [r5]
 1424 0040 AB42     		cmp	r3, r5
 1425 0042 04D0     		beq	.L105
ARM GAS  C:\Users\stoma\AppData\Local\Temp\ccOU8z64.s 			page 26


 1426 0044 AA69     		ldr	r2, [r5, #24]
 1427 0046 9B68     		ldr	r3, [r3, #8]
 1428 0048 9268     		ldr	r2, [r2, #8]
 1429 004a 9A42     		cmp	r2, r3
 1430 004c 04D3     		bcc	.L107
 1431              	.L105:
 1432              	.LVL144:
 1433              	.LBB277:
 1434              	.LBB278:
 1435              	.LBB279:
 1436              		.loc 2 546 0
 1437 004e 0023     		movs	r3, #0
 1438              		.syntax unified
 1439              	@ 546 "../../lib/ChibiOS/os/ext/CMSIS/include/core_cmFunc.h" 1
 1440 0050 83F31188 		MSR basepri, r3
 1441              	@ 0 "" 2
 1442              	.LVL145:
 1443              		.thumb
 1444              		.syntax unified
 1445              	.LBE279:
 1446              	.LBE278:
 1447              	.LBE277:
 1448              	.LBE276:
 1449              	.LBE275:
 1450              		.loc 1 399 0
 1451 0054 2046     		mov	r0, r4
 1452 0056 F8BD     		pop	{r3, r4, r5, r6, r7, pc}
 1453              	.LVL146:
 1454              	.L107:
 1455              	.LBB284:
 1456              	.LBB283:
 1457              		.loc 3 367 0
 1458 0058 0448     		ldr	r0, .L108+4
 1459 005a FFF7FEFF 		bl	chSysHalt
 1460              	.LVL147:
 1461              	.LBB282:
 1462              	.LBB281:
 1463              	.LBB280:
 1464              		.loc 2 546 0
 1465 005e 0023     		movs	r3, #0
 1466              		.syntax unified
 1467              	@ 546 "../../lib/ChibiOS/os/ext/CMSIS/include/core_cmFunc.h" 1
 1468 0060 83F31188 		MSR basepri, r3
 1469              	@ 0 "" 2
 1470              	.LVL148:
 1471              		.thumb
 1472              		.syntax unified
 1473              	.LBE280:
 1474              	.LBE281:
 1475              	.LBE282:
 1476              	.LBE283:
 1477              	.LBE284:
 1478              		.loc 1 399 0
 1479 0064 2046     		mov	r0, r4
 1480 0066 F8BD     		pop	{r3, r4, r5, r6, r7, pc}
 1481              	.LVL149:
 1482              	.L109:
ARM GAS  C:\Users\stoma\AppData\Local\Temp\ccOU8z64.s 			page 27


 1483              		.align	2
 1484              	.L108:
 1485 0068 00000000 		.word	ch
 1486 006c 00000000 		.word	.LANCHOR1
 1487              		.cfi_endproc
 1488              	.LFE230:
 1489              		.size	chEvtWaitOne, .-chEvtWaitOne
 1490              		.section	.text.chEvtWaitAny,"ax",%progbits
 1491              		.align	1
 1492              		.p2align 4,,15
 1493              		.global	chEvtWaitAny
 1494              		.syntax unified
 1495              		.thumb
 1496              		.thumb_func
 1497              		.fpu fpv4-sp-d16
 1498              		.type	chEvtWaitAny, %function
 1499              	chEvtWaitAny:
 1500              	.LFB231:
 1501              		.loc 1 413 0
 1502              		.cfi_startproc
 1503              		@ args = 0, pretend = 0, frame = 0
 1504              		@ frame_needed = 0, uses_anonymous_args = 0
 1505              	.LVL150:
 1506 0000 F8B5     		push	{r3, r4, r5, r6, r7, lr}
 1507              		.cfi_def_cfa_offset 24
 1508              		.cfi_offset 3, -24
 1509              		.cfi_offset 4, -20
 1510              		.cfi_offset 5, -16
 1511              		.cfi_offset 6, -12
 1512              		.cfi_offset 7, -8
 1513              		.cfi_offset 14, -4
 1514              		.loc 1 414 0
 1515 0002 184C     		ldr	r4, .L115
 1516              		.loc 1 413 0
 1517 0004 0646     		mov	r6, r0
 1518              		.loc 1 414 0
 1519 0006 A569     		ldr	r5, [r4, #24]
 1520              	.LVL151:
 1521              	.LBB295:
 1522              	.LBB296:
 1523              	.LBB297:
 1524              	.LBB298:
 1525              	.LBB299:
 1526              		.loc 2 546 0
 1527 0008 2023     		movs	r3, #32
 1528              		.syntax unified
 1529              	@ 546 "../../lib/ChibiOS/os/ext/CMSIS/include/core_cmFunc.h" 1
 1530 000a 83F31188 		MSR basepri, r3
 1531              	@ 0 "" 2
 1532              	.LVL152:
 1533              		.thumb
 1534              		.syntax unified
 1535              	.LBE299:
 1536              	.LBE298:
 1537              	.LBE297:
 1538              		.loc 3 349 0
 1539 000e FFF7FEFF 		bl	_stats_start_measure_crit_thd
ARM GAS  C:\Users\stoma\AppData\Local\Temp\ccOU8z64.s 			page 28


 1540              	.LVL153:
 1541              		.loc 3 350 0
 1542 0012 FFF7FEFF 		bl	_dbg_check_lock
 1543              	.LVL154:
 1544              	.LBE296:
 1545              	.LBE295:
 1546              		.loc 1 418 0
 1547 0016 EB6B     		ldr	r3, [r5, #60]
 1548              	.LVL155:
 1549              		.loc 1 419 0
 1550 0018 13EA0607 		ands	r7, r3, r6
 1551              	.LVL156:
 1552 001c 06D1     		bne	.L111
 1553              		.loc 1 420 0
 1554 001e AE62     		str	r6, [r5, #40]
 1555              		.loc 1 421 0
 1556 0020 0A20     		movs	r0, #10
 1557 0022 FFF7FEFF 		bl	chSchGoSleepS
 1558              	.LVL157:
 1559              		.loc 1 422 0
 1560 0026 EB6B     		ldr	r3, [r5, #60]
 1561 0028 03EA0607 		and	r7, r3, r6
 1562              	.LVL158:
 1563              	.L111:
 1564              		.loc 1 424 0
 1565 002c 23EA0703 		bic	r3, r3, r7
 1566 0030 EB63     		str	r3, [r5, #60]
 1567              	.LBB300:
 1568              	.LBB301:
 1569              		.loc 3 360 0
 1570 0032 FFF7FEFF 		bl	_dbg_check_unlock
 1571              	.LVL159:
 1572              		.loc 3 361 0
 1573 0036 FFF7FEFF 		bl	_stats_stop_measure_crit_thd
 1574              	.LVL160:
 1575              		.loc 3 367 0
 1576 003a 2368     		ldr	r3, [r4]
 1577 003c A342     		cmp	r3, r4
 1578 003e 04D0     		beq	.L112
 1579 0040 A269     		ldr	r2, [r4, #24]
 1580 0042 9B68     		ldr	r3, [r3, #8]
 1581 0044 9268     		ldr	r2, [r2, #8]
 1582 0046 9A42     		cmp	r2, r3
 1583 0048 04D3     		bcc	.L114
 1584              	.L112:
 1585              	.LVL161:
 1586              	.LBB302:
 1587              	.LBB303:
 1588              	.LBB304:
 1589              		.loc 2 546 0
 1590 004a 0023     		movs	r3, #0
 1591              		.syntax unified
 1592              	@ 546 "../../lib/ChibiOS/os/ext/CMSIS/include/core_cmFunc.h" 1
 1593 004c 83F31188 		MSR basepri, r3
 1594              	@ 0 "" 2
 1595              	.LVL162:
 1596              		.thumb
ARM GAS  C:\Users\stoma\AppData\Local\Temp\ccOU8z64.s 			page 29


 1597              		.syntax unified
 1598              	.LBE304:
 1599              	.LBE303:
 1600              	.LBE302:
 1601              	.LBE301:
 1602              	.LBE300:
 1603              		.loc 1 428 0
 1604 0050 3846     		mov	r0, r7
 1605 0052 F8BD     		pop	{r3, r4, r5, r6, r7, pc}
 1606              	.LVL163:
 1607              	.L114:
 1608              	.LBB309:
 1609              	.LBB308:
 1610              		.loc 3 367 0
 1611 0054 0448     		ldr	r0, .L115+4
 1612 0056 FFF7FEFF 		bl	chSysHalt
 1613              	.LVL164:
 1614              	.LBB307:
 1615              	.LBB306:
 1616              	.LBB305:
 1617              		.loc 2 546 0
 1618 005a 0023     		movs	r3, #0
 1619              		.syntax unified
 1620              	@ 546 "../../lib/ChibiOS/os/ext/CMSIS/include/core_cmFunc.h" 1
 1621 005c 83F31188 		MSR basepri, r3
 1622              	@ 0 "" 2
 1623              	.LVL165:
 1624              		.thumb
 1625              		.syntax unified
 1626              	.LBE305:
 1627              	.LBE306:
 1628              	.LBE307:
 1629              	.LBE308:
 1630              	.LBE309:
 1631              		.loc 1 428 0
 1632 0060 3846     		mov	r0, r7
 1633 0062 F8BD     		pop	{r3, r4, r5, r6, r7, pc}
 1634              	.LVL166:
 1635              	.L116:
 1636              		.align	2
 1637              	.L115:
 1638 0064 00000000 		.word	ch
 1639 0068 00000000 		.word	.LANCHOR1
 1640              		.cfi_endproc
 1641              	.LFE231:
 1642              		.size	chEvtWaitAny, .-chEvtWaitAny
 1643              		.section	.text.chEvtWaitAll,"ax",%progbits
 1644              		.align	1
 1645              		.p2align 4,,15
 1646              		.global	chEvtWaitAll
 1647              		.syntax unified
 1648              		.thumb
 1649              		.thumb_func
 1650              		.fpu fpv4-sp-d16
 1651              		.type	chEvtWaitAll, %function
 1652              	chEvtWaitAll:
 1653              	.LFB232:
ARM GAS  C:\Users\stoma\AppData\Local\Temp\ccOU8z64.s 			page 30


 1654              		.loc 1 441 0
 1655              		.cfi_startproc
 1656              		@ args = 0, pretend = 0, frame = 0
 1657              		@ frame_needed = 0, uses_anonymous_args = 0
 1658              	.LVL167:
 1659 0000 70B5     		push	{r4, r5, r6, lr}
 1660              		.cfi_def_cfa_offset 16
 1661              		.cfi_offset 4, -16
 1662              		.cfi_offset 5, -12
 1663              		.cfi_offset 6, -8
 1664              		.cfi_offset 14, -4
 1665              		.loc 1 442 0
 1666 0002 174C     		ldr	r4, .L122
 1667              		.loc 1 441 0
 1668 0004 0546     		mov	r5, r0
 1669              		.loc 1 442 0
 1670 0006 A669     		ldr	r6, [r4, #24]
 1671              	.LVL168:
 1672              	.LBB320:
 1673              	.LBB321:
 1674              	.LBB322:
 1675              	.LBB323:
 1676              	.LBB324:
 1677              		.loc 2 546 0
 1678 0008 2023     		movs	r3, #32
 1679              		.syntax unified
 1680              	@ 546 "../../lib/ChibiOS/os/ext/CMSIS/include/core_cmFunc.h" 1
 1681 000a 83F31188 		MSR basepri, r3
 1682              	@ 0 "" 2
 1683              	.LVL169:
 1684              		.thumb
 1685              		.syntax unified
 1686              	.LBE324:
 1687              	.LBE323:
 1688              	.LBE322:
 1689              		.loc 3 349 0
 1690 000e FFF7FEFF 		bl	_stats_start_measure_crit_thd
 1691              	.LVL170:
 1692              		.loc 3 350 0
 1693 0012 FFF7FEFF 		bl	_dbg_check_lock
 1694              	.LVL171:
 1695              	.LBE321:
 1696              	.LBE320:
 1697              		.loc 1 445 0
 1698 0016 F36B     		ldr	r3, [r6, #60]
 1699 0018 35EA0302 		bics	r2, r5, r3
 1700 001c 04D0     		beq	.L118
 1701              		.loc 1 446 0
 1702 001e B562     		str	r5, [r6, #40]
 1703              		.loc 1 447 0
 1704 0020 0B20     		movs	r0, #11
 1705 0022 FFF7FEFF 		bl	chSchGoSleepS
 1706              	.LVL172:
 1707 0026 F36B     		ldr	r3, [r6, #60]
 1708              	.L118:
 1709              		.loc 1 449 0
 1710 0028 23EA0503 		bic	r3, r3, r5
ARM GAS  C:\Users\stoma\AppData\Local\Temp\ccOU8z64.s 			page 31


 1711 002c F363     		str	r3, [r6, #60]
 1712              	.LBB325:
 1713              	.LBB326:
 1714              		.loc 3 360 0
 1715 002e FFF7FEFF 		bl	_dbg_check_unlock
 1716              	.LVL173:
 1717              		.loc 3 361 0
 1718 0032 FFF7FEFF 		bl	_stats_stop_measure_crit_thd
 1719              	.LVL174:
 1720              		.loc 3 367 0
 1721 0036 2368     		ldr	r3, [r4]
 1722 0038 A342     		cmp	r3, r4
 1723 003a 04D0     		beq	.L119
 1724 003c A269     		ldr	r2, [r4, #24]
 1725 003e 9B68     		ldr	r3, [r3, #8]
 1726 0040 9268     		ldr	r2, [r2, #8]
 1727 0042 9A42     		cmp	r2, r3
 1728 0044 04D3     		bcc	.L121
 1729              	.L119:
 1730              	.LVL175:
 1731              	.LBB327:
 1732              	.LBB328:
 1733              	.LBB329:
 1734              		.loc 2 546 0
 1735 0046 0023     		movs	r3, #0
 1736              		.syntax unified
 1737              	@ 546 "../../lib/ChibiOS/os/ext/CMSIS/include/core_cmFunc.h" 1
 1738 0048 83F31188 		MSR basepri, r3
 1739              	@ 0 "" 2
 1740              	.LVL176:
 1741              		.thumb
 1742              		.syntax unified
 1743              	.LBE329:
 1744              	.LBE328:
 1745              	.LBE327:
 1746              	.LBE326:
 1747              	.LBE325:
 1748              		.loc 1 453 0
 1749 004c 2846     		mov	r0, r5
 1750 004e 70BD     		pop	{r4, r5, r6, pc}
 1751              	.LVL177:
 1752              	.L121:
 1753              	.LBB334:
 1754              	.LBB333:
 1755              		.loc 3 367 0
 1756 0050 0448     		ldr	r0, .L122+4
 1757 0052 FFF7FEFF 		bl	chSysHalt
 1758              	.LVL178:
 1759              	.LBB332:
 1760              	.LBB331:
 1761              	.LBB330:
 1762              		.loc 2 546 0
 1763 0056 0023     		movs	r3, #0
 1764              		.syntax unified
 1765              	@ 546 "../../lib/ChibiOS/os/ext/CMSIS/include/core_cmFunc.h" 1
 1766 0058 83F31188 		MSR basepri, r3
 1767              	@ 0 "" 2
ARM GAS  C:\Users\stoma\AppData\Local\Temp\ccOU8z64.s 			page 32


 1768              	.LVL179:
 1769              		.thumb
 1770              		.syntax unified
 1771              	.LBE330:
 1772              	.LBE331:
 1773              	.LBE332:
 1774              	.LBE333:
 1775              	.LBE334:
 1776              		.loc 1 453 0
 1777 005c 2846     		mov	r0, r5
 1778 005e 70BD     		pop	{r4, r5, r6, pc}
 1779              	.LVL180:
 1780              	.L123:
 1781              		.align	2
 1782              	.L122:
 1783 0060 00000000 		.word	ch
 1784 0064 00000000 		.word	.LANCHOR1
 1785              		.cfi_endproc
 1786              	.LFE232:
 1787              		.size	chEvtWaitAll, .-chEvtWaitAll
 1788              		.section	.text.chEvtWaitOneTimeout,"ax",%progbits
 1789              		.align	1
 1790              		.p2align 4,,15
 1791              		.global	chEvtWaitOneTimeout
 1792              		.syntax unified
 1793              		.thumb
 1794              		.thumb_func
 1795              		.fpu fpv4-sp-d16
 1796              		.type	chEvtWaitOneTimeout, %function
 1797              	chEvtWaitOneTimeout:
 1798              	.LFB233:
 1799              		.loc 1 479 0
 1800              		.cfi_startproc
 1801              		@ args = 0, pretend = 0, frame = 0
 1802              		@ frame_needed = 0, uses_anonymous_args = 0
 1803              	.LVL181:
 1804 0000 2DE9F041 		push	{r4, r5, r6, r7, r8, lr}
 1805              		.cfi_def_cfa_offset 24
 1806              		.cfi_offset 4, -24
 1807              		.cfi_offset 5, -20
 1808              		.cfi_offset 6, -16
 1809              		.cfi_offset 7, -12
 1810              		.cfi_offset 8, -8
 1811              		.cfi_offset 14, -4
 1812              		.loc 1 480 0
 1813 0004 1D4D     		ldr	r5, .L141
 1814              		.loc 1 479 0
 1815 0006 0646     		mov	r6, r0
 1816 0008 8846     		mov	r8, r1
 1817              		.loc 1 480 0
 1818 000a AF69     		ldr	r7, [r5, #24]
 1819              	.LVL182:
 1820              	.LBB355:
 1821              	.LBB356:
 1822              	.LBB357:
 1823              	.LBB358:
 1824              	.LBB359:
ARM GAS  C:\Users\stoma\AppData\Local\Temp\ccOU8z64.s 			page 33


 1825              		.loc 2 546 0
 1826 000c 2023     		movs	r3, #32
 1827              		.syntax unified
 1828              	@ 546 "../../lib/ChibiOS/os/ext/CMSIS/include/core_cmFunc.h" 1
 1829 000e 83F31188 		MSR basepri, r3
 1830              	@ 0 "" 2
 1831              	.LVL183:
 1832              		.thumb
 1833              		.syntax unified
 1834              	.LBE359:
 1835              	.LBE358:
 1836              	.LBE357:
 1837              		.loc 3 349 0
 1838 0012 FFF7FEFF 		bl	_stats_start_measure_crit_thd
 1839              	.LVL184:
 1840              		.loc 3 350 0
 1841 0016 FFF7FEFF 		bl	_dbg_check_lock
 1842              	.LVL185:
 1843              	.LBE356:
 1844              	.LBE355:
 1845              		.loc 1 484 0
 1846 001a FB6B     		ldr	r3, [r7, #60]
 1847              	.LVL186:
 1848              		.loc 1 485 0
 1849 001c 13EA0604 		ands	r4, r3, r6
 1850              	.LVL187:
 1851 0020 0CD1     		bne	.L125
 1852              		.loc 1 486 0
 1853 0022 B8F1000F 		cmp	r8, #0
 1854 0026 0ED0     		beq	.L138
 1855              		.loc 1 490 0
 1856 0028 BE62     		str	r6, [r7, #40]
 1857              		.loc 1 491 0
 1858 002a 4146     		mov	r1, r8
 1859 002c 0A20     		movs	r0, #10
 1860 002e FFF7FEFF 		bl	chSchGoSleepTimeoutS
 1861              	.LVL188:
 1862 0032 0028     		cmp	r0, #0
 1863 0034 07DB     		blt	.L138
 1864              		.loc 1 495 0
 1865 0036 FB6B     		ldr	r3, [r7, #60]
 1866 0038 03EA0604 		and	r4, r3, r6
 1867              	.LVL189:
 1868              	.L125:
 1869              		.loc 1 497 0
 1870 003c 6242     		negs	r2, r4
 1871 003e 1440     		ands	r4, r4, r2
 1872              	.LVL190:
 1873              		.loc 1 498 0
 1874 0040 23EA0403 		bic	r3, r3, r4
 1875 0044 FB63     		str	r3, [r7, #60]
 1876              	.LVL191:
 1877              	.L138:
 1878              	.LBB360:
 1879              	.LBB361:
 1880              		.loc 3 360 0
 1881 0046 FFF7FEFF 		bl	_dbg_check_unlock
ARM GAS  C:\Users\stoma\AppData\Local\Temp\ccOU8z64.s 			page 34


 1882              	.LVL192:
 1883              		.loc 3 361 0
 1884 004a FFF7FEFF 		bl	_stats_stop_measure_crit_thd
 1885              	.LVL193:
 1886              		.loc 3 367 0
 1887 004e 2B68     		ldr	r3, [r5]
 1888 0050 AB42     		cmp	r3, r5
 1889 0052 04D0     		beq	.L131
 1890 0054 AA69     		ldr	r2, [r5, #24]
 1891 0056 9B68     		ldr	r3, [r3, #8]
 1892 0058 9268     		ldr	r2, [r2, #8]
 1893 005a 9A42     		cmp	r2, r3
 1894 005c 05D3     		bcc	.L140
 1895              	.L131:
 1896              	.LVL194:
 1897              	.LBB362:
 1898              	.LBB363:
 1899              	.LBB364:
 1900              		.loc 2 546 0
 1901 005e 0023     		movs	r3, #0
 1902              		.syntax unified
 1903              	@ 546 "../../lib/ChibiOS/os/ext/CMSIS/include/core_cmFunc.h" 1
 1904 0060 83F31188 		MSR basepri, r3
 1905              	@ 0 "" 2
 1906              	.LVL195:
 1907              		.thumb
 1908              		.syntax unified
 1909              	.LBE364:
 1910              	.LBE363:
 1911              	.LBE362:
 1912              	.LBE361:
 1913              	.LBE360:
 1914              		.loc 1 502 0
 1915 0064 2046     		mov	r0, r4
 1916 0066 BDE8F081 		pop	{r4, r5, r6, r7, r8, pc}
 1917              	.LVL196:
 1918              	.L140:
 1919              	.LBB369:
 1920              	.LBB368:
 1921              		.loc 3 367 0
 1922 006a 0548     		ldr	r0, .L141+4
 1923 006c FFF7FEFF 		bl	chSysHalt
 1924              	.LVL197:
 1925              	.LBB367:
 1926              	.LBB366:
 1927              	.LBB365:
 1928              		.loc 2 546 0
 1929 0070 0023     		movs	r3, #0
 1930              		.syntax unified
 1931              	@ 546 "../../lib/ChibiOS/os/ext/CMSIS/include/core_cmFunc.h" 1
 1932 0072 83F31188 		MSR basepri, r3
 1933              	@ 0 "" 2
 1934              	.LVL198:
 1935              		.thumb
 1936              		.syntax unified
 1937              	.LBE365:
 1938              	.LBE366:
ARM GAS  C:\Users\stoma\AppData\Local\Temp\ccOU8z64.s 			page 35


 1939              	.LBE367:
 1940              	.LBE368:
 1941              	.LBE369:
 1942              		.loc 1 502 0
 1943 0076 2046     		mov	r0, r4
 1944 0078 BDE8F081 		pop	{r4, r5, r6, r7, r8, pc}
 1945              	.LVL199:
 1946              	.L142:
 1947              		.align	2
 1948              	.L141:
 1949 007c 00000000 		.word	ch
 1950 0080 00000000 		.word	.LANCHOR1
 1951              		.cfi_endproc
 1952              	.LFE233:
 1953              		.size	chEvtWaitOneTimeout, .-chEvtWaitOneTimeout
 1954              		.section	.text.chEvtWaitAnyTimeout,"ax",%progbits
 1955              		.align	1
 1956              		.p2align 4,,15
 1957              		.global	chEvtWaitAnyTimeout
 1958              		.syntax unified
 1959              		.thumb
 1960              		.thumb_func
 1961              		.fpu fpv4-sp-d16
 1962              		.type	chEvtWaitAnyTimeout, %function
 1963              	chEvtWaitAnyTimeout:
 1964              	.LFB234:
 1965              		.loc 1 522 0
 1966              		.cfi_startproc
 1967              		@ args = 0, pretend = 0, frame = 0
 1968              		@ frame_needed = 0, uses_anonymous_args = 0
 1969              	.LVL200:
 1970 0000 2DE9F041 		push	{r4, r5, r6, r7, r8, lr}
 1971              		.cfi_def_cfa_offset 24
 1972              		.cfi_offset 4, -24
 1973              		.cfi_offset 5, -20
 1974              		.cfi_offset 6, -16
 1975              		.cfi_offset 7, -12
 1976              		.cfi_offset 8, -8
 1977              		.cfi_offset 14, -4
 1978              		.loc 1 523 0
 1979 0004 1C4C     		ldr	r4, .L160
 1980              		.loc 1 522 0
 1981 0006 0546     		mov	r5, r0
 1982 0008 8846     		mov	r8, r1
 1983              		.loc 1 523 0
 1984 000a A669     		ldr	r6, [r4, #24]
 1985              	.LVL201:
 1986              	.LBB390:
 1987              	.LBB391:
 1988              	.LBB392:
 1989              	.LBB393:
 1990              	.LBB394:
 1991              		.loc 2 546 0
 1992 000c 2023     		movs	r3, #32
 1993              		.syntax unified
 1994              	@ 546 "../../lib/ChibiOS/os/ext/CMSIS/include/core_cmFunc.h" 1
 1995 000e 83F31188 		MSR basepri, r3
ARM GAS  C:\Users\stoma\AppData\Local\Temp\ccOU8z64.s 			page 36


 1996              	@ 0 "" 2
 1997              	.LVL202:
 1998              		.thumb
 1999              		.syntax unified
 2000              	.LBE394:
 2001              	.LBE393:
 2002              	.LBE392:
 2003              		.loc 3 349 0
 2004 0012 FFF7FEFF 		bl	_stats_start_measure_crit_thd
 2005              	.LVL203:
 2006              		.loc 3 350 0
 2007 0016 FFF7FEFF 		bl	_dbg_check_lock
 2008              	.LVL204:
 2009              	.LBE391:
 2010              	.LBE390:
 2011              		.loc 1 527 0
 2012 001a F36B     		ldr	r3, [r6, #60]
 2013              	.LVL205:
 2014              		.loc 1 528 0
 2015 001c 13EA0507 		ands	r7, r3, r5
 2016              	.LVL206:
 2017 0020 0CD1     		bne	.L144
 2018              		.loc 1 529 0
 2019 0022 B8F1000F 		cmp	r8, #0
 2020 0026 0CD0     		beq	.L157
 2021              		.loc 1 533 0
 2022 0028 B562     		str	r5, [r6, #40]
 2023              		.loc 1 534 0
 2024 002a 4146     		mov	r1, r8
 2025 002c 0A20     		movs	r0, #10
 2026 002e FFF7FEFF 		bl	chSchGoSleepTimeoutS
 2027              	.LVL207:
 2028 0032 0028     		cmp	r0, #0
 2029 0034 05DB     		blt	.L157
 2030              		.loc 1 538 0
 2031 0036 F36B     		ldr	r3, [r6, #60]
 2032 0038 03EA0507 		and	r7, r3, r5
 2033              	.LVL208:
 2034              	.L144:
 2035              		.loc 1 540 0
 2036 003c 23EA0703 		bic	r3, r3, r7
 2037 0040 F363     		str	r3, [r6, #60]
 2038              	.LVL209:
 2039              	.L157:
 2040              	.LBB395:
 2041              	.LBB396:
 2042              		.loc 3 360 0
 2043 0042 FFF7FEFF 		bl	_dbg_check_unlock
 2044              	.LVL210:
 2045              		.loc 3 361 0
 2046 0046 FFF7FEFF 		bl	_stats_stop_measure_crit_thd
 2047              	.LVL211:
 2048              		.loc 3 367 0
 2049 004a 2368     		ldr	r3, [r4]
 2050 004c A342     		cmp	r3, r4
 2051 004e 04D0     		beq	.L150
 2052 0050 A269     		ldr	r2, [r4, #24]
ARM GAS  C:\Users\stoma\AppData\Local\Temp\ccOU8z64.s 			page 37


 2053 0052 9B68     		ldr	r3, [r3, #8]
 2054 0054 9268     		ldr	r2, [r2, #8]
 2055 0056 9A42     		cmp	r2, r3
 2056 0058 05D3     		bcc	.L159
 2057              	.L150:
 2058              	.LVL212:
 2059              	.LBB397:
 2060              	.LBB398:
 2061              	.LBB399:
 2062              		.loc 2 546 0
 2063 005a 0023     		movs	r3, #0
 2064              		.syntax unified
 2065              	@ 546 "../../lib/ChibiOS/os/ext/CMSIS/include/core_cmFunc.h" 1
 2066 005c 83F31188 		MSR basepri, r3
 2067              	@ 0 "" 2
 2068              	.LVL213:
 2069              		.thumb
 2070              		.syntax unified
 2071              	.LBE399:
 2072              	.LBE398:
 2073              	.LBE397:
 2074              	.LBE396:
 2075              	.LBE395:
 2076              		.loc 1 544 0
 2077 0060 3846     		mov	r0, r7
 2078 0062 BDE8F081 		pop	{r4, r5, r6, r7, r8, pc}
 2079              	.LVL214:
 2080              	.L159:
 2081              	.LBB404:
 2082              	.LBB403:
 2083              		.loc 3 367 0
 2084 0066 0548     		ldr	r0, .L160+4
 2085 0068 FFF7FEFF 		bl	chSysHalt
 2086              	.LVL215:
 2087              	.LBB402:
 2088              	.LBB401:
 2089              	.LBB400:
 2090              		.loc 2 546 0
 2091 006c 0023     		movs	r3, #0
 2092              		.syntax unified
 2093              	@ 546 "../../lib/ChibiOS/os/ext/CMSIS/include/core_cmFunc.h" 1
 2094 006e 83F31188 		MSR basepri, r3
 2095              	@ 0 "" 2
 2096              	.LVL216:
 2097              		.thumb
 2098              		.syntax unified
 2099              	.LBE400:
 2100              	.LBE401:
 2101              	.LBE402:
 2102              	.LBE403:
 2103              	.LBE404:
 2104              		.loc 1 544 0
 2105 0072 3846     		mov	r0, r7
 2106 0074 BDE8F081 		pop	{r4, r5, r6, r7, r8, pc}
 2107              	.LVL217:
 2108              	.L161:
 2109              		.align	2
ARM GAS  C:\Users\stoma\AppData\Local\Temp\ccOU8z64.s 			page 38


 2110              	.L160:
 2111 0078 00000000 		.word	ch
 2112 007c 00000000 		.word	.LANCHOR1
 2113              		.cfi_endproc
 2114              	.LFE234:
 2115              		.size	chEvtWaitAnyTimeout, .-chEvtWaitAnyTimeout
 2116              		.section	.text.chEvtWaitAllTimeout,"ax",%progbits
 2117              		.align	1
 2118              		.p2align 4,,15
 2119              		.global	chEvtWaitAllTimeout
 2120              		.syntax unified
 2121              		.thumb
 2122              		.thumb_func
 2123              		.fpu fpv4-sp-d16
 2124              		.type	chEvtWaitAllTimeout, %function
 2125              	chEvtWaitAllTimeout:
 2126              	.LFB235:
 2127              		.loc 1 563 0
 2128              		.cfi_startproc
 2129              		@ args = 0, pretend = 0, frame = 0
 2130              		@ frame_needed = 0, uses_anonymous_args = 0
 2131              	.LVL218:
 2132 0000 F8B5     		push	{r3, r4, r5, r6, r7, lr}
 2133              		.cfi_def_cfa_offset 24
 2134              		.cfi_offset 3, -24
 2135              		.cfi_offset 4, -20
 2136              		.cfi_offset 5, -16
 2137              		.cfi_offset 6, -12
 2138              		.cfi_offset 7, -8
 2139              		.cfi_offset 14, -4
 2140              		.loc 1 564 0
 2141 0002 234D     		ldr	r5, .L176
 2142              		.loc 1 563 0
 2143 0004 0446     		mov	r4, r0
 2144 0006 0F46     		mov	r7, r1
 2145              		.loc 1 564 0
 2146 0008 AE69     		ldr	r6, [r5, #24]
 2147              	.LVL219:
 2148              	.LBB425:
 2149              	.LBB426:
 2150              	.LBB427:
 2151              	.LBB428:
 2152              	.LBB429:
 2153              		.loc 2 546 0
 2154 000a 2023     		movs	r3, #32
 2155              		.syntax unified
 2156              	@ 546 "../../lib/ChibiOS/os/ext/CMSIS/include/core_cmFunc.h" 1
 2157 000c 83F31188 		MSR basepri, r3
 2158              	@ 0 "" 2
 2159              	.LVL220:
 2160              		.thumb
 2161              		.syntax unified
 2162              	.LBE429:
 2163              	.LBE428:
 2164              	.LBE427:
 2165              		.loc 3 349 0
 2166 0010 FFF7FEFF 		bl	_stats_start_measure_crit_thd
ARM GAS  C:\Users\stoma\AppData\Local\Temp\ccOU8z64.s 			page 39


 2167              	.LVL221:
 2168              		.loc 3 350 0
 2169 0014 FFF7FEFF 		bl	_dbg_check_lock
 2170              	.LVL222:
 2171              	.LBE426:
 2172              	.LBE425:
 2173              		.loc 1 567 0
 2174 0018 F36B     		ldr	r3, [r6, #60]
 2175 001a 34EA0302 		bics	r2, r4, r3
 2176 001e 08D0     		beq	.L163
 2177              		.loc 1 568 0
 2178 0020 DFB1     		cbz	r7, .L167
 2179              		.loc 1 572 0
 2180 0022 B462     		str	r4, [r6, #40]
 2181              		.loc 1 573 0
 2182 0024 3946     		mov	r1, r7
 2183 0026 0B20     		movs	r0, #11
 2184 0028 FFF7FEFF 		bl	chSchGoSleepTimeoutS
 2185              	.LVL223:
 2186 002c 0028     		cmp	r0, #0
 2187 002e 14DB     		blt	.L167
 2188 0030 F36B     		ldr	r3, [r6, #60]
 2189              	.L163:
 2190              		.loc 1 578 0
 2191 0032 23EA0403 		bic	r3, r3, r4
 2192 0036 F363     		str	r3, [r6, #60]
 2193              	.LBB430:
 2194              	.LBB431:
 2195              		.loc 3 360 0
 2196 0038 FFF7FEFF 		bl	_dbg_check_unlock
 2197              	.LVL224:
 2198              		.loc 3 361 0
 2199 003c FFF7FEFF 		bl	_stats_stop_measure_crit_thd
 2200              	.LVL225:
 2201              		.loc 3 367 0
 2202 0040 2B68     		ldr	r3, [r5]
 2203 0042 AB42     		cmp	r3, r5
 2204 0044 04D0     		beq	.L169
 2205 0046 AA69     		ldr	r2, [r5, #24]
 2206 0048 9B68     		ldr	r3, [r3, #8]
 2207 004a 9268     		ldr	r2, [r2, #8]
 2208 004c 9A42     		cmp	r2, r3
 2209 004e 17D3     		bcc	.L175
 2210              	.L169:
 2211              	.LVL226:
 2212              	.LBB432:
 2213              	.LBB433:
 2214              	.LBB434:
 2215              		.loc 2 546 0
 2216 0050 0023     		movs	r3, #0
 2217              		.syntax unified
 2218              	@ 546 "../../lib/ChibiOS/os/ext/CMSIS/include/core_cmFunc.h" 1
 2219 0052 83F31188 		MSR basepri, r3
 2220              	@ 0 "" 2
 2221              	.LVL227:
 2222              		.thumb
 2223              		.syntax unified
ARM GAS  C:\Users\stoma\AppData\Local\Temp\ccOU8z64.s 			page 40


 2224 0056 2046     		mov	r0, r4
 2225              	.LVL228:
 2226              	.L162:
 2227              	.LBE434:
 2228              	.LBE433:
 2229              	.LBE432:
 2230              	.LBE431:
 2231              	.LBE430:
 2232              		.loc 1 582 0
 2233 0058 F8BD     		pop	{r3, r4, r5, r6, r7, pc}
 2234              	.LVL229:
 2235              	.L167:
 2236              	.LBB439:
 2237              	.LBB440:
 2238              		.loc 3 360 0
 2239 005a FFF7FEFF 		bl	_dbg_check_unlock
 2240              	.LVL230:
 2241              		.loc 3 361 0
 2242 005e FFF7FEFF 		bl	_stats_stop_measure_crit_thd
 2243              	.LVL231:
 2244              		.loc 3 367 0
 2245 0062 2B68     		ldr	r3, [r5]
 2246 0064 AB42     		cmp	r3, r5
 2247 0066 07D0     		beq	.L168
 2248 0068 AA69     		ldr	r2, [r5, #24]
 2249 006a 9B68     		ldr	r3, [r3, #8]
 2250 006c 9268     		ldr	r2, [r2, #8]
 2251 006e 9A42     		cmp	r2, r3
 2252 0070 02D2     		bcs	.L168
 2253 0072 0848     		ldr	r0, .L176+4
 2254 0074 FFF7FEFF 		bl	chSysHalt
 2255              	.LVL232:
 2256              	.L168:
 2257              	.LBB441:
 2258              	.LBB442:
 2259              	.LBB443:
 2260              		.loc 2 546 0
 2261 0078 0020     		movs	r0, #0
 2262              		.syntax unified
 2263              	@ 546 "../../lib/ChibiOS/os/ext/CMSIS/include/core_cmFunc.h" 1
 2264 007a 80F31188 		MSR basepri, r0
 2265              	@ 0 "" 2
 2266              	.LVL233:
 2267              		.thumb
 2268              		.syntax unified
 2269              	.LBE443:
 2270              	.LBE442:
 2271              	.LBE441:
 2272              	.LBE440:
 2273              	.LBE439:
 2274              		.loc 1 582 0
 2275 007e F8BD     		pop	{r3, r4, r5, r6, r7, pc}
 2276              	.LVL234:
 2277              	.L175:
 2278              	.LBB444:
 2279              	.LBB438:
 2280              		.loc 3 367 0
ARM GAS  C:\Users\stoma\AppData\Local\Temp\ccOU8z64.s 			page 41


 2281 0080 0448     		ldr	r0, .L176+4
 2282 0082 FFF7FEFF 		bl	chSysHalt
 2283              	.LVL235:
 2284              	.LBB437:
 2285              	.LBB436:
 2286              	.LBB435:
 2287              		.loc 2 546 0
 2288 0086 0023     		movs	r3, #0
 2289              		.syntax unified
 2290              	@ 546 "../../lib/ChibiOS/os/ext/CMSIS/include/core_cmFunc.h" 1
 2291 0088 83F31188 		MSR basepri, r3
 2292              	@ 0 "" 2
 2293              	.LVL236:
 2294              		.thumb
 2295              		.syntax unified
 2296 008c 2046     		mov	r0, r4
 2297 008e E3E7     		b	.L162
 2298              	.L177:
 2299              		.align	2
 2300              	.L176:
 2301 0090 00000000 		.word	ch
 2302 0094 00000000 		.word	.LANCHOR1
 2303              	.LBE435:
 2304              	.LBE436:
 2305              	.LBE437:
 2306              	.LBE438:
 2307              	.LBE444:
 2308              		.cfi_endproc
 2309              	.LFE235:
 2310              		.size	chEvtWaitAllTimeout, .-chEvtWaitAllTimeout
 2311              		.section	.rodata.__func__.7153,"a",%progbits
 2312              		.align	2
 2313              		.set	.LANCHOR1,. + 0
 2314              		.type	__func__.7153, %object
 2315              		.size	__func__.7153, 12
 2316              	__func__.7153:
 2317 0000 63685379 		.ascii	"chSysUnlock\000"
 2317      73556E6C 
 2317      6F636B00 
 2318              		.section	.rodata.__func__.7852,"a",%progbits
 2319              		.align	2
 2320              		.set	.LANCHOR0,. + 0
 2321              		.type	__func__.7852, %object
 2322              		.size	__func__.7852, 27
 2323              	__func__.7852:
 2324 0000 63684576 		.ascii	"chEvtRegisterMaskWithFlags\000"
 2324      74526567 
 2324      69737465 
 2324      724D6173 
 2324      6B576974 
 2325              		.section	.rodata.__func__.7858,"a",%progbits
 2326              		.align	2
 2327              		.set	.LANCHOR2,. + 0
 2328              		.type	__func__.7858, %object
 2329              		.size	__func__.7858, 16
 2330              	__func__.7858:
 2331 0000 63684576 		.ascii	"chEvtUnregister\000"
ARM GAS  C:\Users\stoma\AppData\Local\Temp\ccOU8z64.s 			page 42


 2331      74556E72 
 2331      65676973 
 2331      74657200 
 2332              		.section	.rodata.__func__.7874,"a",%progbits
 2333              		.align	2
 2334              		.set	.LANCHOR4,. + 0
 2335              		.type	__func__.7874, %object
 2336              		.size	__func__.7874, 21
 2337              	__func__.7874:
 2338 0000 63684576 		.ascii	"chEvtBroadcastFlagsI\000"
 2338      7442726F 
 2338      61646361 
 2338      7374466C 
 2338      61677349 
 2339              		.section	.rodata.__func__.7886,"a",%progbits
 2340              		.align	2
 2341              		.set	.LANCHOR5,. + 0
 2342              		.type	__func__.7886, %object
 2343              		.size	__func__.7886, 12
 2344              	__func__.7886:
 2345 0000 63684576 		.ascii	"chEvtSignal\000"
 2345      74536967 
 2345      6E616C00 
 2346              		.section	.rodata.__func__.7891,"a",%progbits
 2347              		.align	2
 2348              		.set	.LANCHOR3,. + 0
 2349              		.type	__func__.7891, %object
 2350              		.size	__func__.7891, 13
 2351              	__func__.7891:
 2352 0000 63684576 		.ascii	"chEvtSignalI\000"
 2352      74536967 
 2352      6E616C49 
 2352      00
 2353              		.section	.rodata.__func__.7905,"a",%progbits
 2354              		.align	2
 2355              		.set	.LANCHOR6,. + 0
 2356              		.type	__func__.7905, %object
 2357              		.size	__func__.7905, 14
 2358              	__func__.7905:
 2359 0000 63684576 		.ascii	"chEvtDispatch\000"
 2359      74446973 
 2359      70617463 
 2359      6800
 2360              		.text
 2361              	.Letext0:
 2362              		.file 4 "c:\\users\\stoma\\desktop\\eclipse_e-puck2\\tools\\gcc-arm-none-eabi-7-2017-q4-major-win3
 2363              		.file 5 "c:\\users\\stoma\\desktop\\eclipse_e-puck2\\tools\\gcc-arm-none-eabi-7-2017-q4-major-win3
 2364              		.file 6 "../../lib/ChibiOS/os/rt/ports/ARMCMx/compilers/GCC/chtypes.h"
 2365              		.file 7 "../../lib/ChibiOS/os/rt/include/chsystypes.h"
 2366              		.file 8 "../../lib/ChibiOS/os/rt/include/chschd.h"
 2367              		.file 9 "../../lib/ChibiOS/os/ext/CMSIS/include/core_cm4.h"
 2368              		.file 10 "../../lib/ChibiOS/os/ext/CMSIS/ST/system_stm32f4xx.h"
 2369              		.file 11 "../../lib/ChibiOS/os/rt/ports/ARMCMx/chcore.h"
 2370              		.file 12 "../../lib/ChibiOS/os/rt/ports/ARMCMx/chcore_v7m.h"
 2371              		.file 13 "../../lib/ChibiOS/os/rt/include/chdebug.h"
 2372              		.file 14 "../../lib/ChibiOS/os/rt/include/chtm.h"
 2373              		.file 15 "../../lib/ChibiOS/os/rt/include/chstats.h"
ARM GAS  C:\Users\stoma\AppData\Local\Temp\ccOU8z64.s 			page 43


 2374              		.file 16 "../../lib/ChibiOS/os/rt/include/chsem.h"
 2375              		.file 17 "../../lib/ChibiOS/os/rt/include/chmtx.h"
 2376              		.file 18 "../../lib/ChibiOS/os/rt/include/chregistry.h"
 2377              		.file 19 "../../lib/ChibiOS/os/rt/include/chevents.h"