ARM GAS  /var/folders/km/q6jdms0143g2bddz5bhvdfd00000gn/T//ccnwGrRw.s 			page 1


   1              		.cpu cortex-m4
   2              		.eabi_attribute 27, 1
   3              		.eabi_attribute 28, 1
   4              		.eabi_attribute 20, 1
   5              		.eabi_attribute 21, 1
   6              		.eabi_attribute 23, 3
   7              		.eabi_attribute 24, 1
   8              		.eabi_attribute 25, 1
   9              		.eabi_attribute 26, 1
  10              		.eabi_attribute 30, 2
  11              		.eabi_attribute 34, 1
  12              		.eabi_attribute 18, 4
  13              		.file	"chmempools.c"
  14              		.text
  15              	.Ltext0:
  16              		.cfi_sections	.debug_frame
  17              		.section	.text.chPoolObjectInit,"ax",%progbits
  18              		.align	1
  19              		.p2align 4,,15
  20              		.global	chPoolObjectInit
  21              		.syntax unified
  22              		.thumb
  23              		.thumb_func
  24              		.fpu fpv4-sp-d16
  25              		.type	chPoolObjectInit, %function
  26              	chPoolObjectInit:
  27              	.LFB219:
  28              		.file 1 "../../lib/ChibiOS/os/rt/src/chmempools.c"
  29              		.loc 1 75 0
  30              		.cfi_startproc
  31              		@ args = 0, pretend = 0, frame = 0
  32              		@ frame_needed = 0, uses_anonymous_args = 0
  33              	.LVL0:
  34 0000 70B5     		push	{r4, r5, r6, lr}
  35              		.cfi_def_cfa_offset 16
  36              		.cfi_offset 4, -16
  37              		.cfi_offset 5, -12
  38              		.cfi_offset 6, -8
  39              		.cfi_offset 14, -4
  40              		.loc 1 75 0
  41 0002 0D46     		mov	r5, r1
  42 0004 1646     		mov	r6, r2
  43              		.loc 1 77 0
  44 0006 0446     		mov	r4, r0
  45 0008 08B1     		cbz	r0, .L2
  46              		.loc 1 77 0 is_stmt 0 discriminator 3
  47 000a 0329     		cmp	r1, #3
  48 000c 02D8     		bhi	.L3
  49              	.L2:
  50              		.loc 1 77 0 discriminator 4
  51 000e 0448     		ldr	r0, .L9
  52              	.LVL1:
  53 0010 FFF7FEFF 		bl	chSysHalt
  54              	.LVL2:
  55              	.L3:
  56              		.loc 1 79 0 is_stmt 1
  57 0014 0023     		movs	r3, #0
ARM GAS  /var/folders/km/q6jdms0143g2bddz5bhvdfd00000gn/T//ccnwGrRw.s 			page 2


  58              		.loc 1 81 0
  59 0016 C4E90156 		strd	r5, r6, [r4, #4]
  60              		.loc 1 79 0
  61 001a 2360     		str	r3, [r4]
  62              		.loc 1 82 0
  63 001c 70BD     		pop	{r4, r5, r6, pc}
  64              	.LVL3:
  65              	.L10:
  66 001e 00BF     		.align	2
  67              	.L9:
  68 0020 00000000 		.word	.LANCHOR0
  69              		.cfi_endproc
  70              	.LFE219:
  71              		.size	chPoolObjectInit, .-chPoolObjectInit
  72              		.section	.text.chPoolAllocI,"ax",%progbits
  73              		.align	1
  74              		.p2align 4,,15
  75              		.global	chPoolAllocI
  76              		.syntax unified
  77              		.thumb
  78              		.thumb_func
  79              		.fpu fpv4-sp-d16
  80              		.type	chPoolAllocI, %function
  81              	chPoolAllocI:
  82              	.LFB221:
  83              		.loc 1 120 0
  84              		.cfi_startproc
  85              		@ args = 0, pretend = 0, frame = 0
  86              		@ frame_needed = 0, uses_anonymous_args = 0
  87              	.LVL4:
  88 0000 10B5     		push	{r4, lr}
  89              		.cfi_def_cfa_offset 8
  90              		.cfi_offset 4, -8
  91              		.cfi_offset 14, -4
  92              		.loc 1 120 0
  93 0002 0446     		mov	r4, r0
  94              		.loc 1 123 0
  95 0004 FFF7FEFF 		bl	chDbgCheckClassI
  96              	.LVL5:
  97              		.loc 1 124 0
  98 0008 5CB1     		cbz	r4, .L19
  99              	.L12:
 100              		.loc 1 126 0
 101 000a 2068     		ldr	r0, [r4]
 102              	.LVL6:
 103              		.loc 1 128 0
 104 000c 10B1     		cbz	r0, .L13
 105              		.loc 1 129 0
 106 000e 0368     		ldr	r3, [r0]
 107 0010 2360     		str	r3, [r4]
 108              	.L11:
 109              		.loc 1 137 0
 110 0012 10BD     		pop	{r4, pc}
 111              	.LVL7:
 112              	.L13:
 113              	.LBB28:
 114              	.LBB29:
ARM GAS  /var/folders/km/q6jdms0143g2bddz5bhvdfd00000gn/T//ccnwGrRw.s 			page 3


 115              		.loc 1 131 0
 116 0014 A368     		ldr	r3, [r4, #8]
 117 0016 002B     		cmp	r3, #0
 118 0018 FBD0     		beq	.L11
 119              		.loc 1 132 0
 120 001a 6068     		ldr	r0, [r4, #4]
 121              	.LVL8:
 122              	.LBE29:
 123              	.LBE28:
 124              		.loc 1 137 0
 125 001c BDE81040 		pop	{r4, lr}
 126              		.cfi_remember_state
 127              		.cfi_restore 14
 128              		.cfi_restore 4
 129              		.cfi_def_cfa_offset 0
 130              	.LVL9:
 131              	.LBB31:
 132              	.LBB30:
 133              		.loc 1 132 0
 134 0020 1847     		bx	r3
 135              	.LVL10:
 136              	.L19:
 137              		.cfi_restore_state
 138              	.LBE30:
 139              	.LBE31:
 140              		.loc 1 124 0 discriminator 2
 141 0022 0248     		ldr	r0, .L20
 142 0024 FFF7FEFF 		bl	chSysHalt
 143              	.LVL11:
 144 0028 EFE7     		b	.L12
 145              	.L21:
 146 002a 00BF     		.align	2
 147              	.L20:
 148 002c 00000000 		.word	.LANCHOR1
 149              		.cfi_endproc
 150              	.LFE221:
 151              		.size	chPoolAllocI, .-chPoolAllocI
 152              		.section	.text.chPoolAlloc,"ax",%progbits
 153              		.align	1
 154              		.p2align 4,,15
 155              		.global	chPoolAlloc
 156              		.syntax unified
 157              		.thumb
 158              		.thumb_func
 159              		.fpu fpv4-sp-d16
 160              		.type	chPoolAlloc, %function
 161              	chPoolAlloc:
 162              	.LFB222:
 163              		.loc 1 149 0
 164              		.cfi_startproc
 165              		@ args = 0, pretend = 0, frame = 0
 166              		@ frame_needed = 0, uses_anonymous_args = 0
 167              	.LVL12:
 168 0000 10B5     		push	{r4, lr}
 169              		.cfi_def_cfa_offset 8
 170              		.cfi_offset 4, -8
 171              		.cfi_offset 14, -4
ARM GAS  /var/folders/km/q6jdms0143g2bddz5bhvdfd00000gn/T//ccnwGrRw.s 			page 4


 172              	.LBB42:
 173              	.LBB43:
 174              	.LBB44:
 175              	.LBB45:
 176              	.LBB46:
 177              		.file 2 "../../lib/ChibiOS/os/ext/CMSIS/include/core_cmFunc.h"
 178              		.loc 2 546 0
 179 0002 2023     		movs	r3, #32
 180              	.LBE46:
 181              	.LBE45:
 182              	.LBE44:
 183              	.LBE43:
 184              	.LBE42:
 185              		.loc 1 149 0
 186 0004 0446     		mov	r4, r0
 187              	.LBB51:
 188              	.LBB50:
 189              	.LBB49:
 190              	.LBB48:
 191              	.LBB47:
 192              		.loc 2 546 0
 193              		.syntax unified
 194              	@ 546 "../../lib/ChibiOS/os/ext/CMSIS/include/core_cmFunc.h" 1
 195 0006 83F31188 		MSR basepri, r3
 196              	@ 0 "" 2
 197              	.LVL13:
 198              		.thumb
 199              		.syntax unified
 200              	.LBE47:
 201              	.LBE48:
 202              	.LBE49:
 203              		.file 3 "../../lib/ChibiOS/os/rt/include/chsys.h"
 204              		.loc 3 349 0
 205 000a FFF7FEFF 		bl	_stats_start_measure_crit_thd
 206              	.LVL14:
 207              		.loc 3 350 0
 208 000e FFF7FEFF 		bl	_dbg_check_lock
 209              	.LVL15:
 210              	.LBE50:
 211              	.LBE51:
 212              		.loc 1 153 0
 213 0012 2046     		mov	r0, r4
 214 0014 FFF7FEFF 		bl	chPoolAllocI
 215              	.LVL16:
 216 0018 0446     		mov	r4, r0
 217              	.LVL17:
 218              	.LBB52:
 219              	.LBB53:
 220              		.loc 3 360 0
 221 001a FFF7FEFF 		bl	_dbg_check_unlock
 222              	.LVL18:
 223              		.loc 3 361 0
 224 001e FFF7FEFF 		bl	_stats_stop_measure_crit_thd
 225              	.LVL19:
 226              		.loc 3 367 0
 227 0022 0B4B     		ldr	r3, .L26
 228 0024 1A68     		ldr	r2, [r3]
ARM GAS  /var/folders/km/q6jdms0143g2bddz5bhvdfd00000gn/T//ccnwGrRw.s 			page 5


 229 0026 9A42     		cmp	r2, r3
 230 0028 04D0     		beq	.L23
 231 002a 9969     		ldr	r1, [r3, #24]
 232 002c 9368     		ldr	r3, [r2, #8]
 233 002e 8A68     		ldr	r2, [r1, #8]
 234 0030 9A42     		cmp	r2, r3
 235 0032 04D3     		bcc	.L25
 236              	.L23:
 237              	.LVL20:
 238              	.LBB54:
 239              	.LBB55:
 240              	.LBB56:
 241              		.loc 2 546 0
 242 0034 0023     		movs	r3, #0
 243              		.syntax unified
 244              	@ 546 "../../lib/ChibiOS/os/ext/CMSIS/include/core_cmFunc.h" 1
 245 0036 83F31188 		MSR basepri, r3
 246              	@ 0 "" 2
 247              	.LVL21:
 248              		.thumb
 249              		.syntax unified
 250              	.LBE56:
 251              	.LBE55:
 252              	.LBE54:
 253              	.LBE53:
 254              	.LBE52:
 255              		.loc 1 157 0
 256 003a 2046     		mov	r0, r4
 257 003c 10BD     		pop	{r4, pc}
 258              	.LVL22:
 259              	.L25:
 260              	.LBB61:
 261              	.LBB60:
 262              		.loc 3 367 0
 263 003e 0548     		ldr	r0, .L26+4
 264 0040 FFF7FEFF 		bl	chSysHalt
 265              	.LVL23:
 266              	.LBB59:
 267              	.LBB58:
 268              	.LBB57:
 269              		.loc 2 546 0
 270 0044 0023     		movs	r3, #0
 271              		.syntax unified
 272              	@ 546 "../../lib/ChibiOS/os/ext/CMSIS/include/core_cmFunc.h" 1
 273 0046 83F31188 		MSR basepri, r3
 274              	@ 0 "" 2
 275              	.LVL24:
 276              		.thumb
 277              		.syntax unified
 278              	.LBE57:
 279              	.LBE58:
 280              	.LBE59:
 281              	.LBE60:
 282              	.LBE61:
 283              		.loc 1 157 0
 284 004a 2046     		mov	r0, r4
 285 004c 10BD     		pop	{r4, pc}
ARM GAS  /var/folders/km/q6jdms0143g2bddz5bhvdfd00000gn/T//ccnwGrRw.s 			page 6


 286              	.LVL25:
 287              	.L27:
 288 004e 00BF     		.align	2
 289              	.L26:
 290 0050 00000000 		.word	ch
 291 0054 00000000 		.word	.LANCHOR2
 292              		.cfi_endproc
 293              	.LFE222:
 294              		.size	chPoolAlloc, .-chPoolAlloc
 295              		.section	.text.chPoolFreeI,"ax",%progbits
 296              		.align	1
 297              		.p2align 4,,15
 298              		.global	chPoolFreeI
 299              		.syntax unified
 300              		.thumb
 301              		.thumb_func
 302              		.fpu fpv4-sp-d16
 303              		.type	chPoolFreeI, %function
 304              	chPoolFreeI:
 305              	.LFB223:
 306              		.loc 1 171 0
 307              		.cfi_startproc
 308              		@ args = 0, pretend = 0, frame = 0
 309              		@ frame_needed = 0, uses_anonymous_args = 0
 310              	.LVL26:
 311 0000 38B5     		push	{r3, r4, r5, lr}
 312              		.cfi_def_cfa_offset 16
 313              		.cfi_offset 3, -16
 314              		.cfi_offset 4, -12
 315              		.cfi_offset 5, -8
 316              		.cfi_offset 14, -4
 317              		.loc 1 171 0
 318 0002 0446     		mov	r4, r0
 319 0004 0D46     		mov	r5, r1
 320              	.LVL27:
 321              		.loc 1 174 0
 322 0006 FFF7FEFF 		bl	chDbgCheckClassI
 323              	.LVL28:
 324              		.loc 1 175 0
 325 000a 24B1     		cbz	r4, .L29
 326              		.loc 1 175 0 is_stmt 0 discriminator 3
 327 000c 1DB1     		cbz	r5, .L29
 328              		.loc 1 177 0 is_stmt 1
 329 000e 2368     		ldr	r3, [r4]
 330 0010 2B60     		str	r3, [r5]
 331              		.loc 1 178 0
 332 0012 2560     		str	r5, [r4]
 333              		.loc 1 179 0
 334 0014 38BD     		pop	{r3, r4, r5, pc}
 335              	.LVL29:
 336              	.L29:
 337              		.loc 1 175 0 discriminator 4
 338 0016 0348     		ldr	r0, .L35
 339 0018 FFF7FEFF 		bl	chSysHalt
 340              	.LVL30:
 341              		.loc 1 177 0 discriminator 4
 342 001c 2368     		ldr	r3, [r4]
ARM GAS  /var/folders/km/q6jdms0143g2bddz5bhvdfd00000gn/T//ccnwGrRw.s 			page 7


 343 001e 2B60     		str	r3, [r5]
 344              		.loc 1 178 0 discriminator 4
 345 0020 2560     		str	r5, [r4]
 346              		.loc 1 179 0 discriminator 4
 347 0022 38BD     		pop	{r3, r4, r5, pc}
 348              	.LVL31:
 349              	.L36:
 350              		.align	2
 351              	.L35:
 352 0024 00000000 		.word	.LANCHOR3
 353              		.cfi_endproc
 354              	.LFE223:
 355              		.size	chPoolFreeI, .-chPoolFreeI
 356              		.section	.text.chPoolFree,"ax",%progbits
 357              		.align	1
 358              		.p2align 4,,15
 359              		.global	chPoolFree
 360              		.syntax unified
 361              		.thumb
 362              		.thumb_func
 363              		.fpu fpv4-sp-d16
 364              		.type	chPoolFree, %function
 365              	chPoolFree:
 366              	.LFB224:
 367              		.loc 1 193 0
 368              		.cfi_startproc
 369              		@ args = 0, pretend = 0, frame = 0
 370              		@ frame_needed = 0, uses_anonymous_args = 0
 371              	.LVL32:
 372 0000 38B5     		push	{r3, r4, r5, lr}
 373              		.cfi_def_cfa_offset 16
 374              		.cfi_offset 3, -16
 375              		.cfi_offset 4, -12
 376              		.cfi_offset 5, -8
 377              		.cfi_offset 14, -4
 378              		.loc 1 193 0
 379 0002 0446     		mov	r4, r0
 380 0004 0D46     		mov	r5, r1
 381              	.LBB72:
 382              	.LBB73:
 383              	.LBB74:
 384              	.LBB75:
 385              	.LBB76:
 386              		.loc 2 546 0
 387 0006 2023     		movs	r3, #32
 388              		.syntax unified
 389              	@ 546 "../../lib/ChibiOS/os/ext/CMSIS/include/core_cmFunc.h" 1
 390 0008 83F31188 		MSR basepri, r3
 391              	@ 0 "" 2
 392              	.LVL33:
 393              		.thumb
 394              		.syntax unified
 395              	.LBE76:
 396              	.LBE75:
 397              	.LBE74:
 398              		.loc 3 349 0
 399 000c FFF7FEFF 		bl	_stats_start_measure_crit_thd
ARM GAS  /var/folders/km/q6jdms0143g2bddz5bhvdfd00000gn/T//ccnwGrRw.s 			page 8


 400              	.LVL34:
 401              		.loc 3 350 0
 402 0010 FFF7FEFF 		bl	_dbg_check_lock
 403              	.LVL35:
 404              	.LBE73:
 405              	.LBE72:
 406              		.loc 1 196 0
 407 0014 2946     		mov	r1, r5
 408 0016 2046     		mov	r0, r4
 409 0018 FFF7FEFF 		bl	chPoolFreeI
 410              	.LVL36:
 411              	.LBB77:
 412              	.LBB78:
 413              		.loc 3 360 0
 414 001c FFF7FEFF 		bl	_dbg_check_unlock
 415              	.LVL37:
 416              		.loc 3 361 0
 417 0020 FFF7FEFF 		bl	_stats_stop_measure_crit_thd
 418              	.LVL38:
 419              		.loc 3 367 0
 420 0024 094B     		ldr	r3, .L41
 421 0026 1A68     		ldr	r2, [r3]
 422 0028 9A42     		cmp	r2, r3
 423 002a 04D0     		beq	.L38
 424 002c 9969     		ldr	r1, [r3, #24]
 425 002e 9368     		ldr	r3, [r2, #8]
 426 0030 8A68     		ldr	r2, [r1, #8]
 427 0032 9A42     		cmp	r2, r3
 428 0034 03D3     		bcc	.L40
 429              	.L38:
 430              	.LVL39:
 431              	.LBB79:
 432              	.LBB80:
 433              	.LBB81:
 434              		.loc 2 546 0
 435 0036 0023     		movs	r3, #0
 436              		.syntax unified
 437              	@ 546 "../../lib/ChibiOS/os/ext/CMSIS/include/core_cmFunc.h" 1
 438 0038 83F31188 		MSR basepri, r3
 439              	@ 0 "" 2
 440              	.LVL40:
 441              		.thumb
 442              		.syntax unified
 443              	.LBE81:
 444              	.LBE80:
 445              	.LBE79:
 446              	.LBE78:
 447              	.LBE77:
 448              		.loc 1 198 0
 449 003c 38BD     		pop	{r3, r4, r5, pc}
 450              	.LVL41:
 451              	.L40:
 452              	.LBB86:
 453              	.LBB85:
 454              		.loc 3 367 0
 455 003e 0448     		ldr	r0, .L41+4
 456 0040 FFF7FEFF 		bl	chSysHalt
ARM GAS  /var/folders/km/q6jdms0143g2bddz5bhvdfd00000gn/T//ccnwGrRw.s 			page 9


 457              	.LVL42:
 458              	.LBB84:
 459              	.LBB83:
 460              	.LBB82:
 461              		.loc 2 546 0
 462 0044 0023     		movs	r3, #0
 463              		.syntax unified
 464              	@ 546 "../../lib/ChibiOS/os/ext/CMSIS/include/core_cmFunc.h" 1
 465 0046 83F31188 		MSR basepri, r3
 466              	@ 0 "" 2
 467              	.LVL43:
 468              		.thumb
 469              		.syntax unified
 470              	.LBE82:
 471              	.LBE83:
 472              	.LBE84:
 473              	.LBE85:
 474              	.LBE86:
 475              		.loc 1 198 0
 476 004a 38BD     		pop	{r3, r4, r5, pc}
 477              	.LVL44:
 478              	.L42:
 479              		.align	2
 480              	.L41:
 481 004c 00000000 		.word	ch
 482 0050 00000000 		.word	.LANCHOR2
 483              		.cfi_endproc
 484              	.LFE224:
 485              		.size	chPoolFree, .-chPoolFree
 486              		.section	.text.chPoolLoadArray,"ax",%progbits
 487              		.align	1
 488              		.p2align 4,,15
 489              		.global	chPoolLoadArray
 490              		.syntax unified
 491              		.thumb
 492              		.thumb_func
 493              		.fpu fpv4-sp-d16
 494              		.type	chPoolLoadArray, %function
 495              	chPoolLoadArray:
 496              	.LFB220:
 497              		.loc 1 97 0
 498              		.cfi_startproc
 499              		@ args = 0, pretend = 0, frame = 0
 500              		@ frame_needed = 0, uses_anonymous_args = 0
 501              	.LVL45:
 502 0000 70B5     		push	{r4, r5, r6, lr}
 503              		.cfi_def_cfa_offset 16
 504              		.cfi_offset 4, -16
 505              		.cfi_offset 5, -12
 506              		.cfi_offset 6, -8
 507              		.cfi_offset 14, -4
 508              		.loc 1 97 0
 509 0002 0D46     		mov	r5, r1
 510 0004 1446     		mov	r4, r2
 511              		.loc 1 99 0
 512 0006 0646     		mov	r6, r0
 513 0008 28B1     		cbz	r0, .L44
ARM GAS  /var/folders/km/q6jdms0143g2bddz5bhvdfd00000gn/T//ccnwGrRw.s 			page 10


 514              		.loc 1 99 0 is_stmt 0 discriminator 3
 515 000a 42B9     		cbnz	r2, .L46
 516              		.loc 1 99 0
 517 000c 0848     		ldr	r0, .L51
 518              	.LVL46:
 519              		.loc 1 108 0 is_stmt 1
 520 000e BDE87040 		pop	{r4, r5, r6, lr}
 521              		.cfi_remember_state
 522              		.cfi_restore 14
 523              		.cfi_restore 6
 524              		.cfi_restore 5
 525              		.cfi_restore 4
 526              		.cfi_def_cfa_offset 0
 527              	.LVL47:
 528              		.loc 1 99 0
 529 0012 FFF7FEBF 		b	chSysHalt
 530              	.LVL48:
 531              	.L44:
 532              		.cfi_restore_state
 533              		.loc 1 99 0 is_stmt 0 discriminator 4
 534 0016 0648     		ldr	r0, .L51
 535              	.LVL49:
 536 0018 FFF7FEFF 		bl	chSysHalt
 537              	.LVL50:
 538              		.loc 1 101 0 is_stmt 1 discriminator 4
 539 001c 3CB1     		cbz	r4, .L43
 540              	.LVL51:
 541              	.L46:
 542              	.LBB87:
 543              	.LBB88:
 544              		.file 4 "../../lib/ChibiOS/os/rt/include/chmempools.h"
 545              		.loc 4 139 0
 546 001e 2946     		mov	r1, r5
 547 0020 3046     		mov	r0, r6
 548 0022 FFF7FEFF 		bl	chPoolFree
 549              	.LVL52:
 550              	.LBE88:
 551              	.LBE87:
 552              		.loc 1 104 0
 553 0026 7368     		ldr	r3, [r6, #4]
 554              		.loc 1 101 0
 555 0028 013C     		subs	r4, r4, #1
 556              	.LVL53:
 557              		.loc 1 104 0
 558 002a 1D44     		add	r5, r5, r3
 559              	.LVL54:
 560              		.loc 1 101 0
 561 002c F7D1     		bne	.L46
 562              	.L43:
 563              		.loc 1 108 0
 564 002e 70BD     		pop	{r4, r5, r6, pc}
 565              	.LVL55:
 566              	.L52:
 567              		.align	2
 568              	.L51:
 569 0030 00000000 		.word	.LANCHOR4
 570              		.cfi_endproc
ARM GAS  /var/folders/km/q6jdms0143g2bddz5bhvdfd00000gn/T//ccnwGrRw.s 			page 11


 571              	.LFE220:
 572              		.size	chPoolLoadArray, .-chPoolLoadArray
 573              		.section	.rodata.__func__.7153,"a",%progbits
 574              		.align	2
 575              		.set	.LANCHOR2,. + 0
 576              		.type	__func__.7153, %object
 577              		.size	__func__.7153, 12
 578              	__func__.7153:
 579 0000 63685379 		.ascii	"chSysUnlock\000"
 579      73556E6C 
 579      6F636B00 
 580              		.section	.rodata.__func__.7851,"a",%progbits
 581              		.align	2
 582              		.set	.LANCHOR0,. + 0
 583              		.type	__func__.7851, %object
 584              		.size	__func__.7851, 17
 585              	__func__.7851:
 586 0000 6368506F 		.ascii	"chPoolObjectInit\000"
 586      6F6C4F62 
 586      6A656374 
 586      496E6974 
 586      00
 587              		.section	.rodata.__func__.7857,"a",%progbits
 588              		.align	2
 589              		.set	.LANCHOR4,. + 0
 590              		.type	__func__.7857, %object
 591              		.size	__func__.7857, 16
 592              	__func__.7857:
 593 0000 6368506F 		.ascii	"chPoolLoadArray\000"
 593      6F6C4C6F 
 593      61644172 
 593      72617900 
 594              		.section	.rodata.__func__.7865,"a",%progbits
 595              		.align	2
 596              		.set	.LANCHOR1,. + 0
 597              		.type	__func__.7865, %object
 598              		.size	__func__.7865, 13
 599              	__func__.7865:
 600 0000 6368506F 		.ascii	"chPoolAllocI\000"
 600      6F6C416C 
 600      6C6F6349 
 600      00
 601              		.section	.rodata.__func__.7875,"a",%progbits
 602              		.align	2
 603              		.set	.LANCHOR3,. + 0
 604              		.type	__func__.7875, %object
 605              		.size	__func__.7875, 12
 606              	__func__.7875:
 607 0000 6368506F 		.ascii	"chPoolFreeI\000"
 607      6F6C4672 
 607      65654900 
 608              		.text
 609              	.Letext0:
 610              		.file 5 "/Applications/Eclipse_e-puck2.app/Contents/Eclipse_e-puck2/Tools/gcc-arm-none-eabi-7-2017
 611              		.file 6 "/Applications/Eclipse_e-puck2.app/Contents/Eclipse_e-puck2/Tools/gcc-arm-none-eabi-7-2017
 612              		.file 7 "/Applications/Eclipse_e-puck2.app/Contents/Eclipse_e-puck2/Tools/gcc-arm-none-eabi-7-2017
 613              		.file 8 "../../lib/ChibiOS/os/rt/ports/ARMCMx/compilers/GCC/chtypes.h"
ARM GAS  /var/folders/km/q6jdms0143g2bddz5bhvdfd00000gn/T//ccnwGrRw.s 			page 12


 614              		.file 9 "../../lib/ChibiOS/os/rt/include/chsystypes.h"
 615              		.file 10 "../../lib/ChibiOS/os/rt/include/chschd.h"
 616              		.file 11 "../../lib/ChibiOS/os/ext/CMSIS/include/core_cm4.h"
 617              		.file 12 "../../lib/ChibiOS/os/ext/CMSIS/ST/system_stm32f4xx.h"
 618              		.file 13 "../../lib/ChibiOS/os/rt/ports/ARMCMx/chcore.h"
 619              		.file 14 "../../lib/ChibiOS/os/rt/ports/ARMCMx/chcore_v7m.h"
 620              		.file 15 "../../lib/ChibiOS/os/rt/include/chdebug.h"
 621              		.file 16 "../../lib/ChibiOS/os/rt/include/chtm.h"
 622              		.file 17 "../../lib/ChibiOS/os/rt/include/chstats.h"
 623              		.file 18 "../../lib/ChibiOS/os/rt/include/chsem.h"
 624              		.file 19 "../../lib/ChibiOS/os/rt/include/chmtx.h"
 625              		.file 20 "../../lib/ChibiOS/os/rt/include/chregistry.h"
 626              		.file 21 "../../lib/ChibiOS/os/rt/include/chmemcore.h"