ARM GAS  /var/folders/km/q6jdms0143g2bddz5bhvdfd00000gn/T//ccnwGrRw.s 			page 1


   1              		.cpu cortex-m4
   2              		.eabi_attribute 27, 1
   3              		.eabi_attribute 28, 1
   4              		.eabi_attribute 20, 1
   5              		.eabi_attribute 21, 1
   6              		.eabi_attribute 23, 3
   7              		.eabi_attribute 24, 1
   8              		.eabi_attribute 25, 1
   9              		.eabi_attribute 26, 1
  10              		.eabi_attribute 30, 2
  11              		.eabi_attribute 34, 1
  12              		.eabi_attribute 18, 4
  13              		.file	"chmempools.c"
  14              		.text
  15              	.Ltext0:
  16              		.cfi_sections	.debug_frame
  17              		.section	.text.chPoolObjectInit,"ax",%progbits
  18              		.align	1
  19              		.p2align 4,,15
  20              		.global	chPoolObjectInit
  21              		.syntax unified
  22              		.thumb
  23              		.thumb_func
  24              		.fpu fpv4-sp-d16
  25              		.type	chPoolObjectInit, %function
  26              	chPoolObjectInit:
  27              	.LFB219:
  28              		.file 1 "../../lib/ChibiOS/os/rt/src/chmempools.c"
  29              		.loc 1 75 0
  30              		.cfi_startproc
  31              		@ args = 0, pretend = 0, frame = 0
  32              		@ frame_needed = 0, uses_anonymous_args = 0
  33              	.LVL0:
  34 0000 70B5     		push	{r4, r5, r6, lr}
  35              		.cfi_def_cfa_offset 16
  36              		.cfi_offset 4, -16
  37              		.cfi_offset 5, -12
  38              		.cfi_offset 6, -8
  39              		.cfi_offset 14, -4
  40              		.loc 1 75 0
  41 0002 0D46     		mov	r5, r1
  42 0004 1646     		mov	r6, r2
  43              		.loc 1 77 0
  44 0006 0446     		mov	r4, r0
  45 0008 08B1     		cbz	r0, .L2
  46              		.loc 1 77 0 is_stmt 0 discriminator 3
  47 000a 0329     		cmp	r1, #3
  48 000c 02D8     		bhi	.L3
  49              	.L2:
  50              		.loc 1 77 0 discriminator 4
  51 000e 0448     		ldr	r0, .L9
  52              	.LVL1:
  53 0010 FFF7FEFF 		bl	chSysHalt
  54              	.LVL2:
  55              	.L3:
  56              		.loc 1 79 0 is_stmt 1
  57 0014 0023     		movs	r3, #0
ARM GAS  /var/folders/km/q6jdms0143g2bddz5bhvdfd00000gn/T//ccnwGrRw.s 			page 2


  58              		.loc 1 81 0
  59 0016 C4E90156 		strd	r5, r6, [r4, #4]
  60              		.loc 1 79 0
  61 001a 2360     		str	r3, [r4]
  62              		.loc 1 82 0
  63 001c 70BD     		pop	{r4, r5, r6, pc}
  64              	.LVL3:
  65              	.L10:
  66 001e 00BF     		.align	2
  67              	.L9:
  68 0020 00000000 		.word	.LANCHOR0
  69              		.cfi_endproc
  70              	.LFE219:
  71              		.size	chPoolObjectInit, .-chPoolObjectInit
  72              		.section	.text.chPoolAllocI,"ax",%progbits
  73              		.align	1
  74              		.p2align 4,,15
  75              		.global	chPoolAllocI
  76              		.syntax unified
  77              		.thumb
  78              		.thumb_func
  79              		.fpu fpv4-sp-d16
  80              		.type	chPoolAllocI, %function
  81              	chPoolAllocI:
  82              	.LFB221:
  83              		.loc 1 120 0
  84              		.cfi_startproc
  85              		@ args = 0, pretend = 0, frame = 0
  86              		@ frame_needed = 0, uses_anonymous_args = 0
  87              	.LVL4:
  88 0000 10B5     		push	{r4, lr}
  89              		.cfi_def_cfa_offset 8
  90              		.cfi_offset 4, -8
  91              		.cfi_offset 14, -4
  92              		.loc 1 120 0
  93 0002 0446     		mov	r4, r0
  94              		.loc 1 123 0
  95 0004 FFF7FEFF 		bl	chDbgCheckClassI
  96              	.LVL5:
  97              		.loc 1 124 0
  98 0008 5CB1     		cbz	r4, .L19
  99              	.L12:
 100              		.loc 1 126 0
 101 000a 2068     		ldr	r0, [r4]
 102              	.LVL6:
 103              		.loc 1 128 0
 104 000c 10B1     		cbz	r0, .L13
 105              		.loc 1 129 0
 106 000e 0368     		ldr	r3, [r0]
 107 0010 2360     		str	r3, [r4]
 108              	.L11:
 109              		.loc 1 137 0
 110 0012 10BD     		pop	{r4, pc}
 111              	.LVL7:
 112              	.L13:
 113              	.LBB28:
 114              	.LBB29:
ARM GAS  /var/folders/km/q6jdms0143g2bddz5bhvdfd00000gn/T//ccnwGrRw.s 			page 3


 115              		.loc 1 131 0
 116 0014 A368     		ldr	r3, [r4, #8]
 117 0016 002B     		cmp	r3, #0
 118 0018 FBD0     		beq	.L11
 119              		.loc 1 132 0
 120 001a 6068     		ldr	r0, [r4, #4]
 121              	.LVL8:
 122              	.LBE29:
 123              	.LBE28:
 124              		.loc 1 137 0
 125 001c BDE81040 		pop	{r4, lr}
 126              		.cfi_remember_state
 127              		.cfi_restore 14
 128              		.cfi_restore 4
 129              		.cfi_def_cfa_offset 0
 130              	.LVL9:
 131              	.LBB31:
 132              	.LBB30:
 133              		.loc 1 132 0
 134 0020 1847     		bx	r3
 135              	.LVL10:
 136              	.L19:
 137              		.cfi_restore_state
 138              	.LBE30:
 139              	.LBE31:
 140              		.loc 1 124 0 discriminator 2
 141 0022 0248     		ldr	r0, .L20
 142 0024 FFF7FEFF 		bl	chSysHalt
 143              	.LVL11:
 144 0028 EFE7     		b	.L12
 145              	.L21:
 146 002a 00BF     		.align	2
 147              	.L20:
 148 002c 00000000 		.word	.LANCHOR1
 149              		.cfi_endproc
 150              	.LFE221:
 151              		.size	chPoolAllocI, .-chPoolAllocI
 152              		.section	.text.chPoolAlloc,"ax",%progbits
 153              		.align	1
 154              		.p2align 4,,15
 155              		.global	chPoolAlloc
 156              		.syntax unified
 157              		.thumb
 158              		.thumb_func
 159              		.fpu fpv4-sp-d16
 160              		.type	chPoolAlloc, %function
 161              	chPoolAlloc:
 162              	.LFB222:
 163              		.loc 1 149 0
 164              		.cfi_startproc
 165              		@ args = 0, pretend = 0, frame = 0
 166              		@ frame_needed = 0, uses_anonymous_args = 0
 167              	.LVL12:
 168 0000 10B5     		push	{r4, lr}
 169              		.cfi_def_cfa_offset 8
 170              		.cfi_offset 4, -8
 171              		.cfi_offset 14, -4
ARM GAS  /var/folders/km/q6jdms0143g2bddz5bhvdfd00000gn/T//ccnwGrRw.s 			page 4


 172              	.LBB42:
 173              	.LBB43:
 174              	.LBB44:
 175              	.LBB45:
 176              	.LBB46:
 177              		.file 2 "../../lib/ChibiOS/os/ext/CMSIS/include/core_cmFunc.h"
 178              		.loc 2 546 0
 179 0002 2023     		movs	r3, #32
 180              	.LBE46:
 181              	.LBE45:
 182              	.LBE44:
 183              	.LBE43:
 184              	.LBE42:
 185              		.loc 1 149 0
 186 0004 0446     		mov	r4, r0
 187              	.LBB51:
 188              	.LBB50:
 189              	.LBB49:
 190              	.LBB48:
 191              	.LBB47:
 192              		.loc 2 546 0
 193              		.syntax unified
 194              	@ 546 "../../lib/ChibiOS/os/ext/CMSIS/include/core_cmFunc.h" 1
 195 0006 83F31188 		MSR basepri, r3
 196              	@ 0 "" 2
 197              	.LVL13:
 198              		.thumb
 199              		.syntax unified
 200              	.LBE47:
 201              	.LBE48:
 202              	.LBE49:
 203              		.file 3 "../../lib/ChibiOS/os/rt/include/chsys.h"
 204              		.loc 3 349 0
 205 000a FFF7FEFF 		bl	_stats_start_measure_crit_thd
 206              	.LVL14:
 207              		.loc 3 350 0
 208 000e FFF7FEFF 		bl	_dbg_check_lock
 209              	.LVL15:
 210              	.LBE50:
 211              	.LBE51:
 212              		.loc 1 153 0
 213 0012 2046     		mov	r0, r4
 214 0014 FFF7FEFF 		bl	chPoolAllocI
 215              	.LVL16:
 216 0018 0446     		mov	r4, r0
 217              	.LVL17:
 218              	.LBB52:
 219              	.LBB53:
 220              		.loc 3 360 0
 221 001a FFF7FEFF 		bl	_dbg_check_unlock
 222              	.LVL18:
 223              		.loc 3 361 0
 224 001e FFF7FEFF 		bl	_stats_stop_measure_crit_thd
 225              	.LVL19:
 226              		.loc 3 367 0
 227 0022 0B4B     		ldr	r3, .L26
 228 0024 1A68     		ldr	r2, [r3]
ARM GAS  /var/folders/km/q6jdms0143g2bddz5bhvdfd00000gn/T//ccnwGrRw.s 			page 5


 229 0026 9A42     		cmp	r2, r3
 230 0028 04D0     		beq	.L23
 231 002a 9969     		ldr	r1, [r3, #24]
 232 002c 9368     		ldr	r3, [r2, #8]
 233 002e 8A68     		ldr	r2, [r1, #8]
 234 0030 9A42     		cmp	r2, r3
 235 0032 04D3     		bcc	.L25
 236              	.L23:
 237              	.LVL20:
 238              	.LBB54:
 239              	.LBB55:
 240              	.LBB56:
 241              		.loc 2 546 0
 242 0034 0023     		movs	r3, #0
 243              		.syntax unified
 244              	@ 546 "../../lib/ChibiOS/os/ext/CMSIS/include/core_cmFunc.h" 1
 245 0036 83F31188 		MSR basepri, r3
 246              	@ 0 "" 2
 247              	.LVL21:
 248              		.thumb
 249              		.syntax unified
 250              	.LBE56:
 251              	.LBE55:
 252              	.LBE54:
 253              	.LBE53:
 254              	.LBE52:
 255              		.loc 1 157 0
 256 003a 2046     		mov	r0, r4
 257 003c 10BD     		pop	{r4, pc}
 258              	.LVL22:
 259              	.L25:
 260              	.LBB61:
 261              	.LBB60:
 262              		.loc 3 367 0
 263 003e 0548     		ldr	r0, .L26+4
 264 0040 FFF7FEFF 		bl	chSysHalt
 265              	.LVL23:
 266              	.LBB59:
 267              	.LBB58:
 268              	.LBB57:
 269              		.loc 2 546 0
 270 0044 0023     		movs	r3, #0
 271              		.syntax unified
 272              	@ 546 "../../lib/ChibiOS/os/ext/CMSIS/include/core_cmFunc.h" 1
 273 0046 83F31188 		MSR basepri, r3
 274              	@ 0 "" 2
 275              	.LVL24:
 276              		.thumb
 277              		.syntax unified
 278              	.LBE57:
 279              	.LBE58:
 280              	.LBE59:
 281              	.LBE60:
 282              	.LBE61:
 283              		.loc 1 157 0
 284 004a 2046     		mov	r0, r4
 285 004c 10BD     		pop	{r4, pc}
ARM GAS  /var/folders/km/q6jdms0143g2bddz5bhvdfd00000gn/T//ccnwGrRw.s 			page 6


 286              	.LVL25:
 287              	.L27:
 288 004e 00BF     		.align	2
 289              	.L26:
 290 0050 00000000 		.word	ch
 291 0054 00000000 		.word	.LANCHOR2
 292              		.cfi_endproc
 293              	.LFE222:
 294              		.size	chPoolAlloc, .-chPoolAlloc
 295              		.section	.text.chPoolFreeI,"ax",%progbits
 296              		.align	1
 297              		.p2align 4,,15
 298              		.global	chPoolFreeI
 299              		.syntax unified
 300              		.thumb
 301              		.thumb_func
 302              		.fpu fpv4-sp-d16
 303              		.type	chPoolFreeI, %function
 304              	chPoolFreeI:
 305              	.LFB223:
 306              		.loc 1 171 0
 307              		.cfi_startproc
 308              		@ args = 0, pretend = 0, frame = 0
 309              		@ frame_needed = 0, uses_anonymous_args = 0
 310              	.LVL26:
 311 0000 38B5     		push	{r3, r4, r5, lr}
 312              		.cfi_def_cfa_offset 16
 313              		.cfi_offset 3, -16
 314              		.cfi_offset 4, -12
 315              		.cfi_offset 5, -8
 316              		.cfi_offset 14, -4
 317              		.loc 1 171 0
 318 0002 0446     		mov	r4, r0
 319 0004 0D46     		mov	r5, r1
 320              	.LVL27:
 321              		.loc 1 174 0
 322 0006 FFF7FEFF 		bl	chDbgCheckClassI
 323              	.LVL28:
 324              		.loc 1 175 0
 325 000a 24B1     		cbz	r4, .L29
 326              		.loc 1 175 0 is_stmt 0 discriminator 3
 327 000c 1DB1     		cbz	r5, .L29
 328              		.loc 1 177 0 is_stmt 1
 329 000e 2368     		ldr	r3, [r4]
 330 0010 2B60     		str	r3, [r5]
 331              		.loc 1 178 0
 332 0012 2560     		str	r5, [r4]
 333              		.loc 1 179 0
 334 0014 38BD     		pop	{r3, r4, r5, pc}
 335              	.LVL29:
 336              	.L29:
 337              		.loc 1 175 0 discriminator 4
 338 0016 0348     		ldr	r0, .L35
 339 0018 FFF7FEFF 		bl	chSysHalt
 340              	.LVL30:
 341              		.loc 1 177 0 discriminator 4
 342 001c 2368     		ldr	r3, [r4]
ARM GAS  /var/folders/km/q6jdms0143g2bddz5bhvdfd00000gn/T//ccnwGrRw.s 			page 7


 343 001e 2B60     		str	r3, [r5]
 344              		.loc 1 178 0 discriminator 4
 345 0020 2560     		str	r5, [r4]
 346              		.loc 1 179 0 discriminator 4
 347 0022 38BD     		pop	{r3, r4, r5, pc}
 348              	.LVL31:
 349              	.L36:
 350              		.align	2
 351              	.L35:
 352 0024 00000000 		.word	.LANCHOR3
 353              		.cfi_endproc
 354              	.LFE223:
 355              		.size	chPoolFreeI, .-chPoolFreeI
 356              		.section	.text.chPoolFree,"ax",%progbits
 357              		.align	1
 358              		.p2align 4,,15
 359              		.global	chPoolFree
 360              		.syntax unified
 361              		.thumb
 362              		.thumb_func
 363              		.fpu fpv4-sp-d16
 364              		.type	chPoolFree, %function
 365              	chPoolFree:
 366              	.LFB224:
 367              		.loc 1 193 0
 368              		.cfi_startproc
 369              		@ args = 0, pretend = 0, frame = 0
 370              		@ frame_needed = 0, uses_anonymous_args = 0
 371              	.LVL32:
 372 0000 38B5     		push	{r3, r4, r5, lr}
 373              		.cfi_def_cfa_offset 16
 374              		.cfi_offset 3, -16
 375              		.cfi_offset 4, -12
 376              		.cfi_offset 5, -8
 377              		.cfi_offset 14, -4
 378              		.loc 1 193 0
 379 0002 0446     		mov	r4, r0
 380 0004 0D46     		mov	r5, r1
 381              	.LBB72:
 382              	.LBB73:
 383              	.LBB74:
 384              	.LBB75:
 385              	.LBB76:
 386              		.loc 2 546 0
 387 0006 2023     		movs	r3, #32
 388              		.syntax unified
 389              	@ 546 "../../lib/ChibiOS/os/ext/CMSIS/include/core_cmFunc.h" 1
 390 0008 83F31188 		MSR basepri, r3
 391              	@ 0 "" 2
 392              	.LVL33:
 393              		.thumb
 394              		.syntax unified
 395              	.LBE76:
 396              	.LBE75:
 397              	.LBE74:
 398              		.loc 3 349 0
 399 000c FFF7FEFF 		bl	_stats_start_measure_crit_thd
ARM GAS  /var/folders/km/q6jdms0143g2bddz5bhvdfd00000gn/T//ccnwGrRw.s 			page 8


 400              	.LVL34:
 401              		.loc 3 350 0
 402 0010 FFF7FEFF 		bl	_dbg_check_lock
 403              	.LVL35:
 404              	.LBE73:
 405              	.LBE72:
 406              		.loc 1 196 0
 407 0014 2946     		mov	r1, r5
 408 0016 2046     		mov	r0, r4
 409 0018 FFF7FEFF 		bl	chPoolFreeI
 410              	.LVL36:
 411              	.LBB77:
 412              	.LBB78:
 413              		.loc 3 360 0
 414 001c FFF7FEFF 		bl	_dbg_check_unlock
 415              	.LVL37:
 416              		.loc 3 361 0
 417 0020 FFF7FEFF 		bl	_stats_stop_measure_crit_thd
 418              	.LVL38:
 419              		.loc 3 367 0
 420 0024 094B     		ldr	r3, .L41
 421 0026 1A68     		ldr	r2, [r3]
 422 0028 9A42     		cmp	r2, r3
 423 002a 04D0     		beq	.L38
 424 002c 9969     		ldr	r1, [r3, #24]
 425 002e 9368     		ldr	r3, [r2, #8]
 426 0030 8A68     		ldr	r2, [r1, #8]
 427 0032 9A42     		cmp	r2, r3
 428 0034 03D3     		bcc	.L40
 429              	.L38:
 430              	.LVL39:
 431              	.LBB79:
 432              	.LBB80:
 433              	.LBB81:
 434              		.loc 2 546 0
 435 0036 0023     		movs	r3, #0
 436              		.syntax unified
 437              	@ 546 "../../lib/ChibiOS/os/ext/CMSIS/include/core_cmFunc.h" 1
 438 0038 83F31188 		MSR basepri, r3
 439              	@ 0 "" 2
 440              	.LVL40:
 441              		.thumb
 442              		.syntax unified
 443              	.LBE81:
 444              	.LBE80:
 445              	.LBE79:
 446              	.LBE78:
 447              	.LBE77:
 448              		.loc 1 198 0
 449 003c 38BD     		pop	{r3, r4, r5, pc}
 450              	.LVL41:
 451              	.L40:
 452              	.LBB86:
 453              	.LBB85:
 454              		.loc 3 367 0
 455 003e 0448     		ldr	r0, .L41+4
 456 0040 FFF7FEFF 		bl	chSysHalt
ARM GAS  /var/folders/km/q6jdms0143g2bddz5bhvdfd00000gn/T//ccnwGrRw.s 			page 9


 457              	.LVL42:
 458              	.LBB84:
 459              	.LBB83:
 460              	.LBB82:
 461              		.loc 2 546 0
 462 0044 0023     		movs	r3, #0
 463              		.syntax unified
 464              	@ 546 "../../lib/ChibiOS/os/ext/CMSIS/include/core_cmFunc.h" 1
 465 0046 83F31188 		MSR basepri, r3
 466              	@ 0 "" 2
 467              	.LVL43:
 468              		.thumb
 469              		.syntax unified
 470              	.LBE82:
 471              	.LBE83:
 472              	.LBE84:
 473              	.LBE85:
 474              	.LBE86:
 475              		.loc 1 198 0
 476 004a 38BD     		pop	{r3, r4, r5, pc}
 477              	.LVL44:
 478              	.L42:
 479              		.align	2
 480              	.L41:
 481 004c 00000000 		.word	ch
 482 0050 00000000 		.word	.LANCHOR2
 483              		.cfi_endproc
 484              	.LFE224:
 485              		.size	chPoolFree, .-chPoolFree
 486              		.section	.text.chPoolLoadArray,"ax",%progbits
 487              		.align	1
 488              		.p2align 4,,15
 489              		.global	chPoolLoadArray
 490              		.syntax unified
 491              		.thumb
 492              		.thumb_func
 493              		.fpu fpv4-sp-d16
 494              		.type	chPoolLoadArray, %function
 495              	chPoolLoadArray:
 496              	.LFB220:
 497              		.loc 1 97 0
 498              		.cfi_startproc
 499              		@ args = 0, pretend = 0, frame = 0
 500              		@ frame_needed = 0, uses_anonymous_args = 0
 501              	.LVL45:
 502 0000 70B5     		push	{r4, r5, r6, lr}
 503              		.cfi_def_cfa_offset 16
 504              		.cfi_offset 4, -16
 505              		.cfi_offset 5, -12
 506              		.cfi_offset 6, -8
 507              		.cfi_offset 14, -4
 508              		.loc 1 97 0
 509 0002 0D46     		mov	r5, r1
 510 0004 1446     		mov	r4, r2
 511              		.loc 1 99 0
 512 0006 0646     		mov	r6, r0
 513 0008 28B1     		cbz	r0, .L44
ARM GAS  /var/folders/km/q6jdms0143g2bddz5bhvdfd00000gn/T//ccnwGrRw.s 			page 10


 514              		.loc 1 99 0 is_stmt 0 discriminator 3
 515 000a 42B9     		cbnz	r2, .L46
 516              		.loc 1 99 0
 517 000c 0848     		ldr	r0, .L51
 518              	.LVL46:
 519              		.loc 1 108 0 is_stmt 1
 520 000e BDE87040 		pop	{r4, r5, r6, lr}
 521              		.cfi_remember_state
 522              		.cfi_restore 14
 523              		.cfi_restore 6
 524              		.cfi_restore 5
 525              		.cfi_restore 4
 526              		.cfi_def_cfa_offset 0
 527              	.LVL47:
 528              		.loc 1 99 0
 529 0012 FFF7FEBF 		b	chSysHalt
 530              	.LVL48:
 531              	.L44:
 532              		.cfi_restore_state
 533              		.loc 1 99 0 is_stmt 0 discriminator 4
 534 0016 0648     		ldr	r0, .L51
 535              	.LVL49:
 536 0018 FFF7FEFF 		bl	chSysHalt
 537              	.LVL50:
 538              		.loc 1 101 0 is_stmt 1 discriminator 4
 539 001c 3CB1     		cbz	r4, .L43
 540              	.LVL51:
 541              	.L46:
 542              	.LBB87:
 543              	.LBB88:
 544              		.file 4 "../../lib/ChibiOS/os/rt/include/chmempools.h"
 545              		.loc 4 139 0
 546 001e 2946     		mov	r1, r5
 547 0020 3046     		mov	r0, r6
 548 0022 FFF7FEFF 		bl	chPoolFree
 549              	.LVL52:
 550              	.LBE88:
 551              	.LBE87:
 552              		.loc 1 104 0
 553 0026 7368     		ldr	r3, [r6, #4]
 554              		.loc 1 101 0
 555 0028 013C     		subs	r4, r4, #1
 556              	.LVL53:
 557              		.loc 1 104 0
 558 002a 1D44     		add	r5, r5, r3
 559              	.LVL54:
 560              		.loc 1 101 0
 561 002c F7D1     		bne	.L46
 562              	.L43:
 563              		.loc 1 108 0
 564 002e 70BD     		pop	{r4, r5, r6, pc}
 565              	.LVL55:
 566              	.L52:
 567              		.align	2
 568              	.L51:
 569 0030 00000000 		.word	.LANCHOR4
 570              		.cfi_endproc
ARM GAS  /var/folders/km/q6jdms0143g2bddz5bhvdfd00000gn/T//ccnwGrRw.s 			page 11


 571              	.LFE220:
 572              		.size	chPoolLoadArray, .-chPoolLoadArray
 573              		.section	.rodata.__func__.7153,"a",%progbits
 574              		.align	2
 575              		.set	.LANCHOR2,. + 0
 576              		.type	__func__.7153, %object
 577              		.size	__func__.7153, 12
 578              	__func__.7153:
 579 0000 63685379 		.ascii	"chSysUnlock\000"
 579      73556E6C 
 579      6F636B00 
 580              		.section	.rodata.__func__.7851,"a",%progbits
 581              		.align	2
 582              		.set	.LANCHOR0,. + 0
 583              		.type	__func__.7851, %object
 584              		.size	__func__.7851, 17
 585              	__func__.7851:
 586 0000 6368506F 		.ascii	"chPoolObjectInit\000"
 586      6F6C4F62 
 586      6A656374 
 586      496E6974 
 586      00
 587              		.section	.rodata.__func__.7857,"a",%progbits
 588              		.align	2
 589              		.set	.LANCHOR4,. + 0
 590              		.type	__func__.7857, %object
 591              		.size	__func__.7857, 16
 592              	__func__.7857:
 593 0000 6368506F 		.ascii	"chPoolLoadArray\000"
 593      6F6C4C6F 
 593      61644172 
 593      72617900 
 594              		.section	.rodata.__func__.7865,"a",%progbits
 595              		.align	2
 596              		.set	.LANCHOR1,. + 0
 597              		.type	__func__.7865, %object
 598              		.size	__func__.7865, 13
 599              	__func__.7865:
 600 0000 6368506F 		.ascii	"chPoolAllocI\000"
 600      6F6C416C 
 600      6C6F6349 
 600      00
 601              		.section	.rodata.__func__.7875,"a",%progbits
 602              		.align	2
 603              		.set	.LANCHOR3,. + 0
 604              		.type	__func__.7875, %object
 605              		.size	__func__.7875, 12
 606              	__func__.7875:
 607 0000 6368506F 		.ascii	"chPoolFreeI\000"
 607      6F6C4672 
 607      65654900 
 608              		.text
 609              	.Letext0:
 610              		.file 5 "/Applications/Eclipse_e-puck2.app/Contents/Eclipse_e-puck2/Tools/gcc-arm-none-eabi-7-2017
 611              		.file 6 "/Applications/Eclipse_e-puck2.app/Contents/Eclipse_e-puck2/Tools/gcc-arm-none-eabi-7-2017
 612              		.file 7 "/Applications/Eclipse_e-puck2.app/Contents/Eclipse_e-puck2/Tools/gcc-arm-none-eabi-7-2017
 613              		.file 8 "../../lib/ChibiOS/os/rt/ports/ARMCMx/compilers/GCC/chtypes.h"
ARM GAS  /var/folders/km/q6jdms0143g2bddz5bhvdfd00000gn/T//ccnwGrRw.s 			page 12


 614              		.file 9 "../../lib/ChibiOS/os/rt/include/chsystypes.h"
 615              		.file 10 "../../lib/ChibiOS/os/rt/include/chschd.h"
 616              		.file 11 "../../lib/ChibiOS/os/ext/CMSIS/include/core_cm4.h"
 617              		.file 12 "../../lib/ChibiOS/os/ext/CMSIS/ST/system_stm32f4xx.h"
 618              		.file 13 "../../lib/ChibiOS/os/rt/ports/ARMCMx/chcore.h"
 619              		.file 14 "../../lib/ChibiOS/os/rt/ports/ARMCMx/chcore_v7m.h"
 620              		.file 15 "../../lib/ChibiOS/os/rt/include/chdebug.h"
 621              		.file 16 "../../lib/ChibiOS/os/rt/include/chtm.h"
 622              		.file 17 "../../lib/ChibiOS/os/rt/include/chstats.h"
 623              		.file 18 "../../lib/ChibiOS/os/rt/include/chsem.h"
 624              		.file 19 "../../lib/ChibiOS/os/rt/include/chmtx.h"
 625              		.file 20 "../../lib/ChibiOS/os/rt/include/chregistry.h"
 626              		.file 21 "../../lib/ChibiOS/os/rt/include/chmemcore.h"
 627              		.section	.debug_info,"",%progbits
 628              	.Ldebug_info0:
 629 0000 BF0F0000 		.4byte	0xfbf
 630 0004 0400     		.2byte	0x4
 631 0006 00000000 		.4byte	.Ldebug_abbrev0
 632 000a 04       		.byte	0x4
 633 000b 01       		.uleb128 0x1
 634 000c E7020000 		.4byte	.LASF186
 635 0010 0C       		.byte	0xc
 636 0011 2B020000 		.4byte	.LASF187
 637 0015 28040000 		.4byte	.LASF188
 638 0019 A8000000 		.4byte	.Ldebug_ranges0+0xa8
 639 001d 00000000 		.4byte	0
 640 0021 00000000 		.4byte	.Ldebug_line0
 641 0025 02       		.uleb128 0x2
 642 0026 04       		.byte	0x4
 643 0027 05       		.byte	0x5
 644 0028 696E7400 		.ascii	"int\000"
 645 002c 03       		.uleb128 0x3
 646 002d 22000000 		.4byte	.LASF4
 647 0031 05       		.byte	0x5
 648 0032 D8       		.byte	0xd8
 649 0033 37000000 		.4byte	0x37
 650 0037 04       		.uleb128 0x4
 651 0038 04       		.byte	0x4
 652 0039 07       		.byte	0x7
 653 003a AB020000 		.4byte	.LASF0
 654 003e 04       		.uleb128 0x4
 655 003f 08       		.byte	0x8
 656 0040 05       		.byte	0x5
 657 0041 58010000 		.4byte	.LASF1
 658 0045 04       		.uleb128 0x4
 659 0046 08       		.byte	0x8
 660 0047 04       		.byte	0x4
 661 0048 C9050000 		.4byte	.LASF2
 662 004c 04       		.uleb128 0x4
 663 004d 01       		.byte	0x1
 664 004e 06       		.byte	0x6
 665 004f 66010000 		.4byte	.LASF3
 666 0053 03       		.uleb128 0x3
 667 0054 4D000000 		.4byte	.LASF5
 668 0058 06       		.byte	0x6
 669 0059 2B       		.byte	0x2b
 670 005a 5E000000 		.4byte	0x5e
ARM GAS  /var/folders/km/q6jdms0143g2bddz5bhvdfd00000gn/T//ccnwGrRw.s 			page 13


 671 005e 04       		.uleb128 0x4
 672 005f 01       		.byte	0x1
 673 0060 08       		.byte	0x8
 674 0061 B2060000 		.4byte	.LASF6
 675 0065 04       		.uleb128 0x4
 676 0066 02       		.byte	0x2
 677 0067 05       		.byte	0x5
 678 0068 D0060000 		.4byte	.LASF7
 679 006c 03       		.uleb128 0x3
 680 006d D5070000 		.4byte	.LASF8
 681 0071 06       		.byte	0x6
 682 0072 39       		.byte	0x39
 683 0073 77000000 		.4byte	0x77
 684 0077 04       		.uleb128 0x4
 685 0078 02       		.byte	0x2
 686 0079 07       		.byte	0x7
 687 007a 8D040000 		.4byte	.LASF9
 688 007e 03       		.uleb128 0x3
 689 007f 34050000 		.4byte	.LASF10
 690 0083 06       		.byte	0x6
 691 0084 4D       		.byte	0x4d
 692 0085 89000000 		.4byte	0x89
 693 0089 04       		.uleb128 0x4
 694 008a 04       		.byte	0x4
 695 008b 05       		.byte	0x5
 696 008c CC010000 		.4byte	.LASF11
 697 0090 03       		.uleb128 0x3
 698 0091 1F080000 		.4byte	.LASF12
 699 0095 06       		.byte	0x6
 700 0096 4F       		.byte	0x4f
 701 0097 9B000000 		.4byte	0x9b
 702 009b 04       		.uleb128 0x4
 703 009c 04       		.byte	0x4
 704 009d 07       		.byte	0x7
 705 009e B7070000 		.4byte	.LASF13
 706 00a2 03       		.uleb128 0x3
 707 00a3 4F060000 		.4byte	.LASF14
 708 00a7 06       		.byte	0x6
 709 00a8 69       		.byte	0x69
 710 00a9 AD000000 		.4byte	0xad
 711 00ad 04       		.uleb128 0x4
 712 00ae 08       		.byte	0x8
 713 00af 07       		.byte	0x7
 714 00b0 AF000000 		.4byte	.LASF15
 715 00b4 03       		.uleb128 0x3
 716 00b5 B1080000 		.4byte	.LASF16
 717 00b9 07       		.byte	0x7
 718 00ba 18       		.byte	0x18
 719 00bb 53000000 		.4byte	0x53
 720 00bf 03       		.uleb128 0x3
 721 00c0 C0020000 		.4byte	.LASF17
 722 00c4 07       		.byte	0x7
 723 00c5 24       		.byte	0x24
 724 00c6 6C000000 		.4byte	0x6c
 725 00ca 03       		.uleb128 0x3
 726 00cb AA060000 		.4byte	.LASF18
 727 00cf 07       		.byte	0x7
ARM GAS  /var/folders/km/q6jdms0143g2bddz5bhvdfd00000gn/T//ccnwGrRw.s 			page 14


 728 00d0 2C       		.byte	0x2c
 729 00d1 7E000000 		.4byte	0x7e
 730 00d5 05       		.uleb128 0x5
 731 00d6 CA000000 		.4byte	0xca
 732 00da 03       		.uleb128 0x3
 733 00db 82070000 		.4byte	.LASF19
 734 00df 07       		.byte	0x7
 735 00e0 30       		.byte	0x30
 736 00e1 90000000 		.4byte	0x90
 737 00e5 03       		.uleb128 0x3
 738 00e6 37000000 		.4byte	.LASF20
 739 00ea 07       		.byte	0x7
 740 00eb 3C       		.byte	0x3c
 741 00ec A2000000 		.4byte	0xa2
 742 00f0 03       		.uleb128 0x3
 743 00f1 9A050000 		.4byte	.LASF21
 744 00f5 08       		.byte	0x8
 745 00f6 45       		.byte	0x45
 746 00f7 DA000000 		.4byte	0xda
 747 00fb 03       		.uleb128 0x3
 748 00fc 3B010000 		.4byte	.LASF22
 749 0100 08       		.byte	0x8
 750 0101 46       		.byte	0x46
 751 0102 E5000000 		.4byte	0xe5
 752 0106 03       		.uleb128 0x3
 753 0107 05070000 		.4byte	.LASF23
 754 010b 08       		.byte	0x8
 755 010c 48       		.byte	0x48
 756 010d B4000000 		.4byte	0xb4
 757 0111 03       		.uleb128 0x3
 758 0112 D5010000 		.4byte	.LASF24
 759 0116 08       		.byte	0x8
 760 0117 49       		.byte	0x49
 761 0118 B4000000 		.4byte	0xb4
 762 011c 03       		.uleb128 0x3
 763 011d 65060000 		.4byte	.LASF25
 764 0121 08       		.byte	0x8
 765 0122 4A       		.byte	0x4a
 766 0123 B4000000 		.4byte	0xb4
 767 0127 03       		.uleb128 0x3
 768 0128 B2010000 		.4byte	.LASF26
 769 012c 08       		.byte	0x8
 770 012d 4B       		.byte	0x4b
 771 012e B4000000 		.4byte	0xb4
 772 0132 03       		.uleb128 0x3
 773 0133 99060000 		.4byte	.LASF27
 774 0137 08       		.byte	0x8
 775 0138 4C       		.byte	0x4c
 776 0139 DA000000 		.4byte	0xda
 777 013d 03       		.uleb128 0x3
 778 013e B9040000 		.4byte	.LASF28
 779 0142 08       		.byte	0x8
 780 0143 4D       		.byte	0x4d
 781 0144 CA000000 		.4byte	0xca
 782 0148 03       		.uleb128 0x3
 783 0149 28050000 		.4byte	.LASF29
 784 014d 08       		.byte	0x8
ARM GAS  /var/folders/km/q6jdms0143g2bddz5bhvdfd00000gn/T//ccnwGrRw.s 			page 15


 785 014e 4F       		.byte	0x4f
 786 014f DA000000 		.4byte	0xda
 787 0153 03       		.uleb128 0x3
 788 0154 9A020000 		.4byte	.LASF30
 789 0158 08       		.byte	0x8
 790 0159 51       		.byte	0x51
 791 015a CA000000 		.4byte	0xca
 792 015e 03       		.uleb128 0x3
 793 015f C4040000 		.4byte	.LASF31
 794 0163 08       		.byte	0x8
 795 0164 52       		.byte	0x52
 796 0165 DA000000 		.4byte	0xda
 797 0169 03       		.uleb128 0x3
 798 016a 01080000 		.4byte	.LASF32
 799 016e 09       		.byte	0x9
 800 016f 33       		.byte	0x33
 801 0170 DA000000 		.4byte	0xda
 802 0174 05       		.uleb128 0x5
 803 0175 69010000 		.4byte	0x169
 804 0179 03       		.uleb128 0x3
 805 017a EC070000 		.4byte	.LASF33
 806 017e 09       		.byte	0x9
 807 017f 3F       		.byte	0x3f
 808 0180 84010000 		.4byte	0x184
 809 0184 06       		.uleb128 0x6
 810 0185 AF040000 		.4byte	.LASF57
 811 0189 68       		.byte	0x68
 812 018a 0A       		.byte	0xa
 813 018b C2       		.byte	0xc2
 814 018c A2020000 		.4byte	0x2a2
 815 0190 07       		.uleb128 0x7
 816 0191 FE060000 		.4byte	.LASF34
 817 0195 0A       		.byte	0xa
 818 0196 C3       		.byte	0xc3
 819 0197 AD020000 		.4byte	0x2ad
 820 019b 00       		.byte	0
 821 019c 07       		.uleb128 0x7
 822 019d 92060000 		.4byte	.LASF35
 823 01a1 0A       		.byte	0xa
 824 01a2 C5       		.byte	0xc5
 825 01a3 AD020000 		.4byte	0x2ad
 826 01a7 04       		.byte	0x4
 827 01a8 07       		.uleb128 0x7
 828 01a9 44010000 		.4byte	.LASF36
 829 01ad 0A       		.byte	0xa
 830 01ae C7       		.byte	0xc7
 831 01af 32010000 		.4byte	0x132
 832 01b3 08       		.byte	0x8
 833 01b4 07       		.uleb128 0x7
 834 01b5 17060000 		.4byte	.LASF37
 835 01b9 0A       		.byte	0xa
 836 01ba C8       		.byte	0xc8
 837 01bb 26050000 		.4byte	0x526
 838 01bf 0C       		.byte	0xc
 839 01c0 07       		.uleb128 0x7
 840 01c1 EE010000 		.4byte	.LASF38
 841 01c5 0A       		.byte	0xa
ARM GAS  /var/folders/km/q6jdms0143g2bddz5bhvdfd00000gn/T//ccnwGrRw.s 			page 16


 842 01c6 CA       		.byte	0xca
 843 01c7 AD020000 		.4byte	0x2ad
 844 01cb 10       		.byte	0x10
 845 01cc 07       		.uleb128 0x7
 846 01cd 09060000 		.4byte	.LASF39
 847 01d1 0A       		.byte	0xa
 848 01d2 CB       		.byte	0xcb
 849 01d3 AD020000 		.4byte	0x2ad
 850 01d7 14       		.byte	0x14
 851 01d8 07       		.uleb128 0x7
 852 01d9 04090000 		.4byte	.LASF40
 853 01dd 0A       		.byte	0xa
 854 01de D2       		.byte	0xd2
 855 01df 9C080000 		.4byte	0x89c
 856 01e3 18       		.byte	0x18
 857 01e4 07       		.uleb128 0x7
 858 01e5 A0020000 		.4byte	.LASF41
 859 01e9 0A       		.byte	0xa
 860 01ea D8       		.byte	0xd8
 861 01eb B3080000 		.4byte	0x8b3
 862 01ef 1C       		.byte	0x1c
 863 01f0 07       		.uleb128 0x7
 864 01f1 DA060000 		.4byte	.LASF42
 865 01f5 0A       		.byte	0xa
 866 01f6 DD       		.byte	0xdd
 867 01f7 11010000 		.4byte	0x111
 868 01fb 20       		.byte	0x20
 869 01fc 07       		.uleb128 0x7
 870 01fd 28090000 		.4byte	.LASF43
 871 0201 0A       		.byte	0xa
 872 0202 E1       		.byte	0xe1
 873 0203 06010000 		.4byte	0x106
 874 0207 21       		.byte	0x21
 875 0208 07       		.uleb128 0x7
 876 0209 93080000 		.4byte	.LASF44
 877 020d 0A       		.byte	0xa
 878 020e E6       		.byte	0xe6
 879 020f 1C010000 		.4byte	0x11c
 880 0213 22       		.byte	0x22
 881 0214 07       		.uleb128 0x7
 882 0215 E2060000 		.4byte	.LASF45
 883 0219 0A       		.byte	0xa
 884 021a EC       		.byte	0xec
 885 021b 27010000 		.4byte	0x127
 886 021f 23       		.byte	0x23
 887 0220 07       		.uleb128 0x7
 888 0221 D9020000 		.4byte	.LASF46
 889 0225 0A       		.byte	0xa
 890 0226 F3       		.byte	0xf3
 891 0227 74010000 		.4byte	0x174
 892 022b 24       		.byte	0x24
 893 022c 08       		.uleb128 0x8
 894 022d 705F7500 		.ascii	"p_u\000"
 895 0231 0A       		.byte	0xa
 896 0232 3101     		.2byte	0x131
 897 0234 CB070000 		.4byte	0x7cb
 898 0238 28       		.byte	0x28
ARM GAS  /var/folders/km/q6jdms0143g2bddz5bhvdfd00000gn/T//ccnwGrRw.s 			page 17


 899 0239 09       		.uleb128 0x9
 900 023a 73050000 		.4byte	.LASF47
 901 023e 0A       		.byte	0xa
 902 023f 3601     		.2byte	0x136
 903 0241 B3020000 		.4byte	0x2b3
 904 0245 2C       		.byte	0x2c
 905 0246 09       		.uleb128 0x9
 906 0247 00040000 		.4byte	.LASF48
 907 024b 0A       		.byte	0xa
 908 024c 3C01     		.2byte	0x13c
 909 024e D7020000 		.4byte	0x2d7
 910 0252 30       		.byte	0x30
 911 0253 09       		.uleb128 0x9
 912 0254 62080000 		.4byte	.LASF49
 913 0258 0A       		.byte	0xa
 914 0259 4001     		.2byte	0x140
 915 025b 3D010000 		.4byte	0x13d
 916 025f 38       		.byte	0x38
 917 0260 09       		.uleb128 0x9
 918 0261 77070000 		.4byte	.LASF50
 919 0265 0A       		.byte	0xa
 920 0266 4601     		.2byte	0x146
 921 0268 48010000 		.4byte	0x148
 922 026c 3C       		.byte	0x3c
 923 026d 09       		.uleb128 0x9
 924 026e C6060000 		.4byte	.LASF51
 925 0272 0A       		.byte	0xa
 926 0273 4D01     		.2byte	0x14d
 927 0275 96080000 		.4byte	0x896
 928 0279 40       		.byte	0x40
 929 027a 09       		.uleb128 0x9
 930 027b 0B080000 		.4byte	.LASF52
 931 027f 0A       		.byte	0xa
 932 0280 5101     		.2byte	0x151
 933 0282 32010000 		.4byte	0x132
 934 0286 44       		.byte	0x44
 935 0287 09       		.uleb128 0x9
 936 0288 8F010000 		.4byte	.LASF53
 937 028c 0A       		.byte	0xa
 938 028d 5801     		.2byte	0x158
 939 028f 8A030000 		.4byte	0x38a
 940 0293 48       		.byte	0x48
 941 0294 09       		.uleb128 0x9
 942 0295 25070000 		.4byte	.LASF54
 943 0299 0A       		.byte	0xa
 944 029a 5E01     		.2byte	0x15e
 945 029c 7C070000 		.4byte	0x77c
 946 02a0 50       		.byte	0x50
 947 02a1 00       		.byte	0
 948 02a2 03       		.uleb128 0x3
 949 02a3 E2080000 		.4byte	.LASF55
 950 02a7 09       		.byte	0x9
 951 02a8 44       		.byte	0x44
 952 02a9 AD020000 		.4byte	0x2ad
 953 02ad 0A       		.uleb128 0xa
 954 02ae 04       		.byte	0x4
 955 02af 79010000 		.4byte	0x179
ARM GAS  /var/folders/km/q6jdms0143g2bddz5bhvdfd00000gn/T//ccnwGrRw.s 			page 18


 956 02b3 03       		.uleb128 0x3
 957 02b4 49050000 		.4byte	.LASF56
 958 02b8 09       		.byte	0x9
 959 02b9 49       		.byte	0x49
 960 02ba BE020000 		.4byte	0x2be
 961 02be 06       		.uleb128 0x6
 962 02bf 9F070000 		.4byte	.LASF58
 963 02c3 04       		.byte	0x4
 964 02c4 0A       		.byte	0xa
 965 02c5 B0       		.byte	0xb0
 966 02c6 D7020000 		.4byte	0x2d7
 967 02ca 07       		.uleb128 0x7
 968 02cb FE060000 		.4byte	.LASF34
 969 02cf 0A       		.byte	0xa
 970 02d0 B1       		.byte	0xb1
 971 02d1 AD020000 		.4byte	0x2ad
 972 02d5 00       		.byte	0
 973 02d6 00       		.byte	0
 974 02d7 03       		.uleb128 0x3
 975 02d8 3C070000 		.4byte	.LASF59
 976 02dc 09       		.byte	0x9
 977 02dd 50       		.byte	0x50
 978 02de E2020000 		.4byte	0x2e2
 979 02e2 06       		.uleb128 0x6
 980 02e3 63000000 		.4byte	.LASF60
 981 02e7 08       		.byte	0x8
 982 02e8 0A       		.byte	0xa
 983 02e9 B7       		.byte	0xb7
 984 02ea 07030000 		.4byte	0x307
 985 02ee 07       		.uleb128 0x7
 986 02ef FE060000 		.4byte	.LASF34
 987 02f3 0A       		.byte	0xa
 988 02f4 B8       		.byte	0xb8
 989 02f5 AD020000 		.4byte	0x2ad
 990 02f9 00       		.byte	0
 991 02fa 07       		.uleb128 0x7
 992 02fb 92060000 		.4byte	.LASF35
 993 02ff 0A       		.byte	0xa
 994 0300 B9       		.byte	0xb9
 995 0301 AD020000 		.4byte	0x2ad
 996 0305 04       		.byte	0x4
 997 0306 00       		.byte	0
 998 0307 03       		.uleb128 0x3
 999 0308 0D000000 		.4byte	.LASF61
 1000 030c 09       		.byte	0x9
 1001 030d 57       		.byte	0x57
 1002 030e 12030000 		.4byte	0x312
 1003 0312 0B       		.uleb128 0xb
 1004 0313 1A050000 		.4byte	.LASF62
 1005 0317 1C       		.byte	0x1c
 1006 0318 0A       		.byte	0xa
 1007 0319 9001     		.2byte	0x190
 1008 031b 6E030000 		.4byte	0x36e
 1009 031f 09       		.uleb128 0x9
 1010 0320 97070000 		.4byte	.LASF63
 1011 0324 0A       		.byte	0xa
 1012 0325 9101     		.2byte	0x191
ARM GAS  /var/folders/km/q6jdms0143g2bddz5bhvdfd00000gn/T//ccnwGrRw.s 			page 19


 1013 0327 D7020000 		.4byte	0x2d7
 1014 032b 00       		.byte	0
 1015 032c 09       		.uleb128 0x9
 1016 032d 6C050000 		.4byte	.LASF64
 1017 0331 0A       		.byte	0xa
 1018 0332 9201     		.2byte	0x192
 1019 0334 32010000 		.4byte	0x132
 1020 0338 08       		.byte	0x8
 1021 0339 09       		.uleb128 0x9
 1022 033a 11060000 		.4byte	.LASF65
 1023 033e 0A       		.byte	0xa
 1024 033f 9401     		.2byte	0x194
 1025 0341 26050000 		.4byte	0x526
 1026 0345 0C       		.byte	0xc
 1027 0346 09       		.uleb128 0x9
 1028 0347 06020000 		.4byte	.LASF66
 1029 034b 0A       		.byte	0xa
 1030 034c 9701     		.2byte	0x197
 1031 034e AD020000 		.4byte	0x2ad
 1032 0352 10       		.byte	0x10
 1033 0353 09       		.uleb128 0x9
 1034 0354 47060000 		.4byte	.LASF67
 1035 0358 0A       		.byte	0xa
 1036 0359 9801     		.2byte	0x198
 1037 035b AD020000 		.4byte	0x2ad
 1038 035f 14       		.byte	0x14
 1039 0360 09       		.uleb128 0x9
 1040 0361 3D060000 		.4byte	.LASF68
 1041 0365 0A       		.byte	0xa
 1042 0366 9B01     		.2byte	0x19b
 1043 0368 AD020000 		.4byte	0x2ad
 1044 036c 18       		.byte	0x18
 1045 036d 00       		.byte	0
 1046 036e 03       		.uleb128 0x3
 1047 036f 16080000 		.4byte	.LASF69
 1048 0373 09       		.byte	0x9
 1049 0374 5C       		.byte	0x5c
 1050 0375 79030000 		.4byte	0x379
 1051 0379 0A       		.uleb128 0xa
 1052 037a 04       		.byte	0x4
 1053 037b 7F030000 		.4byte	0x37f
 1054 037f 0C       		.uleb128 0xc
 1055 0380 8A030000 		.4byte	0x38a
 1056 0384 0D       		.uleb128 0xd
 1057 0385 8A030000 		.4byte	0x38a
 1058 0389 00       		.byte	0
 1059 038a 0E       		.uleb128 0xe
 1060 038b 04       		.byte	0x4
 1061 038c 03       		.uleb128 0x3
 1062 038d 82060000 		.4byte	.LASF70
 1063 0391 09       		.byte	0x9
 1064 0392 61       		.byte	0x61
 1065 0393 97030000 		.4byte	0x397
 1066 0397 0B       		.uleb128 0xb
 1067 0398 4C070000 		.4byte	.LASF71
 1068 039c 14       		.byte	0x14
 1069 039d 0A       		.byte	0xa
ARM GAS  /var/folders/km/q6jdms0143g2bddz5bhvdfd00000gn/T//ccnwGrRw.s 			page 20


 1070 039e 6B01     		.2byte	0x16b
 1071 03a0 E6030000 		.4byte	0x3e6
 1072 03a4 09       		.uleb128 0x9
 1073 03a5 B8020000 		.4byte	.LASF72
 1074 03a9 0A       		.byte	0xa
 1075 03aa 6C01     		.2byte	0x16c
 1076 03ac B9080000 		.4byte	0x8b9
 1077 03b0 00       		.byte	0
 1078 03b1 09       		.uleb128 0x9
 1079 03b2 23020000 		.4byte	.LASF73
 1080 03b6 0A       		.byte	0xa
 1081 03b7 6D01     		.2byte	0x16d
 1082 03b9 B9080000 		.4byte	0x8b9
 1083 03bd 04       		.byte	0x4
 1084 03be 09       		.uleb128 0x9
 1085 03bf 30090000 		.4byte	.LASF74
 1086 03c3 0A       		.byte	0xa
 1087 03c4 6E01     		.2byte	0x16e
 1088 03c6 69010000 		.4byte	0x169
 1089 03ca 08       		.byte	0x8
 1090 03cb 09       		.uleb128 0x9
 1091 03cc 80090000 		.4byte	.LASF75
 1092 03d0 0A       		.byte	0xa
 1093 03d1 6F01     		.2byte	0x16f
 1094 03d3 6E030000 		.4byte	0x36e
 1095 03d7 0C       		.byte	0xc
 1096 03d8 09       		.uleb128 0x9
 1097 03d9 75080000 		.4byte	.LASF76
 1098 03dd 0A       		.byte	0xa
 1099 03de 7101     		.2byte	0x171
 1100 03e0 8A030000 		.4byte	0x38a
 1101 03e4 10       		.byte	0x10
 1102 03e5 00       		.byte	0
 1103 03e6 03       		.uleb128 0x3
 1104 03e7 18010000 		.4byte	.LASF77
 1105 03eb 09       		.byte	0x9
 1106 03ec 66       		.byte	0x66
 1107 03ed F1030000 		.4byte	0x3f1
 1108 03f1 0B       		.uleb128 0xb
 1109 03f2 B2050000 		.4byte	.LASF78
 1110 03f6 10       		.byte	0x10
 1111 03f7 0A       		.byte	0xa
 1112 03f8 7B01     		.2byte	0x17b
 1113 03fa 33040000 		.4byte	0x433
 1114 03fe 09       		.uleb128 0x9
 1115 03ff B8020000 		.4byte	.LASF72
 1116 0403 0A       		.byte	0xa
 1117 0404 7C01     		.2byte	0x17c
 1118 0406 B9080000 		.4byte	0x8b9
 1119 040a 00       		.byte	0
 1120 040b 09       		.uleb128 0x9
 1121 040c 23020000 		.4byte	.LASF73
 1122 0410 0A       		.byte	0xa
 1123 0411 7E01     		.2byte	0x17e
 1124 0413 B9080000 		.4byte	0x8b9
 1125 0417 04       		.byte	0x4
 1126 0418 09       		.uleb128 0x9
ARM GAS  /var/folders/km/q6jdms0143g2bddz5bhvdfd00000gn/T//ccnwGrRw.s 			page 21


 1127 0419 30090000 		.4byte	.LASF74
 1128 041d 0A       		.byte	0xa
 1129 041e 8001     		.2byte	0x180
 1130 0420 69010000 		.4byte	0x169
 1131 0424 08       		.byte	0x8
 1132 0425 09       		.uleb128 0x9
 1133 0426 10090000 		.4byte	.LASF79
 1134 042a 0A       		.byte	0xa
 1135 042b 8201     		.2byte	0x182
 1136 042d 74010000 		.4byte	0x174
 1137 0431 0C       		.byte	0xc
 1138 0432 00       		.byte	0
 1139 0433 03       		.uleb128 0x3
 1140 0434 74000000 		.4byte	.LASF80
 1141 0438 09       		.byte	0x9
 1142 0439 6B       		.byte	0x6b
 1143 043a 3E040000 		.4byte	0x43e
 1144 043e 0F       		.uleb128 0xf
 1145 043f 5E020000 		.4byte	.LASF81
 1146 0443 1404     		.2byte	0x414
 1147 0445 0A       		.byte	0xa
 1148 0446 A201     		.2byte	0x1a2
 1149 0448 81040000 		.4byte	0x481
 1150 044c 09       		.uleb128 0x9
 1151 044d 38080000 		.4byte	.LASF82
 1152 0451 0A       		.byte	0xa
 1153 0452 AA01     		.2byte	0x1aa
 1154 0454 A2080000 		.4byte	0x8a2
 1155 0458 00       		.byte	0
 1156 0459 09       		.uleb128 0x9
 1157 045a 9A080000 		.4byte	.LASF83
 1158 045e 0A       		.byte	0xa
 1159 045f AF01     		.2byte	0x1af
 1160 0461 53010000 		.4byte	0x153
 1161 0465 04       		.byte	0x4
 1162 0466 09       		.uleb128 0x9
 1163 0467 82020000 		.4byte	.LASF84
 1164 046b 0A       		.byte	0xa
 1165 046c B301     		.2byte	0x1b3
 1166 046e 53010000 		.4byte	0x153
 1167 0472 08       		.byte	0x8
 1168 0473 09       		.uleb128 0x9
 1169 0474 1B090000 		.4byte	.LASF85
 1170 0478 0A       		.byte	0xa
 1171 0479 B901     		.2byte	0x1b9
 1172 047b 0E070000 		.4byte	0x70e
 1173 047f 0C       		.byte	0xc
 1174 0480 00       		.byte	0
 1175 0481 03       		.uleb128 0x3
 1176 0482 DC040000 		.4byte	.LASF86
 1177 0486 09       		.byte	0x9
 1178 0487 70       		.byte	0x70
 1179 0488 8C040000 		.4byte	0x48c
 1180 048c 0F       		.uleb128 0xf
 1181 048d C2010000 		.4byte	.LASF87
 1182 0491 7006     		.2byte	0x670
 1183 0493 0A       		.byte	0xa
ARM GAS  /var/folders/km/q6jdms0143g2bddz5bhvdfd00000gn/T//ccnwGrRw.s 			page 22


 1184 0494 C201     		.2byte	0x1c2
 1185 0496 F9040000 		.4byte	0x4f9
 1186 049a 09       		.uleb128 0x9
 1187 049b AB080000 		.4byte	.LASF88
 1188 049f 0A       		.byte	0xa
 1189 04a0 C601     		.2byte	0x1c6
 1190 04a2 07030000 		.4byte	0x307
 1191 04a6 00       		.byte	0
 1192 04a7 09       		.uleb128 0x9
 1193 04a8 9F010000 		.4byte	.LASF89
 1194 04ac 0A       		.byte	0xa
 1195 04ad CA01     		.2byte	0x1ca
 1196 04af E6030000 		.4byte	0x3e6
 1197 04b3 1C       		.byte	0x1c
 1198 04b4 08       		.uleb128 0x8
 1199 04b5 64626700 		.ascii	"dbg\000"
 1200 04b9 0A       		.byte	0xa
 1201 04ba CE01     		.2byte	0x1ce
 1202 04bc 33040000 		.4byte	0x433
 1203 04c0 2C       		.byte	0x2c
 1204 04c1 10       		.uleb128 0x10
 1205 04c2 EF000000 		.4byte	.LASF90
 1206 04c6 0A       		.byte	0xa
 1207 04c7 D201     		.2byte	0x1d2
 1208 04c9 79010000 		.4byte	0x179
 1209 04cd 4004     		.2byte	0x440
 1210 04cf 11       		.uleb128 0x11
 1211 04d0 746D00   		.ascii	"tm\000"
 1212 04d3 0A       		.byte	0xa
 1213 04d4 D701     		.2byte	0x1d7
 1214 04d6 2E070000 		.4byte	0x72e
 1215 04da A804     		.2byte	0x4a8
 1216 04dc 10       		.uleb128 0x10
 1217 04dd 40000000 		.4byte	.LASF91
 1218 04e1 0A       		.byte	0xa
 1219 04e2 DD01     		.2byte	0x1dd
 1220 04e4 C0070000 		.4byte	0x7c0
 1221 04e8 B004     		.2byte	0x4b0
 1222 04ea 10       		.uleb128 0x10
 1223 04eb 8B020000 		.4byte	.LASF92
 1224 04ef 0A       		.byte	0xa
 1225 04f0 E301     		.2byte	0x1e3
 1226 04f2 BF080000 		.4byte	0x8bf
 1227 04f6 E804     		.2byte	0x4e8
 1228 04f8 00       		.byte	0
 1229 04f9 12       		.uleb128 0x12
 1230 04fa 2E010000 		.4byte	.LASF93
 1231 04fe 0B       		.byte	0xb
 1232 04ff A706     		.2byte	0x6a7
 1233 0501 D5000000 		.4byte	0xd5
 1234 0505 13       		.uleb128 0x13
 1235 0506 C9020000 		.4byte	.LASF94
 1236 050a 0C       		.byte	0xc
 1237 050b 4C       		.byte	0x4c
 1238 050c DA000000 		.4byte	0xda
 1239 0510 03       		.uleb128 0x3
 1240 0511 1A020000 		.4byte	.LASF95
ARM GAS  /var/folders/km/q6jdms0143g2bddz5bhvdfd00000gn/T//ccnwGrRw.s 			page 23


 1241 0515 0D       		.byte	0xd
 1242 0516 65       		.byte	0x65
 1243 0517 8A030000 		.4byte	0x38a
 1244 051b 03       		.uleb128 0x3
 1245 051c 3E050000 		.4byte	.LASF96
 1246 0520 0D       		.byte	0xd
 1247 0521 6D       		.byte	0x6d
 1248 0522 E5000000 		.4byte	0xe5
 1249 0526 06       		.uleb128 0x6
 1250 0527 5A080000 		.4byte	.LASF97
 1251 052b 04       		.byte	0x4
 1252 052c 0D       		.byte	0xd
 1253 052d 89       		.byte	0x89
 1254 052e 3F050000 		.4byte	0x53f
 1255 0532 14       		.uleb128 0x14
 1256 0533 72313300 		.ascii	"r13\000"
 1257 0537 0D       		.byte	0xd
 1258 0538 8A       		.byte	0x8a
 1259 0539 80060000 		.4byte	0x680
 1260 053d 00       		.byte	0
 1261 053e 00       		.byte	0
 1262 053f 06       		.uleb128 0x6
 1263 0540 57000000 		.4byte	.LASF98
 1264 0544 64       		.byte	0x64
 1265 0545 0E       		.byte	0xe
 1266 0546 F4       		.byte	0xf4
 1267 0547 80060000 		.4byte	0x680
 1268 054b 14       		.uleb128 0x14
 1269 054c 73313600 		.ascii	"s16\000"
 1270 0550 0E       		.byte	0xe
 1271 0551 F6       		.byte	0xf6
 1272 0552 10050000 		.4byte	0x510
 1273 0556 00       		.byte	0
 1274 0557 14       		.uleb128 0x14
 1275 0558 73313700 		.ascii	"s17\000"
 1276 055c 0E       		.byte	0xe
 1277 055d F7       		.byte	0xf7
 1278 055e 10050000 		.4byte	0x510
 1279 0562 04       		.byte	0x4
 1280 0563 14       		.uleb128 0x14
 1281 0564 73313800 		.ascii	"s18\000"
 1282 0568 0E       		.byte	0xe
 1283 0569 F8       		.byte	0xf8
 1284 056a 10050000 		.4byte	0x510
 1285 056e 08       		.byte	0x8
 1286 056f 14       		.uleb128 0x14
 1287 0570 73313900 		.ascii	"s19\000"
 1288 0574 0E       		.byte	0xe
 1289 0575 F9       		.byte	0xf9
 1290 0576 10050000 		.4byte	0x510
 1291 057a 0C       		.byte	0xc
 1292 057b 14       		.uleb128 0x14
 1293 057c 73323000 		.ascii	"s20\000"
 1294 0580 0E       		.byte	0xe
 1295 0581 FA       		.byte	0xfa
 1296 0582 10050000 		.4byte	0x510
 1297 0586 10       		.byte	0x10
ARM GAS  /var/folders/km/q6jdms0143g2bddz5bhvdfd00000gn/T//ccnwGrRw.s 			page 24


 1298 0587 14       		.uleb128 0x14
 1299 0588 73323100 		.ascii	"s21\000"
 1300 058c 0E       		.byte	0xe
 1301 058d FB       		.byte	0xfb
 1302 058e 10050000 		.4byte	0x510
 1303 0592 14       		.byte	0x14
 1304 0593 14       		.uleb128 0x14
 1305 0594 73323200 		.ascii	"s22\000"
 1306 0598 0E       		.byte	0xe
 1307 0599 FC       		.byte	0xfc
 1308 059a 10050000 		.4byte	0x510
 1309 059e 18       		.byte	0x18
 1310 059f 14       		.uleb128 0x14
 1311 05a0 73323300 		.ascii	"s23\000"
 1312 05a4 0E       		.byte	0xe
 1313 05a5 FD       		.byte	0xfd
 1314 05a6 10050000 		.4byte	0x510
 1315 05aa 1C       		.byte	0x1c
 1316 05ab 14       		.uleb128 0x14
 1317 05ac 73323400 		.ascii	"s24\000"
 1318 05b0 0E       		.byte	0xe
 1319 05b1 FE       		.byte	0xfe
 1320 05b2 10050000 		.4byte	0x510
 1321 05b6 20       		.byte	0x20
 1322 05b7 14       		.uleb128 0x14
 1323 05b8 73323500 		.ascii	"s25\000"
 1324 05bc 0E       		.byte	0xe
 1325 05bd FF       		.byte	0xff
 1326 05be 10050000 		.4byte	0x510
 1327 05c2 24       		.byte	0x24
 1328 05c3 08       		.uleb128 0x8
 1329 05c4 73323600 		.ascii	"s26\000"
 1330 05c8 0E       		.byte	0xe
 1331 05c9 0001     		.2byte	0x100
 1332 05cb 10050000 		.4byte	0x510
 1333 05cf 28       		.byte	0x28
 1334 05d0 08       		.uleb128 0x8
 1335 05d1 73323700 		.ascii	"s27\000"
 1336 05d5 0E       		.byte	0xe
 1337 05d6 0101     		.2byte	0x101
 1338 05d8 10050000 		.4byte	0x510
 1339 05dc 2C       		.byte	0x2c
 1340 05dd 08       		.uleb128 0x8
 1341 05de 73323800 		.ascii	"s28\000"
 1342 05e2 0E       		.byte	0xe
 1343 05e3 0201     		.2byte	0x102
 1344 05e5 10050000 		.4byte	0x510
 1345 05e9 30       		.byte	0x30
 1346 05ea 08       		.uleb128 0x8
 1347 05eb 73323900 		.ascii	"s29\000"
 1348 05ef 0E       		.byte	0xe
 1349 05f0 0301     		.2byte	0x103
 1350 05f2 10050000 		.4byte	0x510
 1351 05f6 34       		.byte	0x34
 1352 05f7 08       		.uleb128 0x8
 1353 05f8 73333000 		.ascii	"s30\000"
 1354 05fc 0E       		.byte	0xe
ARM GAS  /var/folders/km/q6jdms0143g2bddz5bhvdfd00000gn/T//ccnwGrRw.s 			page 25


 1355 05fd 0401     		.2byte	0x104
 1356 05ff 10050000 		.4byte	0x510
 1357 0603 38       		.byte	0x38
 1358 0604 08       		.uleb128 0x8
 1359 0605 73333100 		.ascii	"s31\000"
 1360 0609 0E       		.byte	0xe
 1361 060a 0501     		.2byte	0x105
 1362 060c 10050000 		.4byte	0x510
 1363 0610 3C       		.byte	0x3c
 1364 0611 08       		.uleb128 0x8
 1365 0612 723400   		.ascii	"r4\000"
 1366 0615 0E       		.byte	0xe
 1367 0616 0701     		.2byte	0x107
 1368 0618 10050000 		.4byte	0x510
 1369 061c 40       		.byte	0x40
 1370 061d 08       		.uleb128 0x8
 1371 061e 723500   		.ascii	"r5\000"
 1372 0621 0E       		.byte	0xe
 1373 0622 0801     		.2byte	0x108
 1374 0624 10050000 		.4byte	0x510
 1375 0628 44       		.byte	0x44
 1376 0629 08       		.uleb128 0x8
 1377 062a 723600   		.ascii	"r6\000"
 1378 062d 0E       		.byte	0xe
 1379 062e 0901     		.2byte	0x109
 1380 0630 10050000 		.4byte	0x510
 1381 0634 48       		.byte	0x48
 1382 0635 08       		.uleb128 0x8
 1383 0636 723700   		.ascii	"r7\000"
 1384 0639 0E       		.byte	0xe
 1385 063a 0A01     		.2byte	0x10a
 1386 063c 10050000 		.4byte	0x510
 1387 0640 4C       		.byte	0x4c
 1388 0641 08       		.uleb128 0x8
 1389 0642 723800   		.ascii	"r8\000"
 1390 0645 0E       		.byte	0xe
 1391 0646 0B01     		.2byte	0x10b
 1392 0648 10050000 		.4byte	0x510
 1393 064c 50       		.byte	0x50
 1394 064d 08       		.uleb128 0x8
 1395 064e 723900   		.ascii	"r9\000"
 1396 0651 0E       		.byte	0xe
 1397 0652 0C01     		.2byte	0x10c
 1398 0654 10050000 		.4byte	0x510
 1399 0658 54       		.byte	0x54
 1400 0659 08       		.uleb128 0x8
 1401 065a 72313000 		.ascii	"r10\000"
 1402 065e 0E       		.byte	0xe
 1403 065f 0D01     		.2byte	0x10d
 1404 0661 10050000 		.4byte	0x510
 1405 0665 58       		.byte	0x58
 1406 0666 08       		.uleb128 0x8
 1407 0667 72313100 		.ascii	"r11\000"
 1408 066b 0E       		.byte	0xe
 1409 066c 0E01     		.2byte	0x10e
 1410 066e 10050000 		.4byte	0x510
 1411 0672 5C       		.byte	0x5c
ARM GAS  /var/folders/km/q6jdms0143g2bddz5bhvdfd00000gn/T//ccnwGrRw.s 			page 26


 1412 0673 08       		.uleb128 0x8
 1413 0674 6C7200   		.ascii	"lr\000"
 1414 0677 0E       		.byte	0xe
 1415 0678 0F01     		.2byte	0x10f
 1416 067a 10050000 		.4byte	0x510
 1417 067e 60       		.byte	0x60
 1418 067f 00       		.byte	0
 1419 0680 0A       		.uleb128 0xa
 1420 0681 04       		.byte	0x4
 1421 0682 3F050000 		.4byte	0x53f
 1422 0686 15       		.uleb128 0x15
 1423 0687 10       		.byte	0x10
 1424 0688 0F       		.byte	0xf
 1425 0689 51       		.byte	0x51
 1426 068a BF060000 		.4byte	0x6bf
 1427 068e 07       		.uleb128 0x7
 1428 068f 1A000000 		.4byte	.LASF99
 1429 0693 0F       		.byte	0xf
 1430 0694 55       		.byte	0x55
 1431 0695 69010000 		.4byte	0x169
 1432 0699 00       		.byte	0
 1433 069a 07       		.uleb128 0x7
 1434 069b DE010000 		.4byte	.LASF100
 1435 069f 0F       		.byte	0xf
 1436 06a0 59       		.byte	0x59
 1437 06a1 AD020000 		.4byte	0x2ad
 1438 06a5 04       		.byte	0x4
 1439 06a6 07       		.uleb128 0x7
 1440 06a7 68090000 		.4byte	.LASF101
 1441 06ab 0F       		.byte	0xf
 1442 06ac 5D       		.byte	0x5d
 1443 06ad 8A030000 		.4byte	0x38a
 1444 06b1 08       		.byte	0x8
 1445 06b2 07       		.uleb128 0x7
 1446 06b3 A2080000 		.4byte	.LASF102
 1447 06b7 0F       		.byte	0xf
 1448 06b8 61       		.byte	0x61
 1449 06b9 B4000000 		.4byte	0xb4
 1450 06bd 0C       		.byte	0xc
 1451 06be 00       		.byte	0
 1452 06bf 03       		.uleb128 0x3
 1453 06c0 EE050000 		.4byte	.LASF103
 1454 06c4 0F       		.byte	0xf
 1455 06c5 62       		.byte	0x62
 1456 06c6 86060000 		.4byte	0x686
 1457 06ca 16       		.uleb128 0x16
 1458 06cb 0804     		.2byte	0x408
 1459 06cd 0F       		.byte	0xf
 1460 06ce 67       		.byte	0x67
 1461 06cf F8060000 		.4byte	0x6f8
 1462 06d3 07       		.uleb128 0x7
 1463 06d4 FE010000 		.4byte	.LASF104
 1464 06d8 0F       		.byte	0xf
 1465 06d9 6B       		.byte	0x6b
 1466 06da 37000000 		.4byte	0x37
 1467 06de 00       		.byte	0
 1468 06df 07       		.uleb128 0x7
ARM GAS  /var/folders/km/q6jdms0143g2bddz5bhvdfd00000gn/T//ccnwGrRw.s 			page 27


 1469 06e0 30000000 		.4byte	.LASF105
 1470 06e4 0F       		.byte	0xf
 1471 06e5 6F       		.byte	0x6f
 1472 06e6 F8060000 		.4byte	0x6f8
 1473 06ea 04       		.byte	0x4
 1474 06eb 07       		.uleb128 0x7
 1475 06ec 6D060000 		.4byte	.LASF106
 1476 06f0 0F       		.byte	0xf
 1477 06f1 73       		.byte	0x73
 1478 06f2 FE060000 		.4byte	0x6fe
 1479 06f6 08       		.byte	0x8
 1480 06f7 00       		.byte	0
 1481 06f8 0A       		.uleb128 0xa
 1482 06f9 04       		.byte	0x4
 1483 06fa BF060000 		.4byte	0x6bf
 1484 06fe 17       		.uleb128 0x17
 1485 06ff BF060000 		.4byte	0x6bf
 1486 0703 0E070000 		.4byte	0x70e
 1487 0707 18       		.uleb128 0x18
 1488 0708 37000000 		.4byte	0x37
 1489 070c 3F       		.byte	0x3f
 1490 070d 00       		.byte	0
 1491 070e 03       		.uleb128 0x3
 1492 070f C6000000 		.4byte	.LASF107
 1493 0713 0F       		.byte	0xf
 1494 0714 74       		.byte	0x74
 1495 0715 CA060000 		.4byte	0x6ca
 1496 0719 15       		.uleb128 0x15
 1497 071a 04       		.byte	0x4
 1498 071b 10       		.byte	0x10
 1499 071c 38       		.byte	0x38
 1500 071d 2E070000 		.4byte	0x72e
 1501 0721 07       		.uleb128 0x7
 1502 0722 42080000 		.4byte	.LASF108
 1503 0726 10       		.byte	0x10
 1504 0727 3C       		.byte	0x3c
 1505 0728 F0000000 		.4byte	0xf0
 1506 072c 00       		.byte	0
 1507 072d 00       		.byte	0
 1508 072e 03       		.uleb128 0x3
 1509 072f 2C060000 		.4byte	.LASF109
 1510 0733 10       		.byte	0x10
 1511 0734 3D       		.byte	0x3d
 1512 0735 19070000 		.4byte	0x719
 1513 0739 15       		.uleb128 0x15
 1514 073a 18       		.byte	0x18
 1515 073b 10       		.byte	0x10
 1516 073c 48       		.byte	0x48
 1517 073d 7C070000 		.4byte	0x77c
 1518 0741 07       		.uleb128 0x7
 1519 0742 F5070000 		.4byte	.LASF110
 1520 0746 10       		.byte	0x10
 1521 0747 49       		.byte	0x49
 1522 0748 F0000000 		.4byte	0xf0
 1523 074c 00       		.byte	0
 1524 074d 07       		.uleb128 0x7
 1525 074e 96000000 		.4byte	.LASF111
ARM GAS  /var/folders/km/q6jdms0143g2bddz5bhvdfd00000gn/T//ccnwGrRw.s 			page 28


 1526 0752 10       		.byte	0x10
 1527 0753 4A       		.byte	0x4a
 1528 0754 F0000000 		.4byte	0xf0
 1529 0758 04       		.byte	0x4
 1530 0759 07       		.uleb128 0x7
 1531 075a BF040000 		.4byte	.LASF112
 1532 075e 10       		.byte	0x10
 1533 075f 4B       		.byte	0x4b
 1534 0760 F0000000 		.4byte	0xf0
 1535 0764 08       		.byte	0x8
 1536 0765 14       		.uleb128 0x14
 1537 0766 6E00     		.ascii	"n\000"
 1538 0768 10       		.byte	0x10
 1539 0769 4C       		.byte	0x4c
 1540 076a 5E010000 		.4byte	0x15e
 1541 076e 0C       		.byte	0xc
 1542 076f 07       		.uleb128 0x7
 1543 0770 5A060000 		.4byte	.LASF113
 1544 0774 10       		.byte	0x10
 1545 0775 4D       		.byte	0x4d
 1546 0776 FB000000 		.4byte	0xfb
 1547 077a 10       		.byte	0x10
 1548 077b 00       		.byte	0
 1549 077c 03       		.uleb128 0x3
 1550 077d 9C000000 		.4byte	.LASF114
 1551 0781 10       		.byte	0x10
 1552 0782 4E       		.byte	0x4e
 1553 0783 39070000 		.4byte	0x739
 1554 0787 15       		.uleb128 0x15
 1555 0788 38       		.byte	0x38
 1556 0789 11       		.byte	0x11
 1557 078a 38       		.byte	0x38
 1558 078b C0070000 		.4byte	0x7c0
 1559 078f 07       		.uleb128 0x7
 1560 0790 22040000 		.4byte	.LASF115
 1561 0794 11       		.byte	0x11
 1562 0795 39       		.byte	0x39
 1563 0796 5E010000 		.4byte	0x15e
 1564 079a 00       		.byte	0
 1565 079b 07       		.uleb128 0x7
 1566 079c A1060000 		.4byte	.LASF116
 1567 07a0 11       		.byte	0x11
 1568 07a1 3A       		.byte	0x3a
 1569 07a2 5E010000 		.4byte	0x15e
 1570 07a6 04       		.byte	0x4
 1571 07a7 07       		.uleb128 0x7
 1572 07a8 55090000 		.4byte	.LASF117
 1573 07ac 11       		.byte	0x11
 1574 07ad 3B       		.byte	0x3b
 1575 07ae 7C070000 		.4byte	0x77c
 1576 07b2 08       		.byte	0x8
 1577 07b3 07       		.uleb128 0x7
 1578 07b4 0F050000 		.4byte	.LASF118
 1579 07b8 11       		.byte	0x11
 1580 07b9 3D       		.byte	0x3d
 1581 07ba 7C070000 		.4byte	0x77c
 1582 07be 20       		.byte	0x20
ARM GAS  /var/folders/km/q6jdms0143g2bddz5bhvdfd00000gn/T//ccnwGrRw.s 			page 29


 1583 07bf 00       		.byte	0
 1584 07c0 03       		.uleb128 0x3
 1585 07c1 A0040000 		.4byte	.LASF119
 1586 07c5 11       		.byte	0x11
 1587 07c6 3F       		.byte	0x3f
 1588 07c7 87070000 		.4byte	0x787
 1589 07cb 19       		.uleb128 0x19
 1590 07cc 04       		.byte	0x4
 1591 07cd 0A       		.byte	0xa
 1592 07ce FA       		.byte	0xfa
 1593 07cf 28080000 		.4byte	0x828
 1594 07d3 1A       		.uleb128 0x1a
 1595 07d4 29000000 		.4byte	.LASF120
 1596 07d8 0A       		.byte	0xa
 1597 07d9 0101     		.2byte	0x101
 1598 07db 3D010000 		.4byte	0x13d
 1599 07df 1A       		.uleb128 0x1a
 1600 07e0 E6000000 		.4byte	.LASF121
 1601 07e4 0A       		.byte	0xa
 1602 07e5 0801     		.2byte	0x108
 1603 07e7 3D010000 		.4byte	0x13d
 1604 07eb 1A       		.uleb128 0x1a
 1605 07ec F5080000 		.4byte	.LASF122
 1606 07f0 0A       		.byte	0xa
 1607 07f1 0F01     		.2byte	0x10f
 1608 07f3 8A030000 		.4byte	0x38a
 1609 07f7 1A       		.uleb128 0x1a
 1610 07f8 BC010000 		.4byte	.LASF123
 1611 07fc 0A       		.byte	0xa
 1612 07fd 1601     		.2byte	0x116
 1613 07ff 28080000 		.4byte	0x828
 1614 0803 1A       		.uleb128 0x1a
 1615 0804 E0020000 		.4byte	.LASF124
 1616 0808 0A       		.byte	0xa
 1617 0809 1E01     		.2byte	0x11e
 1618 080b 53080000 		.4byte	0x853
 1619 080f 1A       		.uleb128 0x1a
 1620 0810 CE070000 		.4byte	.LASF125
 1621 0814 0A       		.byte	0xa
 1622 0815 2701     		.2byte	0x127
 1623 0817 96080000 		.4byte	0x896
 1624 081b 1A       		.uleb128 0x1a
 1625 081c F7060000 		.4byte	.LASF126
 1626 0820 0A       		.byte	0xa
 1627 0821 2F01     		.2byte	0x12f
 1628 0823 48010000 		.4byte	0x148
 1629 0827 00       		.byte	0
 1630 0828 0A       		.uleb128 0xa
 1631 0829 04       		.byte	0x4
 1632 082a A2020000 		.4byte	0x2a2
 1633 082e 06       		.uleb128 0x6
 1634 082f 6A070000 		.4byte	.LASF127
 1635 0833 0C       		.byte	0xc
 1636 0834 12       		.byte	0x12
 1637 0835 34       		.byte	0x34
 1638 0836 53080000 		.4byte	0x853
 1639 083a 07       		.uleb128 0x7
ARM GAS  /var/folders/km/q6jdms0143g2bddz5bhvdfd00000gn/T//ccnwGrRw.s 			page 30


 1640 083b F6010000 		.4byte	.LASF128
 1641 083f 12       		.byte	0x12
 1642 0840 35       		.byte	0x35
 1643 0841 D7020000 		.4byte	0x2d7
 1644 0845 00       		.byte	0
 1645 0846 07       		.uleb128 0x7
 1646 0847 C0060000 		.4byte	.LASF129
 1647 084b 12       		.byte	0x12
 1648 084c 37       		.byte	0x37
 1649 084d 53010000 		.4byte	0x153
 1650 0851 08       		.byte	0x8
 1651 0852 00       		.byte	0
 1652 0853 0A       		.uleb128 0xa
 1653 0854 04       		.byte	0x4
 1654 0855 2E080000 		.4byte	0x82e
 1655 0859 06       		.uleb128 0x6
 1656 085a 49080000 		.4byte	.LASF130
 1657 085e 14       		.byte	0x14
 1658 085f 13       		.byte	0x13
 1659 0860 39       		.byte	0x39
 1660 0861 96080000 		.4byte	0x896
 1661 0865 07       		.uleb128 0x7
 1662 0866 97010000 		.4byte	.LASF131
 1663 086a 13       		.byte	0x13
 1664 086b 3A       		.byte	0x3a
 1665 086c D7020000 		.4byte	0x2d7
 1666 0870 00       		.byte	0
 1667 0871 07       		.uleb128 0x7
 1668 0872 60090000 		.4byte	.LASF132
 1669 0876 13       		.byte	0x13
 1670 0877 3C       		.byte	0x3c
 1671 0878 AD020000 		.4byte	0x2ad
 1672 087c 08       		.byte	0x8
 1673 087d 07       		.uleb128 0x7
 1674 087e FA070000 		.4byte	.LASF133
 1675 0882 13       		.byte	0x13
 1676 0883 3E       		.byte	0x3e
 1677 0884 F1090000 		.4byte	0x9f1
 1678 0888 0C       		.byte	0xc
 1679 0889 07       		.uleb128 0x7
 1680 088a 6E020000 		.4byte	.LASF134
 1681 088e 13       		.byte	0x13
 1682 088f 41       		.byte	0x41
 1683 0890 53010000 		.4byte	0x153
 1684 0894 10       		.byte	0x10
 1685 0895 00       		.byte	0
 1686 0896 0A       		.uleb128 0xa
 1687 0897 04       		.byte	0x4
 1688 0898 59080000 		.4byte	0x859
 1689 089c 0A       		.uleb128 0xa
 1690 089d 04       		.byte	0x4
 1691 089e AE080000 		.4byte	0x8ae
 1692 08a2 05       		.uleb128 0x5
 1693 08a3 9C080000 		.4byte	0x89c
 1694 08a7 04       		.uleb128 0x4
 1695 08a8 01       		.byte	0x1
 1696 08a9 08       		.byte	0x8
ARM GAS  /var/folders/km/q6jdms0143g2bddz5bhvdfd00000gn/T//ccnwGrRw.s 			page 31


 1697 08aa C9070000 		.4byte	.LASF135
 1698 08ae 1B       		.uleb128 0x1b
 1699 08af A7080000 		.4byte	0x8a7
 1700 08b3 0A       		.uleb128 0xa
 1701 08b4 04       		.byte	0x4
 1702 08b5 1B050000 		.4byte	0x51b
 1703 08b9 0A       		.uleb128 0xa
 1704 08ba 04       		.byte	0x4
 1705 08bb 8C030000 		.4byte	0x38c
 1706 08bf 17       		.uleb128 0x17
 1707 08c0 1B050000 		.4byte	0x51b
 1708 08c4 CF080000 		.4byte	0x8cf
 1709 08c8 18       		.uleb128 0x18
 1710 08c9 37000000 		.4byte	0x37
 1711 08cd 30       		.byte	0x30
 1712 08ce 00       		.byte	0
 1713 08cf 1C       		.uleb128 0x1c
 1714 08d0 636800   		.ascii	"ch\000"
 1715 08d3 0A       		.byte	0xa
 1716 08d4 0902     		.2byte	0x209
 1717 08d6 81040000 		.4byte	0x481
 1718 08da 15       		.uleb128 0x15
 1719 08db 16       		.byte	0x16
 1720 08dc 14       		.byte	0x14
 1721 08dd 34       		.byte	0x34
 1722 08de BB090000 		.4byte	0x9bb
 1723 08e2 07       		.uleb128 0x7
 1724 08e3 72090000 		.4byte	.LASF136
 1725 08e7 14       		.byte	0x14
 1726 08e8 35       		.byte	0x35
 1727 08e9 BB090000 		.4byte	0x9bb
 1728 08ed 00       		.byte	0
 1729 08ee 07       		.uleb128 0x7
 1730 08ef 58050000 		.4byte	.LASF137
 1731 08f3 14       		.byte	0x14
 1732 08f4 36       		.byte	0x36
 1733 08f5 B4000000 		.4byte	0xb4
 1734 08f9 04       		.byte	0x4
 1735 08fa 07       		.uleb128 0x7
 1736 08fb AF070000 		.4byte	.LASF138
 1737 08ff 14       		.byte	0x14
 1738 0900 37       		.byte	0x37
 1739 0901 B4000000 		.4byte	0xb4
 1740 0905 05       		.byte	0x5
 1741 0906 07       		.uleb128 0x7
 1742 0907 EC060000 		.4byte	.LASF139
 1743 090b 14       		.byte	0x14
 1744 090c 38       		.byte	0x38
 1745 090d BF000000 		.4byte	0xbf
 1746 0911 06       		.byte	0x6
 1747 0912 07       		.uleb128 0x7
 1748 0913 77060000 		.4byte	.LASF140
 1749 0917 14       		.byte	0x14
 1750 0918 39       		.byte	0x39
 1751 0919 B4000000 		.4byte	0xb4
 1752 091d 08       		.byte	0x8
 1753 091e 07       		.uleb128 0x7
ARM GAS  /var/folders/km/q6jdms0143g2bddz5bhvdfd00000gn/T//ccnwGrRw.s 			page 32


 1754 091f D5050000 		.4byte	.LASF141
 1755 0923 14       		.byte	0x14
 1756 0924 3A       		.byte	0x3a
 1757 0925 B4000000 		.4byte	0xb4
 1758 0929 09       		.byte	0x9
 1759 092a 07       		.uleb128 0x7
 1760 092b D8000000 		.4byte	.LASF142
 1761 092f 14       		.byte	0x14
 1762 0930 3B       		.byte	0x3b
 1763 0931 B4000000 		.4byte	0xb4
 1764 0935 0A       		.byte	0xa
 1765 0936 07       		.uleb128 0x7
 1766 0937 8B070000 		.4byte	.LASF143
 1767 093b 14       		.byte	0x14
 1768 093c 3C       		.byte	0x3c
 1769 093d B4000000 		.4byte	0xb4
 1770 0941 0B       		.byte	0xb
 1771 0942 07       		.uleb128 0x7
 1772 0943 7C080000 		.4byte	.LASF144
 1773 0947 14       		.byte	0x14
 1774 0948 3D       		.byte	0x3d
 1775 0949 B4000000 		.4byte	0xb4
 1776 094d 0C       		.byte	0xc
 1777 094e 07       		.uleb128 0x7
 1778 094f 5D070000 		.4byte	.LASF145
 1779 0953 14       		.byte	0x14
 1780 0954 3E       		.byte	0x3e
 1781 0955 B4000000 		.4byte	0xb4
 1782 0959 0D       		.byte	0xd
 1783 095a 07       		.uleb128 0x7
 1784 095b 00000000 		.4byte	.LASF146
 1785 095f 14       		.byte	0x14
 1786 0960 3F       		.byte	0x3f
 1787 0961 B4000000 		.4byte	0xb4
 1788 0965 0E       		.byte	0xe
 1789 0966 07       		.uleb128 0x7
 1790 0967 FD050000 		.4byte	.LASF147
 1791 096b 14       		.byte	0x14
 1792 096c 40       		.byte	0x40
 1793 096d B4000000 		.4byte	0xb4
 1794 0971 0F       		.byte	0xf
 1795 0972 07       		.uleb128 0x7
 1796 0973 72010000 		.4byte	.LASF148
 1797 0977 14       		.byte	0x14
 1798 0978 41       		.byte	0x41
 1799 0979 B4000000 		.4byte	0xb4
 1800 097d 10       		.byte	0x10
 1801 097e 07       		.uleb128 0x7
 1802 097f 4B010000 		.4byte	.LASF149
 1803 0983 14       		.byte	0x14
 1804 0984 43       		.byte	0x43
 1805 0985 B4000000 		.4byte	0xb4
 1806 0989 11       		.byte	0x11
 1807 098a 07       		.uleb128 0x7
 1808 098b 82010000 		.4byte	.LASF150
 1809 098f 14       		.byte	0x14
 1810 0990 44       		.byte	0x44
ARM GAS  /var/folders/km/q6jdms0143g2bddz5bhvdfd00000gn/T//ccnwGrRw.s 			page 33


 1811 0991 B4000000 		.4byte	0xb4
 1812 0995 12       		.byte	0x12
 1813 0996 07       		.uleb128 0x7
 1814 0997 60050000 		.4byte	.LASF151
 1815 099b 14       		.byte	0x14
 1816 099c 45       		.byte	0x45
 1817 099d B4000000 		.4byte	0xb4
 1818 09a1 13       		.byte	0x13
 1819 09a2 07       		.uleb128 0x7
 1820 09a3 0D070000 		.4byte	.LASF152
 1821 09a7 14       		.byte	0x14
 1822 09a8 46       		.byte	0x46
 1823 09a9 B4000000 		.4byte	0xb4
 1824 09ad 14       		.byte	0x14
 1825 09ae 07       		.uleb128 0x7
 1826 09af F2040000 		.4byte	.LASF153
 1827 09b3 14       		.byte	0x14
 1828 09b4 48       		.byte	0x48
 1829 09b5 B4000000 		.4byte	0xb4
 1830 09b9 15       		.byte	0x15
 1831 09ba 00       		.byte	0
 1832 09bb 17       		.uleb128 0x17
 1833 09bc A7080000 		.4byte	0x8a7
 1834 09c0 CB090000 		.4byte	0x9cb
 1835 09c4 18       		.uleb128 0x18
 1836 09c5 37000000 		.4byte	0x37
 1837 09c9 03       		.byte	0x3
 1838 09ca 00       		.byte	0
 1839 09cb 03       		.uleb128 0x3
 1840 09cc E4010000 		.4byte	.LASF154
 1841 09d0 14       		.byte	0x14
 1842 09d1 49       		.byte	0x49
 1843 09d2 DA080000 		.4byte	0x8da
 1844 09d6 1B       		.uleb128 0x1b
 1845 09d7 CB090000 		.4byte	0x9cb
 1846 09db 13       		.uleb128 0x13
 1847 09dc 0B040000 		.4byte	.LASF155
 1848 09e0 14       		.byte	0x14
 1849 09e1 6E       		.byte	0x6e
 1850 09e2 D6090000 		.4byte	0x9d6
 1851 09e6 03       		.uleb128 0x3
 1852 09e7 74020000 		.4byte	.LASF156
 1853 09eb 13       		.byte	0x13
 1854 09ec 34       		.byte	0x34
 1855 09ed 59080000 		.4byte	0x859
 1856 09f1 0A       		.uleb128 0xa
 1857 09f2 04       		.byte	0x4
 1858 09f3 E6090000 		.4byte	0x9e6
 1859 09f7 03       		.uleb128 0x3
 1860 09f8 68080000 		.4byte	.LASF157
 1861 09fc 15       		.byte	0x15
 1862 09fd 36       		.byte	0x36
 1863 09fe 020A0000 		.4byte	0xa02
 1864 0a02 0A       		.uleb128 0xa
 1865 0a03 04       		.byte	0x4
 1866 0a04 080A0000 		.4byte	0xa08
 1867 0a08 1D       		.uleb128 0x1d
ARM GAS  /var/folders/km/q6jdms0143g2bddz5bhvdfd00000gn/T//ccnwGrRw.s 			page 34


 1868 0a09 8A030000 		.4byte	0x38a
 1869 0a0d 170A0000 		.4byte	0xa17
 1870 0a11 0D       		.uleb128 0xd
 1871 0a12 2C000000 		.4byte	0x2c
 1872 0a16 00       		.byte	0
 1873 0a17 06       		.uleb128 0x6
 1874 0a18 87080000 		.4byte	.LASF158
 1875 0a1c 04       		.byte	0x4
 1876 0a1d 04       		.byte	0x4
 1877 0a1e 38       		.byte	0x38
 1878 0a1f 300A0000 		.4byte	0xa30
 1879 0a23 07       		.uleb128 0x7
 1880 0a24 FC080000 		.4byte	.LASF159
 1881 0a28 04       		.byte	0x4
 1882 0a29 39       		.byte	0x39
 1883 0a2a 300A0000 		.4byte	0xa30
 1884 0a2e 00       		.byte	0
 1885 0a2f 00       		.byte	0
 1886 0a30 0A       		.uleb128 0xa
 1887 0a31 04       		.byte	0x4
 1888 0a32 170A0000 		.4byte	0xa17
 1889 0a36 15       		.uleb128 0x15
 1890 0a37 0C       		.byte	0xc
 1891 0a38 04       		.byte	0x4
 1892 0a39 40       		.byte	0x40
 1893 0a3a 630A0000 		.4byte	0xa63
 1894 0a3e 07       		.uleb128 0x7
 1895 0a3f 52080000 		.4byte	.LASF160
 1896 0a43 04       		.byte	0x4
 1897 0a44 41       		.byte	0x41
 1898 0a45 300A0000 		.4byte	0xa30
 1899 0a49 00       		.byte	0
 1900 0a4a 07       		.uleb128 0x7
 1901 0a4b 1D060000 		.4byte	.LASF161
 1902 0a4f 04       		.byte	0x4
 1903 0a50 42       		.byte	0x42
 1904 0a51 2C000000 		.4byte	0x2c
 1905 0a55 04       		.byte	0x4
 1906 0a56 07       		.uleb128 0x7
 1907 0a57 0E020000 		.4byte	.LASF162
 1908 0a5b 04       		.byte	0x4
 1909 0a5c 44       		.byte	0x44
 1910 0a5d F7090000 		.4byte	0x9f7
 1911 0a61 08       		.byte	0x8
 1912 0a62 00       		.byte	0
 1913 0a63 03       		.uleb128 0x3
 1914 0a64 14040000 		.4byte	.LASF163
 1915 0a68 04       		.byte	0x4
 1916 0a69 46       		.byte	0x46
 1917 0a6a 360A0000 		.4byte	0xa36
 1918 0a6e 1E       		.uleb128 0x1e
 1919 0a6f C5080000 		.4byte	.LASF165
 1920 0a73 01       		.byte	0x1
 1921 0a74 C1       		.byte	0xc1
 1922 0a75 00000000 		.4byte	.LFB224
 1923 0a79 54000000 		.4byte	.LFE224-.LFB224
 1924 0a7d 01       		.uleb128 0x1
ARM GAS  /var/folders/km/q6jdms0143g2bddz5bhvdfd00000gn/T//ccnwGrRw.s 			page 35


 1925 0a7e 9C       		.byte	0x9c
 1926 0a7f 7F0B0000 		.4byte	0xb7f
 1927 0a83 1F       		.uleb128 0x1f
 1928 0a84 6D7000   		.ascii	"mp\000"
 1929 0a87 01       		.byte	0x1
 1930 0a88 C1       		.byte	0xc1
 1931 0a89 7F0B0000 		.4byte	0xb7f
 1932 0a8d 00000000 		.4byte	.LLST13
 1933 0a91 20       		.uleb128 0x20
 1934 0a92 37070000 		.4byte	.LASF164
 1935 0a96 01       		.byte	0x1
 1936 0a97 C1       		.byte	0xc1
 1937 0a98 8A030000 		.4byte	0x38a
 1938 0a9c 2C000000 		.4byte	.LLST14
 1939 0aa0 21       		.uleb128 0x21
 1940 0aa1 DC0E0000 		.4byte	0xedc
 1941 0aa5 06000000 		.4byte	.LBB72
 1942 0aa9 0E000000 		.4byte	.LBE72-.LBB72
 1943 0aad 01       		.byte	0x1
 1944 0aae C3       		.byte	0xc3
 1945 0aaf F50A0000 		.4byte	0xaf5
 1946 0ab3 22       		.uleb128 0x22
 1947 0ab4 EE0E0000 		.4byte	0xeee
 1948 0ab8 06000000 		.4byte	.LBB74
 1949 0abc 06000000 		.4byte	.LBE74-.LBB74
 1950 0ac0 03       		.byte	0x3
 1951 0ac1 5C01     		.2byte	0x15c
 1952 0ac3 E20A0000 		.4byte	0xae2
 1953 0ac7 23       		.uleb128 0x23
 1954 0ac8 F70E0000 		.4byte	0xef7
 1955 0acc 06000000 		.4byte	.LBB75
 1956 0ad0 06000000 		.4byte	.LBE75-.LBB75
 1957 0ad4 0E       		.byte	0xe
 1958 0ad5 BF01     		.2byte	0x1bf
 1959 0ad7 24       		.uleb128 0x24
 1960 0ad8 040F0000 		.4byte	0xf04
 1961 0adc 58000000 		.4byte	.LLST15
 1962 0ae0 00       		.byte	0
 1963 0ae1 00       		.byte	0
 1964 0ae2 25       		.uleb128 0x25
 1965 0ae3 10000000 		.4byte	.LVL34
 1966 0ae7 7F0F0000 		.4byte	0xf7f
 1967 0aeb 25       		.uleb128 0x25
 1968 0aec 14000000 		.4byte	.LVL35
 1969 0af0 8A0F0000 		.4byte	0xf8a
 1970 0af4 00       		.byte	0
 1971 0af5 26       		.uleb128 0x26
 1972 0af6 C10E0000 		.4byte	0xec1
 1973 0afa 1C000000 		.4byte	.LBB77
 1974 0afe 78000000 		.4byte	.Ldebug_ranges0+0x78
 1975 0b02 01       		.byte	0x1
 1976 0b03 C5       		.byte	0xc5
 1977 0b04 680B0000 		.4byte	0xb68
 1978 0b08 27       		.uleb128 0x27
 1979 0b09 78000000 		.4byte	.Ldebug_ranges0+0x78
 1980 0b0d 28       		.uleb128 0x28
 1981 0b0e CE0E0000 		.4byte	0xece
ARM GAS  /var/folders/km/q6jdms0143g2bddz5bhvdfd00000gn/T//ccnwGrRw.s 			page 36


 1982 0b12 29       		.uleb128 0x29
 1983 0b13 E50E0000 		.4byte	0xee5
 1984 0b17 36000000 		.4byte	.LBB79
 1985 0b1b 90000000 		.4byte	.Ldebug_ranges0+0x90
 1986 0b1f 03       		.byte	0x3
 1987 0b20 7301     		.2byte	0x173
 1988 0b22 410B0000 		.4byte	0xb41
 1989 0b26 2A       		.uleb128 0x2a
 1990 0b27 F70E0000 		.4byte	0xef7
 1991 0b2b 36000000 		.4byte	.LBB80
 1992 0b2f 90000000 		.4byte	.Ldebug_ranges0+0x90
 1993 0b33 0E       		.byte	0xe
 1994 0b34 CD01     		.2byte	0x1cd
 1995 0b36 24       		.uleb128 0x24
 1996 0b37 040F0000 		.4byte	0xf04
 1997 0b3b 6D000000 		.4byte	.LLST16
 1998 0b3f 00       		.byte	0
 1999 0b40 00       		.byte	0
 2000 0b41 25       		.uleb128 0x25
 2001 0b42 20000000 		.4byte	.LVL37
 2002 0b46 950F0000 		.4byte	0xf95
 2003 0b4a 25       		.uleb128 0x25
 2004 0b4b 24000000 		.4byte	.LVL38
 2005 0b4f A00F0000 		.4byte	0xfa0
 2006 0b53 2B       		.uleb128 0x2b
 2007 0b54 44000000 		.4byte	.LVL42
 2008 0b58 AB0F0000 		.4byte	0xfab
 2009 0b5c 2C       		.uleb128 0x2c
 2010 0b5d 01       		.uleb128 0x1
 2011 0b5e 50       		.byte	0x50
 2012 0b5f 05       		.uleb128 0x5
 2013 0b60 03       		.byte	0x3
 2014 0b61 00000000 		.4byte	.LANCHOR2
 2015 0b65 00       		.byte	0
 2016 0b66 00       		.byte	0
 2017 0b67 00       		.byte	0
 2018 0b68 2B       		.uleb128 0x2b
 2019 0b69 1C000000 		.4byte	.LVL36
 2020 0b6d 850B0000 		.4byte	0xb85
 2021 0b71 2C       		.uleb128 0x2c
 2022 0b72 01       		.uleb128 0x1
 2023 0b73 50       		.byte	0x50
 2024 0b74 02       		.uleb128 0x2
 2025 0b75 74       		.byte	0x74
 2026 0b76 00       		.sleb128 0
 2027 0b77 2C       		.uleb128 0x2c
 2028 0b78 01       		.uleb128 0x1
 2029 0b79 51       		.byte	0x51
 2030 0b7a 02       		.uleb128 0x2
 2031 0b7b 75       		.byte	0x75
 2032 0b7c 00       		.sleb128 0
 2033 0b7d 00       		.byte	0
 2034 0b7e 00       		.byte	0
 2035 0b7f 0A       		.uleb128 0xa
 2036 0b80 04       		.byte	0x4
 2037 0b81 630A0000 		.4byte	0xa63
 2038 0b85 1E       		.uleb128 0x1e
ARM GAS  /var/folders/km/q6jdms0143g2bddz5bhvdfd00000gn/T//ccnwGrRw.s 			page 37


 2039 0b86 E0070000 		.4byte	.LASF166
 2040 0b8a 01       		.byte	0x1
 2041 0b8b AB       		.byte	0xab
 2042 0b8c 00000000 		.4byte	.LFB223
 2043 0b90 28000000 		.4byte	.LFE223-.LFB223
 2044 0b94 01       		.uleb128 0x1
 2045 0b95 9C       		.byte	0x9c
 2046 0b96 F20B0000 		.4byte	0xbf2
 2047 0b9a 1F       		.uleb128 0x1f
 2048 0b9b 6D7000   		.ascii	"mp\000"
 2049 0b9e 01       		.byte	0x1
 2050 0b9f AB       		.byte	0xab
 2051 0ba0 7F0B0000 		.4byte	0xb7f
 2052 0ba4 8D000000 		.4byte	.LLST10
 2053 0ba8 20       		.uleb128 0x20
 2054 0ba9 37070000 		.4byte	.LASF164
 2055 0bad 01       		.byte	0x1
 2056 0bae AB       		.byte	0xab
 2057 0baf 8A030000 		.4byte	0x38a
 2058 0bb3 B9000000 		.4byte	.LLST11
 2059 0bb7 2D       		.uleb128 0x2d
 2060 0bb8 70687000 		.ascii	"php\000"
 2061 0bbc 01       		.byte	0x1
 2062 0bbd AC       		.byte	0xac
 2063 0bbe 300A0000 		.4byte	0xa30
 2064 0bc2 E4000000 		.4byte	.LLST12
 2065 0bc6 2E       		.uleb128 0x2e
 2066 0bc7 1C070000 		.4byte	.LASF167
 2067 0bcb 020C0000 		.4byte	0xc02
 2068 0bcf 05       		.uleb128 0x5
 2069 0bd0 03       		.byte	0x3
 2070 0bd1 00000000 		.4byte	__func__.7875
 2071 0bd5 25       		.uleb128 0x25
 2072 0bd6 0A000000 		.4byte	.LVL28
 2073 0bda B70F0000 		.4byte	0xfb7
 2074 0bde 2B       		.uleb128 0x2b
 2075 0bdf 1C000000 		.4byte	.LVL30
 2076 0be3 AB0F0000 		.4byte	0xfab
 2077 0be7 2C       		.uleb128 0x2c
 2078 0be8 01       		.uleb128 0x1
 2079 0be9 50       		.byte	0x50
 2080 0bea 05       		.uleb128 0x5
 2081 0beb 03       		.byte	0x3
 2082 0bec 00000000 		.4byte	.LANCHOR3
 2083 0bf0 00       		.byte	0
 2084 0bf1 00       		.byte	0
 2085 0bf2 17       		.uleb128 0x17
 2086 0bf3 AE080000 		.4byte	0x8ae
 2087 0bf7 020C0000 		.4byte	0xc02
 2088 0bfb 18       		.uleb128 0x18
 2089 0bfc 37000000 		.4byte	0x37
 2090 0c00 0B       		.byte	0xb
 2091 0c01 00       		.byte	0
 2092 0c02 1B       		.uleb128 0x1b
 2093 0c03 F20B0000 		.4byte	0xbf2
 2094 0c07 2F       		.uleb128 0x2f
 2095 0c08 B9080000 		.4byte	.LASF189
ARM GAS  /var/folders/km/q6jdms0143g2bddz5bhvdfd00000gn/T//ccnwGrRw.s 			page 38


 2096 0c0c 01       		.byte	0x1
 2097 0c0d 95       		.byte	0x95
 2098 0c0e 8A030000 		.4byte	0x38a
 2099 0c12 00000000 		.4byte	.LFB222
 2100 0c16 58000000 		.4byte	.LFE222-.LFB222
 2101 0c1a 01       		.uleb128 0x1
 2102 0c1b 9C       		.byte	0x9c
 2103 0c1c 160D0000 		.4byte	0xd16
 2104 0c20 1F       		.uleb128 0x1f
 2105 0c21 6D7000   		.ascii	"mp\000"
 2106 0c24 01       		.byte	0x1
 2107 0c25 95       		.byte	0x95
 2108 0c26 7F0B0000 		.4byte	0xb7f
 2109 0c2a 0F010000 		.4byte	.LLST6
 2110 0c2e 30       		.uleb128 0x30
 2111 0c2f 37070000 		.4byte	.LASF164
 2112 0c33 01       		.byte	0x1
 2113 0c34 96       		.byte	0x96
 2114 0c35 8A030000 		.4byte	0x38a
 2115 0c39 3B010000 		.4byte	.LLST7
 2116 0c3d 26       		.uleb128 0x26
 2117 0c3e DC0E0000 		.4byte	0xedc
 2118 0c42 02000000 		.4byte	.LBB42
 2119 0c46 18000000 		.4byte	.Ldebug_ranges0+0x18
 2120 0c4a 01       		.byte	0x1
 2121 0c4b 98       		.byte	0x98
 2122 0c4c 920C0000 		.4byte	0xc92
 2123 0c50 29       		.uleb128 0x29
 2124 0c51 EE0E0000 		.4byte	0xeee
 2125 0c55 02000000 		.4byte	.LBB44
 2126 0c59 30000000 		.4byte	.Ldebug_ranges0+0x30
 2127 0c5d 03       		.byte	0x3
 2128 0c5e 5C01     		.2byte	0x15c
 2129 0c60 7F0C0000 		.4byte	0xc7f
 2130 0c64 2A       		.uleb128 0x2a
 2131 0c65 F70E0000 		.4byte	0xef7
 2132 0c69 02000000 		.4byte	.LBB45
 2133 0c6d 30000000 		.4byte	.Ldebug_ranges0+0x30
 2134 0c71 0E       		.byte	0xe
 2135 0c72 BF01     		.2byte	0x1bf
 2136 0c74 24       		.uleb128 0x24
 2137 0c75 040F0000 		.4byte	0xf04
 2138 0c79 64010000 		.4byte	.LLST8
 2139 0c7d 00       		.byte	0
 2140 0c7e 00       		.byte	0
 2141 0c7f 25       		.uleb128 0x25
 2142 0c80 0E000000 		.4byte	.LVL14
 2143 0c84 7F0F0000 		.4byte	0xf7f
 2144 0c88 25       		.uleb128 0x25
 2145 0c89 12000000 		.4byte	.LVL15
 2146 0c8d 8A0F0000 		.4byte	0xf8a
 2147 0c91 00       		.byte	0
 2148 0c92 26       		.uleb128 0x26
 2149 0c93 C10E0000 		.4byte	0xec1
 2150 0c97 1A000000 		.4byte	.LBB52
 2151 0c9b 48000000 		.4byte	.Ldebug_ranges0+0x48
 2152 0c9f 01       		.byte	0x1
ARM GAS  /var/folders/km/q6jdms0143g2bddz5bhvdfd00000gn/T//ccnwGrRw.s 			page 39


 2153 0ca0 9A       		.byte	0x9a
 2154 0ca1 050D0000 		.4byte	0xd05
 2155 0ca5 27       		.uleb128 0x27
 2156 0ca6 48000000 		.4byte	.Ldebug_ranges0+0x48
 2157 0caa 28       		.uleb128 0x28
 2158 0cab CE0E0000 		.4byte	0xece
 2159 0caf 29       		.uleb128 0x29
 2160 0cb0 E50E0000 		.4byte	0xee5
 2161 0cb4 34000000 		.4byte	.LBB54
 2162 0cb8 60000000 		.4byte	.Ldebug_ranges0+0x60
 2163 0cbc 03       		.byte	0x3
 2164 0cbd 7301     		.2byte	0x173
 2165 0cbf DE0C0000 		.4byte	0xcde
 2166 0cc3 2A       		.uleb128 0x2a
 2167 0cc4 F70E0000 		.4byte	0xef7
 2168 0cc8 34000000 		.4byte	.LBB55
 2169 0ccc 60000000 		.4byte	.Ldebug_ranges0+0x60
 2170 0cd0 0E       		.byte	0xe
 2171 0cd1 CD01     		.2byte	0x1cd
 2172 0cd3 24       		.uleb128 0x24
 2173 0cd4 040F0000 		.4byte	0xf04
 2174 0cd8 79010000 		.4byte	.LLST9
 2175 0cdc 00       		.byte	0
 2176 0cdd 00       		.byte	0
 2177 0cde 25       		.uleb128 0x25
 2178 0cdf 1E000000 		.4byte	.LVL18
 2179 0ce3 950F0000 		.4byte	0xf95
 2180 0ce7 25       		.uleb128 0x25
 2181 0ce8 22000000 		.4byte	.LVL19
 2182 0cec A00F0000 		.4byte	0xfa0
 2183 0cf0 2B       		.uleb128 0x2b
 2184 0cf1 44000000 		.4byte	.LVL23
 2185 0cf5 AB0F0000 		.4byte	0xfab
 2186 0cf9 2C       		.uleb128 0x2c
 2187 0cfa 01       		.uleb128 0x1
 2188 0cfb 50       		.byte	0x50
 2189 0cfc 05       		.uleb128 0x5
 2190 0cfd 03       		.byte	0x3
 2191 0cfe 00000000 		.4byte	.LANCHOR2
 2192 0d02 00       		.byte	0
 2193 0d03 00       		.byte	0
 2194 0d04 00       		.byte	0
 2195 0d05 2B       		.uleb128 0x2b
 2196 0d06 18000000 		.4byte	.LVL16
 2197 0d0a 160D0000 		.4byte	0xd16
 2198 0d0e 2C       		.uleb128 0x2c
 2199 0d0f 01       		.uleb128 0x1
 2200 0d10 50       		.byte	0x50
 2201 0d11 02       		.uleb128 0x2
 2202 0d12 74       		.byte	0x74
 2203 0d13 00       		.sleb128 0
 2204 0d14 00       		.byte	0
 2205 0d15 00       		.byte	0
 2206 0d16 31       		.uleb128 0x31
 2207 0d17 E1050000 		.4byte	.LASF174
 2208 0d1b 01       		.byte	0x1
 2209 0d1c 78       		.byte	0x78
ARM GAS  /var/folders/km/q6jdms0143g2bddz5bhvdfd00000gn/T//ccnwGrRw.s 			page 40


 2210 0d1d 8A030000 		.4byte	0x38a
 2211 0d21 01       		.byte	0x1
 2212 0d22 490D0000 		.4byte	0xd49
 2213 0d26 32       		.uleb128 0x32
 2214 0d27 6D7000   		.ascii	"mp\000"
 2215 0d2a 01       		.byte	0x1
 2216 0d2b 78       		.byte	0x78
 2217 0d2c 7F0B0000 		.4byte	0xb7f
 2218 0d30 33       		.uleb128 0x33
 2219 0d31 37070000 		.4byte	.LASF164
 2220 0d35 01       		.byte	0x1
 2221 0d36 79       		.byte	0x79
 2222 0d37 8A030000 		.4byte	0x38a
 2223 0d3b 34       		.uleb128 0x34
 2224 0d3c 1C070000 		.4byte	.LASF167
 2225 0d40 590D0000 		.4byte	0xd59
 2226 0d44 E1050000 		.4byte	.LASF174
 2227 0d48 00       		.byte	0
 2228 0d49 17       		.uleb128 0x17
 2229 0d4a AE080000 		.4byte	0x8ae
 2230 0d4e 590D0000 		.4byte	0xd59
 2231 0d52 18       		.uleb128 0x18
 2232 0d53 37000000 		.4byte	0x37
 2233 0d57 0C       		.byte	0xc
 2234 0d58 00       		.byte	0
 2235 0d59 1B       		.uleb128 0x1b
 2236 0d5a 490D0000 		.4byte	0xd49
 2237 0d5e 1E       		.uleb128 0x1e
 2238 0d5f 45090000 		.4byte	.LASF168
 2239 0d63 01       		.byte	0x1
 2240 0d64 61       		.byte	0x61
 2241 0d65 00000000 		.4byte	.LFB220
 2242 0d69 34000000 		.4byte	.LFE220-.LFB220
 2243 0d6d 01       		.uleb128 0x1
 2244 0d6e 9C       		.byte	0x9c
 2245 0d6f 110E0000 		.4byte	0xe11
 2246 0d73 1F       		.uleb128 0x1f
 2247 0d74 6D7000   		.ascii	"mp\000"
 2248 0d77 01       		.byte	0x1
 2249 0d78 61       		.byte	0x61
 2250 0d79 7F0B0000 		.4byte	0xb7f
 2251 0d7d 99010000 		.4byte	.LLST17
 2252 0d81 1F       		.uleb128 0x1f
 2253 0d82 7000     		.ascii	"p\000"
 2254 0d84 01       		.byte	0x1
 2255 0d85 61       		.byte	0x61
 2256 0d86 8A030000 		.4byte	0x38a
 2257 0d8a E9010000 		.4byte	.LLST18
 2258 0d8e 1F       		.uleb128 0x1f
 2259 0d8f 6E00     		.ascii	"n\000"
 2260 0d91 01       		.byte	0x1
 2261 0d92 61       		.byte	0x61
 2262 0d93 2C000000 		.4byte	0x2c
 2263 0d97 20020000 		.4byte	.LLST19
 2264 0d9b 2E       		.uleb128 0x2e
 2265 0d9c 1C070000 		.4byte	.LASF167
 2266 0da0 210E0000 		.4byte	0xe21
ARM GAS  /var/folders/km/q6jdms0143g2bddz5bhvdfd00000gn/T//ccnwGrRw.s 			page 41


 2267 0da4 05       		.uleb128 0x5
 2268 0da5 03       		.byte	0x3
 2269 0da6 00000000 		.4byte	__func__.7857
 2270 0daa 21       		.uleb128 0x21
 2271 0dab 9F0E0000 		.4byte	0xe9f
 2272 0daf 1E000000 		.4byte	.LBB87
 2273 0db3 08000000 		.4byte	.LBE87-.LBB87
 2274 0db7 01       		.byte	0x1
 2275 0db8 66       		.byte	0x66
 2276 0db9 E60D0000 		.4byte	0xde6
 2277 0dbd 24       		.uleb128 0x24
 2278 0dbe B50E0000 		.4byte	0xeb5
 2279 0dc2 64020000 		.4byte	.LLST20
 2280 0dc6 24       		.uleb128 0x24
 2281 0dc7 AB0E0000 		.4byte	0xeab
 2282 0dcb 77020000 		.4byte	.LLST21
 2283 0dcf 2B       		.uleb128 0x2b
 2284 0dd0 26000000 		.4byte	.LVL52
 2285 0dd4 6E0A0000 		.4byte	0xa6e
 2286 0dd8 2C       		.uleb128 0x2c
 2287 0dd9 01       		.uleb128 0x1
 2288 0dda 50       		.byte	0x50
 2289 0ddb 02       		.uleb128 0x2
 2290 0ddc 76       		.byte	0x76
 2291 0ddd 00       		.sleb128 0
 2292 0dde 2C       		.uleb128 0x2c
 2293 0ddf 01       		.uleb128 0x1
 2294 0de0 51       		.byte	0x51
 2295 0de1 02       		.uleb128 0x2
 2296 0de2 75       		.byte	0x75
 2297 0de3 00       		.sleb128 0
 2298 0de4 00       		.byte	0
 2299 0de5 00       		.byte	0
 2300 0de6 35       		.uleb128 0x35
 2301 0de7 16000000 		.4byte	.LVL48
 2302 0deb AB0F0000 		.4byte	0xfab
 2303 0def FD0D0000 		.4byte	0xdfd
 2304 0df3 2C       		.uleb128 0x2c
 2305 0df4 01       		.uleb128 0x1
 2306 0df5 50       		.byte	0x50
 2307 0df6 05       		.uleb128 0x5
 2308 0df7 03       		.byte	0x3
 2309 0df8 00000000 		.4byte	.LANCHOR4
 2310 0dfc 00       		.byte	0
 2311 0dfd 2B       		.uleb128 0x2b
 2312 0dfe 1C000000 		.4byte	.LVL50
 2313 0e02 AB0F0000 		.4byte	0xfab
 2314 0e06 2C       		.uleb128 0x2c
 2315 0e07 01       		.uleb128 0x1
 2316 0e08 50       		.byte	0x50
 2317 0e09 05       		.uleb128 0x5
 2318 0e0a 03       		.byte	0x3
 2319 0e0b 00000000 		.4byte	.LANCHOR4
 2320 0e0f 00       		.byte	0
 2321 0e10 00       		.byte	0
 2322 0e11 17       		.uleb128 0x17
 2323 0e12 AE080000 		.4byte	0x8ae
ARM GAS  /var/folders/km/q6jdms0143g2bddz5bhvdfd00000gn/T//ccnwGrRw.s 			page 42


 2324 0e16 210E0000 		.4byte	0xe21
 2325 0e1a 18       		.uleb128 0x18
 2326 0e1b 37000000 		.4byte	0x37
 2327 0e1f 0F       		.byte	0xf
 2328 0e20 00       		.byte	0
 2329 0e21 1B       		.uleb128 0x1b
 2330 0e22 110E0000 		.4byte	0xe11
 2331 0e26 1E       		.uleb128 0x1e
 2332 0e27 FE040000 		.4byte	.LASF169
 2333 0e2b 01       		.byte	0x1
 2334 0e2c 4B       		.byte	0x4b
 2335 0e2d 00000000 		.4byte	.LFB219
 2336 0e31 24000000 		.4byte	.LFE219-.LFB219
 2337 0e35 01       		.uleb128 0x1
 2338 0e36 9C       		.byte	0x9c
 2339 0e37 8A0E0000 		.4byte	0xe8a
 2340 0e3b 1F       		.uleb128 0x1f
 2341 0e3c 6D7000   		.ascii	"mp\000"
 2342 0e3f 01       		.byte	0x1
 2343 0e40 4B       		.byte	0x4b
 2344 0e41 7F0B0000 		.4byte	0xb7f
 2345 0e45 8A020000 		.4byte	.LLST0
 2346 0e49 20       		.uleb128 0x20
 2347 0e4a 0B090000 		.4byte	.LASF170
 2348 0e4e 01       		.byte	0x1
 2349 0e4f 4B       		.byte	0x4b
 2350 0e50 2C000000 		.4byte	0x2c
 2351 0e54 B6020000 		.4byte	.LLST1
 2352 0e58 20       		.uleb128 0x20
 2353 0e59 83000000 		.4byte	.LASF171
 2354 0e5d 01       		.byte	0x1
 2355 0e5e 4B       		.byte	0x4b
 2356 0e5f F7090000 		.4byte	0x9f7
 2357 0e63 E3020000 		.4byte	.LLST2
 2358 0e67 2E       		.uleb128 0x2e
 2359 0e68 1C070000 		.4byte	.LASF167
 2360 0e6c 9A0E0000 		.4byte	0xe9a
 2361 0e70 05       		.uleb128 0x5
 2362 0e71 03       		.byte	0x3
 2363 0e72 00000000 		.4byte	__func__.7851
 2364 0e76 2B       		.uleb128 0x2b
 2365 0e77 14000000 		.4byte	.LVL2
 2366 0e7b AB0F0000 		.4byte	0xfab
 2367 0e7f 2C       		.uleb128 0x2c
 2368 0e80 01       		.uleb128 0x1
 2369 0e81 50       		.byte	0x50
 2370 0e82 05       		.uleb128 0x5
 2371 0e83 03       		.byte	0x3
 2372 0e84 00000000 		.4byte	.LANCHOR0
 2373 0e88 00       		.byte	0
 2374 0e89 00       		.byte	0
 2375 0e8a 17       		.uleb128 0x17
 2376 0e8b AE080000 		.4byte	0x8ae
 2377 0e8f 9A0E0000 		.4byte	0xe9a
 2378 0e93 18       		.uleb128 0x18
 2379 0e94 37000000 		.4byte	0x37
 2380 0e98 10       		.byte	0x10
ARM GAS  /var/folders/km/q6jdms0143g2bddz5bhvdfd00000gn/T//ccnwGrRw.s 			page 43


 2381 0e99 00       		.byte	0
 2382 0e9a 1B       		.uleb128 0x1b
 2383 0e9b 8A0E0000 		.4byte	0xe8a
 2384 0e9f 36       		.uleb128 0x36
 2385 0ea0 E8040000 		.4byte	.LASF172
 2386 0ea4 04       		.byte	0x4
 2387 0ea5 89       		.byte	0x89
 2388 0ea6 03       		.byte	0x3
 2389 0ea7 C10E0000 		.4byte	0xec1
 2390 0eab 32       		.uleb128 0x32
 2391 0eac 6D7000   		.ascii	"mp\000"
 2392 0eaf 04       		.byte	0x4
 2393 0eb0 89       		.byte	0x89
 2394 0eb1 7F0B0000 		.4byte	0xb7f
 2395 0eb5 37       		.uleb128 0x37
 2396 0eb6 37070000 		.4byte	.LASF164
 2397 0eba 04       		.byte	0x4
 2398 0ebb 89       		.byte	0x89
 2399 0ebc 8A030000 		.4byte	0x38a
 2400 0ec0 00       		.byte	0
 2401 0ec1 38       		.uleb128 0x38
 2402 0ec2 39090000 		.4byte	.LASF173
 2403 0ec6 03       		.byte	0x3
 2404 0ec7 6601     		.2byte	0x166
 2405 0ec9 03       		.byte	0x3
 2406 0eca DC0E0000 		.4byte	0xedc
 2407 0ece 34       		.uleb128 0x34
 2408 0ecf 1C070000 		.4byte	.LASF167
 2409 0ed3 020C0000 		.4byte	0xc02
 2410 0ed7 39090000 		.4byte	.LASF173
 2411 0edb 00       		.byte	0
 2412 0edc 39       		.uleb128 0x39
 2413 0edd 2D070000 		.4byte	.LASF175
 2414 0ee1 03       		.byte	0x3
 2415 0ee2 5A01     		.2byte	0x15a
 2416 0ee4 03       		.byte	0x3
 2417 0ee5 39       		.uleb128 0x39
 2418 0ee6 A6010000 		.4byte	.LASF176
 2419 0eea 0E       		.byte	0xe
 2420 0eeb CA01     		.2byte	0x1ca
 2421 0eed 03       		.byte	0x3
 2422 0eee 39       		.uleb128 0x39
 2423 0eef 8C000000 		.4byte	.LASF177
 2424 0ef3 0E       		.byte	0xe
 2425 0ef4 BC01     		.2byte	0x1bc
 2426 0ef6 03       		.byte	0x3
 2427 0ef7 38       		.uleb128 0x38
 2428 0ef8 2A080000 		.4byte	.LASF178
 2429 0efc 02       		.byte	0x2
 2430 0efd 2002     		.2byte	0x220
 2431 0eff 03       		.byte	0x3
 2432 0f00 110F0000 		.4byte	0xf11
 2433 0f04 3A       		.uleb128 0x3a
 2434 0f05 7C020000 		.4byte	.LASF179
 2435 0f09 02       		.byte	0x2
 2436 0f0a 2002     		.2byte	0x220
 2437 0f0c DA000000 		.4byte	0xda
ARM GAS  /var/folders/km/q6jdms0143g2bddz5bhvdfd00000gn/T//ccnwGrRw.s 			page 44


 2438 0f10 00       		.byte	0
 2439 0f11 3B       		.uleb128 0x3b
 2440 0f12 160D0000 		.4byte	0xd16
 2441 0f16 00000000 		.4byte	.LFB221
 2442 0f1a 30000000 		.4byte	.LFE221-.LFB221
 2443 0f1e 01       		.uleb128 0x1
 2444 0f1f 9C       		.byte	0x9c
 2445 0f20 7F0F0000 		.4byte	0xf7f
 2446 0f24 24       		.uleb128 0x24
 2447 0f25 260D0000 		.4byte	0xd26
 2448 0f29 10030000 		.4byte	.LLST3
 2449 0f2d 3C       		.uleb128 0x3c
 2450 0f2e 300D0000 		.4byte	0xd30
 2451 0f32 47030000 		.4byte	.LLST4
 2452 0f36 28       		.uleb128 0x28
 2453 0f37 3B0D0000 		.4byte	0xd3b
 2454 0f3b 3D       		.uleb128 0x3d
 2455 0f3c 160D0000 		.4byte	0xd16
 2456 0f40 00000000 		.4byte	.Ldebug_ranges0+0
 2457 0f44 620F0000 		.4byte	0xf62
 2458 0f48 24       		.uleb128 0x24
 2459 0f49 260D0000 		.4byte	0xd26
 2460 0f4d 73030000 		.4byte	.LLST5
 2461 0f51 27       		.uleb128 0x27
 2462 0f52 00000000 		.4byte	.Ldebug_ranges0+0
 2463 0f56 28       		.uleb128 0x28
 2464 0f57 2D0F0000 		.4byte	0xf2d
 2465 0f5b 28       		.uleb128 0x28
 2466 0f5c 360F0000 		.4byte	0xf36
 2467 0f60 00       		.byte	0
 2468 0f61 00       		.byte	0
 2469 0f62 25       		.uleb128 0x25
 2470 0f63 08000000 		.4byte	.LVL5
 2471 0f67 B70F0000 		.4byte	0xfb7
 2472 0f6b 2B       		.uleb128 0x2b
 2473 0f6c 28000000 		.4byte	.LVL11
 2474 0f70 AB0F0000 		.4byte	0xfab
 2475 0f74 2C       		.uleb128 0x2c
 2476 0f75 01       		.uleb128 0x1
 2477 0f76 50       		.byte	0x50
 2478 0f77 05       		.uleb128 0x5
 2479 0f78 03       		.byte	0x3
 2480 0f79 00000000 		.4byte	.LANCHOR1
 2481 0f7d 00       		.byte	0
 2482 0f7e 00       		.byte	0
 2483 0f7f 3E       		.uleb128 0x3e
 2484 0f80 FA000000 		.4byte	.LASF180
 2485 0f84 FA000000 		.4byte	.LASF180
 2486 0f88 11       		.byte	0x11
 2487 0f89 4F       		.byte	0x4f
 2488 0f8a 3E       		.uleb128 0x3e
 2489 0f8b A2050000 		.4byte	.LASF181
 2490 0f8f A2050000 		.4byte	.LASF181
 2491 0f93 0F       		.byte	0xf
 2492 0f94 D8       		.byte	0xd8
 2493 0f95 3E       		.uleb128 0x3e
 2494 0f96 D0080000 		.4byte	.LASF182
ARM GAS  /var/folders/km/q6jdms0143g2bddz5bhvdfd00000gn/T//ccnwGrRw.s 			page 45


 2495 0f9a D0080000 		.4byte	.LASF182
 2496 0f9e 0F       		.byte	0xf
 2497 0f9f D9       		.byte	0xd9
 2498 0fa0 3E       		.uleb128 0x3e
 2499 0fa1 7D050000 		.4byte	.LASF183
 2500 0fa5 7D050000 		.4byte	.LASF183
 2501 0fa9 11       		.byte	0x11
 2502 0faa 50       		.byte	0x50
 2503 0fab 3F       		.uleb128 0x3f
 2504 0fac 54020000 		.4byte	.LASF184
 2505 0fb0 54020000 		.4byte	.LASF184
 2506 0fb4 03       		.byte	0x3
 2507 0fb5 1601     		.2byte	0x116
 2508 0fb7 3E       		.uleb128 0x3e
 2509 0fb8 CB040000 		.4byte	.LASF185
 2510 0fbc CB040000 		.4byte	.LASF185
 2511 0fc0 0F       		.byte	0xf
 2512 0fc1 DE       		.byte	0xde
 2513 0fc2 00       		.byte	0
 2514              		.section	.debug_abbrev,"",%progbits
 2515              	.Ldebug_abbrev0:
 2516 0000 01       		.uleb128 0x1
 2517 0001 11       		.uleb128 0x11
 2518 0002 01       		.byte	0x1
 2519 0003 25       		.uleb128 0x25
 2520 0004 0E       		.uleb128 0xe
 2521 0005 13       		.uleb128 0x13
 2522 0006 0B       		.uleb128 0xb
 2523 0007 03       		.uleb128 0x3
 2524 0008 0E       		.uleb128 0xe
 2525 0009 1B       		.uleb128 0x1b
 2526 000a 0E       		.uleb128 0xe
 2527 000b 55       		.uleb128 0x55
 2528 000c 17       		.uleb128 0x17
 2529 000d 11       		.uleb128 0x11
 2530 000e 01       		.uleb128 0x1
 2531 000f 10       		.uleb128 0x10
 2532 0010 17       		.uleb128 0x17
 2533 0011 00       		.byte	0
 2534 0012 00       		.byte	0
 2535 0013 02       		.uleb128 0x2
 2536 0014 24       		.uleb128 0x24
 2537 0015 00       		.byte	0
 2538 0016 0B       		.uleb128 0xb
 2539 0017 0B       		.uleb128 0xb
 2540 0018 3E       		.uleb128 0x3e
 2541 0019 0B       		.uleb128 0xb
 2542 001a 03       		.uleb128 0x3
 2543 001b 08       		.uleb128 0x8
 2544 001c 00       		.byte	0
 2545 001d 00       		.byte	0
 2546 001e 03       		.uleb128 0x3
 2547 001f 16       		.uleb128 0x16
 2548 0020 00       		.byte	0
 2549 0021 03       		.uleb128 0x3
 2550 0022 0E       		.uleb128 0xe
 2551 0023 3A       		.uleb128 0x3a
ARM GAS  /var/folders/km/q6jdms0143g2bddz5bhvdfd00000gn/T//ccnwGrRw.s 			page 46


 2552 0024 0B       		.uleb128 0xb
 2553 0025 3B       		.uleb128 0x3b
 2554 0026 0B       		.uleb128 0xb
 2555 0027 49       		.uleb128 0x49
 2556 0028 13       		.uleb128 0x13
 2557 0029 00       		.byte	0
 2558 002a 00       		.byte	0
 2559 002b 04       		.uleb128 0x4
 2560 002c 24       		.uleb128 0x24
 2561 002d 00       		.byte	0
 2562 002e 0B       		.uleb128 0xb
 2563 002f 0B       		.uleb128 0xb
 2564 0030 3E       		.uleb128 0x3e
 2565 0031 0B       		.uleb128 0xb
 2566 0032 03       		.uleb128 0x3
 2567 0033 0E       		.uleb128 0xe
 2568 0034 00       		.byte	0
 2569 0035 00       		.byte	0
 2570 0036 05       		.uleb128 0x5
 2571 0037 35       		.uleb128 0x35
 2572 0038 00       		.byte	0
 2573 0039 49       		.uleb128 0x49
 2574 003a 13       		.uleb128 0x13
 2575 003b 00       		.byte	0
 2576 003c 00       		.byte	0
 2577 003d 06       		.uleb128 0x6
 2578 003e 13       		.uleb128 0x13
 2579 003f 01       		.byte	0x1
 2580 0040 03       		.uleb128 0x3
 2581 0041 0E       		.uleb128 0xe
 2582 0042 0B       		.uleb128 0xb
 2583 0043 0B       		.uleb128 0xb
 2584 0044 3A       		.uleb128 0x3a
 2585 0045 0B       		.uleb128 0xb
 2586 0046 3B       		.uleb128 0x3b
 2587 0047 0B       		.uleb128 0xb
 2588 0048 01       		.uleb128 0x1
 2589 0049 13       		.uleb128 0x13
 2590 004a 00       		.byte	0
 2591 004b 00       		.byte	0
 2592 004c 07       		.uleb128 0x7
 2593 004d 0D       		.uleb128 0xd
 2594 004e 00       		.byte	0
 2595 004f 03       		.uleb128 0x3
 2596 0050 0E       		.uleb128 0xe
 2597 0051 3A       		.uleb128 0x3a
 2598 0052 0B       		.uleb128 0xb
 2599 0053 3B       		.uleb128 0x3b
 2600 0054 0B       		.uleb128 0xb
 2601 0055 49       		.uleb128 0x49
 2602 0056 13       		.uleb128 0x13
 2603 0057 38       		.uleb128 0x38
 2604 0058 0B       		.uleb128 0xb
 2605 0059 00       		.byte	0
 2606 005a 00       		.byte	0
 2607 005b 08       		.uleb128 0x8
 2608 005c 0D       		.uleb128 0xd
ARM GAS  /var/folders/km/q6jdms0143g2bddz5bhvdfd00000gn/T//ccnwGrRw.s 			page 47


 2609 005d 00       		.byte	0
 2610 005e 03       		.uleb128 0x3
 2611 005f 08       		.uleb128 0x8
 2612 0060 3A       		.uleb128 0x3a
 2613 0061 0B       		.uleb128 0xb
 2614 0062 3B       		.uleb128 0x3b
 2615 0063 05       		.uleb128 0x5
 2616 0064 49       		.uleb128 0x49
 2617 0065 13       		.uleb128 0x13
 2618 0066 38       		.uleb128 0x38
 2619 0067 0B       		.uleb128 0xb
 2620 0068 00       		.byte	0
 2621 0069 00       		.byte	0
 2622 006a 09       		.uleb128 0x9
 2623 006b 0D       		.uleb128 0xd
 2624 006c 00       		.byte	0
 2625 006d 03       		.uleb128 0x3
 2626 006e 0E       		.uleb128 0xe
 2627 006f 3A       		.uleb128 0x3a
 2628 0070 0B       		.uleb128 0xb
 2629 0071 3B       		.uleb128 0x3b
 2630 0072 05       		.uleb128 0x5
 2631 0073 49       		.uleb128 0x49
 2632 0074 13       		.uleb128 0x13
 2633 0075 38       		.uleb128 0x38
 2634 0076 0B       		.uleb128 0xb
 2635 0077 00       		.byte	0
 2636 0078 00       		.byte	0
 2637 0079 0A       		.uleb128 0xa
 2638 007a 0F       		.uleb128 0xf
 2639 007b 00       		.byte	0
 2640 007c 0B       		.uleb128 0xb
 2641 007d 0B       		.uleb128 0xb
 2642 007e 49       		.uleb128 0x49
 2643 007f 13       		.uleb128 0x13
 2644 0080 00       		.byte	0
 2645 0081 00       		.byte	0
 2646 0082 0B       		.uleb128 0xb
 2647 0083 13       		.uleb128 0x13
 2648 0084 01       		.byte	0x1
 2649 0085 03       		.uleb128 0x3
 2650 0086 0E       		.uleb128 0xe
 2651 0087 0B       		.uleb128 0xb
 2652 0088 0B       		.uleb128 0xb
 2653 0089 3A       		.uleb128 0x3a
 2654 008a 0B       		.uleb128 0xb
 2655 008b 3B       		.uleb128 0x3b
 2656 008c 05       		.uleb128 0x5
 2657 008d 01       		.uleb128 0x1
 2658 008e 13       		.uleb128 0x13
 2659 008f 00       		.byte	0
 2660 0090 00       		.byte	0
 2661 0091 0C       		.uleb128 0xc
 2662 0092 15       		.uleb128 0x15
 2663 0093 01       		.byte	0x1
 2664 0094 27       		.uleb128 0x27
 2665 0095 19       		.uleb128 0x19
ARM GAS  /var/folders/km/q6jdms0143g2bddz5bhvdfd00000gn/T//ccnwGrRw.s 			page 48


 2666 0096 01       		.uleb128 0x1
 2667 0097 13       		.uleb128 0x13
 2668 0098 00       		.byte	0
 2669 0099 00       		.byte	0
 2670 009a 0D       		.uleb128 0xd
 2671 009b 05       		.uleb128 0x5
 2672 009c 00       		.byte	0
 2673 009d 49       		.uleb128 0x49
 2674 009e 13       		.uleb128 0x13
 2675 009f 00       		.byte	0
 2676 00a0 00       		.byte	0
 2677 00a1 0E       		.uleb128 0xe
 2678 00a2 0F       		.uleb128 0xf
 2679 00a3 00       		.byte	0
 2680 00a4 0B       		.uleb128 0xb
 2681 00a5 0B       		.uleb128 0xb
 2682 00a6 00       		.byte	0
 2683 00a7 00       		.byte	0
 2684 00a8 0F       		.uleb128 0xf
 2685 00a9 13       		.uleb128 0x13
 2686 00aa 01       		.byte	0x1
 2687 00ab 03       		.uleb128 0x3
 2688 00ac 0E       		.uleb128 0xe
 2689 00ad 0B       		.uleb128 0xb
 2690 00ae 05       		.uleb128 0x5
 2691 00af 3A       		.uleb128 0x3a
 2692 00b0 0B       		.uleb128 0xb
 2693 00b1 3B       		.uleb128 0x3b
 2694 00b2 05       		.uleb128 0x5
 2695 00b3 01       		.uleb128 0x1
 2696 00b4 13       		.uleb128 0x13
 2697 00b5 00       		.byte	0
 2698 00b6 00       		.byte	0
 2699 00b7 10       		.uleb128 0x10
 2700 00b8 0D       		.uleb128 0xd
 2701 00b9 00       		.byte	0
 2702 00ba 03       		.uleb128 0x3
 2703 00bb 0E       		.uleb128 0xe
 2704 00bc 3A       		.uleb128 0x3a
 2705 00bd 0B       		.uleb128 0xb
 2706 00be 3B       		.uleb128 0x3b
 2707 00bf 05       		.uleb128 0x5
 2708 00c0 49       		.uleb128 0x49
 2709 00c1 13       		.uleb128 0x13
 2710 00c2 38       		.uleb128 0x38
 2711 00c3 05       		.uleb128 0x5
 2712 00c4 00       		.byte	0
 2713 00c5 00       		.byte	0
 2714 00c6 11       		.uleb128 0x11
 2715 00c7 0D       		.uleb128 0xd
 2716 00c8 00       		.byte	0
 2717 00c9 03       		.uleb128 0x3
 2718 00ca 08       		.uleb128 0x8
 2719 00cb 3A       		.uleb128 0x3a
 2720 00cc 0B       		.uleb128 0xb
 2721 00cd 3B       		.uleb128 0x3b
 2722 00ce 05       		.uleb128 0x5
ARM GAS  /var/folders/km/q6jdms0143g2bddz5bhvdfd00000gn/T//ccnwGrRw.s 			page 49


 2723 00cf 49       		.uleb128 0x49
 2724 00d0 13       		.uleb128 0x13
 2725 00d1 38       		.uleb128 0x38
 2726 00d2 05       		.uleb128 0x5
 2727 00d3 00       		.byte	0
 2728 00d4 00       		.byte	0
 2729 00d5 12       		.uleb128 0x12
 2730 00d6 34       		.uleb128 0x34
 2731 00d7 00       		.byte	0
 2732 00d8 03       		.uleb128 0x3
 2733 00d9 0E       		.uleb128 0xe
 2734 00da 3A       		.uleb128 0x3a
 2735 00db 0B       		.uleb128 0xb
 2736 00dc 3B       		.uleb128 0x3b
 2737 00dd 05       		.uleb128 0x5
 2738 00de 49       		.uleb128 0x49
 2739 00df 13       		.uleb128 0x13
 2740 00e0 3F       		.uleb128 0x3f
 2741 00e1 19       		.uleb128 0x19
 2742 00e2 3C       		.uleb128 0x3c
 2743 00e3 19       		.uleb128 0x19
 2744 00e4 00       		.byte	0
 2745 00e5 00       		.byte	0
 2746 00e6 13       		.uleb128 0x13
 2747 00e7 34       		.uleb128 0x34
 2748 00e8 00       		.byte	0
 2749 00e9 03       		.uleb128 0x3
 2750 00ea 0E       		.uleb128 0xe
 2751 00eb 3A       		.uleb128 0x3a
 2752 00ec 0B       		.uleb128 0xb
 2753 00ed 3B       		.uleb128 0x3b
 2754 00ee 0B       		.uleb128 0xb
 2755 00ef 49       		.uleb128 0x49
 2756 00f0 13       		.uleb128 0x13
 2757 00f1 3F       		.uleb128 0x3f
 2758 00f2 19       		.uleb128 0x19
 2759 00f3 3C       		.uleb128 0x3c
 2760 00f4 19       		.uleb128 0x19
 2761 00f5 00       		.byte	0
 2762 00f6 00       		.byte	0
 2763 00f7 14       		.uleb128 0x14
 2764 00f8 0D       		.uleb128 0xd
 2765 00f9 00       		.byte	0
 2766 00fa 03       		.uleb128 0x3
 2767 00fb 08       		.uleb128 0x8
 2768 00fc 3A       		.uleb128 0x3a
 2769 00fd 0B       		.uleb128 0xb
 2770 00fe 3B       		.uleb128 0x3b
 2771 00ff 0B       		.uleb128 0xb
 2772 0100 49       		.uleb128 0x49
 2773 0101 13       		.uleb128 0x13
 2774 0102 38       		.uleb128 0x38
 2775 0103 0B       		.uleb128 0xb
 2776 0104 00       		.byte	0
 2777 0105 00       		.byte	0
 2778 0106 15       		.uleb128 0x15
 2779 0107 13       		.uleb128 0x13
ARM GAS  /var/folders/km/q6jdms0143g2bddz5bhvdfd00000gn/T//ccnwGrRw.s 			page 50


 2780 0108 01       		.byte	0x1
 2781 0109 0B       		.uleb128 0xb
 2782 010a 0B       		.uleb128 0xb
 2783 010b 3A       		.uleb128 0x3a
 2784 010c 0B       		.uleb128 0xb
 2785 010d 3B       		.uleb128 0x3b
 2786 010e 0B       		.uleb128 0xb
 2787 010f 01       		.uleb128 0x1
 2788 0110 13       		.uleb128 0x13
 2789 0111 00       		.byte	0
 2790 0112 00       		.byte	0
 2791 0113 16       		.uleb128 0x16
 2792 0114 13       		.uleb128 0x13
 2793 0115 01       		.byte	0x1
 2794 0116 0B       		.uleb128 0xb
 2795 0117 05       		.uleb128 0x5
 2796 0118 3A       		.uleb128 0x3a
 2797 0119 0B       		.uleb128 0xb
 2798 011a 3B       		.uleb128 0x3b
 2799 011b 0B       		.uleb128 0xb
 2800 011c 01       		.uleb128 0x1
 2801 011d 13       		.uleb128 0x13
 2802 011e 00       		.byte	0
 2803 011f 00       		.byte	0
 2804 0120 17       		.uleb128 0x17
 2805 0121 01       		.uleb128 0x1
 2806 0122 01       		.byte	0x1
 2807 0123 49       		.uleb128 0x49
 2808 0124 13       		.uleb128 0x13
 2809 0125 01       		.uleb128 0x1
 2810 0126 13       		.uleb128 0x13
 2811 0127 00       		.byte	0
 2812 0128 00       		.byte	0
 2813 0129 18       		.uleb128 0x18
 2814 012a 21       		.uleb128 0x21
 2815 012b 00       		.byte	0
 2816 012c 49       		.uleb128 0x49
 2817 012d 13       		.uleb128 0x13
 2818 012e 2F       		.uleb128 0x2f
 2819 012f 0B       		.uleb128 0xb
 2820 0130 00       		.byte	0
 2821 0131 00       		.byte	0
 2822 0132 19       		.uleb128 0x19
 2823 0133 17       		.uleb128 0x17
 2824 0134 01       		.byte	0x1
 2825 0135 0B       		.uleb128 0xb
 2826 0136 0B       		.uleb128 0xb
 2827 0137 3A       		.uleb128 0x3a
 2828 0138 0B       		.uleb128 0xb
 2829 0139 3B       		.uleb128 0x3b
 2830 013a 0B       		.uleb128 0xb
 2831 013b 01       		.uleb128 0x1
 2832 013c 13       		.uleb128 0x13
 2833 013d 00       		.byte	0
 2834 013e 00       		.byte	0
 2835 013f 1A       		.uleb128 0x1a
 2836 0140 0D       		.uleb128 0xd
ARM GAS  /var/folders/km/q6jdms0143g2bddz5bhvdfd00000gn/T//ccnwGrRw.s 			page 51


 2837 0141 00       		.byte	0
 2838 0142 03       		.uleb128 0x3
 2839 0143 0E       		.uleb128 0xe
 2840 0144 3A       		.uleb128 0x3a
 2841 0145 0B       		.uleb128 0xb
 2842 0146 3B       		.uleb128 0x3b
 2843 0147 05       		.uleb128 0x5
 2844 0148 49       		.uleb128 0x49
 2845 0149 13       		.uleb128 0x13
 2846 014a 00       		.byte	0
 2847 014b 00       		.byte	0
 2848 014c 1B       		.uleb128 0x1b
 2849 014d 26       		.uleb128 0x26
 2850 014e 00       		.byte	0
 2851 014f 49       		.uleb128 0x49
 2852 0150 13       		.uleb128 0x13
 2853 0151 00       		.byte	0
 2854 0152 00       		.byte	0
 2855 0153 1C       		.uleb128 0x1c
 2856 0154 34       		.uleb128 0x34
 2857 0155 00       		.byte	0
 2858 0156 03       		.uleb128 0x3
 2859 0157 08       		.uleb128 0x8
 2860 0158 3A       		.uleb128 0x3a
 2861 0159 0B       		.uleb128 0xb
 2862 015a 3B       		.uleb128 0x3b
 2863 015b 05       		.uleb128 0x5
 2864 015c 49       		.uleb128 0x49
 2865 015d 13       		.uleb128 0x13
 2866 015e 3F       		.uleb128 0x3f
 2867 015f 19       		.uleb128 0x19
 2868 0160 3C       		.uleb128 0x3c
 2869 0161 19       		.uleb128 0x19
 2870 0162 00       		.byte	0
 2871 0163 00       		.byte	0
 2872 0164 1D       		.uleb128 0x1d
 2873 0165 15       		.uleb128 0x15
 2874 0166 01       		.byte	0x1
 2875 0167 27       		.uleb128 0x27
 2876 0168 19       		.uleb128 0x19
 2877 0169 49       		.uleb128 0x49
 2878 016a 13       		.uleb128 0x13
 2879 016b 01       		.uleb128 0x1
 2880 016c 13       		.uleb128 0x13
 2881 016d 00       		.byte	0
 2882 016e 00       		.byte	0
 2883 016f 1E       		.uleb128 0x1e
 2884 0170 2E       		.uleb128 0x2e
 2885 0171 01       		.byte	0x1
 2886 0172 3F       		.uleb128 0x3f
 2887 0173 19       		.uleb128 0x19
 2888 0174 03       		.uleb128 0x3
 2889 0175 0E       		.uleb128 0xe
 2890 0176 3A       		.uleb128 0x3a
 2891 0177 0B       		.uleb128 0xb
 2892 0178 3B       		.uleb128 0x3b
 2893 0179 0B       		.uleb128 0xb
ARM GAS  /var/folders/km/q6jdms0143g2bddz5bhvdfd00000gn/T//ccnwGrRw.s 			page 52


 2894 017a 27       		.uleb128 0x27
 2895 017b 19       		.uleb128 0x19
 2896 017c 11       		.uleb128 0x11
 2897 017d 01       		.uleb128 0x1
 2898 017e 12       		.uleb128 0x12
 2899 017f 06       		.uleb128 0x6
 2900 0180 40       		.uleb128 0x40
 2901 0181 18       		.uleb128 0x18
 2902 0182 9742     		.uleb128 0x2117
 2903 0184 19       		.uleb128 0x19
 2904 0185 01       		.uleb128 0x1
 2905 0186 13       		.uleb128 0x13
 2906 0187 00       		.byte	0
 2907 0188 00       		.byte	0
 2908 0189 1F       		.uleb128 0x1f
 2909 018a 05       		.uleb128 0x5
 2910 018b 00       		.byte	0
 2911 018c 03       		.uleb128 0x3
 2912 018d 08       		.uleb128 0x8
 2913 018e 3A       		.uleb128 0x3a
 2914 018f 0B       		.uleb128 0xb
 2915 0190 3B       		.uleb128 0x3b
 2916 0191 0B       		.uleb128 0xb
 2917 0192 49       		.uleb128 0x49
 2918 0193 13       		.uleb128 0x13
 2919 0194 02       		.uleb128 0x2
 2920 0195 17       		.uleb128 0x17
 2921 0196 00       		.byte	0
 2922 0197 00       		.byte	0
 2923 0198 20       		.uleb128 0x20
 2924 0199 05       		.uleb128 0x5
 2925 019a 00       		.byte	0
 2926 019b 03       		.uleb128 0x3
 2927 019c 0E       		.uleb128 0xe
 2928 019d 3A       		.uleb128 0x3a
 2929 019e 0B       		.uleb128 0xb
 2930 019f 3B       		.uleb128 0x3b
 2931 01a0 0B       		.uleb128 0xb
 2932 01a1 49       		.uleb128 0x49
 2933 01a2 13       		.uleb128 0x13
 2934 01a3 02       		.uleb128 0x2
 2935 01a4 17       		.uleb128 0x17
 2936 01a5 00       		.byte	0
 2937 01a6 00       		.byte	0
 2938 01a7 21       		.uleb128 0x21
 2939 01a8 1D       		.uleb128 0x1d
 2940 01a9 01       		.byte	0x1
 2941 01aa 31       		.uleb128 0x31
 2942 01ab 13       		.uleb128 0x13
 2943 01ac 11       		.uleb128 0x11
 2944 01ad 01       		.uleb128 0x1
 2945 01ae 12       		.uleb128 0x12
 2946 01af 06       		.uleb128 0x6
 2947 01b0 58       		.uleb128 0x58
 2948 01b1 0B       		.uleb128 0xb
 2949 01b2 59       		.uleb128 0x59
 2950 01b3 0B       		.uleb128 0xb
ARM GAS  /var/folders/km/q6jdms0143g2bddz5bhvdfd00000gn/T//ccnwGrRw.s 			page 53


 2951 01b4 01       		.uleb128 0x1
 2952 01b5 13       		.uleb128 0x13
 2953 01b6 00       		.byte	0
 2954 01b7 00       		.byte	0
 2955 01b8 22       		.uleb128 0x22
 2956 01b9 1D       		.uleb128 0x1d
 2957 01ba 01       		.byte	0x1
 2958 01bb 31       		.uleb128 0x31
 2959 01bc 13       		.uleb128 0x13
 2960 01bd 11       		.uleb128 0x11
 2961 01be 01       		.uleb128 0x1
 2962 01bf 12       		.uleb128 0x12
 2963 01c0 06       		.uleb128 0x6
 2964 01c1 58       		.uleb128 0x58
 2965 01c2 0B       		.uleb128 0xb
 2966 01c3 59       		.uleb128 0x59
 2967 01c4 05       		.uleb128 0x5
 2968 01c5 01       		.uleb128 0x1
 2969 01c6 13       		.uleb128 0x13
 2970 01c7 00       		.byte	0
 2971 01c8 00       		.byte	0
 2972 01c9 23       		.uleb128 0x23
 2973 01ca 1D       		.uleb128 0x1d
 2974 01cb 01       		.byte	0x1
 2975 01cc 31       		.uleb128 0x31
 2976 01cd 13       		.uleb128 0x13
 2977 01ce 11       		.uleb128 0x11
 2978 01cf 01       		.uleb128 0x1
 2979 01d0 12       		.uleb128 0x12
 2980 01d1 06       		.uleb128 0x6
 2981 01d2 58       		.uleb128 0x58
 2982 01d3 0B       		.uleb128 0xb
 2983 01d4 59       		.uleb128 0x59
 2984 01d5 05       		.uleb128 0x5
 2985 01d6 00       		.byte	0
 2986 01d7 00       		.byte	0
 2987 01d8 24       		.uleb128 0x24
 2988 01d9 05       		.uleb128 0x5
 2989 01da 00       		.byte	0
 2990 01db 31       		.uleb128 0x31
 2991 01dc 13       		.uleb128 0x13
 2992 01dd 02       		.uleb128 0x2
 2993 01de 17       		.uleb128 0x17
 2994 01df 00       		.byte	0
 2995 01e0 00       		.byte	0
 2996 01e1 25       		.uleb128 0x25
 2997 01e2 898201   		.uleb128 0x4109
 2998 01e5 00       		.byte	0
 2999 01e6 11       		.uleb128 0x11
 3000 01e7 01       		.uleb128 0x1
 3001 01e8 31       		.uleb128 0x31
 3002 01e9 13       		.uleb128 0x13
 3003 01ea 00       		.byte	0
 3004 01eb 00       		.byte	0
 3005 01ec 26       		.uleb128 0x26
 3006 01ed 1D       		.uleb128 0x1d
 3007 01ee 01       		.byte	0x1
ARM GAS  /var/folders/km/q6jdms0143g2bddz5bhvdfd00000gn/T//ccnwGrRw.s 			page 54


 3008 01ef 31       		.uleb128 0x31
 3009 01f0 13       		.uleb128 0x13
 3010 01f1 52       		.uleb128 0x52
 3011 01f2 01       		.uleb128 0x1
 3012 01f3 55       		.uleb128 0x55
 3013 01f4 17       		.uleb128 0x17
 3014 01f5 58       		.uleb128 0x58
 3015 01f6 0B       		.uleb128 0xb
 3016 01f7 59       		.uleb128 0x59
 3017 01f8 0B       		.uleb128 0xb
 3018 01f9 01       		.uleb128 0x1
 3019 01fa 13       		.uleb128 0x13
 3020 01fb 00       		.byte	0
 3021 01fc 00       		.byte	0
 3022 01fd 27       		.uleb128 0x27
 3023 01fe 0B       		.uleb128 0xb
 3024 01ff 01       		.byte	0x1
 3025 0200 55       		.uleb128 0x55
 3026 0201 17       		.uleb128 0x17
 3027 0202 00       		.byte	0
 3028 0203 00       		.byte	0
 3029 0204 28       		.uleb128 0x28
 3030 0205 34       		.uleb128 0x34
 3031 0206 00       		.byte	0
 3032 0207 31       		.uleb128 0x31
 3033 0208 13       		.uleb128 0x13
 3034 0209 00       		.byte	0
 3035 020a 00       		.byte	0
 3036 020b 29       		.uleb128 0x29
 3037 020c 1D       		.uleb128 0x1d
 3038 020d 01       		.byte	0x1
 3039 020e 31       		.uleb128 0x31
 3040 020f 13       		.uleb128 0x13
 3041 0210 52       		.uleb128 0x52
 3042 0211 01       		.uleb128 0x1
 3043 0212 55       		.uleb128 0x55
 3044 0213 17       		.uleb128 0x17
 3045 0214 58       		.uleb128 0x58
 3046 0215 0B       		.uleb128 0xb
 3047 0216 59       		.uleb128 0x59
 3048 0217 05       		.uleb128 0x5
 3049 0218 01       		.uleb128 0x1
 3050 0219 13       		.uleb128 0x13
 3051 021a 00       		.byte	0
 3052 021b 00       		.byte	0
 3053 021c 2A       		.uleb128 0x2a
 3054 021d 1D       		.uleb128 0x1d
 3055 021e 01       		.byte	0x1
 3056 021f 31       		.uleb128 0x31
 3057 0220 13       		.uleb128 0x13
 3058 0221 52       		.uleb128 0x52
 3059 0222 01       		.uleb128 0x1
 3060 0223 55       		.uleb128 0x55
 3061 0224 17       		.uleb128 0x17
 3062 0225 58       		.uleb128 0x58
 3063 0226 0B       		.uleb128 0xb
 3064 0227 59       		.uleb128 0x59
ARM GAS  /var/folders/km/q6jdms0143g2bddz5bhvdfd00000gn/T//ccnwGrRw.s 			page 55


 3065 0228 05       		.uleb128 0x5
 3066 0229 00       		.byte	0
 3067 022a 00       		.byte	0
 3068 022b 2B       		.uleb128 0x2b
 3069 022c 898201   		.uleb128 0x4109
 3070 022f 01       		.byte	0x1
 3071 0230 11       		.uleb128 0x11
 3072 0231 01       		.uleb128 0x1
 3073 0232 31       		.uleb128 0x31
 3074 0233 13       		.uleb128 0x13
 3075 0234 00       		.byte	0
 3076 0235 00       		.byte	0
 3077 0236 2C       		.uleb128 0x2c
 3078 0237 8A8201   		.uleb128 0x410a
 3079 023a 00       		.byte	0
 3080 023b 02       		.uleb128 0x2
 3081 023c 18       		.uleb128 0x18
 3082 023d 9142     		.uleb128 0x2111
 3083 023f 18       		.uleb128 0x18
 3084 0240 00       		.byte	0
 3085 0241 00       		.byte	0
 3086 0242 2D       		.uleb128 0x2d
 3087 0243 34       		.uleb128 0x34
 3088 0244 00       		.byte	0
 3089 0245 03       		.uleb128 0x3
 3090 0246 08       		.uleb128 0x8
 3091 0247 3A       		.uleb128 0x3a
 3092 0248 0B       		.uleb128 0xb
 3093 0249 3B       		.uleb128 0x3b
 3094 024a 0B       		.uleb128 0xb
 3095 024b 49       		.uleb128 0x49
 3096 024c 13       		.uleb128 0x13
 3097 024d 02       		.uleb128 0x2
 3098 024e 17       		.uleb128 0x17
 3099 024f 00       		.byte	0
 3100 0250 00       		.byte	0
 3101 0251 2E       		.uleb128 0x2e
 3102 0252 34       		.uleb128 0x34
 3103 0253 00       		.byte	0
 3104 0254 03       		.uleb128 0x3
 3105 0255 0E       		.uleb128 0xe
 3106 0256 49       		.uleb128 0x49
 3107 0257 13       		.uleb128 0x13
 3108 0258 34       		.uleb128 0x34
 3109 0259 19       		.uleb128 0x19
 3110 025a 02       		.uleb128 0x2
 3111 025b 18       		.uleb128 0x18
 3112 025c 00       		.byte	0
 3113 025d 00       		.byte	0
 3114 025e 2F       		.uleb128 0x2f
 3115 025f 2E       		.uleb128 0x2e
 3116 0260 01       		.byte	0x1
 3117 0261 3F       		.uleb128 0x3f
 3118 0262 19       		.uleb128 0x19
 3119 0263 03       		.uleb128 0x3
 3120 0264 0E       		.uleb128 0xe
 3121 0265 3A       		.uleb128 0x3a
ARM GAS  /var/folders/km/q6jdms0143g2bddz5bhvdfd00000gn/T//ccnwGrRw.s 			page 56


 3122 0266 0B       		.uleb128 0xb
 3123 0267 3B       		.uleb128 0x3b
 3124 0268 0B       		.uleb128 0xb
 3125 0269 27       		.uleb128 0x27
 3126 026a 19       		.uleb128 0x19
 3127 026b 49       		.uleb128 0x49
 3128 026c 13       		.uleb128 0x13
 3129 026d 11       		.uleb128 0x11
 3130 026e 01       		.uleb128 0x1
 3131 026f 12       		.uleb128 0x12
 3132 0270 06       		.uleb128 0x6
 3133 0271 40       		.uleb128 0x40
 3134 0272 18       		.uleb128 0x18
 3135 0273 9742     		.uleb128 0x2117
 3136 0275 19       		.uleb128 0x19
 3137 0276 01       		.uleb128 0x1
 3138 0277 13       		.uleb128 0x13
 3139 0278 00       		.byte	0
 3140 0279 00       		.byte	0
 3141 027a 30       		.uleb128 0x30
 3142 027b 34       		.uleb128 0x34
 3143 027c 00       		.byte	0
 3144 027d 03       		.uleb128 0x3
 3145 027e 0E       		.uleb128 0xe
 3146 027f 3A       		.uleb128 0x3a
 3147 0280 0B       		.uleb128 0xb
 3148 0281 3B       		.uleb128 0x3b
 3149 0282 0B       		.uleb128 0xb
 3150 0283 49       		.uleb128 0x49
 3151 0284 13       		.uleb128 0x13
 3152 0285 02       		.uleb128 0x2
 3153 0286 17       		.uleb128 0x17
 3154 0287 00       		.byte	0
 3155 0288 00       		.byte	0
 3156 0289 31       		.uleb128 0x31
 3157 028a 2E       		.uleb128 0x2e
 3158 028b 01       		.byte	0x1
 3159 028c 3F       		.uleb128 0x3f
 3160 028d 19       		.uleb128 0x19
 3161 028e 03       		.uleb128 0x3
 3162 028f 0E       		.uleb128 0xe
 3163 0290 3A       		.uleb128 0x3a
 3164 0291 0B       		.uleb128 0xb
 3165 0292 3B       		.uleb128 0x3b
 3166 0293 0B       		.uleb128 0xb
 3167 0294 27       		.uleb128 0x27
 3168 0295 19       		.uleb128 0x19
 3169 0296 49       		.uleb128 0x49
 3170 0297 13       		.uleb128 0x13
 3171 0298 20       		.uleb128 0x20
 3172 0299 0B       		.uleb128 0xb
 3173 029a 01       		.uleb128 0x1
 3174 029b 13       		.uleb128 0x13
 3175 029c 00       		.byte	0
 3176 029d 00       		.byte	0
 3177 029e 32       		.uleb128 0x32
 3178 029f 05       		.uleb128 0x5
ARM GAS  /var/folders/km/q6jdms0143g2bddz5bhvdfd00000gn/T//ccnwGrRw.s 			page 57


 3179 02a0 00       		.byte	0
 3180 02a1 03       		.uleb128 0x3
 3181 02a2 08       		.uleb128 0x8
 3182 02a3 3A       		.uleb128 0x3a
 3183 02a4 0B       		.uleb128 0xb
 3184 02a5 3B       		.uleb128 0x3b
 3185 02a6 0B       		.uleb128 0xb
 3186 02a7 49       		.uleb128 0x49
 3187 02a8 13       		.uleb128 0x13
 3188 02a9 00       		.byte	0
 3189 02aa 00       		.byte	0
 3190 02ab 33       		.uleb128 0x33
 3191 02ac 34       		.uleb128 0x34
 3192 02ad 00       		.byte	0
 3193 02ae 03       		.uleb128 0x3
 3194 02af 0E       		.uleb128 0xe
 3195 02b0 3A       		.uleb128 0x3a
 3196 02b1 0B       		.uleb128 0xb
 3197 02b2 3B       		.uleb128 0x3b
 3198 02b3 0B       		.uleb128 0xb
 3199 02b4 49       		.uleb128 0x49
 3200 02b5 13       		.uleb128 0x13
 3201 02b6 00       		.byte	0
 3202 02b7 00       		.byte	0
 3203 02b8 34       		.uleb128 0x34
 3204 02b9 34       		.uleb128 0x34
 3205 02ba 00       		.byte	0
 3206 02bb 03       		.uleb128 0x3
 3207 02bc 0E       		.uleb128 0xe
 3208 02bd 49       		.uleb128 0x49
 3209 02be 13       		.uleb128 0x13
 3210 02bf 34       		.uleb128 0x34
 3211 02c0 19       		.uleb128 0x19
 3212 02c1 1C       		.uleb128 0x1c
 3213 02c2 0E       		.uleb128 0xe
 3214 02c3 00       		.byte	0
 3215 02c4 00       		.byte	0
 3216 02c5 35       		.uleb128 0x35
 3217 02c6 898201   		.uleb128 0x4109
 3218 02c9 01       		.byte	0x1
 3219 02ca 11       		.uleb128 0x11
 3220 02cb 01       		.uleb128 0x1
 3221 02cc 9542     		.uleb128 0x2115
 3222 02ce 19       		.uleb128 0x19
 3223 02cf 31       		.uleb128 0x31
 3224 02d0 13       		.uleb128 0x13
 3225 02d1 01       		.uleb128 0x1
 3226 02d2 13       		.uleb128 0x13
 3227 02d3 00       		.byte	0
 3228 02d4 00       		.byte	0
 3229 02d5 36       		.uleb128 0x36
 3230 02d6 2E       		.uleb128 0x2e
 3231 02d7 01       		.byte	0x1
 3232 02d8 03       		.uleb128 0x3
 3233 02d9 0E       		.uleb128 0xe
 3234 02da 3A       		.uleb128 0x3a
 3235 02db 0B       		.uleb128 0xb
ARM GAS  /var/folders/km/q6jdms0143g2bddz5bhvdfd00000gn/T//ccnwGrRw.s 			page 58


 3236 02dc 3B       		.uleb128 0x3b
 3237 02dd 0B       		.uleb128 0xb
 3238 02de 27       		.uleb128 0x27
 3239 02df 19       		.uleb128 0x19
 3240 02e0 20       		.uleb128 0x20
 3241 02e1 0B       		.uleb128 0xb
 3242 02e2 01       		.uleb128 0x1
 3243 02e3 13       		.uleb128 0x13
 3244 02e4 00       		.byte	0
 3245 02e5 00       		.byte	0
 3246 02e6 37       		.uleb128 0x37
 3247 02e7 05       		.uleb128 0x5
 3248 02e8 00       		.byte	0
 3249 02e9 03       		.uleb128 0x3
 3250 02ea 0E       		.uleb128 0xe
 3251 02eb 3A       		.uleb128 0x3a
 3252 02ec 0B       		.uleb128 0xb
 3253 02ed 3B       		.uleb128 0x3b
 3254 02ee 0B       		.uleb128 0xb
 3255 02ef 49       		.uleb128 0x49
 3256 02f0 13       		.uleb128 0x13
 3257 02f1 00       		.byte	0
 3258 02f2 00       		.byte	0
 3259 02f3 38       		.uleb128 0x38
 3260 02f4 2E       		.uleb128 0x2e
 3261 02f5 01       		.byte	0x1
 3262 02f6 03       		.uleb128 0x3
 3263 02f7 0E       		.uleb128 0xe
 3264 02f8 3A       		.uleb128 0x3a
 3265 02f9 0B       		.uleb128 0xb
 3266 02fa 3B       		.uleb128 0x3b
 3267 02fb 05       		.uleb128 0x5
 3268 02fc 27       		.uleb128 0x27
 3269 02fd 19       		.uleb128 0x19
 3270 02fe 20       		.uleb128 0x20
 3271 02ff 0B       		.uleb128 0xb
 3272 0300 01       		.uleb128 0x1
 3273 0301 13       		.uleb128 0x13
 3274 0302 00       		.byte	0
 3275 0303 00       		.byte	0
 3276 0304 39       		.uleb128 0x39
 3277 0305 2E       		.uleb128 0x2e
 3278 0306 00       		.byte	0
 3279 0307 03       		.uleb128 0x3
 3280 0308 0E       		.uleb128 0xe
 3281 0309 3A       		.uleb128 0x3a
 3282 030a 0B       		.uleb128 0xb
 3283 030b 3B       		.uleb128 0x3b
 3284 030c 05       		.uleb128 0x5
 3285 030d 27       		.uleb128 0x27
 3286 030e 19       		.uleb128 0x19
 3287 030f 20       		.uleb128 0x20
 3288 0310 0B       		.uleb128 0xb
 3289 0311 00       		.byte	0
 3290 0312 00       		.byte	0
 3291 0313 3A       		.uleb128 0x3a
 3292 0314 05       		.uleb128 0x5
ARM GAS  /var/folders/km/q6jdms0143g2bddz5bhvdfd00000gn/T//ccnwGrRw.s 			page 59


 3293 0315 00       		.byte	0
 3294 0316 03       		.uleb128 0x3
 3295 0317 0E       		.uleb128 0xe
 3296 0318 3A       		.uleb128 0x3a
 3297 0319 0B       		.uleb128 0xb
 3298 031a 3B       		.uleb128 0x3b
 3299 031b 05       		.uleb128 0x5
 3300 031c 49       		.uleb128 0x49
 3301 031d 13       		.uleb128 0x13
 3302 031e 00       		.byte	0
 3303 031f 00       		.byte	0
 3304 0320 3B       		.uleb128 0x3b
 3305 0321 2E       		.uleb128 0x2e
 3306 0322 01       		.byte	0x1
 3307 0323 31       		.uleb128 0x31
 3308 0324 13       		.uleb128 0x13
 3309 0325 11       		.uleb128 0x11
 3310 0326 01       		.uleb128 0x1
 3311 0327 12       		.uleb128 0x12
 3312 0328 06       		.uleb128 0x6
 3313 0329 40       		.uleb128 0x40
 3314 032a 18       		.uleb128 0x18
 3315 032b 01       		.uleb128 0x1
 3316 032c 13       		.uleb128 0x13
 3317 032d 00       		.byte	0
 3318 032e 00       		.byte	0
 3319 032f 3C       		.uleb128 0x3c
 3320 0330 34       		.uleb128 0x34
 3321 0331 00       		.byte	0
 3322 0332 31       		.uleb128 0x31
 3323 0333 13       		.uleb128 0x13
 3324 0334 02       		.uleb128 0x2
 3325 0335 17       		.uleb128 0x17
 3326 0336 00       		.byte	0
 3327 0337 00       		.byte	0
 3328 0338 3D       		.uleb128 0x3d
 3329 0339 0B       		.uleb128 0xb
 3330 033a 01       		.byte	0x1
 3331 033b 31       		.uleb128 0x31
 3332 033c 13       		.uleb128 0x13
 3333 033d 55       		.uleb128 0x55
 3334 033e 17       		.uleb128 0x17
 3335 033f 01       		.uleb128 0x1
 3336 0340 13       		.uleb128 0x13
 3337 0341 00       		.byte	0
 3338 0342 00       		.byte	0
 3339 0343 3E       		.uleb128 0x3e
 3340 0344 2E       		.uleb128 0x2e
 3341 0345 00       		.byte	0
 3342 0346 3F       		.uleb128 0x3f
 3343 0347 19       		.uleb128 0x19
 3344 0348 3C       		.uleb128 0x3c
 3345 0349 19       		.uleb128 0x19
 3346 034a 6E       		.uleb128 0x6e
 3347 034b 0E       		.uleb128 0xe
 3348 034c 03       		.uleb128 0x3
 3349 034d 0E       		.uleb128 0xe
ARM GAS  /var/folders/km/q6jdms0143g2bddz5bhvdfd00000gn/T//ccnwGrRw.s 			page 60


 3350 034e 3A       		.uleb128 0x3a
 3351 034f 0B       		.uleb128 0xb
 3352 0350 3B       		.uleb128 0x3b
 3353 0351 0B       		.uleb128 0xb
 3354 0352 00       		.byte	0
 3355 0353 00       		.byte	0
 3356 0354 3F       		.uleb128 0x3f
 3357 0355 2E       		.uleb128 0x2e
 3358 0356 00       		.byte	0
 3359 0357 3F       		.uleb128 0x3f
 3360 0358 19       		.uleb128 0x19
 3361 0359 3C       		.uleb128 0x3c
 3362 035a 19       		.uleb128 0x19
 3363 035b 6E       		.uleb128 0x6e
 3364 035c 0E       		.uleb128 0xe
 3365 035d 03       		.uleb128 0x3
 3366 035e 0E       		.uleb128 0xe
 3367 035f 3A       		.uleb128 0x3a
 3368 0360 0B       		.uleb128 0xb
 3369 0361 3B       		.uleb128 0x3b
 3370 0362 05       		.uleb128 0x5
 3371 0363 00       		.byte	0
 3372 0364 00       		.byte	0
 3373 0365 00       		.byte	0
 3374              		.section	.debug_loc,"",%progbits
 3375              	.Ldebug_loc0:
 3376              	.LLST13:
 3377 0000 00000000 		.4byte	.LVL32
 3378 0004 0F000000 		.4byte	.LVL34-1
 3379 0008 0100     		.2byte	0x1
 3380 000a 50       		.byte	0x50
 3381 000b 0F000000 		.4byte	.LVL34-1
 3382 000f 4C000000 		.4byte	.LVL44
 3383 0013 0100     		.2byte	0x1
 3384 0015 54       		.byte	0x54
 3385 0016 4C000000 		.4byte	.LVL44
 3386 001a 54000000 		.4byte	.LFE224
 3387 001e 0400     		.2byte	0x4
 3388 0020 F3       		.byte	0xf3
 3389 0021 01       		.uleb128 0x1
 3390 0022 50       		.byte	0x50
 3391 0023 9F       		.byte	0x9f
 3392 0024 00000000 		.4byte	0
 3393 0028 00000000 		.4byte	0
 3394              	.LLST14:
 3395 002c 00000000 		.4byte	.LVL32
 3396 0030 0F000000 		.4byte	.LVL34-1
 3397 0034 0100     		.2byte	0x1
 3398 0036 51       		.byte	0x51
 3399 0037 0F000000 		.4byte	.LVL34-1
 3400 003b 4C000000 		.4byte	.LVL44
 3401 003f 0100     		.2byte	0x1
 3402 0041 55       		.byte	0x55
 3403 0042 4C000000 		.4byte	.LVL44
 3404 0046 54000000 		.4byte	.LFE224
 3405 004a 0400     		.2byte	0x4
 3406 004c F3       		.byte	0xf3
ARM GAS  /var/folders/km/q6jdms0143g2bddz5bhvdfd00000gn/T//ccnwGrRw.s 			page 61


 3407 004d 01       		.uleb128 0x1
 3408 004e 51       		.byte	0x51
 3409 004f 9F       		.byte	0x9f
 3410 0050 00000000 		.4byte	0
 3411 0054 00000000 		.4byte	0
 3412              	.LLST15:
 3413 0058 00000000 		.4byte	.LVL32
 3414 005c 0C000000 		.4byte	.LVL33
 3415 0060 0300     		.2byte	0x3
 3416 0062 08       		.byte	0x8
 3417 0063 20       		.byte	0x20
 3418 0064 9F       		.byte	0x9f
 3419 0065 00000000 		.4byte	0
 3420 0069 00000000 		.4byte	0
 3421              	.LLST16:
 3422 006d 36000000 		.4byte	.LVL39
 3423 0071 3C000000 		.4byte	.LVL40
 3424 0075 0200     		.2byte	0x2
 3425 0077 30       		.byte	0x30
 3426 0078 9F       		.byte	0x9f
 3427 0079 44000000 		.4byte	.LVL42
 3428 007d 4A000000 		.4byte	.LVL43
 3429 0081 0200     		.2byte	0x2
 3430 0083 30       		.byte	0x30
 3431 0084 9F       		.byte	0x9f
 3432 0085 00000000 		.4byte	0
 3433 0089 00000000 		.4byte	0
 3434              	.LLST10:
 3435 008d 00000000 		.4byte	.LVL26
 3436 0091 09000000 		.4byte	.LVL28-1
 3437 0095 0100     		.2byte	0x1
 3438 0097 50       		.byte	0x50
 3439 0098 09000000 		.4byte	.LVL28-1
 3440 009c 24000000 		.4byte	.LVL31
 3441 00a0 0100     		.2byte	0x1
 3442 00a2 54       		.byte	0x54
 3443 00a3 24000000 		.4byte	.LVL31
 3444 00a7 28000000 		.4byte	.LFE223
 3445 00ab 0400     		.2byte	0x4
 3446 00ad F3       		.byte	0xf3
 3447 00ae 01       		.uleb128 0x1
 3448 00af 50       		.byte	0x50
 3449 00b0 9F       		.byte	0x9f
 3450 00b1 00000000 		.4byte	0
 3451 00b5 00000000 		.4byte	0
 3452              	.LLST11:
 3453 00b9 00000000 		.4byte	.LVL26
 3454 00bd 09000000 		.4byte	.LVL28-1
 3455 00c1 0100     		.2byte	0x1
 3456 00c3 51       		.byte	0x51
 3457 00c4 09000000 		.4byte	.LVL28-1
 3458 00c8 24000000 		.4byte	.LVL31
 3459 00cc 0100     		.2byte	0x1
 3460 00ce 55       		.byte	0x55
 3461 00cf 24000000 		.4byte	.LVL31
 3462 00d3 28000000 		.4byte	.LFE223
 3463 00d7 0300     		.2byte	0x3
ARM GAS  /var/folders/km/q6jdms0143g2bddz5bhvdfd00000gn/T//ccnwGrRw.s 			page 62


 3464 00d9 F3       		.byte	0xf3
 3465 00da 01       		.uleb128 0x1
 3466 00db 50       		.byte	0x50
 3467 00dc 00000000 		.4byte	0
 3468 00e0 00000000 		.4byte	0
 3469              	.LLST12:
 3470 00e4 06000000 		.4byte	.LVL27
 3471 00e8 09000000 		.4byte	.LVL28-1
 3472 00ec 0100     		.2byte	0x1
 3473 00ee 51       		.byte	0x51
 3474 00ef 09000000 		.4byte	.LVL28-1
 3475 00f3 24000000 		.4byte	.LVL31
 3476 00f7 0100     		.2byte	0x1
 3477 00f9 55       		.byte	0x55
 3478 00fa 24000000 		.4byte	.LVL31
 3479 00fe 28000000 		.4byte	.LFE223
 3480 0102 0300     		.2byte	0x3
 3481 0104 F3       		.byte	0xf3
 3482 0105 01       		.uleb128 0x1
 3483 0106 50       		.byte	0x50
 3484 0107 00000000 		.4byte	0
 3485 010b 00000000 		.4byte	0
 3486              	.LLST6:
 3487 010f 00000000 		.4byte	.LVL12
 3488 0113 0D000000 		.4byte	.LVL14-1
 3489 0117 0100     		.2byte	0x1
 3490 0119 50       		.byte	0x50
 3491 011a 0D000000 		.4byte	.LVL14-1
 3492 011e 1A000000 		.4byte	.LVL17
 3493 0122 0100     		.2byte	0x1
 3494 0124 54       		.byte	0x54
 3495 0125 1A000000 		.4byte	.LVL17
 3496 0129 58000000 		.4byte	.LFE222
 3497 012d 0400     		.2byte	0x4
 3498 012f F3       		.byte	0xf3
 3499 0130 01       		.uleb128 0x1
 3500 0131 50       		.byte	0x50
 3501 0132 9F       		.byte	0x9f
 3502 0133 00000000 		.4byte	0
 3503 0137 00000000 		.4byte	0
 3504              	.LLST7:
 3505 013b 1A000000 		.4byte	.LVL17
 3506 013f 1D000000 		.4byte	.LVL18-1
 3507 0143 0100     		.2byte	0x1
 3508 0145 50       		.byte	0x50
 3509 0146 1D000000 		.4byte	.LVL18-1
 3510 014a 4E000000 		.4byte	.LVL25
 3511 014e 0100     		.2byte	0x1
 3512 0150 54       		.byte	0x54
 3513 0151 4E000000 		.4byte	.LVL25
 3514 0155 58000000 		.4byte	.LFE222
 3515 0159 0100     		.2byte	0x1
 3516 015b 50       		.byte	0x50
 3517 015c 00000000 		.4byte	0
 3518 0160 00000000 		.4byte	0
 3519              	.LLST8:
 3520 0164 00000000 		.4byte	.LVL12
ARM GAS  /var/folders/km/q6jdms0143g2bddz5bhvdfd00000gn/T//ccnwGrRw.s 			page 63


 3521 0168 0A000000 		.4byte	.LVL13
 3522 016c 0300     		.2byte	0x3
 3523 016e 08       		.byte	0x8
 3524 016f 20       		.byte	0x20
 3525 0170 9F       		.byte	0x9f
 3526 0171 00000000 		.4byte	0
 3527 0175 00000000 		.4byte	0
 3528              	.LLST9:
 3529 0179 34000000 		.4byte	.LVL20
 3530 017d 3A000000 		.4byte	.LVL21
 3531 0181 0200     		.2byte	0x2
 3532 0183 30       		.byte	0x30
 3533 0184 9F       		.byte	0x9f
 3534 0185 44000000 		.4byte	.LVL23
 3535 0189 4A000000 		.4byte	.LVL24
 3536 018d 0200     		.2byte	0x2
 3537 018f 30       		.byte	0x30
 3538 0190 9F       		.byte	0x9f
 3539 0191 00000000 		.4byte	0
 3540 0195 00000000 		.4byte	0
 3541              	.LLST17:
 3542 0199 00000000 		.4byte	.LVL45
 3543 019d 0E000000 		.4byte	.LVL46
 3544 01a1 0100     		.2byte	0x1
 3545 01a3 50       		.byte	0x50
 3546 01a4 0E000000 		.4byte	.LVL46
 3547 01a8 12000000 		.4byte	.LVL47
 3548 01ac 0100     		.2byte	0x1
 3549 01ae 56       		.byte	0x56
 3550 01af 12000000 		.4byte	.LVL47
 3551 01b3 16000000 		.4byte	.LVL48
 3552 01b7 0400     		.2byte	0x4
 3553 01b9 F3       		.byte	0xf3
 3554 01ba 01       		.uleb128 0x1
 3555 01bb 50       		.byte	0x50
 3556 01bc 9F       		.byte	0x9f
 3557 01bd 16000000 		.4byte	.LVL48
 3558 01c1 18000000 		.4byte	.LVL49
 3559 01c5 0100     		.2byte	0x1
 3560 01c7 50       		.byte	0x50
 3561 01c8 18000000 		.4byte	.LVL49
 3562 01cc 30000000 		.4byte	.LVL55
 3563 01d0 0100     		.2byte	0x1
 3564 01d2 56       		.byte	0x56
 3565 01d3 30000000 		.4byte	.LVL55
 3566 01d7 34000000 		.4byte	.LFE220
 3567 01db 0400     		.2byte	0x4
 3568 01dd F3       		.byte	0xf3
 3569 01de 01       		.uleb128 0x1
 3570 01df 50       		.byte	0x50
 3571 01e0 9F       		.byte	0x9f
 3572 01e1 00000000 		.4byte	0
 3573 01e5 00000000 		.4byte	0
 3574              	.LLST18:
 3575 01e9 00000000 		.4byte	.LVL45
 3576 01ed 15000000 		.4byte	.LVL48-1
 3577 01f1 0100     		.2byte	0x1
ARM GAS  /var/folders/km/q6jdms0143g2bddz5bhvdfd00000gn/T//ccnwGrRw.s 			page 64


 3578 01f3 51       		.byte	0x51
 3579 01f4 15000000 		.4byte	.LVL48-1
 3580 01f8 16000000 		.4byte	.LVL48
 3581 01fc 0400     		.2byte	0x4
 3582 01fe F3       		.byte	0xf3
 3583 01ff 01       		.uleb128 0x1
 3584 0200 51       		.byte	0x51
 3585 0201 9F       		.byte	0x9f
 3586 0202 16000000 		.4byte	.LVL48
 3587 0206 1B000000 		.4byte	.LVL50-1
 3588 020a 0100     		.2byte	0x1
 3589 020c 51       		.byte	0x51
 3590 020d 1B000000 		.4byte	.LVL50-1
 3591 0211 30000000 		.4byte	.LVL55
 3592 0215 0100     		.2byte	0x1
 3593 0217 55       		.byte	0x55
 3594 0218 00000000 		.4byte	0
 3595 021c 00000000 		.4byte	0
 3596              	.LLST19:
 3597 0220 00000000 		.4byte	.LVL45
 3598 0224 15000000 		.4byte	.LVL48-1
 3599 0228 0100     		.2byte	0x1
 3600 022a 52       		.byte	0x52
 3601 022b 15000000 		.4byte	.LVL48-1
 3602 022f 16000000 		.4byte	.LVL48
 3603 0233 0400     		.2byte	0x4
 3604 0235 F3       		.byte	0xf3
 3605 0236 01       		.uleb128 0x1
 3606 0237 52       		.byte	0x52
 3607 0238 9F       		.byte	0x9f
 3608 0239 16000000 		.4byte	.LVL48
 3609 023d 1B000000 		.4byte	.LVL50-1
 3610 0241 0100     		.2byte	0x1
 3611 0243 52       		.byte	0x52
 3612 0244 1B000000 		.4byte	.LVL50-1
 3613 0248 2A000000 		.4byte	.LVL53
 3614 024c 0100     		.2byte	0x1
 3615 024e 54       		.byte	0x54
 3616 024f 2A000000 		.4byte	.LVL53
 3617 0253 2C000000 		.4byte	.LVL54
 3618 0257 0300     		.2byte	0x3
 3619 0259 74       		.byte	0x74
 3620 025a 01       		.sleb128 1
 3621 025b 9F       		.byte	0x9f
 3622 025c 00000000 		.4byte	0
 3623 0260 00000000 		.4byte	0
 3624              	.LLST20:
 3625 0264 1E000000 		.4byte	.LVL51
 3626 0268 26000000 		.4byte	.LVL52
 3627 026c 0100     		.2byte	0x1
 3628 026e 55       		.byte	0x55
 3629 026f 00000000 		.4byte	0
 3630 0273 00000000 		.4byte	0
 3631              	.LLST21:
 3632 0277 1E000000 		.4byte	.LVL51
 3633 027b 26000000 		.4byte	.LVL52
 3634 027f 0100     		.2byte	0x1
ARM GAS  /var/folders/km/q6jdms0143g2bddz5bhvdfd00000gn/T//ccnwGrRw.s 			page 65


 3635 0281 56       		.byte	0x56
 3636 0282 00000000 		.4byte	0
 3637 0286 00000000 		.4byte	0
 3638              	.LLST0:
 3639 028a 00000000 		.4byte	.LVL0
 3640 028e 10000000 		.4byte	.LVL1
 3641 0292 0100     		.2byte	0x1
 3642 0294 50       		.byte	0x50
 3643 0295 10000000 		.4byte	.LVL1
 3644 0299 1E000000 		.4byte	.LVL3
 3645 029d 0100     		.2byte	0x1
 3646 029f 54       		.byte	0x54
 3647 02a0 1E000000 		.4byte	.LVL3
 3648 02a4 24000000 		.4byte	.LFE219
 3649 02a8 0400     		.2byte	0x4
 3650 02aa F3       		.byte	0xf3
 3651 02ab 01       		.uleb128 0x1
 3652 02ac 50       		.byte	0x50
 3653 02ad 9F       		.byte	0x9f
 3654 02ae 00000000 		.4byte	0
 3655 02b2 00000000 		.4byte	0
 3656              	.LLST1:
 3657 02b6 00000000 		.4byte	.LVL0
 3658 02ba 13000000 		.4byte	.LVL2-1
 3659 02be 0100     		.2byte	0x1
 3660 02c0 51       		.byte	0x51
 3661 02c1 13000000 		.4byte	.LVL2-1
 3662 02c5 1E000000 		.4byte	.LVL3
 3663 02c9 0100     		.2byte	0x1
 3664 02cb 55       		.byte	0x55
 3665 02cc 1E000000 		.4byte	.LVL3
 3666 02d0 24000000 		.4byte	.LFE219
 3667 02d4 0500     		.2byte	0x5
 3668 02d6 F3       		.byte	0xf3
 3669 02d7 01       		.uleb128 0x1
 3670 02d8 50       		.byte	0x50
 3671 02d9 23       		.byte	0x23
 3672 02da 04       		.uleb128 0x4
 3673 02db 00000000 		.4byte	0
 3674 02df 00000000 		.4byte	0
 3675              	.LLST2:
 3676 02e3 00000000 		.4byte	.LVL0
 3677 02e7 13000000 		.4byte	.LVL2-1
 3678 02eb 0100     		.2byte	0x1
 3679 02ed 52       		.byte	0x52
 3680 02ee 13000000 		.4byte	.LVL2-1
 3681 02f2 1E000000 		.4byte	.LVL3
 3682 02f6 0100     		.2byte	0x1
 3683 02f8 56       		.byte	0x56
 3684 02f9 1E000000 		.4byte	.LVL3
 3685 02fd 24000000 		.4byte	.LFE219
 3686 0301 0500     		.2byte	0x5
 3687 0303 F3       		.byte	0xf3
 3688 0304 01       		.uleb128 0x1
 3689 0305 50       		.byte	0x50
 3690 0306 23       		.byte	0x23
 3691 0307 08       		.uleb128 0x8
ARM GAS  /var/folders/km/q6jdms0143g2bddz5bhvdfd00000gn/T//ccnwGrRw.s 			page 66


 3692 0308 00000000 		.4byte	0
 3693 030c 00000000 		.4byte	0
 3694              	.LLST3:
 3695 0310 00000000 		.4byte	.LVL4
 3696 0314 07000000 		.4byte	.LVL5-1
 3697 0318 0100     		.2byte	0x1
 3698 031a 50       		.byte	0x50
 3699 031b 07000000 		.4byte	.LVL5-1
 3700 031f 20000000 		.4byte	.LVL9
 3701 0323 0100     		.2byte	0x1
 3702 0325 54       		.byte	0x54
 3703 0326 20000000 		.4byte	.LVL9
 3704 032a 22000000 		.4byte	.LVL10
 3705 032e 0400     		.2byte	0x4
 3706 0330 F3       		.byte	0xf3
 3707 0331 01       		.uleb128 0x1
 3708 0332 50       		.byte	0x50
 3709 0333 9F       		.byte	0x9f
 3710 0334 22000000 		.4byte	.LVL10
 3711 0338 30000000 		.4byte	.LFE221
 3712 033c 0100     		.2byte	0x1
 3713 033e 54       		.byte	0x54
 3714 033f 00000000 		.4byte	0
 3715 0343 00000000 		.4byte	0
 3716              	.LLST4:
 3717 0347 0C000000 		.4byte	.LVL6
 3718 034b 1C000000 		.4byte	.LVL8
 3719 034f 0100     		.2byte	0x1
 3720 0351 50       		.byte	0x50
 3721 0352 1C000000 		.4byte	.LVL8
 3722 0356 20000000 		.4byte	.LVL9
 3723 035a 0200     		.2byte	0x2
 3724 035c 74       		.byte	0x74
 3725 035d 00       		.sleb128 0
 3726 035e 20000000 		.4byte	.LVL9
 3727 0362 21000000 		.4byte	.LVL10-1
 3728 0366 0300     		.2byte	0x3
 3729 0368 F3       		.byte	0xf3
 3730 0369 01       		.uleb128 0x1
 3731 036a 50       		.byte	0x50
 3732 036b 00000000 		.4byte	0
 3733 036f 00000000 		.4byte	0
 3734              	.LLST5:
 3735 0373 14000000 		.4byte	.LVL7
 3736 0377 20000000 		.4byte	.LVL9
 3737 037b 0100     		.2byte	0x1
 3738 037d 54       		.byte	0x54
 3739 037e 20000000 		.4byte	.LVL9
 3740 0382 22000000 		.4byte	.LVL10
 3741 0386 0400     		.2byte	0x4
 3742 0388 F3       		.byte	0xf3
 3743 0389 01       		.uleb128 0x1
 3744 038a 50       		.byte	0x50
 3745 038b 9F       		.byte	0x9f
 3746 038c 00000000 		.4byte	0
 3747 0390 00000000 		.4byte	0
 3748              		.section	.debug_aranges,"",%progbits
ARM GAS  /var/folders/km/q6jdms0143g2bddz5bhvdfd00000gn/T//ccnwGrRw.s 			page 67


 3749 0000 44000000 		.4byte	0x44
 3750 0004 0200     		.2byte	0x2
 3751 0006 00000000 		.4byte	.Ldebug_info0
 3752 000a 04       		.byte	0x4
 3753 000b 00       		.byte	0
 3754 000c 0000     		.2byte	0
 3755 000e 0000     		.2byte	0
 3756 0010 00000000 		.4byte	.LFB219
 3757 0014 24000000 		.4byte	.LFE219-.LFB219
 3758 0018 00000000 		.4byte	.LFB221
 3759 001c 30000000 		.4byte	.LFE221-.LFB221
 3760 0020 00000000 		.4byte	.LFB222
 3761 0024 58000000 		.4byte	.LFE222-.LFB222
 3762 0028 00000000 		.4byte	.LFB223
 3763 002c 28000000 		.4byte	.LFE223-.LFB223
 3764 0030 00000000 		.4byte	.LFB224
 3765 0034 54000000 		.4byte	.LFE224-.LFB224
 3766 0038 00000000 		.4byte	.LFB220
 3767 003c 34000000 		.4byte	.LFE220-.LFB220
 3768 0040 00000000 		.4byte	0
 3769 0044 00000000 		.4byte	0
 3770              		.section	.debug_ranges,"",%progbits
 3771              	.Ldebug_ranges0:
 3772 0000 14000000 		.4byte	.LBB28
 3773 0004 1C000000 		.4byte	.LBE28
 3774 0008 20000000 		.4byte	.LBB31
 3775 000c 22000000 		.4byte	.LBE31
 3776 0010 00000000 		.4byte	0
 3777 0014 00000000 		.4byte	0
 3778 0018 02000000 		.4byte	.LBB42
 3779 001c 04000000 		.4byte	.LBE42
 3780 0020 06000000 		.4byte	.LBB51
 3781 0024 12000000 		.4byte	.LBE51
 3782 0028 00000000 		.4byte	0
 3783 002c 00000000 		.4byte	0
 3784 0030 02000000 		.4byte	.LBB44
 3785 0034 04000000 		.4byte	.LBE44
 3786 0038 06000000 		.4byte	.LBB49
 3787 003c 0A000000 		.4byte	.LBE49
 3788 0040 00000000 		.4byte	0
 3789 0044 00000000 		.4byte	0
 3790 0048 1A000000 		.4byte	.LBB52
 3791 004c 3A000000 		.4byte	.LBE52
 3792 0050 3E000000 		.4byte	.LBB61
 3793 0054 4A000000 		.4byte	.LBE61
 3794 0058 00000000 		.4byte	0
 3795 005c 00000000 		.4byte	0
 3796 0060 34000000 		.4byte	.LBB54
 3797 0064 3A000000 		.4byte	.LBE54
 3798 0068 44000000 		.4byte	.LBB59
 3799 006c 4A000000 		.4byte	.LBE59
 3800 0070 00000000 		.4byte	0
 3801 0074 00000000 		.4byte	0
 3802 0078 1C000000 		.4byte	.LBB77
 3803 007c 3C000000 		.4byte	.LBE77
 3804 0080 3E000000 		.4byte	.LBB86
 3805 0084 4A000000 		.4byte	.LBE86
ARM GAS  /var/folders/km/q6jdms0143g2bddz5bhvdfd00000gn/T//ccnwGrRw.s 			page 68


 3806 0088 00000000 		.4byte	0
 3807 008c 00000000 		.4byte	0
 3808 0090 36000000 		.4byte	.LBB79
 3809 0094 3C000000 		.4byte	.LBE79
 3810 0098 44000000 		.4byte	.LBB84
 3811 009c 4A000000 		.4byte	.LBE84
 3812 00a0 00000000 		.4byte	0
 3813 00a4 00000000 		.4byte	0
 3814 00a8 00000000 		.4byte	.LFB219
 3815 00ac 24000000 		.4byte	.LFE219
 3816 00b0 00000000 		.4byte	.LFB221
 3817 00b4 30000000 		.4byte	.LFE221
 3818 00b8 00000000 		.4byte	.LFB222
 3819 00bc 58000000 		.4byte	.LFE222
 3820 00c0 00000000 		.4byte	.LFB223
 3821 00c4 28000000 		.4byte	.LFE223
 3822 00c8 00000000 		.4byte	.LFB224
 3823 00cc 54000000 		.4byte	.LFE224
 3824 00d0 00000000 		.4byte	.LFB220
 3825 00d4 34000000 		.4byte	.LFE220
 3826 00d8 00000000 		.4byte	0
 3827 00dc 00000000 		.4byte	0
 3828              		.section	.debug_line,"",%progbits
 3829              	.Ldebug_line0:
 3830 0000 F6040000 		.section	.debug_str,"MS",%progbits,1
 3830      0200A003 
 3830      00000201 
 3830      FB0E0D00 
 3830      01010101 
 3831              	.LASF146:
 3832 0000 63665F6F 		.ascii	"cf_off_older\000"
 3832      66665F6F 
 3832      6C646572 
 3832      00
 3833              	.LASF61:
 3834 000d 72656164 		.ascii	"ready_list_t\000"
 3834      795F6C69 
 3834      73745F74 
 3834      00
 3835              	.LASF99:
 3836 001a 73655F74 		.ascii	"se_time\000"
 3836      696D6500 
 3837              	.LASF4:
 3838 0022 73697A65 		.ascii	"size_t\000"
 3838      5F7400
 3839              	.LASF120:
 3840 0029 7264796D 		.ascii	"rdymsg\000"
 3840      736700
 3841              	.LASF105:
 3842 0030 74625F70 		.ascii	"tb_ptr\000"
 3842      747200
 3843              	.LASF20:
 3844 0037 75696E74 		.ascii	"uint64_t\000"
 3844      36345F74 
 3844      00
 3845              	.LASF91:
 3846 0040 6B65726E 		.ascii	"kernel_stats\000"
ARM GAS  /var/folders/km/q6jdms0143g2bddz5bhvdfd00000gn/T//ccnwGrRw.s 			page 69


 3846      656C5F73 
 3846      74617473 
 3846      00
 3847              	.LASF5:
 3848 004d 5F5F7569 		.ascii	"__uint8_t\000"
 3848      6E74385F 
 3848      7400
 3849              	.LASF98:
 3850 0057 706F7274 		.ascii	"port_intctx\000"
 3850      5F696E74 
 3850      63747800 
 3851              	.LASF60:
 3852 0063 63685F74 		.ascii	"ch_threads_queue\000"
 3852      68726561 
 3852      64735F71 
 3852      75657565 
 3852      00
 3853              	.LASF80:
 3854 0074 73797374 		.ascii	"system_debug_t\000"
 3854      656D5F64 
 3854      65627567 
 3854      5F7400
 3855              	.LASF171:
 3856 0083 70726F76 		.ascii	"provider\000"
 3856      69646572 
 3856      00
 3857              	.LASF177:
 3858 008c 706F7274 		.ascii	"port_lock\000"
 3858      5F6C6F63 
 3858      6B00
 3859              	.LASF111:
 3860 0096 776F7273 		.ascii	"worst\000"
 3860      7400
 3861              	.LASF114:
 3862 009c 74696D65 		.ascii	"time_measurement_t\000"
 3862      5F6D6561 
 3862      73757265 
 3862      6D656E74 
 3862      5F7400
 3863              	.LASF15:
 3864 00af 6C6F6E67 		.ascii	"long long unsigned int\000"
 3864      206C6F6E 
 3864      6720756E 
 3864      7369676E 
 3864      65642069 
 3865              	.LASF107:
 3866 00c6 63685F74 		.ascii	"ch_trace_buffer_t\000"
 3866      72616365 
 3866      5F627566 
 3866      6665725F 
 3866      7400
 3867              	.LASF142:
 3868 00d8 63685F74 		.ascii	"ch_threadsize\000"
 3868      68726561 
 3868      6473697A 
 3868      6500
 3869              	.LASF121:
ARM GAS  /var/folders/km/q6jdms0143g2bddz5bhvdfd00000gn/T//ccnwGrRw.s 			page 70


 3870 00e6 65786974 		.ascii	"exitcode\000"
 3870      636F6465 
 3870      00
 3871              	.LASF90:
 3872 00ef 6D61696E 		.ascii	"mainthread\000"
 3872      74687265 
 3872      616400
 3873              	.LASF180:
 3874 00fa 5F737461 		.ascii	"_stats_start_measure_crit_thd\000"
 3874      74735F73 
 3874      74617274 
 3874      5F6D6561 
 3874      73757265 
 3875              	.LASF77:
 3876 0118 76697274 		.ascii	"virtual_timers_list_t\000"
 3876      75616C5F 
 3876      74696D65 
 3876      72735F6C 
 3876      6973745F 
 3877              	.LASF93:
 3878 012e 49544D5F 		.ascii	"ITM_RxBuffer\000"
 3878      52784275 
 3878      66666572 
 3878      00
 3879              	.LASF22:
 3880 013b 72747469 		.ascii	"rttime_t\000"
 3880      6D655F74 
 3880      00
 3881              	.LASF36:
 3882 0144 705F7072 		.ascii	"p_prio\000"
 3882      696F00
 3883              	.LASF149:
 3884 014b 63665F6F 		.ascii	"cf_off_state\000"
 3884      66665F73 
 3884      74617465 
 3884      00
 3885              	.LASF1:
 3886 0158 6C6F6E67 		.ascii	"long long int\000"
 3886      206C6F6E 
 3886      6720696E 
 3886      7400
 3887              	.LASF3:
 3888 0166 7369676E 		.ascii	"signed char\000"
 3888      65642063 
 3888      68617200 
 3889              	.LASF148:
 3890 0172 63665F6F 		.ascii	"cf_off_stklimit\000"
 3890      66665F73 
 3890      746B6C69 
 3890      6D697400 
 3891              	.LASF150:
 3892 0182 63665F6F 		.ascii	"cf_off_flags\000"
 3892      66665F66 
 3892      6C616773 
 3892      00
 3893              	.LASF53:
 3894 018f 705F6D70 		.ascii	"p_mpool\000"
ARM GAS  /var/folders/km/q6jdms0143g2bddz5bhvdfd00000gn/T//ccnwGrRw.s 			page 71


 3894      6F6F6C00 
 3895              	.LASF131:
 3896 0197 6D5F7175 		.ascii	"m_queue\000"
 3896      65756500 
 3897              	.LASF89:
 3898 019f 76746C69 		.ascii	"vtlist\000"
 3898      737400
 3899              	.LASF176:
 3900 01a6 706F7274 		.ascii	"port_unlock\000"
 3900      5F756E6C 
 3900      6F636B00 
 3901              	.LASF26:
 3902 01b2 74736C69 		.ascii	"tslices_t\000"
 3902      6365735F 
 3902      7400
 3903              	.LASF123:
 3904 01bc 77747472 		.ascii	"wttrp\000"
 3904      7000
 3905              	.LASF87:
 3906 01c2 63685F73 		.ascii	"ch_system\000"
 3906      79737465 
 3906      6D00
 3907              	.LASF11:
 3908 01cc 6C6F6E67 		.ascii	"long int\000"
 3908      20696E74 
 3908      00
 3909              	.LASF24:
 3910 01d5 74737461 		.ascii	"tstate_t\000"
 3910      74655F74 
 3910      00
 3911              	.LASF100:
 3912 01de 73655F74 		.ascii	"se_tp\000"
 3912      7000
 3913              	.LASF154:
 3914 01e4 63686465 		.ascii	"chdebug_t\000"
 3914      6275675F 
 3914      7400
 3915              	.LASF38:
 3916 01ee 705F6E65 		.ascii	"p_newer\000"
 3916      77657200 
 3917              	.LASF128:
 3918 01f6 735F7175 		.ascii	"s_queue\000"
 3918      65756500 
 3919              	.LASF104:
 3920 01fe 74625F73 		.ascii	"tb_size\000"
 3920      697A6500 
 3921              	.LASF66:
 3922 0206 725F6E65 		.ascii	"r_newer\000"
 3922      77657200 
 3923              	.LASF162:
 3924 020e 6D705F70 		.ascii	"mp_provider\000"
 3924      726F7669 
 3924      64657200 
 3925              	.LASF95:
 3926 021a 72656761 		.ascii	"regarm_t\000"
 3926      726D5F74 
 3926      00
ARM GAS  /var/folders/km/q6jdms0143g2bddz5bhvdfd00000gn/T//ccnwGrRw.s 			page 72


 3927              	.LASF73:
 3928 0223 76745F70 		.ascii	"vt_prev\000"
 3928      72657600 
 3929              	.LASF187:
 3930 022b 2E2E2F2E 		.ascii	"../../lib/ChibiOS/os/rt/src/chmempools.c\000"
 3930      2E2F6C69 
 3930      622F4368 
 3930      6962694F 
 3930      532F6F73 
 3931              	.LASF184:
 3932 0254 63685379 		.ascii	"chSysHalt\000"
 3932      7348616C 
 3932      7400
 3933              	.LASF81:
 3934 025e 63685F73 		.ascii	"ch_system_debug\000"
 3934      79737465 
 3934      6D5F6465 
 3934      62756700 
 3935              	.LASF134:
 3936 026e 6D5F636E 		.ascii	"m_cnt\000"
 3936      7400
 3937              	.LASF156:
 3938 0274 6D757465 		.ascii	"mutex_t\000"
 3938      785F7400 
 3939              	.LASF179:
 3940 027c 76616C75 		.ascii	"value\000"
 3940      6500
 3941              	.LASF84:
 3942 0282 6C6F636B 		.ascii	"lock_cnt\000"
 3942      5F636E74 
 3942      00
 3943              	.LASF92:
 3944 028b 69646C65 		.ascii	"idle_thread_wa\000"
 3944      5F746872 
 3944      6561645F 
 3944      776100
 3945              	.LASF30:
 3946 029a 636E745F 		.ascii	"cnt_t\000"
 3946      7400
 3947              	.LASF41:
 3948 02a0 705F7374 		.ascii	"p_stklimit\000"
 3948      6B6C696D 
 3948      697400
 3949              	.LASF0:
 3950 02ab 756E7369 		.ascii	"unsigned int\000"
 3950      676E6564 
 3950      20696E74 
 3950      00
 3951              	.LASF72:
 3952 02b8 76745F6E 		.ascii	"vt_next\000"
 3952      65787400 
 3953              	.LASF17:
 3954 02c0 75696E74 		.ascii	"uint16_t\000"
 3954      31365F74 
 3954      00
 3955              	.LASF94:
 3956 02c9 53797374 		.ascii	"SystemCoreClock\000"
ARM GAS  /var/folders/km/q6jdms0143g2bddz5bhvdfd00000gn/T//ccnwGrRw.s 			page 73


 3956      656D436F 
 3956      7265436C 
 3956      6F636B00 
 3957              	.LASF46:
 3958 02d9 705F7469 		.ascii	"p_time\000"
 3958      6D6500
 3959              	.LASF124:
 3960 02e0 77747365 		.ascii	"wtsemp\000"
 3960      6D7000
 3961              	.LASF186:
 3962 02e7 474E5520 		.ascii	"GNU C11 7.2.1 20170904 (release) [ARM/embedded-7-br"
 3962      43313120 
 3962      372E322E 
 3962      31203230 
 3962      31373039 
 3963 031a 616E6368 		.ascii	"anch revision 255204] -mcpu=cortex-m4 -mfloat-abi=h"
 3963      20726576 
 3963      6973696F 
 3963      6E203235 
 3963      35323034 
 3964 034d 61726420 		.ascii	"ard -mfpu=fpv4-sp-d16 -mno-thumb-interwork -mthumb "
 3964      2D6D6670 
 3964      753D6670 
 3964      76342D73 
 3964      702D6431 
 3965 0380 2D676764 		.ascii	"-ggdb -O2 -fomit-frame-pointer -falign-functions=16"
 3965      62202D4F 
 3965      32202D66 
 3965      6F6D6974 
 3965      2D667261 
 3966 03b3 202D6666 		.ascii	" -ffunction-sections -fdata-sections -fno-common -f"
 3966      756E6374 
 3966      696F6E2D 
 3966      73656374 
 3966      696F6E73 
 3967 03e6 73696E67 		.ascii	"single-precision-constant\000"
 3967      6C652D70 
 3967      72656369 
 3967      73696F6E 
 3967      2D636F6E 
 3968              	.LASF48:
 3969 0400 705F6D73 		.ascii	"p_msgqueue\000"
 3969      67717565 
 3969      756500
 3970              	.LASF155:
 3971 040b 63685F64 		.ascii	"ch_debug\000"
 3971      65627567 
 3971      00
 3972              	.LASF163:
 3973 0414 6D656D6F 		.ascii	"memory_pool_t\000"
 3973      72795F70 
 3973      6F6F6C5F 
 3973      7400
 3974              	.LASF115:
 3975 0422 6E5F6972 		.ascii	"n_irq\000"
 3975      7100
 3976              	.LASF188:
ARM GAS  /var/folders/km/q6jdms0143g2bddz5bhvdfd00000gn/T//ccnwGrRw.s 			page 74


 3977 0428 2F557365 		.ascii	"/Users/xavierdulex/Documents/EPFL/MT6/robotique_et_"
 3977      72732F78 
 3977      61766965 
 3977      7264756C 
 3977      65782F44 
 3978 045b 73797374 		.ascii	"systemes_ embarques/GitRobotique/TP3_Chibi/Chibi/\000"
 3978      656D6573 
 3978      5F20656D 
 3978      62617271 
 3978      7565732F 
 3979              	.LASF9:
 3980 048d 73686F72 		.ascii	"short unsigned int\000"
 3980      7420756E 
 3980      7369676E 
 3980      65642069 
 3980      6E7400
 3981              	.LASF119:
 3982 04a0 6B65726E 		.ascii	"kernel_stats_t\000"
 3982      656C5F73 
 3982      74617473 
 3982      5F7400
 3983              	.LASF57:
 3984 04af 63685F74 		.ascii	"ch_thread\000"
 3984      68726561 
 3984      6400
 3985              	.LASF28:
 3986 04b9 6D73675F 		.ascii	"msg_t\000"
 3986      7400
 3987              	.LASF112:
 3988 04bf 6C617374 		.ascii	"last\000"
 3988      00
 3989              	.LASF31:
 3990 04c4 75636E74 		.ascii	"ucnt_t\000"
 3990      5F7400
 3991              	.LASF185:
 3992 04cb 63684462 		.ascii	"chDbgCheckClassI\000"
 3992      67436865 
 3992      636B436C 
 3992      61737349 
 3992      00
 3993              	.LASF86:
 3994 04dc 63685F73 		.ascii	"ch_system_t\000"
 3994      79737465 
 3994      6D5F7400 
 3995              	.LASF172:
 3996 04e8 6368506F 		.ascii	"chPoolAdd\000"
 3996      6F6C4164 
 3996      6400
 3997              	.LASF153:
 3998 04f2 63665F6F 		.ascii	"cf_off_time\000"
 3998      66665F74 
 3998      696D6500 
 3999              	.LASF169:
 4000 04fe 6368506F 		.ascii	"chPoolObjectInit\000"
 4000      6F6C4F62 
 4000      6A656374 
 4000      496E6974 
ARM GAS  /var/folders/km/q6jdms0143g2bddz5bhvdfd00000gn/T//ccnwGrRw.s 			page 75


 4000      00
 4001              	.LASF118:
 4002 050f 6D5F6372 		.ascii	"m_crit_isr\000"
 4002      69745F69 
 4002      737200
 4003              	.LASF62:
 4004 051a 63685F72 		.ascii	"ch_ready_list\000"
 4004      65616479 
 4004      5F6C6973 
 4004      7400
 4005              	.LASF29:
 4006 0528 6576656E 		.ascii	"eventmask_t\000"
 4006      746D6173 
 4006      6B5F7400 
 4007              	.LASF10:
 4008 0534 5F5F696E 		.ascii	"__int32_t\000"
 4008      7433325F 
 4008      7400
 4009              	.LASF96:
 4010 053e 73746B61 		.ascii	"stkalign_t\000"
 4010      6C69676E 
 4010      5F7400
 4011              	.LASF56:
 4012 0549 74687265 		.ascii	"threads_list_t\000"
 4012      6164735F 
 4012      6C697374 
 4012      5F7400
 4013              	.LASF137:
 4014 0558 63685F7A 		.ascii	"ch_zero\000"
 4014      65726F00 
 4015              	.LASF151:
 4016 0560 63665F6F 		.ascii	"cf_off_refs\000"
 4016      66665F72 
 4016      65667300 
 4017              	.LASF64:
 4018 056c 725F7072 		.ascii	"r_prio\000"
 4018      696F00
 4019              	.LASF47:
 4020 0573 705F7761 		.ascii	"p_waiting\000"
 4020      6974696E 
 4020      6700
 4021              	.LASF183:
 4022 057d 5F737461 		.ascii	"_stats_stop_measure_crit_thd\000"
 4022      74735F73 
 4022      746F705F 
 4022      6D656173 
 4022      7572655F 
 4023              	.LASF21:
 4024 059a 7274636E 		.ascii	"rtcnt_t\000"
 4024      745F7400 
 4025              	.LASF181:
 4026 05a2 5F646267 		.ascii	"_dbg_check_lock\000"
 4026      5F636865 
 4026      636B5F6C 
 4026      6F636B00 
 4027              	.LASF78:
 4028 05b2 63685F76 		.ascii	"ch_virtual_timers_list\000"
ARM GAS  /var/folders/km/q6jdms0143g2bddz5bhvdfd00000gn/T//ccnwGrRw.s 			page 76


 4028      69727475 
 4028      616C5F74 
 4028      696D6572 
 4028      735F6C69 
 4029              	.LASF2:
 4030 05c9 6C6F6E67 		.ascii	"long double\000"
 4030      20646F75 
 4030      626C6500 
 4031              	.LASF141:
 4032 05d5 63685F74 		.ascii	"ch_timesize\000"
 4032      696D6573 
 4032      697A6500 
 4033              	.LASF174:
 4034 05e1 6368506F 		.ascii	"chPoolAllocI\000"
 4034      6F6C416C 
 4034      6C6F6349 
 4034      00
 4035              	.LASF103:
 4036 05ee 63685F73 		.ascii	"ch_swc_event_t\000"
 4036      77635F65 
 4036      76656E74 
 4036      5F7400
 4037              	.LASF147:
 4038 05fd 63665F6F 		.ascii	"cf_off_name\000"
 4038      66665F6E 
 4038      616D6500 
 4039              	.LASF39:
 4040 0609 705F6F6C 		.ascii	"p_older\000"
 4040      64657200 
 4041              	.LASF65:
 4042 0611 725F6374 		.ascii	"r_ctx\000"
 4042      7800
 4043              	.LASF37:
 4044 0617 705F6374 		.ascii	"p_ctx\000"
 4044      7800
 4045              	.LASF161:
 4046 061d 6D705F6F 		.ascii	"mp_object_size\000"
 4046      626A6563 
 4046      745F7369 
 4046      7A6500
 4047              	.LASF109:
 4048 062c 746D5F63 		.ascii	"tm_calibration_t\000"
 4048      616C6962 
 4048      72617469 
 4048      6F6E5F74 
 4048      00
 4049              	.LASF68:
 4050 063d 725F6375 		.ascii	"r_current\000"
 4050      7272656E 
 4050      7400
 4051              	.LASF67:
 4052 0647 725F6F6C 		.ascii	"r_older\000"
 4052      64657200 
 4053              	.LASF14:
 4054 064f 5F5F7569 		.ascii	"__uint64_t\000"
 4054      6E743634 
 4054      5F7400
ARM GAS  /var/folders/km/q6jdms0143g2bddz5bhvdfd00000gn/T//ccnwGrRw.s 			page 77


 4055              	.LASF113:
 4056 065a 63756D75 		.ascii	"cumulative\000"
 4056      6C617469 
 4056      766500
 4057              	.LASF25:
 4058 0665 74726566 		.ascii	"trefs_t\000"
 4058      735F7400 
 4059              	.LASF106:
 4060 066d 74625F62 		.ascii	"tb_buffer\000"
 4060      75666665 
 4060      7200
 4061              	.LASF140:
 4062 0677 63685F70 		.ascii	"ch_ptrsize\000"
 4062      74727369 
 4062      7A6500
 4063              	.LASF70:
 4064 0682 76697274 		.ascii	"virtual_timer_t\000"
 4064      75616C5F 
 4064      74696D65 
 4064      725F7400 
 4065              	.LASF35:
 4066 0692 705F7072 		.ascii	"p_prev\000"
 4066      657600
 4067              	.LASF27:
 4068 0699 74707269 		.ascii	"tprio_t\000"
 4068      6F5F7400 
 4069              	.LASF116:
 4070 06a1 6E5F6374 		.ascii	"n_ctxswc\000"
 4070      78737763 
 4070      00
 4071              	.LASF18:
 4072 06aa 696E7433 		.ascii	"int32_t\000"
 4072      325F7400 
 4073              	.LASF6:
 4074 06b2 756E7369 		.ascii	"unsigned char\000"
 4074      676E6564 
 4074      20636861 
 4074      7200
 4075              	.LASF129:
 4076 06c0 735F636E 		.ascii	"s_cnt\000"
 4076      7400
 4077              	.LASF51:
 4078 06c6 705F6D74 		.ascii	"p_mtxlist\000"
 4078      786C6973 
 4078      7400
 4079              	.LASF7:
 4080 06d0 73686F72 		.ascii	"short int\000"
 4080      7420696E 
 4080      7400
 4081              	.LASF42:
 4082 06da 705F7374 		.ascii	"p_state\000"
 4082      61746500 
 4083              	.LASF45:
 4084 06e2 705F7072 		.ascii	"p_preempt\000"
 4084      65656D70 
 4084      7400
 4085              	.LASF139:
ARM GAS  /var/folders/km/q6jdms0143g2bddz5bhvdfd00000gn/T//ccnwGrRw.s 			page 78


 4086 06ec 63685F76 		.ascii	"ch_version\000"
 4086      65727369 
 4086      6F6E00
 4087              	.LASF126:
 4088 06f7 65776D61 		.ascii	"ewmask\000"
 4088      736B00
 4089              	.LASF34:
 4090 06fe 705F6E65 		.ascii	"p_next\000"
 4090      787400
 4091              	.LASF23:
 4092 0705 746D6F64 		.ascii	"tmode_t\000"
 4092      655F7400 
 4093              	.LASF152:
 4094 070d 63665F6F 		.ascii	"cf_off_preempt\000"
 4094      66665F70 
 4094      7265656D 
 4094      707400
 4095              	.LASF167:
 4096 071c 5F5F6675 		.ascii	"__func__\000"
 4096      6E635F5F 
 4096      00
 4097              	.LASF54:
 4098 0725 705F7374 		.ascii	"p_stats\000"
 4098      61747300 
 4099              	.LASF175:
 4100 072d 63685379 		.ascii	"chSysLock\000"
 4100      734C6F63 
 4100      6B00
 4101              	.LASF164:
 4102 0737 6F626A70 		.ascii	"objp\000"
 4102      00
 4103              	.LASF59:
 4104 073c 74687265 		.ascii	"threads_queue_t\000"
 4104      6164735F 
 4104      71756575 
 4104      655F7400 
 4105              	.LASF71:
 4106 074c 63685F76 		.ascii	"ch_virtual_timer\000"
 4106      69727475 
 4106      616C5F74 
 4106      696D6572 
 4106      00
 4107              	.LASF145:
 4108 075d 63665F6F 		.ascii	"cf_off_newer\000"
 4108      66665F6E 
 4108      65776572 
 4108      00
 4109              	.LASF127:
 4110 076a 63685F73 		.ascii	"ch_semaphore\000"
 4110      656D6170 
 4110      686F7265 
 4110      00
 4111              	.LASF50:
 4112 0777 705F6570 		.ascii	"p_epending\000"
 4112      656E6469 
 4112      6E6700
 4113              	.LASF19:
ARM GAS  /var/folders/km/q6jdms0143g2bddz5bhvdfd00000gn/T//ccnwGrRw.s 			page 79


 4114 0782 75696E74 		.ascii	"uint32_t\000"
 4114      33325F74 
 4114      00
 4115              	.LASF143:
 4116 078b 63665F6F 		.ascii	"cf_off_prio\000"
 4116      66665F70 
 4116      72696F00 
 4117              	.LASF63:
 4118 0797 725F7175 		.ascii	"r_queue\000"
 4118      65756500 
 4119              	.LASF58:
 4120 079f 63685F74 		.ascii	"ch_threads_list\000"
 4120      68726561 
 4120      64735F6C 
 4120      69737400 
 4121              	.LASF138:
 4122 07af 63685F73 		.ascii	"ch_size\000"
 4122      697A6500 
 4123              	.LASF13:
 4124 07b7 6C6F6E67 		.ascii	"long unsigned int\000"
 4124      20756E73 
 4124      69676E65 
 4124      6420696E 
 4124      7400
 4125              	.LASF135:
 4126 07c9 63686172 		.ascii	"char\000"
 4126      00
 4127              	.LASF125:
 4128 07ce 77746D74 		.ascii	"wtmtxp\000"
 4128      787000
 4129              	.LASF8:
 4130 07d5 5F5F7569 		.ascii	"__uint16_t\000"
 4130      6E743136 
 4130      5F7400
 4131              	.LASF166:
 4132 07e0 6368506F 		.ascii	"chPoolFreeI\000"
 4132      6F6C4672 
 4132      65654900 
 4133              	.LASF33:
 4134 07ec 74687265 		.ascii	"thread_t\000"
 4134      61645F74 
 4134      00
 4135              	.LASF110:
 4136 07f5 62657374 		.ascii	"best\000"
 4136      00
 4137              	.LASF133:
 4138 07fa 6D5F6E65 		.ascii	"m_next\000"
 4138      787400
 4139              	.LASF32:
 4140 0801 73797374 		.ascii	"systime_t\000"
 4140      696D655F 
 4140      7400
 4141              	.LASF52:
 4142 080b 705F7265 		.ascii	"p_realprio\000"
 4142      616C7072 
 4142      696F00
 4143              	.LASF69:
ARM GAS  /var/folders/km/q6jdms0143g2bddz5bhvdfd00000gn/T//ccnwGrRw.s 			page 80


 4144 0816 76746675 		.ascii	"vtfunc_t\000"
 4144      6E635F74 
 4144      00
 4145              	.LASF12:
 4146 081f 5F5F7569 		.ascii	"__uint32_t\000"
 4146      6E743332 
 4146      5F7400
 4147              	.LASF178:
 4148 082a 5F5F7365 		.ascii	"__set_BASEPRI\000"
 4148      745F4241 
 4148      53455052 
 4148      4900
 4149              	.LASF82:
 4150 0838 70616E69 		.ascii	"panic_msg\000"
 4150      635F6D73 
 4150      6700
 4151              	.LASF108:
 4152 0842 6F666673 		.ascii	"offset\000"
 4152      657400
 4153              	.LASF130:
 4154 0849 63685F6D 		.ascii	"ch_mutex\000"
 4154      75746578 
 4154      00
 4155              	.LASF160:
 4156 0852 6D705F6E 		.ascii	"mp_next\000"
 4156      65787400 
 4157              	.LASF97:
 4158 085a 636F6E74 		.ascii	"context\000"
 4158      65787400 
 4159              	.LASF49:
 4160 0862 705F6D73 		.ascii	"p_msg\000"
 4160      6700
 4161              	.LASF157:
 4162 0868 6D656D67 		.ascii	"memgetfunc_t\000"
 4162      65746675 
 4162      6E635F74 
 4162      00
 4163              	.LASF76:
 4164 0875 76745F70 		.ascii	"vt_par\000"
 4164      617200
 4165              	.LASF144:
 4166 087c 63665F6F 		.ascii	"cf_off_ctx\000"
 4166      66665F63 
 4166      747800
 4167              	.LASF158:
 4168 0887 706F6F6C 		.ascii	"pool_header\000"
 4168      5F686561 
 4168      64657200 
 4169              	.LASF44:
 4170 0893 705F7265 		.ascii	"p_refs\000"
 4170      667300
 4171              	.LASF83:
 4172 089a 6973725F 		.ascii	"isr_cnt\000"
 4172      636E7400 
 4173              	.LASF102:
 4174 08a2 73655F73 		.ascii	"se_state\000"
 4174      74617465 
ARM GAS  /var/folders/km/q6jdms0143g2bddz5bhvdfd00000gn/T//ccnwGrRw.s 			page 81


 4174      00
 4175              	.LASF88:
 4176 08ab 726C6973 		.ascii	"rlist\000"
 4176      7400
 4177              	.LASF16:
 4178 08b1 75696E74 		.ascii	"uint8_t\000"
 4178      385F7400 
 4179              	.LASF189:
 4180 08b9 6368506F 		.ascii	"chPoolAlloc\000"
 4180      6F6C416C 
 4180      6C6F6300 
 4181              	.LASF165:
 4182 08c5 6368506F 		.ascii	"chPoolFree\000"
 4182      6F6C4672 
 4182      656500
 4183              	.LASF182:
 4184 08d0 5F646267 		.ascii	"_dbg_check_unlock\000"
 4184      5F636865 
 4184      636B5F75 
 4184      6E6C6F63 
 4184      6B00
 4185              	.LASF55:
 4186 08e2 74687265 		.ascii	"thread_reference_t\000"
 4186      61645F72 
 4186      65666572 
 4186      656E6365 
 4186      5F7400
 4187              	.LASF122:
 4188 08f5 77746F62 		.ascii	"wtobjp\000"
 4188      6A7000
 4189              	.LASF159:
 4190 08fc 70685F6E 		.ascii	"ph_next\000"
 4190      65787400 
 4191              	.LASF40:
 4192 0904 705F6E61 		.ascii	"p_name\000"
 4192      6D6500
 4193              	.LASF170:
 4194 090b 73697A65 		.ascii	"size\000"
 4194      00
 4195              	.LASF79:
 4196 0910 76745F73 		.ascii	"vt_systime\000"
 4196      79737469 
 4196      6D6500
 4197              	.LASF85:
 4198 091b 74726163 		.ascii	"trace_buffer\000"
 4198      655F6275 
 4198      66666572 
 4198      00
 4199              	.LASF43:
 4200 0928 705F666C 		.ascii	"p_flags\000"
 4200      61677300 
 4201              	.LASF74:
 4202 0930 76745F64 		.ascii	"vt_delta\000"
 4202      656C7461 
 4202      00
 4203              	.LASF173:
 4204 0939 63685379 		.ascii	"chSysUnlock\000"
ARM GAS  /var/folders/km/q6jdms0143g2bddz5bhvdfd00000gn/T//ccnwGrRw.s 			page 82


 4204      73556E6C 
 4204      6F636B00 
 4205              	.LASF168:
 4206 0945 6368506F 		.ascii	"chPoolLoadArray\000"
 4206      6F6C4C6F 
 4206      61644172 
 4206      72617900 
 4207              	.LASF117:
 4208 0955 6D5F6372 		.ascii	"m_crit_thd\000"
 4208      69745F74 
 4208      686400
 4209              	.LASF132:
 4210 0960 6D5F6F77 		.ascii	"m_owner\000"
 4210      6E657200 
 4211              	.LASF101:
 4212 0968 73655F77 		.ascii	"se_wtobjp\000"
 4212      746F626A 
 4212      7000
 4213              	.LASF136:
 4214 0972 63685F69 		.ascii	"ch_identifier\000"
 4214      64656E74 
 4214      69666965 
 4214      7200
 4215              	.LASF75:
 4216 0980 76745F66 		.ascii	"vt_func\000"
 4216      756E6300 
 4217              		.ident	"GCC: (GNU Tools for Arm Embedded Processors 7-2017-q4-major) 7.2.1 20170904 (release) [ARM
ARM GAS  /var/folders/km/q6jdms0143g2bddz5bhvdfd00000gn/T//ccnwGrRw.s 			page 83


DEFINED SYMBOLS
                            *ABS*:0000000000000000 chmempools.c
/var/folders/km/q6jdms0143g2bddz5bhvdfd00000gn/T//ccnwGrRw.s:18     .text.chPoolObjectInit:0000000000000000 $t
/var/folders/km/q6jdms0143g2bddz5bhvdfd00000gn/T//ccnwGrRw.s:26     .text.chPoolObjectInit:0000000000000000 chPoolObjectInit
/var/folders/km/q6jdms0143g2bddz5bhvdfd00000gn/T//ccnwGrRw.s:68     .text.chPoolObjectInit:0000000000000020 $d
/var/folders/km/q6jdms0143g2bddz5bhvdfd00000gn/T//ccnwGrRw.s:73     .text.chPoolAllocI:0000000000000000 $t
/var/folders/km/q6jdms0143g2bddz5bhvdfd00000gn/T//ccnwGrRw.s:81     .text.chPoolAllocI:0000000000000000 chPoolAllocI
/var/folders/km/q6jdms0143g2bddz5bhvdfd00000gn/T//ccnwGrRw.s:148    .text.chPoolAllocI:000000000000002c $d
/var/folders/km/q6jdms0143g2bddz5bhvdfd00000gn/T//ccnwGrRw.s:153    .text.chPoolAlloc:0000000000000000 $t
/var/folders/km/q6jdms0143g2bddz5bhvdfd00000gn/T//ccnwGrRw.s:161    .text.chPoolAlloc:0000000000000000 chPoolAlloc
/var/folders/km/q6jdms0143g2bddz5bhvdfd00000gn/T//ccnwGrRw.s:290    .text.chPoolAlloc:0000000000000050 $d
/var/folders/km/q6jdms0143g2bddz5bhvdfd00000gn/T//ccnwGrRw.s:296    .text.chPoolFreeI:0000000000000000 $t
/var/folders/km/q6jdms0143g2bddz5bhvdfd00000gn/T//ccnwGrRw.s:304    .text.chPoolFreeI:0000000000000000 chPoolFreeI
/var/folders/km/q6jdms0143g2bddz5bhvdfd00000gn/T//ccnwGrRw.s:352    .text.chPoolFreeI:0000000000000024 $d
/var/folders/km/q6jdms0143g2bddz5bhvdfd00000gn/T//ccnwGrRw.s:357    .text.chPoolFree:0000000000000000 $t
/var/folders/km/q6jdms0143g2bddz5bhvdfd00000gn/T//ccnwGrRw.s:365    .text.chPoolFree:0000000000000000 chPoolFree
/var/folders/km/q6jdms0143g2bddz5bhvdfd00000gn/T//ccnwGrRw.s:481    .text.chPoolFree:000000000000004c $d
/var/folders/km/q6jdms0143g2bddz5bhvdfd00000gn/T//ccnwGrRw.s:487    .text.chPoolLoadArray:0000000000000000 $t
/var/folders/km/q6jdms0143g2bddz5bhvdfd00000gn/T//ccnwGrRw.s:495    .text.chPoolLoadArray:0000000000000000 chPoolLoadArray
/var/folders/km/q6jdms0143g2bddz5bhvdfd00000gn/T//ccnwGrRw.s:569    .text.chPoolLoadArray:0000000000000030 $d
/var/folders/km/q6jdms0143g2bddz5bhvdfd00000gn/T//ccnwGrRw.s:574    .rodata.__func__.7153:0000000000000000 $d
/var/folders/km/q6jdms0143g2bddz5bhvdfd00000gn/T//ccnwGrRw.s:578    .rodata.__func__.7153:0000000000000000 __func__.7153
/var/folders/km/q6jdms0143g2bddz5bhvdfd00000gn/T//ccnwGrRw.s:581    .rodata.__func__.7851:0000000000000000 $d
/var/folders/km/q6jdms0143g2bddz5bhvdfd00000gn/T//ccnwGrRw.s:585    .rodata.__func__.7851:0000000000000000 __func__.7851
/var/folders/km/q6jdms0143g2bddz5bhvdfd00000gn/T//ccnwGrRw.s:588    .rodata.__func__.7857:0000000000000000 $d
/var/folders/km/q6jdms0143g2bddz5bhvdfd00000gn/T//ccnwGrRw.s:592    .rodata.__func__.7857:0000000000000000 __func__.7857
/var/folders/km/q6jdms0143g2bddz5bhvdfd00000gn/T//ccnwGrRw.s:595    .rodata.__func__.7865:0000000000000000 $d
/var/folders/km/q6jdms0143g2bddz5bhvdfd00000gn/T//ccnwGrRw.s:599    .rodata.__func__.7865:0000000000000000 __func__.7865
/var/folders/km/q6jdms0143g2bddz5bhvdfd00000gn/T//ccnwGrRw.s:602    .rodata.__func__.7875:0000000000000000 $d
/var/folders/km/q6jdms0143g2bddz5bhvdfd00000gn/T//ccnwGrRw.s:606    .rodata.__func__.7875:0000000000000000 __func__.7875

UNDEFINED SYMBOLS
chSysHalt
chDbgCheckClassI
_stats_start_measure_crit_thd
_dbg_check_lock
_dbg_check_unlock
_stats_stop_measure_crit_thd
ch
