ARM GAS  /var/folders/km/q6jdms0143g2bddz5bhvdfd00000gn/T//ccStLzRV.s 			page 1


   1              		.cpu cortex-m4
   2              		.eabi_attribute 27, 1
   3              		.eabi_attribute 28, 1
   4              		.eabi_attribute 20, 1
   5              		.eabi_attribute 21, 1
   6              		.eabi_attribute 23, 3
   7              		.eabi_attribute 24, 1
   8              		.eabi_attribute 25, 1
   9              		.eabi_attribute 26, 1
  10              		.eabi_attribute 30, 2
  11              		.eabi_attribute 34, 1
  12              		.eabi_attribute 18, 4
  13              		.file	"chregistry.c"
  14              		.text
  15              	.Ltext0:
  16              		.cfi_sections	.debug_frame
  17              		.section	.text.chRegFirstThread,"ax",%progbits
  18              		.align	1
  19              		.p2align 4,,15
  20              		.global	chRegFirstThread
  21              		.syntax unified
  22              		.thumb
  23              		.thumb_func
  24              		.fpu fpv4-sp-d16
  25              		.type	chRegFirstThread, %function
  26              	chRegFirstThread:
  27              	.LFB219:
  28              		.file 1 "../../lib/ChibiOS/os/rt/src/chregistry.c"
  29              		.loc 1 131 0
  30              		.cfi_startproc
  31              		@ args = 0, pretend = 0, frame = 0
  32              		@ frame_needed = 0, uses_anonymous_args = 0
  33              	.LVL0:
  34 0000 38B5     		push	{r3, r4, r5, lr}
  35              		.cfi_def_cfa_offset 16
  36              		.cfi_offset 3, -16
  37              		.cfi_offset 4, -12
  38              		.cfi_offset 5, -8
  39              		.cfi_offset 14, -4
  40              	.LBB34:
  41              	.LBB35:
  42              	.LBB36:
  43              	.LBB37:
  44              	.LBB38:
  45              		.file 2 "../../lib/ChibiOS/os/ext/CMSIS/include/core_cmFunc.h"
  46              		.loc 2 546 0
  47 0002 2023     		movs	r3, #32
  48              		.syntax unified
  49              	@ 546 "../../lib/ChibiOS/os/ext/CMSIS/include/core_cmFunc.h" 1
  50 0004 83F31188 		MSR basepri, r3
  51              	@ 0 "" 2
  52              	.LVL1:
  53              		.thumb
  54              		.syntax unified
  55              	.LBE38:
  56              	.LBE37:
  57              	.LBE36:
ARM GAS  /var/folders/km/q6jdms0143g2bddz5bhvdfd00000gn/T//ccStLzRV.s 			page 2


  58              	.LBE35:
  59              	.LBE34:
  60              		.loc 1 135 0
  61 0008 114C     		ldr	r4, .L6
  62              	.LBB40:
  63              	.LBB39:
  64              		.file 3 "../../lib/ChibiOS/os/rt/include/chsys.h"
  65              		.loc 3 349 0
  66 000a FFF7FEFF 		bl	_stats_start_measure_crit_thd
  67              	.LVL2:
  68              		.loc 3 350 0
  69 000e FFF7FEFF 		bl	_dbg_check_lock
  70              	.LVL3:
  71              	.LBE39:
  72              	.LBE40:
  73              		.loc 1 135 0
  74 0012 2569     		ldr	r5, [r4, #16]
  75              	.LVL4:
  76              		.loc 1 137 0
  77 0014 95F82230 		ldrb	r3, [r5, #34]	@ zero_extendqisi2
  78 0018 0133     		adds	r3, r3, #1
  79 001a 85F82230 		strb	r3, [r5, #34]
  80              	.LBB41:
  81              	.LBB42:
  82              		.loc 3 360 0
  83 001e FFF7FEFF 		bl	_dbg_check_unlock
  84              	.LVL5:
  85              		.loc 3 361 0
  86 0022 FFF7FEFF 		bl	_stats_stop_measure_crit_thd
  87              	.LVL6:
  88              		.loc 3 367 0
  89 0026 2368     		ldr	r3, [r4]
  90 0028 A342     		cmp	r3, r4
  91 002a 04D0     		beq	.L2
  92 002c A269     		ldr	r2, [r4, #24]
  93 002e 9B68     		ldr	r3, [r3, #8]
  94 0030 9268     		ldr	r2, [r2, #8]
  95 0032 9A42     		cmp	r2, r3
  96 0034 04D3     		bcc	.L5
  97              	.L2:
  98              	.LVL7:
  99              	.LBB43:
 100              	.LBB44:
 101              	.LBB45:
 102              		.loc 2 546 0
 103 0036 0023     		movs	r3, #0
 104              		.syntax unified
 105              	@ 546 "../../lib/ChibiOS/os/ext/CMSIS/include/core_cmFunc.h" 1
 106 0038 83F31188 		MSR basepri, r3
 107              	@ 0 "" 2
 108              	.LVL8:
 109              		.thumb
 110              		.syntax unified
 111              	.LBE45:
 112              	.LBE44:
 113              	.LBE43:
 114              	.LBE42:
ARM GAS  /var/folders/km/q6jdms0143g2bddz5bhvdfd00000gn/T//ccStLzRV.s 			page 3


 115              	.LBE41:
 116              		.loc 1 142 0
 117 003c 2846     		mov	r0, r5
 118 003e 38BD     		pop	{r3, r4, r5, pc}
 119              	.LVL9:
 120              	.L5:
 121              	.LBB50:
 122              	.LBB49:
 123              		.loc 3 367 0
 124 0040 0448     		ldr	r0, .L6+4
 125 0042 FFF7FEFF 		bl	chSysHalt
 126              	.LVL10:
 127              	.LBB48:
 128              	.LBB47:
 129              	.LBB46:
 130              		.loc 2 546 0
 131 0046 0023     		movs	r3, #0
 132              		.syntax unified
 133              	@ 546 "../../lib/ChibiOS/os/ext/CMSIS/include/core_cmFunc.h" 1
 134 0048 83F31188 		MSR basepri, r3
 135              	@ 0 "" 2
 136              	.LVL11:
 137              		.thumb
 138              		.syntax unified
 139              	.LBE46:
 140              	.LBE47:
 141              	.LBE48:
 142              	.LBE49:
 143              	.LBE50:
 144              		.loc 1 142 0
 145 004c 2846     		mov	r0, r5
 146 004e 38BD     		pop	{r3, r4, r5, pc}
 147              	.LVL12:
 148              	.L7:
 149              		.align	2
 150              	.L6:
 151 0050 00000000 		.word	ch
 152 0054 00000000 		.word	.LANCHOR0
 153              		.cfi_endproc
 154              	.LFE219:
 155              		.size	chRegFirstThread, .-chRegFirstThread
 156              		.section	.text.chRegNextThread,"ax",%progbits
 157              		.align	1
 158              		.p2align 4,,15
 159              		.global	chRegNextThread
 160              		.syntax unified
 161              		.thumb
 162              		.thumb_func
 163              		.fpu fpv4-sp-d16
 164              		.type	chRegNextThread, %function
 165              	chRegNextThread:
 166              	.LFB220:
 167              		.loc 1 155 0
 168              		.cfi_startproc
 169              		@ args = 0, pretend = 0, frame = 0
 170              		@ frame_needed = 0, uses_anonymous_args = 0
 171              	.LVL13:
ARM GAS  /var/folders/km/q6jdms0143g2bddz5bhvdfd00000gn/T//ccStLzRV.s 			page 4


 172 0000 70B5     		push	{r4, r5, r6, lr}
 173              		.cfi_def_cfa_offset 16
 174              		.cfi_offset 4, -16
 175              		.cfi_offset 5, -12
 176              		.cfi_offset 6, -8
 177              		.cfi_offset 14, -4
 178              	.LBB61:
 179              	.LBB62:
 180              	.LBB63:
 181              	.LBB64:
 182              	.LBB65:
 183              		.loc 2 546 0
 184 0002 2023     		movs	r3, #32
 185              	.LBE65:
 186              	.LBE64:
 187              	.LBE63:
 188              	.LBE62:
 189              	.LBE61:
 190              		.loc 1 155 0
 191 0004 0646     		mov	r6, r0
 192              	.LBB71:
 193              	.LBB69:
 194              	.LBB68:
 195              	.LBB67:
 196              	.LBB66:
 197              		.loc 2 546 0
 198              		.syntax unified
 199              	@ 546 "../../lib/ChibiOS/os/ext/CMSIS/include/core_cmFunc.h" 1
 200 0006 83F31188 		MSR basepri, r3
 201              	@ 0 "" 2
 202              	.LVL14:
 203              		.thumb
 204              		.syntax unified
 205              	.LBE66:
 206              	.LBE67:
 207              	.LBE68:
 208              		.loc 3 349 0
 209 000a FFF7FEFF 		bl	_stats_start_measure_crit_thd
 210              	.LVL15:
 211              	.LBE69:
 212              	.LBE71:
 213              		.loc 1 161 0
 214 000e 164D     		ldr	r5, .L16
 215              	.LBB72:
 216              	.LBB70:
 217              		.loc 3 350 0
 218 0010 FFF7FEFF 		bl	_dbg_check_lock
 219              	.LVL16:
 220              	.LBE70:
 221              	.LBE72:
 222              		.loc 1 159 0
 223 0014 3469     		ldr	r4, [r6, #16]
 224              	.LVL17:
 225              		.loc 1 161 0
 226 0016 AC42     		cmp	r4, r5
 227 0018 24D0     		beq	.L12
 228              		.loc 1 167 0 discriminator 1
ARM GAS  /var/folders/km/q6jdms0143g2bddz5bhvdfd00000gn/T//ccStLzRV.s 			page 5


 229 001a 94F82230 		ldrb	r3, [r4, #34]	@ zero_extendqisi2
 230 001e FF2B     		cmp	r3, #255
 231 0020 1AD0     		beq	.L14
 232              	.L10:
 233              		.loc 1 168 0
 234 0022 0133     		adds	r3, r3, #1
 235 0024 84F82230 		strb	r3, [r4, #34]
 236              	.LVL18:
 237              	.L9:
 238              	.LBB73:
 239              	.LBB74:
 240              		.loc 3 360 0
 241 0028 FFF7FEFF 		bl	_dbg_check_unlock
 242              	.LVL19:
 243              		.loc 3 361 0
 244 002c FFF7FEFF 		bl	_stats_stop_measure_crit_thd
 245              	.LVL20:
 246              		.loc 3 367 0
 247 0030 2B68     		ldr	r3, [r5]
 248 0032 AB42     		cmp	r3, r5
 249 0034 04D0     		beq	.L11
 250 0036 AA69     		ldr	r2, [r5, #24]
 251 0038 9B68     		ldr	r3, [r3, #8]
 252 003a 9268     		ldr	r2, [r2, #8]
 253 003c 9A42     		cmp	r2, r3
 254 003e 07D3     		bcc	.L15
 255              	.L11:
 256              	.LVL21:
 257              	.LBB75:
 258              	.LBB76:
 259              	.LBB77:
 260              		.loc 2 546 0
 261 0040 0023     		movs	r3, #0
 262              		.syntax unified
 263              	@ 546 "../../lib/ChibiOS/os/ext/CMSIS/include/core_cmFunc.h" 1
 264 0042 83F31188 		MSR basepri, r3
 265              	@ 0 "" 2
 266              	.LVL22:
 267              		.thumb
 268              		.syntax unified
 269              	.LBE77:
 270              	.LBE76:
 271              	.LBE75:
 272              	.LBE74:
 273              	.LBE73:
 274              		.loc 1 173 0
 275 0046 3046     		mov	r0, r6
 276 0048 FFF7FEFF 		bl	chThdRelease
 277              	.LVL23:
 278              		.loc 1 177 0
 279 004c 2046     		mov	r0, r4
 280 004e 70BD     		pop	{r4, r5, r6, pc}
 281              	.LVL24:
 282              	.L15:
 283              	.LBB79:
 284              	.LBB78:
 285              		.loc 3 367 0
ARM GAS  /var/folders/km/q6jdms0143g2bddz5bhvdfd00000gn/T//ccStLzRV.s 			page 6


 286 0050 0648     		ldr	r0, .L16+4
 287 0052 FFF7FEFF 		bl	chSysHalt
 288              	.LVL25:
 289 0056 F3E7     		b	.L11
 290              	.L14:
 291              	.LBE78:
 292              	.LBE79:
 293              		.loc 1 167 0 discriminator 2
 294 0058 0548     		ldr	r0, .L16+8
 295 005a FFF7FEFF 		bl	chSysHalt
 296              	.LVL26:
 297 005e 94F82230 		ldrb	r3, [r4, #34]	@ zero_extendqisi2
 298 0062 DEE7     		b	.L10
 299              	.L12:
 300              		.loc 1 163 0
 301 0064 0024     		movs	r4, #0
 302              	.LVL27:
 303 0066 DFE7     		b	.L9
 304              	.L17:
 305              		.align	2
 306              	.L16:
 307 0068 00000000 		.word	ch
 308 006c 00000000 		.word	.LANCHOR0
 309 0070 00000000 		.word	.LANCHOR1
 310              		.cfi_endproc
 311              	.LFE220:
 312              		.size	chRegNextThread, .-chRegNextThread
 313              		.global	ch_debug
 314              		.section	.rodata.__func__.7153,"a",%progbits
 315              		.align	2
 316              		.set	.LANCHOR0,. + 0
 317              		.type	__func__.7153, %object
 318              		.size	__func__.7153, 12
 319              	__func__.7153:
 320 0000 63685379 		.ascii	"chSysUnlock\000"
 320      73556E6C 
 320      6F636B00 
 321              		.section	.rodata.__func__.7855,"a",%progbits
 322              		.align	2
 323              		.set	.LANCHOR1,. + 0
 324              		.type	__func__.7855, %object
 325              		.size	__func__.7855, 16
 326              	__func__.7855:
 327 0000 63685265 		.ascii	"chRegNextThread\000"
 327      674E6578 
 327      74546872 
 327      65616400 
 328              		.section	.rodata.ch_debug,"a",%progbits
 329              		.align	2
 330              		.type	ch_debug, %object
 331              		.size	ch_debug, 22
 332              	ch_debug:
 333 0000 6D       		.byte	109
 334 0001 61       		.byte	97
 335 0002 69       		.byte	105
 336 0003 6E       		.byte	110
 337 0004 00       		.byte	0
ARM GAS  /var/folders/km/q6jdms0143g2bddz5bhvdfd00000gn/T//ccStLzRV.s 			page 7


 338 0005 16       		.byte	22
 339 0006 0118     		.short	6145
 340 0008 04       		.byte	4
 341 0009 04       		.byte	4
 342 000a 68       		.byte	104
 343 000b 08       		.byte	8
 344 000c 0C       		.byte	12
 345 000d 10       		.byte	16
 346 000e 14       		.byte	20
 347 000f 18       		.byte	24
 348 0010 1C       		.byte	28
 349 0011 20       		.byte	32
 350 0012 21       		.byte	33
 351 0013 22       		.byte	34
 352 0014 23       		.byte	35
 353 0015 24       		.byte	36
 354              		.text
 355              	.Letext0:
 356              		.file 4 "/Applications/Eclipse_e-puck2.app/Contents/Eclipse_e-puck2/Tools/gcc-arm-none-eabi-7-2017
 357              		.file 5 "/Applications/Eclipse_e-puck2.app/Contents/Eclipse_e-puck2/Tools/gcc-arm-none-eabi-7-2017
 358              		.file 6 "/Applications/Eclipse_e-puck2.app/Contents/Eclipse_e-puck2/Tools/gcc-arm-none-eabi-7-2017
 359              		.file 7 "../../lib/ChibiOS/os/rt/ports/ARMCMx/compilers/GCC/chtypes.h"
 360              		.file 8 "../../lib/ChibiOS/os/rt/include/chsystypes.h"
 361              		.file 9 "../../lib/ChibiOS/os/rt/include/chschd.h"
 362              		.file 10 "../../lib/ChibiOS/os/ext/CMSIS/include/core_cm4.h"
 363              		.file 11 "../../lib/ChibiOS/os/ext/CMSIS/ST/system_stm32f4xx.h"
 364              		.file 12 "../../lib/ChibiOS/os/rt/ports/ARMCMx/chcore.h"
 365              		.file 13 "../../lib/ChibiOS/os/rt/ports/ARMCMx/chcore_v7m.h"
 366              		.file 14 "../../lib/ChibiOS/os/rt/include/chdebug.h"
 367              		.file 15 "../../lib/ChibiOS/os/rt/include/chtm.h"
 368              		.file 16 "../../lib/ChibiOS/os/rt/include/chstats.h"
 369              		.file 17 "../../lib/ChibiOS/os/rt/include/chsem.h"
 370              		.file 18 "../../lib/ChibiOS/os/rt/include/chmtx.h"
 371              		.file 19 "../../lib/ChibiOS/os/rt/include/chregistry.h"
 372              		.file 20 "../../lib/ChibiOS/os/rt/include/chdynamic.h"
 373              		.section	.debug_info,"",%progbits
 374              	.Ldebug_info0:
 375 0000 DF0C0000 		.4byte	0xcdf
 376 0004 0400     		.2byte	0x4
 377 0006 00000000 		.4byte	.Ldebug_abbrev0
 378 000a 04       		.byte	0x4
 379 000b 01       		.uleb128 0x1
 380 000c 9D020000 		.4byte	.LASF171
 381 0010 0C       		.byte	0xc
 382 0011 61040000 		.4byte	.LASF172
 383 0015 D0030000 		.4byte	.LASF173
 384 0019 98000000 		.4byte	.Ldebug_ranges0+0x98
 385 001d 00000000 		.4byte	0
 386 0021 00000000 		.4byte	.Ldebug_line0
 387 0025 02       		.uleb128 0x2
 388 0026 04       		.byte	0x4
 389 0027 05       		.byte	0x5
 390 0028 696E7400 		.ascii	"int\000"
 391 002c 03       		.uleb128 0x3
 392 002d 22000000 		.4byte	.LASF4
 393 0031 04       		.byte	0x4
 394 0032 D8       		.byte	0xd8
ARM GAS  /var/folders/km/q6jdms0143g2bddz5bhvdfd00000gn/T//ccStLzRV.s 			page 8


 395 0033 37000000 		.4byte	0x37
 396 0037 04       		.uleb128 0x4
 397 0038 04       		.byte	0x4
 398 0039 07       		.byte	0x7
 399 003a 61020000 		.4byte	.LASF0
 400 003e 04       		.uleb128 0x4
 401 003f 08       		.byte	0x8
 402 0040 05       		.byte	0x5
 403 0041 43010000 		.4byte	.LASF1
 404 0045 04       		.uleb128 0x4
 405 0046 08       		.byte	0x8
 406 0047 04       		.byte	0x4
 407 0048 77050000 		.4byte	.LASF2
 408 004c 04       		.uleb128 0x4
 409 004d 01       		.byte	0x1
 410 004e 06       		.byte	0x6
 411 004f 51010000 		.4byte	.LASF3
 412 0053 03       		.uleb128 0x3
 413 0054 46000000 		.4byte	.LASF5
 414 0058 05       		.byte	0x5
 415 0059 2B       		.byte	0x2b
 416 005a 5E000000 		.4byte	0x5e
 417 005e 04       		.uleb128 0x4
 418 005f 01       		.byte	0x1
 419 0060 08       		.byte	0x8
 420 0061 51060000 		.4byte	.LASF6
 421 0065 04       		.uleb128 0x4
 422 0066 02       		.byte	0x2
 423 0067 05       		.byte	0x5
 424 0068 6F060000 		.4byte	.LASF7
 425 006c 03       		.uleb128 0x3
 426 006d 90070000 		.4byte	.LASF8
 427 0071 05       		.byte	0x5
 428 0072 39       		.byte	0x39
 429 0073 77000000 		.4byte	0x77
 430 0077 04       		.uleb128 0x4
 431 0078 02       		.byte	0x2
 432 0079 07       		.byte	0x7
 433 007a 35040000 		.4byte	.LASF9
 434 007e 03       		.uleb128 0x3
 435 007f D3040000 		.4byte	.LASF10
 436 0083 05       		.byte	0x5
 437 0084 4D       		.byte	0x4d
 438 0085 89000000 		.4byte	0x89
 439 0089 04       		.uleb128 0x4
 440 008a 04       		.byte	0x4
 441 008b 05       		.byte	0x5
 442 008c B7010000 		.4byte	.LASF11
 443 0090 03       		.uleb128 0x3
 444 0091 CE070000 		.4byte	.LASF12
 445 0095 05       		.byte	0x5
 446 0096 4F       		.byte	0x4f
 447 0097 9B000000 		.4byte	0x9b
 448 009b 04       		.uleb128 0x4
 449 009c 04       		.byte	0x4
 450 009d 07       		.byte	0x7
 451 009e 62070000 		.4byte	.LASF13
ARM GAS  /var/folders/km/q6jdms0143g2bddz5bhvdfd00000gn/T//ccStLzRV.s 			page 9


 452 00a2 03       		.uleb128 0x3
 453 00a3 E8050000 		.4byte	.LASF14
 454 00a7 05       		.byte	0x5
 455 00a8 69       		.byte	0x69
 456 00a9 AD000000 		.4byte	0xad
 457 00ad 04       		.uleb128 0x4
 458 00ae 08       		.byte	0x8
 459 00af 07       		.byte	0x7
 460 00b0 9F000000 		.4byte	.LASF15
 461 00b4 03       		.uleb128 0x3
 462 00b5 3F080000 		.4byte	.LASF16
 463 00b9 06       		.byte	0x6
 464 00ba 18       		.byte	0x18
 465 00bb 53000000 		.4byte	0x53
 466 00bf 03       		.uleb128 0x3
 467 00c0 76020000 		.4byte	.LASF17
 468 00c4 06       		.byte	0x6
 469 00c5 24       		.byte	0x24
 470 00c6 6C000000 		.4byte	0x6c
 471 00ca 03       		.uleb128 0x3
 472 00cb 49060000 		.4byte	.LASF18
 473 00cf 06       		.byte	0x6
 474 00d0 2C       		.byte	0x2c
 475 00d1 7E000000 		.4byte	0x7e
 476 00d5 05       		.uleb128 0x5
 477 00d6 CA000000 		.4byte	0xca
 478 00da 03       		.uleb128 0x3
 479 00db 2D070000 		.4byte	.LASF19
 480 00df 06       		.byte	0x6
 481 00e0 30       		.byte	0x30
 482 00e1 90000000 		.4byte	0x90
 483 00e5 03       		.uleb128 0x3
 484 00e6 30000000 		.4byte	.LASF20
 485 00ea 06       		.byte	0x6
 486 00eb 3C       		.byte	0x3c
 487 00ec A2000000 		.4byte	0xa2
 488 00f0 03       		.uleb128 0x3
 489 00f1 48050000 		.4byte	.LASF21
 490 00f5 07       		.byte	0x7
 491 00f6 45       		.byte	0x45
 492 00f7 DA000000 		.4byte	0xda
 493 00fb 03       		.uleb128 0x3
 494 00fc 26010000 		.4byte	.LASF22
 495 0100 07       		.byte	0x7
 496 0101 46       		.byte	0x46
 497 0102 E5000000 		.4byte	0xe5
 498 0106 03       		.uleb128 0x3
 499 0107 A0060000 		.4byte	.LASF23
 500 010b 07       		.byte	0x7
 501 010c 48       		.byte	0x48
 502 010d B4000000 		.4byte	0xb4
 503 0111 03       		.uleb128 0x3
 504 0112 C0010000 		.4byte	.LASF24
 505 0116 07       		.byte	0x7
 506 0117 49       		.byte	0x49
 507 0118 B4000000 		.4byte	0xb4
 508 011c 03       		.uleb128 0x3
ARM GAS  /var/folders/km/q6jdms0143g2bddz5bhvdfd00000gn/T//ccStLzRV.s 			page 10


 509 011d FE050000 		.4byte	.LASF25
 510 0121 07       		.byte	0x7
 511 0122 4A       		.byte	0x4a
 512 0123 B4000000 		.4byte	0xb4
 513 0127 03       		.uleb128 0x3
 514 0128 9D010000 		.4byte	.LASF26
 515 012c 07       		.byte	0x7
 516 012d 4B       		.byte	0x4b
 517 012e B4000000 		.4byte	0xb4
 518 0132 03       		.uleb128 0x3
 519 0133 38060000 		.4byte	.LASF27
 520 0137 07       		.byte	0x7
 521 0138 4C       		.byte	0x4c
 522 0139 DA000000 		.4byte	0xda
 523 013d 03       		.uleb128 0x3
 524 013e 32060000 		.4byte	.LASF28
 525 0142 07       		.byte	0x7
 526 0143 4D       		.byte	0x4d
 527 0144 CA000000 		.4byte	0xca
 528 0148 03       		.uleb128 0x3
 529 0149 C7040000 		.4byte	.LASF29
 530 014d 07       		.byte	0x7
 531 014e 4F       		.byte	0x4f
 532 014f DA000000 		.4byte	0xda
 533 0153 03       		.uleb128 0x3
 534 0154 50020000 		.4byte	.LASF30
 535 0158 07       		.byte	0x7
 536 0159 51       		.byte	0x51
 537 015a CA000000 		.4byte	0xca
 538 015e 03       		.uleb128 0x3
 539 015f 8F040000 		.4byte	.LASF31
 540 0163 07       		.byte	0x7
 541 0164 52       		.byte	0x52
 542 0165 DA000000 		.4byte	0xda
 543 0169 03       		.uleb128 0x3
 544 016a B0070000 		.4byte	.LASF32
 545 016e 08       		.byte	0x8
 546 016f 33       		.byte	0x33
 547 0170 DA000000 		.4byte	0xda
 548 0174 05       		.uleb128 0x5
 549 0175 69010000 		.4byte	0x169
 550 0179 03       		.uleb128 0x3
 551 017a 9B070000 		.4byte	.LASF33
 552 017e 08       		.byte	0x8
 553 017f 3F       		.byte	0x3f
 554 0180 84010000 		.4byte	0x184
 555 0184 06       		.uleb128 0x6
 556 0185 57040000 		.4byte	.LASF57
 557 0189 68       		.byte	0x68
 558 018a 09       		.byte	0x9
 559 018b C2       		.byte	0xc2
 560 018c A2020000 		.4byte	0x2a2
 561 0190 07       		.uleb128 0x7
 562 0191 99060000 		.4byte	.LASF34
 563 0195 09       		.byte	0x9
 564 0196 C3       		.byte	0xc3
 565 0197 AD020000 		.4byte	0x2ad
ARM GAS  /var/folders/km/q6jdms0143g2bddz5bhvdfd00000gn/T//ccStLzRV.s 			page 11


 566 019b 00       		.byte	0
 567 019c 07       		.uleb128 0x7
 568 019d 2B060000 		.4byte	.LASF35
 569 01a1 09       		.byte	0x9
 570 01a2 C5       		.byte	0xc5
 571 01a3 AD020000 		.4byte	0x2ad
 572 01a7 04       		.byte	0x4
 573 01a8 07       		.uleb128 0x7
 574 01a9 2F010000 		.4byte	.LASF36
 575 01ad 09       		.byte	0x9
 576 01ae C7       		.byte	0xc7
 577 01af 32010000 		.4byte	0x132
 578 01b3 08       		.byte	0x8
 579 01b4 07       		.uleb128 0x7
 580 01b5 BF050000 		.4byte	.LASF37
 581 01b9 09       		.byte	0x9
 582 01ba C8       		.byte	0xc8
 583 01bb 26050000 		.4byte	0x526
 584 01bf 0C       		.byte	0xc
 585 01c0 07       		.uleb128 0x7
 586 01c1 D9010000 		.4byte	.LASF38
 587 01c5 09       		.byte	0x9
 588 01c6 CA       		.byte	0xca
 589 01c7 AD020000 		.4byte	0x2ad
 590 01cb 10       		.byte	0x10
 591 01cc 07       		.uleb128 0x7
 592 01cd B1050000 		.4byte	.LASF39
 593 01d1 09       		.byte	0x9
 594 01d2 CB       		.byte	0xcb
 595 01d3 AD020000 		.4byte	0x2ad
 596 01d7 14       		.byte	0x14
 597 01d8 07       		.uleb128 0x7
 598 01d9 73080000 		.4byte	.LASF40
 599 01dd 09       		.byte	0x9
 600 01de D2       		.byte	0xd2
 601 01df 9C080000 		.4byte	0x89c
 602 01e3 18       		.byte	0x18
 603 01e4 07       		.uleb128 0x7
 604 01e5 56020000 		.4byte	.LASF41
 605 01e9 09       		.byte	0x9
 606 01ea D8       		.byte	0xd8
 607 01eb B3080000 		.4byte	0x8b3
 608 01ef 1C       		.byte	0x1c
 609 01f0 07       		.uleb128 0x7
 610 01f1 79060000 		.4byte	.LASF42
 611 01f5 09       		.byte	0x9
 612 01f6 DD       		.byte	0xdd
 613 01f7 11010000 		.4byte	0x111
 614 01fb 20       		.byte	0x20
 615 01fc 07       		.uleb128 0x7
 616 01fd B7060000 		.4byte	.LASF43
 617 0201 09       		.byte	0x9
 618 0202 E1       		.byte	0xe1
 619 0203 06010000 		.4byte	0x106
 620 0207 21       		.byte	0x21
 621 0208 07       		.uleb128 0x7
 622 0209 21080000 		.4byte	.LASF44
ARM GAS  /var/folders/km/q6jdms0143g2bddz5bhvdfd00000gn/T//ccStLzRV.s 			page 12


 623 020d 09       		.byte	0x9
 624 020e E6       		.byte	0xe6
 625 020f 1C010000 		.4byte	0x11c
 626 0213 22       		.byte	0x22
 627 0214 07       		.uleb128 0x7
 628 0215 81060000 		.4byte	.LASF45
 629 0219 09       		.byte	0x9
 630 021a EC       		.byte	0xec
 631 021b 27010000 		.4byte	0x127
 632 021f 23       		.byte	0x23
 633 0220 07       		.uleb128 0x7
 634 0221 8F020000 		.4byte	.LASF46
 635 0225 09       		.byte	0x9
 636 0226 F3       		.byte	0xf3
 637 0227 74010000 		.4byte	0x174
 638 022b 24       		.byte	0x24
 639 022c 08       		.uleb128 0x8
 640 022d 705F7500 		.ascii	"p_u\000"
 641 0231 09       		.byte	0x9
 642 0232 3101     		.2byte	0x131
 643 0234 CB070000 		.4byte	0x7cb
 644 0238 28       		.byte	0x28
 645 0239 09       		.uleb128 0x9
 646 023a 21050000 		.4byte	.LASF47
 647 023e 09       		.byte	0x9
 648 023f 3601     		.2byte	0x136
 649 0241 B3020000 		.4byte	0x2b3
 650 0245 2C       		.byte	0x2c
 651 0246 09       		.uleb128 0x9
 652 0247 B6030000 		.4byte	.LASF48
 653 024b 09       		.byte	0x9
 654 024c 3C01     		.2byte	0x13c
 655 024e D7020000 		.4byte	0x2d7
 656 0252 30       		.byte	0x30
 657 0253 09       		.uleb128 0x9
 658 0254 00080000 		.4byte	.LASF49
 659 0258 09       		.byte	0x9
 660 0259 4001     		.2byte	0x140
 661 025b 3D010000 		.4byte	0x13d
 662 025f 38       		.byte	0x38
 663 0260 09       		.uleb128 0x9
 664 0261 22070000 		.4byte	.LASF50
 665 0265 09       		.byte	0x9
 666 0266 4601     		.2byte	0x146
 667 0268 48010000 		.4byte	0x148
 668 026c 3C       		.byte	0x3c
 669 026d 09       		.uleb128 0x9
 670 026e 65060000 		.4byte	.LASF51
 671 0272 09       		.byte	0x9
 672 0273 4D01     		.2byte	0x14d
 673 0275 96080000 		.4byte	0x896
 674 0279 40       		.byte	0x40
 675 027a 09       		.uleb128 0x9
 676 027b BA070000 		.4byte	.LASF52
 677 027f 09       		.byte	0x9
 678 0280 5101     		.2byte	0x151
 679 0282 32010000 		.4byte	0x132
ARM GAS  /var/folders/km/q6jdms0143g2bddz5bhvdfd00000gn/T//ccStLzRV.s 			page 13


 680 0286 44       		.byte	0x44
 681 0287 09       		.uleb128 0x9
 682 0288 7A010000 		.4byte	.LASF53
 683 028c 09       		.byte	0x9
 684 028d 5801     		.2byte	0x158
 685 028f 8A030000 		.4byte	0x38a
 686 0293 48       		.byte	0x48
 687 0294 09       		.uleb128 0x9
 688 0295 C8060000 		.4byte	.LASF54
 689 0299 09       		.byte	0x9
 690 029a 5E01     		.2byte	0x15e
 691 029c 7C070000 		.4byte	0x77c
 692 02a0 50       		.byte	0x50
 693 02a1 00       		.byte	0
 694 02a2 03       		.uleb128 0x3
 695 02a3 59080000 		.4byte	.LASF55
 696 02a7 08       		.byte	0x8
 697 02a8 44       		.byte	0x44
 698 02a9 AD020000 		.4byte	0x2ad
 699 02ad 0A       		.uleb128 0xa
 700 02ae 04       		.byte	0x4
 701 02af 79010000 		.4byte	0x179
 702 02b3 03       		.uleb128 0x3
 703 02b4 FE040000 		.4byte	.LASF56
 704 02b8 08       		.byte	0x8
 705 02b9 49       		.byte	0x49
 706 02ba BE020000 		.4byte	0x2be
 707 02be 06       		.uleb128 0x6
 708 02bf 4A070000 		.4byte	.LASF58
 709 02c3 04       		.byte	0x4
 710 02c4 09       		.byte	0x9
 711 02c5 B0       		.byte	0xb0
 712 02c6 D7020000 		.4byte	0x2d7
 713 02ca 07       		.uleb128 0x7
 714 02cb 99060000 		.4byte	.LASF34
 715 02cf 09       		.byte	0x9
 716 02d0 B1       		.byte	0xb1
 717 02d1 AD020000 		.4byte	0x2ad
 718 02d5 00       		.byte	0
 719 02d6 00       		.byte	0
 720 02d7 03       		.uleb128 0x3
 721 02d8 E7060000 		.4byte	.LASF59
 722 02dc 08       		.byte	0x8
 723 02dd 50       		.byte	0x50
 724 02de E2020000 		.4byte	0x2e2
 725 02e2 06       		.uleb128 0x6
 726 02e3 5C000000 		.4byte	.LASF60
 727 02e7 08       		.byte	0x8
 728 02e8 09       		.byte	0x9
 729 02e9 B7       		.byte	0xb7
 730 02ea 07030000 		.4byte	0x307
 731 02ee 07       		.uleb128 0x7
 732 02ef 99060000 		.4byte	.LASF34
 733 02f3 09       		.byte	0x9
 734 02f4 B8       		.byte	0xb8
 735 02f5 AD020000 		.4byte	0x2ad
 736 02f9 00       		.byte	0
ARM GAS  /var/folders/km/q6jdms0143g2bddz5bhvdfd00000gn/T//ccStLzRV.s 			page 14


 737 02fa 07       		.uleb128 0x7
 738 02fb 2B060000 		.4byte	.LASF35
 739 02ff 09       		.byte	0x9
 740 0300 B9       		.byte	0xb9
 741 0301 AD020000 		.4byte	0x2ad
 742 0305 04       		.byte	0x4
 743 0306 00       		.byte	0
 744 0307 03       		.uleb128 0x3
 745 0308 0D000000 		.4byte	.LASF61
 746 030c 08       		.byte	0x8
 747 030d 57       		.byte	0x57
 748 030e 12030000 		.4byte	0x312
 749 0312 0B       		.uleb128 0xb
 750 0313 B9040000 		.4byte	.LASF62
 751 0317 1C       		.byte	0x1c
 752 0318 09       		.byte	0x9
 753 0319 9001     		.2byte	0x190
 754 031b 6E030000 		.4byte	0x36e
 755 031f 09       		.uleb128 0x9
 756 0320 42070000 		.4byte	.LASF63
 757 0324 09       		.byte	0x9
 758 0325 9101     		.2byte	0x191
 759 0327 D7020000 		.4byte	0x2d7
 760 032b 00       		.byte	0
 761 032c 09       		.uleb128 0x9
 762 032d 8B060000 		.4byte	.LASF64
 763 0331 09       		.byte	0x9
 764 0332 9201     		.2byte	0x192
 765 0334 32010000 		.4byte	0x132
 766 0338 08       		.byte	0x8
 767 0339 09       		.uleb128 0x9
 768 033a B9050000 		.4byte	.LASF65
 769 033e 09       		.byte	0x9
 770 033f 9401     		.2byte	0x194
 771 0341 26050000 		.4byte	0x526
 772 0345 0C       		.byte	0xc
 773 0346 09       		.uleb128 0x9
 774 0347 F1010000 		.4byte	.LASF66
 775 034b 09       		.byte	0x9
 776 034c 9701     		.2byte	0x197
 777 034e AD020000 		.4byte	0x2ad
 778 0352 10       		.byte	0x10
 779 0353 09       		.uleb128 0x9
 780 0354 E0050000 		.4byte	.LASF67
 781 0358 09       		.byte	0x9
 782 0359 9801     		.2byte	0x198
 783 035b AD020000 		.4byte	0x2ad
 784 035f 14       		.byte	0x14
 785 0360 09       		.uleb128 0x9
 786 0361 D6050000 		.4byte	.LASF68
 787 0365 09       		.byte	0x9
 788 0366 9B01     		.2byte	0x19b
 789 0368 AD020000 		.4byte	0x2ad
 790 036c 18       		.byte	0x18
 791 036d 00       		.byte	0
 792 036e 03       		.uleb128 0x3
 793 036f C5070000 		.4byte	.LASF69
ARM GAS  /var/folders/km/q6jdms0143g2bddz5bhvdfd00000gn/T//ccStLzRV.s 			page 15


 794 0373 08       		.byte	0x8
 795 0374 5C       		.byte	0x5c
 796 0375 79030000 		.4byte	0x379
 797 0379 0A       		.uleb128 0xa
 798 037a 04       		.byte	0x4
 799 037b 7F030000 		.4byte	0x37f
 800 037f 0C       		.uleb128 0xc
 801 0380 8A030000 		.4byte	0x38a
 802 0384 0D       		.uleb128 0xd
 803 0385 8A030000 		.4byte	0x38a
 804 0389 00       		.byte	0
 805 038a 0E       		.uleb128 0xe
 806 038b 04       		.byte	0x4
 807 038c 03       		.uleb128 0x3
 808 038d 1B060000 		.4byte	.LASF70
 809 0391 08       		.byte	0x8
 810 0392 61       		.byte	0x61
 811 0393 97030000 		.4byte	0x397
 812 0397 0B       		.uleb128 0xb
 813 0398 F7060000 		.4byte	.LASF71
 814 039c 14       		.byte	0x14
 815 039d 09       		.byte	0x9
 816 039e 6B01     		.2byte	0x16b
 817 03a0 E6030000 		.4byte	0x3e6
 818 03a4 09       		.uleb128 0x9
 819 03a5 6E020000 		.4byte	.LASF72
 820 03a9 09       		.byte	0x9
 821 03aa 6C01     		.2byte	0x16c
 822 03ac B9080000 		.4byte	0x8b9
 823 03b0 00       		.byte	0
 824 03b1 09       		.uleb128 0x9
 825 03b2 02020000 		.4byte	.LASF73
 826 03b6 09       		.byte	0x9
 827 03b7 6D01     		.2byte	0x16d
 828 03b9 B9080000 		.4byte	0x8b9
 829 03bd 04       		.byte	0x4
 830 03be 09       		.uleb128 0x9
 831 03bf 92080000 		.4byte	.LASF74
 832 03c3 09       		.byte	0x9
 833 03c4 6E01     		.2byte	0x16e
 834 03c6 69010000 		.4byte	0x169
 835 03ca 08       		.byte	0x8
 836 03cb 09       		.uleb128 0x9
 837 03cc DD080000 		.4byte	.LASF75
 838 03d0 09       		.byte	0x9
 839 03d1 6F01     		.2byte	0x16f
 840 03d3 6E030000 		.4byte	0x36e
 841 03d7 0C       		.byte	0xc
 842 03d8 09       		.uleb128 0x9
 843 03d9 06080000 		.4byte	.LASF76
 844 03dd 09       		.byte	0x9
 845 03de 7101     		.2byte	0x171
 846 03e0 8A030000 		.4byte	0x38a
 847 03e4 10       		.byte	0x10
 848 03e5 00       		.byte	0
 849 03e6 03       		.uleb128 0x3
 850 03e7 DD040000 		.4byte	.LASF77
ARM GAS  /var/folders/km/q6jdms0143g2bddz5bhvdfd00000gn/T//ccStLzRV.s 			page 16


 851 03eb 08       		.byte	0x8
 852 03ec 66       		.byte	0x66
 853 03ed F1030000 		.4byte	0x3f1
 854 03f1 0B       		.uleb128 0xb
 855 03f2 60050000 		.4byte	.LASF78
 856 03f6 10       		.byte	0x10
 857 03f7 09       		.byte	0x9
 858 03f8 7B01     		.2byte	0x17b
 859 03fa 33040000 		.4byte	0x433
 860 03fe 09       		.uleb128 0x9
 861 03ff 6E020000 		.4byte	.LASF72
 862 0403 09       		.byte	0x9
 863 0404 7C01     		.2byte	0x17c
 864 0406 B9080000 		.4byte	0x8b9
 865 040a 00       		.byte	0
 866 040b 09       		.uleb128 0x9
 867 040c 02020000 		.4byte	.LASF73
 868 0410 09       		.byte	0x9
 869 0411 7E01     		.2byte	0x17e
 870 0413 B9080000 		.4byte	0x8b9
 871 0417 04       		.byte	0x4
 872 0418 09       		.uleb128 0x9
 873 0419 92080000 		.4byte	.LASF74
 874 041d 09       		.byte	0x9
 875 041e 8001     		.2byte	0x180
 876 0420 69010000 		.4byte	0x169
 877 0424 08       		.byte	0x8
 878 0425 09       		.uleb128 0x9
 879 0426 7A080000 		.4byte	.LASF79
 880 042a 09       		.byte	0x9
 881 042b 8201     		.2byte	0x182
 882 042d 74010000 		.4byte	0x174
 883 0431 0C       		.byte	0xc
 884 0432 00       		.byte	0
 885 0433 03       		.uleb128 0x3
 886 0434 6D000000 		.4byte	.LASF80
 887 0438 08       		.byte	0x8
 888 0439 6B       		.byte	0x6b
 889 043a 3E040000 		.4byte	0x43e
 890 043e 0F       		.uleb128 0xf
 891 043f 14020000 		.4byte	.LASF81
 892 0443 1404     		.2byte	0x414
 893 0445 09       		.byte	0x9
 894 0446 A201     		.2byte	0x1a2
 895 0448 81040000 		.4byte	0x481
 896 044c 09       		.uleb128 0x9
 897 044d E7070000 		.4byte	.LASF82
 898 0451 09       		.byte	0x9
 899 0452 AA01     		.2byte	0x1aa
 900 0454 A2080000 		.4byte	0x8a2
 901 0458 00       		.byte	0
 902 0459 09       		.uleb128 0x9
 903 045a 28080000 		.4byte	.LASF83
 904 045e 09       		.byte	0x9
 905 045f AF01     		.2byte	0x1af
 906 0461 53010000 		.4byte	0x153
 907 0465 04       		.byte	0x4
ARM GAS  /var/folders/km/q6jdms0143g2bddz5bhvdfd00000gn/T//ccStLzRV.s 			page 17


 908 0466 09       		.uleb128 0x9
 909 0467 38020000 		.4byte	.LASF84
 910 046b 09       		.byte	0x9
 911 046c B301     		.2byte	0x1b3
 912 046e 53010000 		.4byte	0x153
 913 0472 08       		.byte	0x8
 914 0473 09       		.uleb128 0x9
 915 0474 85080000 		.4byte	.LASF85
 916 0478 09       		.byte	0x9
 917 0479 B901     		.2byte	0x1b9
 918 047b 0E070000 		.4byte	0x70e
 919 047f 0C       		.byte	0xc
 920 0480 00       		.byte	0
 921 0481 03       		.uleb128 0x3
 922 0482 96040000 		.4byte	.LASF86
 923 0486 08       		.byte	0x8
 924 0487 70       		.byte	0x70
 925 0488 8C040000 		.4byte	0x48c
 926 048c 0F       		.uleb128 0xf
 927 048d AD010000 		.4byte	.LASF87
 928 0491 7006     		.2byte	0x670
 929 0493 09       		.byte	0x9
 930 0494 C201     		.2byte	0x1c2
 931 0496 F9040000 		.4byte	0x4f9
 932 049a 09       		.uleb128 0x9
 933 049b 39080000 		.4byte	.LASF88
 934 049f 09       		.byte	0x9
 935 04a0 C601     		.2byte	0x1c6
 936 04a2 07030000 		.4byte	0x307
 937 04a6 00       		.byte	0
 938 04a7 09       		.uleb128 0x9
 939 04a8 8A010000 		.4byte	.LASF89
 940 04ac 09       		.byte	0x9
 941 04ad CA01     		.2byte	0x1ca
 942 04af E6030000 		.4byte	0x3e6
 943 04b3 1C       		.byte	0x1c
 944 04b4 08       		.uleb128 0x8
 945 04b5 64626700 		.ascii	"dbg\000"
 946 04b9 09       		.byte	0x9
 947 04ba CE01     		.2byte	0x1ce
 948 04bc 33040000 		.4byte	0x433
 949 04c0 2C       		.byte	0x2c
 950 04c1 10       		.uleb128 0x10
 951 04c2 DF000000 		.4byte	.LASF90
 952 04c6 09       		.byte	0x9
 953 04c7 D201     		.2byte	0x1d2
 954 04c9 79010000 		.4byte	0x179
 955 04cd 4004     		.2byte	0x440
 956 04cf 11       		.uleb128 0x11
 957 04d0 746D00   		.ascii	"tm\000"
 958 04d3 09       		.byte	0x9
 959 04d4 D701     		.2byte	0x1d7
 960 04d6 2E070000 		.4byte	0x72e
 961 04da A804     		.2byte	0x4a8
 962 04dc 10       		.uleb128 0x10
 963 04dd 39000000 		.4byte	.LASF91
 964 04e1 09       		.byte	0x9
ARM GAS  /var/folders/km/q6jdms0143g2bddz5bhvdfd00000gn/T//ccStLzRV.s 			page 18


 965 04e2 DD01     		.2byte	0x1dd
 966 04e4 C0070000 		.4byte	0x7c0
 967 04e8 B004     		.2byte	0x4b0
 968 04ea 10       		.uleb128 0x10
 969 04eb 41020000 		.4byte	.LASF92
 970 04ef 09       		.byte	0x9
 971 04f0 E301     		.2byte	0x1e3
 972 04f2 BF080000 		.4byte	0x8bf
 973 04f6 E804     		.2byte	0x4e8
 974 04f8 00       		.byte	0
 975 04f9 12       		.uleb128 0x12
 976 04fa 19010000 		.4byte	.LASF93
 977 04fe 0A       		.byte	0xa
 978 04ff A706     		.2byte	0x6a7
 979 0501 D5000000 		.4byte	0xd5
 980 0505 13       		.uleb128 0x13
 981 0506 7F020000 		.4byte	.LASF94
 982 050a 0B       		.byte	0xb
 983 050b 4C       		.byte	0x4c
 984 050c DA000000 		.4byte	0xda
 985 0510 03       		.uleb128 0x3
 986 0511 F9010000 		.4byte	.LASF95
 987 0515 0C       		.byte	0xc
 988 0516 65       		.byte	0x65
 989 0517 8A030000 		.4byte	0x38a
 990 051b 03       		.uleb128 0x3
 991 051c F3040000 		.4byte	.LASF96
 992 0520 0C       		.byte	0xc
 993 0521 6D       		.byte	0x6d
 994 0522 E5000000 		.4byte	0xe5
 995 0526 06       		.uleb128 0x6
 996 0527 F8070000 		.4byte	.LASF97
 997 052b 04       		.byte	0x4
 998 052c 0C       		.byte	0xc
 999 052d 89       		.byte	0x89
 1000 052e 3F050000 		.4byte	0x53f
 1001 0532 14       		.uleb128 0x14
 1002 0533 72313300 		.ascii	"r13\000"
 1003 0537 0C       		.byte	0xc
 1004 0538 8A       		.byte	0x8a
 1005 0539 80060000 		.4byte	0x680
 1006 053d 00       		.byte	0
 1007 053e 00       		.byte	0
 1008 053f 06       		.uleb128 0x6
 1009 0540 50000000 		.4byte	.LASF98
 1010 0544 64       		.byte	0x64
 1011 0545 0D       		.byte	0xd
 1012 0546 F4       		.byte	0xf4
 1013 0547 80060000 		.4byte	0x680
 1014 054b 14       		.uleb128 0x14
 1015 054c 73313600 		.ascii	"s16\000"
 1016 0550 0D       		.byte	0xd
 1017 0551 F6       		.byte	0xf6
 1018 0552 10050000 		.4byte	0x510
 1019 0556 00       		.byte	0
 1020 0557 14       		.uleb128 0x14
 1021 0558 73313700 		.ascii	"s17\000"
ARM GAS  /var/folders/km/q6jdms0143g2bddz5bhvdfd00000gn/T//ccStLzRV.s 			page 19


 1022 055c 0D       		.byte	0xd
 1023 055d F7       		.byte	0xf7
 1024 055e 10050000 		.4byte	0x510
 1025 0562 04       		.byte	0x4
 1026 0563 14       		.uleb128 0x14
 1027 0564 73313800 		.ascii	"s18\000"
 1028 0568 0D       		.byte	0xd
 1029 0569 F8       		.byte	0xf8
 1030 056a 10050000 		.4byte	0x510
 1031 056e 08       		.byte	0x8
 1032 056f 14       		.uleb128 0x14
 1033 0570 73313900 		.ascii	"s19\000"
 1034 0574 0D       		.byte	0xd
 1035 0575 F9       		.byte	0xf9
 1036 0576 10050000 		.4byte	0x510
 1037 057a 0C       		.byte	0xc
 1038 057b 14       		.uleb128 0x14
 1039 057c 73323000 		.ascii	"s20\000"
 1040 0580 0D       		.byte	0xd
 1041 0581 FA       		.byte	0xfa
 1042 0582 10050000 		.4byte	0x510
 1043 0586 10       		.byte	0x10
 1044 0587 14       		.uleb128 0x14
 1045 0588 73323100 		.ascii	"s21\000"
 1046 058c 0D       		.byte	0xd
 1047 058d FB       		.byte	0xfb
 1048 058e 10050000 		.4byte	0x510
 1049 0592 14       		.byte	0x14
 1050 0593 14       		.uleb128 0x14
 1051 0594 73323200 		.ascii	"s22\000"
 1052 0598 0D       		.byte	0xd
 1053 0599 FC       		.byte	0xfc
 1054 059a 10050000 		.4byte	0x510
 1055 059e 18       		.byte	0x18
 1056 059f 14       		.uleb128 0x14
 1057 05a0 73323300 		.ascii	"s23\000"
 1058 05a4 0D       		.byte	0xd
 1059 05a5 FD       		.byte	0xfd
 1060 05a6 10050000 		.4byte	0x510
 1061 05aa 1C       		.byte	0x1c
 1062 05ab 14       		.uleb128 0x14
 1063 05ac 73323400 		.ascii	"s24\000"
 1064 05b0 0D       		.byte	0xd
 1065 05b1 FE       		.byte	0xfe
 1066 05b2 10050000 		.4byte	0x510
 1067 05b6 20       		.byte	0x20
 1068 05b7 14       		.uleb128 0x14
 1069 05b8 73323500 		.ascii	"s25\000"
 1070 05bc 0D       		.byte	0xd
 1071 05bd FF       		.byte	0xff
 1072 05be 10050000 		.4byte	0x510
 1073 05c2 24       		.byte	0x24
 1074 05c3 08       		.uleb128 0x8
 1075 05c4 73323600 		.ascii	"s26\000"
 1076 05c8 0D       		.byte	0xd
 1077 05c9 0001     		.2byte	0x100
 1078 05cb 10050000 		.4byte	0x510
ARM GAS  /var/folders/km/q6jdms0143g2bddz5bhvdfd00000gn/T//ccStLzRV.s 			page 20


 1079 05cf 28       		.byte	0x28
 1080 05d0 08       		.uleb128 0x8
 1081 05d1 73323700 		.ascii	"s27\000"
 1082 05d5 0D       		.byte	0xd
 1083 05d6 0101     		.2byte	0x101
 1084 05d8 10050000 		.4byte	0x510
 1085 05dc 2C       		.byte	0x2c
 1086 05dd 08       		.uleb128 0x8
 1087 05de 73323800 		.ascii	"s28\000"
 1088 05e2 0D       		.byte	0xd
 1089 05e3 0201     		.2byte	0x102
 1090 05e5 10050000 		.4byte	0x510
 1091 05e9 30       		.byte	0x30
 1092 05ea 08       		.uleb128 0x8
 1093 05eb 73323900 		.ascii	"s29\000"
 1094 05ef 0D       		.byte	0xd
 1095 05f0 0301     		.2byte	0x103
 1096 05f2 10050000 		.4byte	0x510
 1097 05f6 34       		.byte	0x34
 1098 05f7 08       		.uleb128 0x8
 1099 05f8 73333000 		.ascii	"s30\000"
 1100 05fc 0D       		.byte	0xd
 1101 05fd 0401     		.2byte	0x104
 1102 05ff 10050000 		.4byte	0x510
 1103 0603 38       		.byte	0x38
 1104 0604 08       		.uleb128 0x8
 1105 0605 73333100 		.ascii	"s31\000"
 1106 0609 0D       		.byte	0xd
 1107 060a 0501     		.2byte	0x105
 1108 060c 10050000 		.4byte	0x510
 1109 0610 3C       		.byte	0x3c
 1110 0611 08       		.uleb128 0x8
 1111 0612 723400   		.ascii	"r4\000"
 1112 0615 0D       		.byte	0xd
 1113 0616 0701     		.2byte	0x107
 1114 0618 10050000 		.4byte	0x510
 1115 061c 40       		.byte	0x40
 1116 061d 08       		.uleb128 0x8
 1117 061e 723500   		.ascii	"r5\000"
 1118 0621 0D       		.byte	0xd
 1119 0622 0801     		.2byte	0x108
 1120 0624 10050000 		.4byte	0x510
 1121 0628 44       		.byte	0x44
 1122 0629 08       		.uleb128 0x8
 1123 062a 723600   		.ascii	"r6\000"
 1124 062d 0D       		.byte	0xd
 1125 062e 0901     		.2byte	0x109
 1126 0630 10050000 		.4byte	0x510
 1127 0634 48       		.byte	0x48
 1128 0635 08       		.uleb128 0x8
 1129 0636 723700   		.ascii	"r7\000"
 1130 0639 0D       		.byte	0xd
 1131 063a 0A01     		.2byte	0x10a
 1132 063c 10050000 		.4byte	0x510
 1133 0640 4C       		.byte	0x4c
 1134 0641 08       		.uleb128 0x8
 1135 0642 723800   		.ascii	"r8\000"
ARM GAS  /var/folders/km/q6jdms0143g2bddz5bhvdfd00000gn/T//ccStLzRV.s 			page 21


 1136 0645 0D       		.byte	0xd
 1137 0646 0B01     		.2byte	0x10b
 1138 0648 10050000 		.4byte	0x510
 1139 064c 50       		.byte	0x50
 1140 064d 08       		.uleb128 0x8
 1141 064e 723900   		.ascii	"r9\000"
 1142 0651 0D       		.byte	0xd
 1143 0652 0C01     		.2byte	0x10c
 1144 0654 10050000 		.4byte	0x510
 1145 0658 54       		.byte	0x54
 1146 0659 08       		.uleb128 0x8
 1147 065a 72313000 		.ascii	"r10\000"
 1148 065e 0D       		.byte	0xd
 1149 065f 0D01     		.2byte	0x10d
 1150 0661 10050000 		.4byte	0x510
 1151 0665 58       		.byte	0x58
 1152 0666 08       		.uleb128 0x8
 1153 0667 72313100 		.ascii	"r11\000"
 1154 066b 0D       		.byte	0xd
 1155 066c 0E01     		.2byte	0x10e
 1156 066e 10050000 		.4byte	0x510
 1157 0672 5C       		.byte	0x5c
 1158 0673 08       		.uleb128 0x8
 1159 0674 6C7200   		.ascii	"lr\000"
 1160 0677 0D       		.byte	0xd
 1161 0678 0F01     		.2byte	0x10f
 1162 067a 10050000 		.4byte	0x510
 1163 067e 60       		.byte	0x60
 1164 067f 00       		.byte	0
 1165 0680 0A       		.uleb128 0xa
 1166 0681 04       		.byte	0x4
 1167 0682 3F050000 		.4byte	0x53f
 1168 0686 15       		.uleb128 0x15
 1169 0687 10       		.byte	0x10
 1170 0688 0E       		.byte	0xe
 1171 0689 51       		.byte	0x51
 1172 068a BF060000 		.4byte	0x6bf
 1173 068e 07       		.uleb128 0x7
 1174 068f 1A000000 		.4byte	.LASF99
 1175 0693 0E       		.byte	0xe
 1176 0694 55       		.byte	0x55
 1177 0695 69010000 		.4byte	0x169
 1178 0699 00       		.byte	0
 1179 069a 07       		.uleb128 0x7
 1180 069b C9010000 		.4byte	.LASF100
 1181 069f 0E       		.byte	0xe
 1182 06a0 59       		.byte	0x59
 1183 06a1 AD020000 		.4byte	0x2ad
 1184 06a5 04       		.byte	0x4
 1185 06a6 07       		.uleb128 0x7
 1186 06a7 C5080000 		.4byte	.LASF101
 1187 06ab 0E       		.byte	0xe
 1188 06ac 5D       		.byte	0x5d
 1189 06ad 8A030000 		.4byte	0x38a
 1190 06b1 08       		.byte	0x8
 1191 06b2 07       		.uleb128 0x7
 1192 06b3 30080000 		.4byte	.LASF102
ARM GAS  /var/folders/km/q6jdms0143g2bddz5bhvdfd00000gn/T//ccStLzRV.s 			page 22


 1193 06b7 0E       		.byte	0xe
 1194 06b8 61       		.byte	0x61
 1195 06b9 B4000000 		.4byte	0xb4
 1196 06bd 0C       		.byte	0xc
 1197 06be 00       		.byte	0
 1198 06bf 03       		.uleb128 0x3
 1199 06c0 96050000 		.4byte	.LASF103
 1200 06c4 0E       		.byte	0xe
 1201 06c5 62       		.byte	0x62
 1202 06c6 86060000 		.4byte	0x686
 1203 06ca 16       		.uleb128 0x16
 1204 06cb 0804     		.2byte	0x408
 1205 06cd 0E       		.byte	0xe
 1206 06ce 67       		.byte	0x67
 1207 06cf F8060000 		.4byte	0x6f8
 1208 06d3 07       		.uleb128 0x7
 1209 06d4 E9010000 		.4byte	.LASF104
 1210 06d8 0E       		.byte	0xe
 1211 06d9 6B       		.byte	0x6b
 1212 06da 37000000 		.4byte	0x37
 1213 06de 00       		.byte	0
 1214 06df 07       		.uleb128 0x7
 1215 06e0 8F050000 		.4byte	.LASF105
 1216 06e4 0E       		.byte	0xe
 1217 06e5 6F       		.byte	0x6f
 1218 06e6 F8060000 		.4byte	0x6f8
 1219 06ea 04       		.byte	0x4
 1220 06eb 07       		.uleb128 0x7
 1221 06ec 06060000 		.4byte	.LASF106
 1222 06f0 0E       		.byte	0xe
 1223 06f1 73       		.byte	0x73
 1224 06f2 FE060000 		.4byte	0x6fe
 1225 06f6 08       		.byte	0x8
 1226 06f7 00       		.byte	0
 1227 06f8 0A       		.uleb128 0xa
 1228 06f9 04       		.byte	0x4
 1229 06fa BF060000 		.4byte	0x6bf
 1230 06fe 17       		.uleb128 0x17
 1231 06ff BF060000 		.4byte	0x6bf
 1232 0703 0E070000 		.4byte	0x70e
 1233 0707 18       		.uleb128 0x18
 1234 0708 37000000 		.4byte	0x37
 1235 070c 3F       		.byte	0x3f
 1236 070d 00       		.byte	0
 1237 070e 03       		.uleb128 0x3
 1238 070f B6000000 		.4byte	.LASF107
 1239 0713 0E       		.byte	0xe
 1240 0714 74       		.byte	0x74
 1241 0715 CA060000 		.4byte	0x6ca
 1242 0719 15       		.uleb128 0x15
 1243 071a 04       		.byte	0x4
 1244 071b 0F       		.byte	0xf
 1245 071c 38       		.byte	0x38
 1246 071d 2E070000 		.4byte	0x72e
 1247 0721 07       		.uleb128 0x7
 1248 0722 F1070000 		.4byte	.LASF108
 1249 0726 0F       		.byte	0xf
ARM GAS  /var/folders/km/q6jdms0143g2bddz5bhvdfd00000gn/T//ccStLzRV.s 			page 23


 1250 0727 3C       		.byte	0x3c
 1251 0728 F0000000 		.4byte	0xf0
 1252 072c 00       		.byte	0
 1253 072d 00       		.byte	0
 1254 072e 03       		.uleb128 0x3
 1255 072f C5050000 		.4byte	.LASF109
 1256 0733 0F       		.byte	0xf
 1257 0734 3D       		.byte	0x3d
 1258 0735 19070000 		.4byte	0x719
 1259 0739 15       		.uleb128 0x15
 1260 073a 18       		.byte	0x18
 1261 073b 0F       		.byte	0xf
 1262 073c 48       		.byte	0x48
 1263 073d 7C070000 		.4byte	0x77c
 1264 0741 07       		.uleb128 0x7
 1265 0742 A4070000 		.4byte	.LASF110
 1266 0746 0F       		.byte	0xf
 1267 0747 49       		.byte	0x49
 1268 0748 F0000000 		.4byte	0xf0
 1269 074c 00       		.byte	0
 1270 074d 07       		.uleb128 0x7
 1271 074e 86000000 		.4byte	.LASF111
 1272 0752 0F       		.byte	0xf
 1273 0753 4A       		.byte	0x4a
 1274 0754 F0000000 		.4byte	0xf0
 1275 0758 04       		.byte	0x4
 1276 0759 07       		.uleb128 0x7
 1277 075a 8A040000 		.4byte	.LASF112
 1278 075e 0F       		.byte	0xf
 1279 075f 4B       		.byte	0x4b
 1280 0760 F0000000 		.4byte	0xf0
 1281 0764 08       		.byte	0x8
 1282 0765 14       		.uleb128 0x14
 1283 0766 6E00     		.ascii	"n\000"
 1284 0768 0F       		.byte	0xf
 1285 0769 4C       		.byte	0x4c
 1286 076a 5E010000 		.4byte	0x15e
 1287 076e 0C       		.byte	0xc
 1288 076f 07       		.uleb128 0x7
 1289 0770 F3050000 		.4byte	.LASF113
 1290 0774 0F       		.byte	0xf
 1291 0775 4D       		.byte	0x4d
 1292 0776 FB000000 		.4byte	0xfb
 1293 077a 10       		.byte	0x10
 1294 077b 00       		.byte	0
 1295 077c 03       		.uleb128 0x3
 1296 077d 8C000000 		.4byte	.LASF114
 1297 0781 0F       		.byte	0xf
 1298 0782 4E       		.byte	0x4e
 1299 0783 39070000 		.4byte	0x739
 1300 0787 15       		.uleb128 0x15
 1301 0788 38       		.byte	0x38
 1302 0789 10       		.byte	0x10
 1303 078a 38       		.byte	0x38
 1304 078b C0070000 		.4byte	0x7c0
 1305 078f 07       		.uleb128 0x7
 1306 0790 CA030000 		.4byte	.LASF115
ARM GAS  /var/folders/km/q6jdms0143g2bddz5bhvdfd00000gn/T//ccStLzRV.s 			page 24


 1307 0794 10       		.byte	0x10
 1308 0795 39       		.byte	0x39
 1309 0796 5E010000 		.4byte	0x15e
 1310 079a 00       		.byte	0
 1311 079b 07       		.uleb128 0x7
 1312 079c 40060000 		.4byte	.LASF116
 1313 07a0 10       		.byte	0x10
 1314 07a1 3A       		.byte	0x3a
 1315 07a2 5E010000 		.4byte	0x15e
 1316 07a6 04       		.byte	0x4
 1317 07a7 07       		.uleb128 0x7
 1318 07a8 B2080000 		.4byte	.LASF117
 1319 07ac 10       		.byte	0x10
 1320 07ad 3B       		.byte	0x3b
 1321 07ae 7C070000 		.4byte	0x77c
 1322 07b2 08       		.byte	0x8
 1323 07b3 07       		.uleb128 0x7
 1324 07b4 AE040000 		.4byte	.LASF118
 1325 07b8 10       		.byte	0x10
 1326 07b9 3D       		.byte	0x3d
 1327 07ba 7C070000 		.4byte	0x77c
 1328 07be 20       		.byte	0x20
 1329 07bf 00       		.byte	0
 1330 07c0 03       		.uleb128 0x3
 1331 07c1 48040000 		.4byte	.LASF119
 1332 07c5 10       		.byte	0x10
 1333 07c6 3F       		.byte	0x3f
 1334 07c7 87070000 		.4byte	0x787
 1335 07cb 19       		.uleb128 0x19
 1336 07cc 04       		.byte	0x4
 1337 07cd 09       		.byte	0x9
 1338 07ce FA       		.byte	0xfa
 1339 07cf 28080000 		.4byte	0x828
 1340 07d3 1A       		.uleb128 0x1a
 1341 07d4 29000000 		.4byte	.LASF120
 1342 07d8 09       		.byte	0x9
 1343 07d9 0101     		.2byte	0x101
 1344 07db 3D010000 		.4byte	0x13d
 1345 07df 1A       		.uleb128 0x1a
 1346 07e0 D6000000 		.4byte	.LASF121
 1347 07e4 09       		.byte	0x9
 1348 07e5 0801     		.2byte	0x108
 1349 07e7 3D010000 		.4byte	0x13d
 1350 07eb 1A       		.uleb128 0x1a
 1351 07ec 6C080000 		.4byte	.LASF122
 1352 07f0 09       		.byte	0x9
 1353 07f1 0F01     		.2byte	0x10f
 1354 07f3 8A030000 		.4byte	0x38a
 1355 07f7 1A       		.uleb128 0x1a
 1356 07f8 A7010000 		.4byte	.LASF123
 1357 07fc 09       		.byte	0x9
 1358 07fd 1601     		.2byte	0x116
 1359 07ff 28080000 		.4byte	0x828
 1360 0803 1A       		.uleb128 0x1a
 1361 0804 96020000 		.4byte	.LASF124
 1362 0808 09       		.byte	0x9
 1363 0809 1E01     		.2byte	0x11e
ARM GAS  /var/folders/km/q6jdms0143g2bddz5bhvdfd00000gn/T//ccStLzRV.s 			page 25


 1364 080b 53080000 		.4byte	0x853
 1365 080f 1A       		.uleb128 0x1a
 1366 0810 89070000 		.4byte	.LASF125
 1367 0814 09       		.byte	0x9
 1368 0815 2701     		.2byte	0x127
 1369 0817 96080000 		.4byte	0x896
 1370 081b 1A       		.uleb128 0x1a
 1371 081c 92060000 		.4byte	.LASF126
 1372 0820 09       		.byte	0x9
 1373 0821 2F01     		.2byte	0x12f
 1374 0823 48010000 		.4byte	0x148
 1375 0827 00       		.byte	0
 1376 0828 0A       		.uleb128 0xa
 1377 0829 04       		.byte	0x4
 1378 082a A2020000 		.4byte	0x2a2
 1379 082e 06       		.uleb128 0x6
 1380 082f 15070000 		.4byte	.LASF127
 1381 0833 0C       		.byte	0xc
 1382 0834 11       		.byte	0x11
 1383 0835 34       		.byte	0x34
 1384 0836 53080000 		.4byte	0x853
 1385 083a 07       		.uleb128 0x7
 1386 083b E1010000 		.4byte	.LASF128
 1387 083f 11       		.byte	0x11
 1388 0840 35       		.byte	0x35
 1389 0841 D7020000 		.4byte	0x2d7
 1390 0845 00       		.byte	0
 1391 0846 07       		.uleb128 0x7
 1392 0847 5F060000 		.4byte	.LASF129
 1393 084b 11       		.byte	0x11
 1394 084c 37       		.byte	0x37
 1395 084d 53010000 		.4byte	0x153
 1396 0851 08       		.byte	0x8
 1397 0852 00       		.byte	0
 1398 0853 0A       		.uleb128 0xa
 1399 0854 04       		.byte	0x4
 1400 0855 2E080000 		.4byte	0x82e
 1401 0859 06       		.uleb128 0x6
 1402 085a 18080000 		.4byte	.LASF130
 1403 085e 14       		.byte	0x14
 1404 085f 12       		.byte	0x12
 1405 0860 39       		.byte	0x39
 1406 0861 96080000 		.4byte	0x896
 1407 0865 07       		.uleb128 0x7
 1408 0866 82010000 		.4byte	.LASF131
 1409 086a 12       		.byte	0x12
 1410 086b 3A       		.byte	0x3a
 1411 086c D7020000 		.4byte	0x2d7
 1412 0870 00       		.byte	0
 1413 0871 07       		.uleb128 0x7
 1414 0872 BD080000 		.4byte	.LASF132
 1415 0876 12       		.byte	0x12
 1416 0877 3C       		.byte	0x3c
 1417 0878 AD020000 		.4byte	0x2ad
 1418 087c 08       		.byte	0x8
 1419 087d 07       		.uleb128 0x7
 1420 087e A9070000 		.4byte	.LASF133
ARM GAS  /var/folders/km/q6jdms0143g2bddz5bhvdfd00000gn/T//ccStLzRV.s 			page 26


 1421 0882 12       		.byte	0x12
 1422 0883 3E       		.byte	0x3e
 1423 0884 F1090000 		.4byte	0x9f1
 1424 0888 0C       		.byte	0xc
 1425 0889 07       		.uleb128 0x7
 1426 088a 24020000 		.4byte	.LASF134
 1427 088e 12       		.byte	0x12
 1428 088f 41       		.byte	0x41
 1429 0890 53010000 		.4byte	0x153
 1430 0894 10       		.byte	0x10
 1431 0895 00       		.byte	0
 1432 0896 0A       		.uleb128 0xa
 1433 0897 04       		.byte	0x4
 1434 0898 59080000 		.4byte	0x859
 1435 089c 0A       		.uleb128 0xa
 1436 089d 04       		.byte	0x4
 1437 089e AE080000 		.4byte	0x8ae
 1438 08a2 05       		.uleb128 0x5
 1439 08a3 9C080000 		.4byte	0x89c
 1440 08a7 04       		.uleb128 0x4
 1441 08a8 01       		.byte	0x1
 1442 08a9 08       		.byte	0x8
 1443 08aa 74070000 		.4byte	.LASF135
 1444 08ae 1B       		.uleb128 0x1b
 1445 08af A7080000 		.4byte	0x8a7
 1446 08b3 0A       		.uleb128 0xa
 1447 08b4 04       		.byte	0x4
 1448 08b5 1B050000 		.4byte	0x51b
 1449 08b9 0A       		.uleb128 0xa
 1450 08ba 04       		.byte	0x4
 1451 08bb 8C030000 		.4byte	0x38c
 1452 08bf 17       		.uleb128 0x17
 1453 08c0 1B050000 		.4byte	0x51b
 1454 08c4 CF080000 		.4byte	0x8cf
 1455 08c8 18       		.uleb128 0x18
 1456 08c9 37000000 		.4byte	0x37
 1457 08cd 30       		.byte	0x30
 1458 08ce 00       		.byte	0
 1459 08cf 1C       		.uleb128 0x1c
 1460 08d0 636800   		.ascii	"ch\000"
 1461 08d3 09       		.byte	0x9
 1462 08d4 0902     		.2byte	0x209
 1463 08d6 81040000 		.4byte	0x481
 1464 08da 15       		.uleb128 0x15
 1465 08db 16       		.byte	0x16
 1466 08dc 13       		.byte	0x13
 1467 08dd 34       		.byte	0x34
 1468 08de BB090000 		.4byte	0x9bb
 1469 08e2 07       		.uleb128 0x7
 1470 08e3 CF080000 		.4byte	.LASF136
 1471 08e7 13       		.byte	0x13
 1472 08e8 35       		.byte	0x35
 1473 08e9 BB090000 		.4byte	0x9bb
 1474 08ed 00       		.byte	0
 1475 08ee 07       		.uleb128 0x7
 1476 08ef 0D050000 		.4byte	.LASF137
 1477 08f3 13       		.byte	0x13
ARM GAS  /var/folders/km/q6jdms0143g2bddz5bhvdfd00000gn/T//ccStLzRV.s 			page 27


 1478 08f4 36       		.byte	0x36
 1479 08f5 B4000000 		.4byte	0xb4
 1480 08f9 04       		.byte	0x4
 1481 08fa 07       		.uleb128 0x7
 1482 08fb 5A070000 		.4byte	.LASF138
 1483 08ff 13       		.byte	0x13
 1484 0900 37       		.byte	0x37
 1485 0901 B4000000 		.4byte	0xb4
 1486 0905 05       		.byte	0x5
 1487 0906 07       		.uleb128 0x7
 1488 0907 A7080000 		.4byte	.LASF139
 1489 090b 13       		.byte	0x13
 1490 090c 38       		.byte	0x38
 1491 090d BF000000 		.4byte	0xbf
 1492 0911 06       		.byte	0x6
 1493 0912 07       		.uleb128 0x7
 1494 0913 10060000 		.4byte	.LASF140
 1495 0917 13       		.byte	0x13
 1496 0918 39       		.byte	0x39
 1497 0919 B4000000 		.4byte	0xb4
 1498 091d 08       		.byte	0x8
 1499 091e 07       		.uleb128 0x7
 1500 091f 83050000 		.4byte	.LASF141
 1501 0923 13       		.byte	0x13
 1502 0924 3A       		.byte	0x3a
 1503 0925 B4000000 		.4byte	0xb4
 1504 0929 09       		.byte	0x9
 1505 092a 07       		.uleb128 0x7
 1506 092b C8000000 		.4byte	.LASF142
 1507 092f 13       		.byte	0x13
 1508 0930 3B       		.byte	0x3b
 1509 0931 B4000000 		.4byte	0xb4
 1510 0935 0A       		.byte	0xa
 1511 0936 07       		.uleb128 0x7
 1512 0937 36070000 		.4byte	.LASF143
 1513 093b 13       		.byte	0x13
 1514 093c 3C       		.byte	0x3c
 1515 093d B4000000 		.4byte	0xb4
 1516 0941 0B       		.byte	0xb
 1517 0942 07       		.uleb128 0x7
 1518 0943 0D080000 		.4byte	.LASF144
 1519 0947 13       		.byte	0x13
 1520 0948 3D       		.byte	0x3d
 1521 0949 B4000000 		.4byte	0xb4
 1522 094d 0C       		.byte	0xc
 1523 094e 07       		.uleb128 0x7
 1524 094f 08070000 		.4byte	.LASF145
 1525 0953 13       		.byte	0x13
 1526 0954 3E       		.byte	0x3e
 1527 0955 B4000000 		.4byte	0xb4
 1528 0959 0D       		.byte	0xd
 1529 095a 07       		.uleb128 0x7
 1530 095b 00000000 		.4byte	.LASF146
 1531 095f 13       		.byte	0x13
 1532 0960 3F       		.byte	0x3f
 1533 0961 B4000000 		.4byte	0xb4
 1534 0965 0E       		.byte	0xe
ARM GAS  /var/folders/km/q6jdms0143g2bddz5bhvdfd00000gn/T//ccStLzRV.s 			page 28


 1535 0966 07       		.uleb128 0x7
 1536 0967 A5050000 		.4byte	.LASF147
 1537 096b 13       		.byte	0x13
 1538 096c 40       		.byte	0x40
 1539 096d B4000000 		.4byte	0xb4
 1540 0971 0F       		.byte	0xf
 1541 0972 07       		.uleb128 0x7
 1542 0973 5D010000 		.4byte	.LASF148
 1543 0977 13       		.byte	0x13
 1544 0978 41       		.byte	0x41
 1545 0979 B4000000 		.4byte	0xb4
 1546 097d 10       		.byte	0x10
 1547 097e 07       		.uleb128 0x7
 1548 097f 36010000 		.4byte	.LASF149
 1549 0983 13       		.byte	0x13
 1550 0984 43       		.byte	0x43
 1551 0985 B4000000 		.4byte	0xb4
 1552 0989 11       		.byte	0x11
 1553 098a 07       		.uleb128 0x7
 1554 098b 6D010000 		.4byte	.LASF150
 1555 098f 13       		.byte	0x13
 1556 0990 44       		.byte	0x44
 1557 0991 B4000000 		.4byte	0xb4
 1558 0995 12       		.byte	0x12
 1559 0996 07       		.uleb128 0x7
 1560 0997 15050000 		.4byte	.LASF151
 1561 099b 13       		.byte	0x13
 1562 099c 45       		.byte	0x45
 1563 099d B4000000 		.4byte	0xb4
 1564 09a1 13       		.byte	0x13
 1565 09a2 07       		.uleb128 0x7
 1566 09a3 A8060000 		.4byte	.LASF152
 1567 09a7 13       		.byte	0x13
 1568 09a8 46       		.byte	0x46
 1569 09a9 B4000000 		.4byte	0xb4
 1570 09ad 14       		.byte	0x14
 1571 09ae 07       		.uleb128 0x7
 1572 09af A2040000 		.4byte	.LASF153
 1573 09b3 13       		.byte	0x13
 1574 09b4 48       		.byte	0x48
 1575 09b5 B4000000 		.4byte	0xb4
 1576 09b9 15       		.byte	0x15
 1577 09ba 00       		.byte	0
 1578 09bb 17       		.uleb128 0x17
 1579 09bc A7080000 		.4byte	0x8a7
 1580 09c0 CB090000 		.4byte	0x9cb
 1581 09c4 18       		.uleb128 0x18
 1582 09c5 37000000 		.4byte	0x37
 1583 09c9 03       		.byte	0x3
 1584 09ca 00       		.byte	0
 1585 09cb 03       		.uleb128 0x3
 1586 09cc CF010000 		.4byte	.LASF154
 1587 09d0 13       		.byte	0x13
 1588 09d1 49       		.byte	0x49
 1589 09d2 DA080000 		.4byte	0x8da
 1590 09d6 1B       		.uleb128 0x1b
 1591 09d7 CB090000 		.4byte	0x9cb
ARM GAS  /var/folders/km/q6jdms0143g2bddz5bhvdfd00000gn/T//ccStLzRV.s 			page 29


 1592 09db 13       		.uleb128 0x13
 1593 09dc C1030000 		.4byte	.LASF155
 1594 09e0 13       		.byte	0x13
 1595 09e1 6E       		.byte	0x6e
 1596 09e2 D6090000 		.4byte	0x9d6
 1597 09e6 03       		.uleb128 0x3
 1598 09e7 2A020000 		.4byte	.LASF156
 1599 09eb 12       		.byte	0x12
 1600 09ec 34       		.byte	0x34
 1601 09ed 59080000 		.4byte	0x859
 1602 09f1 0A       		.uleb128 0xa
 1603 09f2 04       		.byte	0x4
 1604 09f3 E6090000 		.4byte	0x9e6
 1605 09f7 1D       		.uleb128 0x1d
 1606 09f8 DB090000 		.4byte	0x9db
 1607 09fc 01       		.byte	0x1
 1608 09fd 50       		.byte	0x50
 1609 09fe 05       		.uleb128 0x5
 1610 09ff 03       		.byte	0x3
 1611 0a00 00000000 		.4byte	ch_debug
 1612 0a04 1E       		.uleb128 0x1e
 1613 0a05 79070000 		.4byte	.LASF157
 1614 0a09 01       		.byte	0x1
 1615 0a0a 9B       		.byte	0x9b
 1616 0a0b AD020000 		.4byte	0x2ad
 1617 0a0f 00000000 		.4byte	.LFB220
 1618 0a13 74000000 		.4byte	.LFE220-.LFB220
 1619 0a17 01       		.uleb128 0x1
 1620 0a18 9C       		.byte	0x9c
 1621 0a19 390B0000 		.4byte	0xb39
 1622 0a1d 1F       		.uleb128 0x1f
 1623 0a1e 747000   		.ascii	"tp\000"
 1624 0a21 01       		.byte	0x1
 1625 0a22 9B       		.byte	0x9b
 1626 0a23 AD020000 		.4byte	0x2ad
 1627 0a27 00000000 		.4byte	.LLST3
 1628 0a2b 20       		.uleb128 0x20
 1629 0a2c 6E747000 		.ascii	"ntp\000"
 1630 0a30 01       		.byte	0x1
 1631 0a31 9C       		.byte	0x9c
 1632 0a32 AD020000 		.4byte	0x2ad
 1633 0a36 1E000000 		.4byte	.LLST4
 1634 0a3a 21       		.uleb128 0x21
 1635 0a3b BF060000 		.4byte	.LASF159
 1636 0a3f 490B0000 		.4byte	0xb49
 1637 0a43 05       		.uleb128 0x5
 1638 0a44 03       		.byte	0x3
 1639 0a45 00000000 		.4byte	__func__.7855
 1640 0a49 22       		.uleb128 0x22
 1641 0a4a 6A0C0000 		.4byte	0xc6a
 1642 0a4e 02000000 		.4byte	.LBB61
 1643 0a52 48000000 		.4byte	.Ldebug_ranges0+0x48
 1644 0a56 01       		.byte	0x1
 1645 0a57 9E       		.byte	0x9e
 1646 0a58 9E0A0000 		.4byte	0xa9e
 1647 0a5c 23       		.uleb128 0x23
 1648 0a5d 7C0C0000 		.4byte	0xc7c
ARM GAS  /var/folders/km/q6jdms0143g2bddz5bhvdfd00000gn/T//ccStLzRV.s 			page 30


 1649 0a61 02000000 		.4byte	.LBB63
 1650 0a65 68000000 		.4byte	.Ldebug_ranges0+0x68
 1651 0a69 03       		.byte	0x3
 1652 0a6a 5C01     		.2byte	0x15c
 1653 0a6c 8B0A0000 		.4byte	0xa8b
 1654 0a70 24       		.uleb128 0x24
 1655 0a71 850C0000 		.4byte	0xc85
 1656 0a75 02000000 		.4byte	.LBB64
 1657 0a79 68000000 		.4byte	.Ldebug_ranges0+0x68
 1658 0a7d 0D       		.byte	0xd
 1659 0a7e BF01     		.2byte	0x1bf
 1660 0a80 25       		.uleb128 0x25
 1661 0a81 920C0000 		.4byte	0xc92
 1662 0a85 3D000000 		.4byte	.LLST5
 1663 0a89 00       		.byte	0
 1664 0a8a 00       		.byte	0
 1665 0a8b 26       		.uleb128 0x26
 1666 0a8c 0E000000 		.4byte	.LVL15
 1667 0a90 9F0C0000 		.4byte	0xc9f
 1668 0a94 26       		.uleb128 0x26
 1669 0a95 14000000 		.4byte	.LVL16
 1670 0a99 AA0C0000 		.4byte	0xcaa
 1671 0a9d 00       		.byte	0
 1672 0a9e 22       		.uleb128 0x22
 1673 0a9f 3A0C0000 		.4byte	0xc3a
 1674 0aa3 28000000 		.4byte	.LBB73
 1675 0aa7 80000000 		.4byte	.Ldebug_ranges0+0x80
 1676 0aab 01       		.byte	0x1
 1677 0aac AB       		.byte	0xab
 1678 0aad 110B0000 		.4byte	0xb11
 1679 0ab1 27       		.uleb128 0x27
 1680 0ab2 80000000 		.4byte	.Ldebug_ranges0+0x80
 1681 0ab6 28       		.uleb128 0x28
 1682 0ab7 470C0000 		.4byte	0xc47
 1683 0abb 29       		.uleb128 0x29
 1684 0abc 730C0000 		.4byte	0xc73
 1685 0ac0 40000000 		.4byte	.LBB75
 1686 0ac4 06000000 		.4byte	.LBE75-.LBB75
 1687 0ac8 03       		.byte	0x3
 1688 0ac9 7301     		.2byte	0x173
 1689 0acb EA0A0000 		.4byte	0xaea
 1690 0acf 2A       		.uleb128 0x2a
 1691 0ad0 850C0000 		.4byte	0xc85
 1692 0ad4 40000000 		.4byte	.LBB76
 1693 0ad8 06000000 		.4byte	.LBE76-.LBB76
 1694 0adc 0D       		.byte	0xd
 1695 0add CD01     		.2byte	0x1cd
 1696 0adf 25       		.uleb128 0x25
 1697 0ae0 920C0000 		.4byte	0xc92
 1698 0ae4 52000000 		.4byte	.LLST6
 1699 0ae8 00       		.byte	0
 1700 0ae9 00       		.byte	0
 1701 0aea 26       		.uleb128 0x26
 1702 0aeb 2C000000 		.4byte	.LVL19
 1703 0aef B50C0000 		.4byte	0xcb5
 1704 0af3 26       		.uleb128 0x26
 1705 0af4 30000000 		.4byte	.LVL20
ARM GAS  /var/folders/km/q6jdms0143g2bddz5bhvdfd00000gn/T//ccStLzRV.s 			page 31


 1706 0af8 C00C0000 		.4byte	0xcc0
 1707 0afc 2B       		.uleb128 0x2b
 1708 0afd 56000000 		.4byte	.LVL25
 1709 0b01 CB0C0000 		.4byte	0xccb
 1710 0b05 2C       		.uleb128 0x2c
 1711 0b06 01       		.uleb128 0x1
 1712 0b07 50       		.byte	0x50
 1713 0b08 05       		.uleb128 0x5
 1714 0b09 03       		.byte	0x3
 1715 0b0a 00000000 		.4byte	.LANCHOR0
 1716 0b0e 00       		.byte	0
 1717 0b0f 00       		.byte	0
 1718 0b10 00       		.byte	0
 1719 0b11 2D       		.uleb128 0x2d
 1720 0b12 4C000000 		.4byte	.LVL23
 1721 0b16 D70C0000 		.4byte	0xcd7
 1722 0b1a 250B0000 		.4byte	0xb25
 1723 0b1e 2C       		.uleb128 0x2c
 1724 0b1f 01       		.uleb128 0x1
 1725 0b20 50       		.byte	0x50
 1726 0b21 02       		.uleb128 0x2
 1727 0b22 76       		.byte	0x76
 1728 0b23 00       		.sleb128 0
 1729 0b24 00       		.byte	0
 1730 0b25 2B       		.uleb128 0x2b
 1731 0b26 5E000000 		.4byte	.LVL26
 1732 0b2a CB0C0000 		.4byte	0xccb
 1733 0b2e 2C       		.uleb128 0x2c
 1734 0b2f 01       		.uleb128 0x1
 1735 0b30 50       		.byte	0x50
 1736 0b31 05       		.uleb128 0x5
 1737 0b32 03       		.byte	0x3
 1738 0b33 00000000 		.4byte	.LANCHOR1
 1739 0b37 00       		.byte	0
 1740 0b38 00       		.byte	0
 1741 0b39 17       		.uleb128 0x17
 1742 0b3a AE080000 		.4byte	0x8ae
 1743 0b3e 490B0000 		.4byte	0xb49
 1744 0b42 18       		.uleb128 0x18
 1745 0b43 37000000 		.4byte	0x37
 1746 0b47 0F       		.byte	0xf
 1747 0b48 00       		.byte	0
 1748 0b49 1B       		.uleb128 0x1b
 1749 0b4a 390B0000 		.4byte	0xb39
 1750 0b4e 1E       		.uleb128 0x1e
 1751 0b4f 08010000 		.4byte	.LASF158
 1752 0b53 01       		.byte	0x1
 1753 0b54 83       		.byte	0x83
 1754 0b55 AD020000 		.4byte	0x2ad
 1755 0b59 00000000 		.4byte	.LFB219
 1756 0b5d 58000000 		.4byte	.LFE219-.LFB219
 1757 0b61 01       		.uleb128 0x1
 1758 0b62 9C       		.byte	0x9c
 1759 0b63 3A0C0000 		.4byte	0xc3a
 1760 0b67 20       		.uleb128 0x20
 1761 0b68 747000   		.ascii	"tp\000"
 1762 0b6b 01       		.byte	0x1
ARM GAS  /var/folders/km/q6jdms0143g2bddz5bhvdfd00000gn/T//ccStLzRV.s 			page 32


 1763 0b6c 84       		.byte	0x84
 1764 0b6d AD020000 		.4byte	0x2ad
 1765 0b71 66000000 		.4byte	.LLST0
 1766 0b75 22       		.uleb128 0x22
 1767 0b76 6A0C0000 		.4byte	0xc6a
 1768 0b7a 02000000 		.4byte	.LBB34
 1769 0b7e 00000000 		.4byte	.Ldebug_ranges0+0
 1770 0b82 01       		.byte	0x1
 1771 0b83 86       		.byte	0x86
 1772 0b84 CA0B0000 		.4byte	0xbca
 1773 0b88 29       		.uleb128 0x29
 1774 0b89 7C0C0000 		.4byte	0xc7c
 1775 0b8d 02000000 		.4byte	.LBB36
 1776 0b91 06000000 		.4byte	.LBE36-.LBB36
 1777 0b95 03       		.byte	0x3
 1778 0b96 5C01     		.2byte	0x15c
 1779 0b98 B70B0000 		.4byte	0xbb7
 1780 0b9c 2A       		.uleb128 0x2a
 1781 0b9d 850C0000 		.4byte	0xc85
 1782 0ba1 02000000 		.4byte	.LBB37
 1783 0ba5 06000000 		.4byte	.LBE37-.LBB37
 1784 0ba9 0D       		.byte	0xd
 1785 0baa BF01     		.2byte	0x1bf
 1786 0bac 25       		.uleb128 0x25
 1787 0bad 920C0000 		.4byte	0xc92
 1788 0bb1 84000000 		.4byte	.LLST1
 1789 0bb5 00       		.byte	0
 1790 0bb6 00       		.byte	0
 1791 0bb7 26       		.uleb128 0x26
 1792 0bb8 0E000000 		.4byte	.LVL2
 1793 0bbc 9F0C0000 		.4byte	0xc9f
 1794 0bc0 26       		.uleb128 0x26
 1795 0bc1 12000000 		.4byte	.LVL3
 1796 0bc5 AA0C0000 		.4byte	0xcaa
 1797 0bc9 00       		.byte	0
 1798 0bca 2E       		.uleb128 0x2e
 1799 0bcb 3A0C0000 		.4byte	0xc3a
 1800 0bcf 1E000000 		.4byte	.LBB41
 1801 0bd3 18000000 		.4byte	.Ldebug_ranges0+0x18
 1802 0bd7 01       		.byte	0x1
 1803 0bd8 8B       		.byte	0x8b
 1804 0bd9 27       		.uleb128 0x27
 1805 0bda 18000000 		.4byte	.Ldebug_ranges0+0x18
 1806 0bde 28       		.uleb128 0x28
 1807 0bdf 470C0000 		.4byte	0xc47
 1808 0be3 23       		.uleb128 0x23
 1809 0be4 730C0000 		.4byte	0xc73
 1810 0be8 36000000 		.4byte	.LBB43
 1811 0bec 30000000 		.4byte	.Ldebug_ranges0+0x30
 1812 0bf0 03       		.byte	0x3
 1813 0bf1 7301     		.2byte	0x173
 1814 0bf3 120C0000 		.4byte	0xc12
 1815 0bf7 24       		.uleb128 0x24
 1816 0bf8 850C0000 		.4byte	0xc85
 1817 0bfc 36000000 		.4byte	.LBB44
 1818 0c00 30000000 		.4byte	.Ldebug_ranges0+0x30
 1819 0c04 0D       		.byte	0xd
ARM GAS  /var/folders/km/q6jdms0143g2bddz5bhvdfd00000gn/T//ccStLzRV.s 			page 33


 1820 0c05 CD01     		.2byte	0x1cd
 1821 0c07 25       		.uleb128 0x25
 1822 0c08 920C0000 		.4byte	0xc92
 1823 0c0c 99000000 		.4byte	.LLST2
 1824 0c10 00       		.byte	0
 1825 0c11 00       		.byte	0
 1826 0c12 26       		.uleb128 0x26
 1827 0c13 22000000 		.4byte	.LVL5
 1828 0c17 B50C0000 		.4byte	0xcb5
 1829 0c1b 26       		.uleb128 0x26
 1830 0c1c 26000000 		.4byte	.LVL6
 1831 0c20 C00C0000 		.4byte	0xcc0
 1832 0c24 2B       		.uleb128 0x2b
 1833 0c25 46000000 		.4byte	.LVL10
 1834 0c29 CB0C0000 		.4byte	0xccb
 1835 0c2d 2C       		.uleb128 0x2c
 1836 0c2e 01       		.uleb128 0x1
 1837 0c2f 50       		.byte	0x50
 1838 0c30 05       		.uleb128 0x5
 1839 0c31 03       		.byte	0x3
 1840 0c32 00000000 		.4byte	.LANCHOR0
 1841 0c36 00       		.byte	0
 1842 0c37 00       		.byte	0
 1843 0c38 00       		.byte	0
 1844 0c39 00       		.byte	0
 1845 0c3a 2F       		.uleb128 0x2f
 1846 0c3b 9B080000 		.4byte	.LASF163
 1847 0c3f 03       		.byte	0x3
 1848 0c40 6601     		.2byte	0x166
 1849 0c42 03       		.byte	0x3
 1850 0c43 550C0000 		.4byte	0xc55
 1851 0c47 30       		.uleb128 0x30
 1852 0c48 BF060000 		.4byte	.LASF159
 1853 0c4c 650C0000 		.4byte	0xc65
 1854 0c50 9B080000 		.4byte	.LASF163
 1855 0c54 00       		.byte	0
 1856 0c55 17       		.uleb128 0x17
 1857 0c56 AE080000 		.4byte	0x8ae
 1858 0c5a 650C0000 		.4byte	0xc65
 1859 0c5e 18       		.uleb128 0x18
 1860 0c5f 37000000 		.4byte	0x37
 1861 0c63 0B       		.byte	0xb
 1862 0c64 00       		.byte	0
 1863 0c65 1B       		.uleb128 0x1b
 1864 0c66 550C0000 		.4byte	0xc55
 1865 0c6a 31       		.uleb128 0x31
 1866 0c6b D0060000 		.4byte	.LASF160
 1867 0c6f 03       		.byte	0x3
 1868 0c70 5A01     		.2byte	0x15a
 1869 0c72 03       		.byte	0x3
 1870 0c73 31       		.uleb128 0x31
 1871 0c74 91010000 		.4byte	.LASF161
 1872 0c78 0D       		.byte	0xd
 1873 0c79 CA01     		.2byte	0x1ca
 1874 0c7b 03       		.byte	0x3
 1875 0c7c 31       		.uleb128 0x31
 1876 0c7d 7C000000 		.4byte	.LASF162
ARM GAS  /var/folders/km/q6jdms0143g2bddz5bhvdfd00000gn/T//ccStLzRV.s 			page 34


 1877 0c81 0D       		.byte	0xd
 1878 0c82 BC01     		.2byte	0x1bc
 1879 0c84 03       		.byte	0x3
 1880 0c85 2F       		.uleb128 0x2f
 1881 0c86 D9070000 		.4byte	.LASF164
 1882 0c8a 02       		.byte	0x2
 1883 0c8b 2002     		.2byte	0x220
 1884 0c8d 03       		.byte	0x3
 1885 0c8e 9F0C0000 		.4byte	0xc9f
 1886 0c92 32       		.uleb128 0x32
 1887 0c93 32020000 		.4byte	.LASF174
 1888 0c97 02       		.byte	0x2
 1889 0c98 2002     		.2byte	0x220
 1890 0c9a DA000000 		.4byte	0xda
 1891 0c9e 00       		.byte	0
 1892 0c9f 33       		.uleb128 0x33
 1893 0ca0 EA000000 		.4byte	.LASF165
 1894 0ca4 EA000000 		.4byte	.LASF165
 1895 0ca8 10       		.byte	0x10
 1896 0ca9 4F       		.byte	0x4f
 1897 0caa 33       		.uleb128 0x33
 1898 0cab 50050000 		.4byte	.LASF166
 1899 0caf 50050000 		.4byte	.LASF166
 1900 0cb3 0E       		.byte	0xe
 1901 0cb4 D8       		.byte	0xd8
 1902 0cb5 33       		.uleb128 0x33
 1903 0cb6 47080000 		.4byte	.LASF167
 1904 0cba 47080000 		.4byte	.LASF167
 1905 0cbe 0E       		.byte	0xe
 1906 0cbf D9       		.byte	0xd9
 1907 0cc0 33       		.uleb128 0x33
 1908 0cc1 2B050000 		.4byte	.LASF168
 1909 0cc5 2B050000 		.4byte	.LASF168
 1910 0cc9 10       		.byte	0x10
 1911 0cca 50       		.byte	0x50
 1912 0ccb 34       		.uleb128 0x34
 1913 0ccc 0A020000 		.4byte	.LASF169
 1914 0cd0 0A020000 		.4byte	.LASF169
 1915 0cd4 03       		.byte	0x3
 1916 0cd5 1601     		.2byte	0x116
 1917 0cd7 33       		.uleb128 0x33
 1918 0cd8 DA060000 		.4byte	.LASF170
 1919 0cdc DA060000 		.4byte	.LASF170
 1920 0ce0 14       		.byte	0x14
 1921 0ce1 4B       		.byte	0x4b
 1922 0ce2 00       		.byte	0
 1923              		.section	.debug_abbrev,"",%progbits
 1924              	.Ldebug_abbrev0:
 1925 0000 01       		.uleb128 0x1
 1926 0001 11       		.uleb128 0x11
 1927 0002 01       		.byte	0x1
 1928 0003 25       		.uleb128 0x25
 1929 0004 0E       		.uleb128 0xe
 1930 0005 13       		.uleb128 0x13
 1931 0006 0B       		.uleb128 0xb
 1932 0007 03       		.uleb128 0x3
 1933 0008 0E       		.uleb128 0xe
ARM GAS  /var/folders/km/q6jdms0143g2bddz5bhvdfd00000gn/T//ccStLzRV.s 			page 35


 1934 0009 1B       		.uleb128 0x1b
 1935 000a 0E       		.uleb128 0xe
 1936 000b 55       		.uleb128 0x55
 1937 000c 17       		.uleb128 0x17
 1938 000d 11       		.uleb128 0x11
 1939 000e 01       		.uleb128 0x1
 1940 000f 10       		.uleb128 0x10
 1941 0010 17       		.uleb128 0x17
 1942 0011 00       		.byte	0
 1943 0012 00       		.byte	0
 1944 0013 02       		.uleb128 0x2
 1945 0014 24       		.uleb128 0x24
 1946 0015 00       		.byte	0
 1947 0016 0B       		.uleb128 0xb
 1948 0017 0B       		.uleb128 0xb
 1949 0018 3E       		.uleb128 0x3e
 1950 0019 0B       		.uleb128 0xb
 1951 001a 03       		.uleb128 0x3
 1952 001b 08       		.uleb128 0x8
 1953 001c 00       		.byte	0
 1954 001d 00       		.byte	0
 1955 001e 03       		.uleb128 0x3
 1956 001f 16       		.uleb128 0x16
 1957 0020 00       		.byte	0
 1958 0021 03       		.uleb128 0x3
 1959 0022 0E       		.uleb128 0xe
 1960 0023 3A       		.uleb128 0x3a
 1961 0024 0B       		.uleb128 0xb
 1962 0025 3B       		.uleb128 0x3b
 1963 0026 0B       		.uleb128 0xb
 1964 0027 49       		.uleb128 0x49
 1965 0028 13       		.uleb128 0x13
 1966 0029 00       		.byte	0
 1967 002a 00       		.byte	0
 1968 002b 04       		.uleb128 0x4
 1969 002c 24       		.uleb128 0x24
 1970 002d 00       		.byte	0
 1971 002e 0B       		.uleb128 0xb
 1972 002f 0B       		.uleb128 0xb
 1973 0030 3E       		.uleb128 0x3e
 1974 0031 0B       		.uleb128 0xb
 1975 0032 03       		.uleb128 0x3
 1976 0033 0E       		.uleb128 0xe
 1977 0034 00       		.byte	0
 1978 0035 00       		.byte	0
 1979 0036 05       		.uleb128 0x5
 1980 0037 35       		.uleb128 0x35
 1981 0038 00       		.byte	0
 1982 0039 49       		.uleb128 0x49
 1983 003a 13       		.uleb128 0x13
 1984 003b 00       		.byte	0
 1985 003c 00       		.byte	0
 1986 003d 06       		.uleb128 0x6
 1987 003e 13       		.uleb128 0x13
 1988 003f 01       		.byte	0x1
 1989 0040 03       		.uleb128 0x3
 1990 0041 0E       		.uleb128 0xe
ARM GAS  /var/folders/km/q6jdms0143g2bddz5bhvdfd00000gn/T//ccStLzRV.s 			page 36


 1991 0042 0B       		.uleb128 0xb
 1992 0043 0B       		.uleb128 0xb
 1993 0044 3A       		.uleb128 0x3a
 1994 0045 0B       		.uleb128 0xb
 1995 0046 3B       		.uleb128 0x3b
 1996 0047 0B       		.uleb128 0xb
 1997 0048 01       		.uleb128 0x1
 1998 0049 13       		.uleb128 0x13
 1999 004a 00       		.byte	0
 2000 004b 00       		.byte	0
 2001 004c 07       		.uleb128 0x7
 2002 004d 0D       		.uleb128 0xd
 2003 004e 00       		.byte	0
 2004 004f 03       		.uleb128 0x3
 2005 0050 0E       		.uleb128 0xe
 2006 0051 3A       		.uleb128 0x3a
 2007 0052 0B       		.uleb128 0xb
 2008 0053 3B       		.uleb128 0x3b
 2009 0054 0B       		.uleb128 0xb
 2010 0055 49       		.uleb128 0x49
 2011 0056 13       		.uleb128 0x13
 2012 0057 38       		.uleb128 0x38
 2013 0058 0B       		.uleb128 0xb
 2014 0059 00       		.byte	0
 2015 005a 00       		.byte	0
 2016 005b 08       		.uleb128 0x8
 2017 005c 0D       		.uleb128 0xd
 2018 005d 00       		.byte	0
 2019 005e 03       		.uleb128 0x3
 2020 005f 08       		.uleb128 0x8
 2021 0060 3A       		.uleb128 0x3a
 2022 0061 0B       		.uleb128 0xb
 2023 0062 3B       		.uleb128 0x3b
 2024 0063 05       		.uleb128 0x5
 2025 0064 49       		.uleb128 0x49
 2026 0065 13       		.uleb128 0x13
 2027 0066 38       		.uleb128 0x38
 2028 0067 0B       		.uleb128 0xb
 2029 0068 00       		.byte	0
 2030 0069 00       		.byte	0
 2031 006a 09       		.uleb128 0x9
 2032 006b 0D       		.uleb128 0xd
 2033 006c 00       		.byte	0
 2034 006d 03       		.uleb128 0x3
 2035 006e 0E       		.uleb128 0xe
 2036 006f 3A       		.uleb128 0x3a
 2037 0070 0B       		.uleb128 0xb
 2038 0071 3B       		.uleb128 0x3b
 2039 0072 05       		.uleb128 0x5
 2040 0073 49       		.uleb128 0x49
 2041 0074 13       		.uleb128 0x13
 2042 0075 38       		.uleb128 0x38
 2043 0076 0B       		.uleb128 0xb
 2044 0077 00       		.byte	0
 2045 0078 00       		.byte	0
 2046 0079 0A       		.uleb128 0xa
 2047 007a 0F       		.uleb128 0xf
ARM GAS  /var/folders/km/q6jdms0143g2bddz5bhvdfd00000gn/T//ccStLzRV.s 			page 37


 2048 007b 00       		.byte	0
 2049 007c 0B       		.uleb128 0xb
 2050 007d 0B       		.uleb128 0xb
 2051 007e 49       		.uleb128 0x49
 2052 007f 13       		.uleb128 0x13
 2053 0080 00       		.byte	0
 2054 0081 00       		.byte	0
 2055 0082 0B       		.uleb128 0xb
 2056 0083 13       		.uleb128 0x13
 2057 0084 01       		.byte	0x1
 2058 0085 03       		.uleb128 0x3
 2059 0086 0E       		.uleb128 0xe
 2060 0087 0B       		.uleb128 0xb
 2061 0088 0B       		.uleb128 0xb
 2062 0089 3A       		.uleb128 0x3a
 2063 008a 0B       		.uleb128 0xb
 2064 008b 3B       		.uleb128 0x3b
 2065 008c 05       		.uleb128 0x5
 2066 008d 01       		.uleb128 0x1
 2067 008e 13       		.uleb128 0x13
 2068 008f 00       		.byte	0
 2069 0090 00       		.byte	0
 2070 0091 0C       		.uleb128 0xc
 2071 0092 15       		.uleb128 0x15
 2072 0093 01       		.byte	0x1
 2073 0094 27       		.uleb128 0x27
 2074 0095 19       		.uleb128 0x19
 2075 0096 01       		.uleb128 0x1
 2076 0097 13       		.uleb128 0x13
 2077 0098 00       		.byte	0
 2078 0099 00       		.byte	0
 2079 009a 0D       		.uleb128 0xd
 2080 009b 05       		.uleb128 0x5
 2081 009c 00       		.byte	0
 2082 009d 49       		.uleb128 0x49
 2083 009e 13       		.uleb128 0x13
 2084 009f 00       		.byte	0
 2085 00a0 00       		.byte	0
 2086 00a1 0E       		.uleb128 0xe
 2087 00a2 0F       		.uleb128 0xf
 2088 00a3 00       		.byte	0
 2089 00a4 0B       		.uleb128 0xb
 2090 00a5 0B       		.uleb128 0xb
 2091 00a6 00       		.byte	0
 2092 00a7 00       		.byte	0
 2093 00a8 0F       		.uleb128 0xf
 2094 00a9 13       		.uleb128 0x13
 2095 00aa 01       		.byte	0x1
 2096 00ab 03       		.uleb128 0x3
 2097 00ac 0E       		.uleb128 0xe
 2098 00ad 0B       		.uleb128 0xb
 2099 00ae 05       		.uleb128 0x5
 2100 00af 3A       		.uleb128 0x3a
 2101 00b0 0B       		.uleb128 0xb
 2102 00b1 3B       		.uleb128 0x3b
 2103 00b2 05       		.uleb128 0x5
 2104 00b3 01       		.uleb128 0x1
ARM GAS  /var/folders/km/q6jdms0143g2bddz5bhvdfd00000gn/T//ccStLzRV.s 			page 38


 2105 00b4 13       		.uleb128 0x13
 2106 00b5 00       		.byte	0
 2107 00b6 00       		.byte	0
 2108 00b7 10       		.uleb128 0x10
 2109 00b8 0D       		.uleb128 0xd
 2110 00b9 00       		.byte	0
 2111 00ba 03       		.uleb128 0x3
 2112 00bb 0E       		.uleb128 0xe
 2113 00bc 3A       		.uleb128 0x3a
 2114 00bd 0B       		.uleb128 0xb
 2115 00be 3B       		.uleb128 0x3b
 2116 00bf 05       		.uleb128 0x5
 2117 00c0 49       		.uleb128 0x49
 2118 00c1 13       		.uleb128 0x13
 2119 00c2 38       		.uleb128 0x38
 2120 00c3 05       		.uleb128 0x5
 2121 00c4 00       		.byte	0
 2122 00c5 00       		.byte	0
 2123 00c6 11       		.uleb128 0x11
 2124 00c7 0D       		.uleb128 0xd
 2125 00c8 00       		.byte	0
 2126 00c9 03       		.uleb128 0x3
 2127 00ca 08       		.uleb128 0x8
 2128 00cb 3A       		.uleb128 0x3a
 2129 00cc 0B       		.uleb128 0xb
 2130 00cd 3B       		.uleb128 0x3b
 2131 00ce 05       		.uleb128 0x5
 2132 00cf 49       		.uleb128 0x49
 2133 00d0 13       		.uleb128 0x13
 2134 00d1 38       		.uleb128 0x38
 2135 00d2 05       		.uleb128 0x5
 2136 00d3 00       		.byte	0
 2137 00d4 00       		.byte	0
 2138 00d5 12       		.uleb128 0x12
 2139 00d6 34       		.uleb128 0x34
 2140 00d7 00       		.byte	0
 2141 00d8 03       		.uleb128 0x3
 2142 00d9 0E       		.uleb128 0xe
 2143 00da 3A       		.uleb128 0x3a
 2144 00db 0B       		.uleb128 0xb
 2145 00dc 3B       		.uleb128 0x3b
 2146 00dd 05       		.uleb128 0x5
 2147 00de 49       		.uleb128 0x49
 2148 00df 13       		.uleb128 0x13
 2149 00e0 3F       		.uleb128 0x3f
 2150 00e1 19       		.uleb128 0x19
 2151 00e2 3C       		.uleb128 0x3c
 2152 00e3 19       		.uleb128 0x19
 2153 00e4 00       		.byte	0
 2154 00e5 00       		.byte	0
 2155 00e6 13       		.uleb128 0x13
 2156 00e7 34       		.uleb128 0x34
 2157 00e8 00       		.byte	0
 2158 00e9 03       		.uleb128 0x3
 2159 00ea 0E       		.uleb128 0xe
 2160 00eb 3A       		.uleb128 0x3a
 2161 00ec 0B       		.uleb128 0xb
ARM GAS  /var/folders/km/q6jdms0143g2bddz5bhvdfd00000gn/T//ccStLzRV.s 			page 39


 2162 00ed 3B       		.uleb128 0x3b
 2163 00ee 0B       		.uleb128 0xb
 2164 00ef 49       		.uleb128 0x49
 2165 00f0 13       		.uleb128 0x13
 2166 00f1 3F       		.uleb128 0x3f
 2167 00f2 19       		.uleb128 0x19
 2168 00f3 3C       		.uleb128 0x3c
 2169 00f4 19       		.uleb128 0x19
 2170 00f5 00       		.byte	0
 2171 00f6 00       		.byte	0
 2172 00f7 14       		.uleb128 0x14
 2173 00f8 0D       		.uleb128 0xd
 2174 00f9 00       		.byte	0
 2175 00fa 03       		.uleb128 0x3
 2176 00fb 08       		.uleb128 0x8
 2177 00fc 3A       		.uleb128 0x3a
 2178 00fd 0B       		.uleb128 0xb
 2179 00fe 3B       		.uleb128 0x3b
 2180 00ff 0B       		.uleb128 0xb
 2181 0100 49       		.uleb128 0x49
 2182 0101 13       		.uleb128 0x13
 2183 0102 38       		.uleb128 0x38
 2184 0103 0B       		.uleb128 0xb
 2185 0104 00       		.byte	0
 2186 0105 00       		.byte	0
 2187 0106 15       		.uleb128 0x15
 2188 0107 13       		.uleb128 0x13
 2189 0108 01       		.byte	0x1
 2190 0109 0B       		.uleb128 0xb
 2191 010a 0B       		.uleb128 0xb
 2192 010b 3A       		.uleb128 0x3a
 2193 010c 0B       		.uleb128 0xb
 2194 010d 3B       		.uleb128 0x3b
 2195 010e 0B       		.uleb128 0xb
 2196 010f 01       		.uleb128 0x1
 2197 0110 13       		.uleb128 0x13
 2198 0111 00       		.byte	0
 2199 0112 00       		.byte	0
 2200 0113 16       		.uleb128 0x16
 2201 0114 13       		.uleb128 0x13
 2202 0115 01       		.byte	0x1
 2203 0116 0B       		.uleb128 0xb
 2204 0117 05       		.uleb128 0x5
 2205 0118 3A       		.uleb128 0x3a
 2206 0119 0B       		.uleb128 0xb
 2207 011a 3B       		.uleb128 0x3b
 2208 011b 0B       		.uleb128 0xb
 2209 011c 01       		.uleb128 0x1
 2210 011d 13       		.uleb128 0x13
 2211 011e 00       		.byte	0
 2212 011f 00       		.byte	0
 2213 0120 17       		.uleb128 0x17
 2214 0121 01       		.uleb128 0x1
 2215 0122 01       		.byte	0x1
 2216 0123 49       		.uleb128 0x49
 2217 0124 13       		.uleb128 0x13
 2218 0125 01       		.uleb128 0x1
ARM GAS  /var/folders/km/q6jdms0143g2bddz5bhvdfd00000gn/T//ccStLzRV.s 			page 40


 2219 0126 13       		.uleb128 0x13
 2220 0127 00       		.byte	0
 2221 0128 00       		.byte	0
 2222 0129 18       		.uleb128 0x18
 2223 012a 21       		.uleb128 0x21
 2224 012b 00       		.byte	0
 2225 012c 49       		.uleb128 0x49
 2226 012d 13       		.uleb128 0x13
 2227 012e 2F       		.uleb128 0x2f
 2228 012f 0B       		.uleb128 0xb
 2229 0130 00       		.byte	0
 2230 0131 00       		.byte	0
 2231 0132 19       		.uleb128 0x19
 2232 0133 17       		.uleb128 0x17
 2233 0134 01       		.byte	0x1
 2234 0135 0B       		.uleb128 0xb
 2235 0136 0B       		.uleb128 0xb
 2236 0137 3A       		.uleb128 0x3a
 2237 0138 0B       		.uleb128 0xb
 2238 0139 3B       		.uleb128 0x3b
 2239 013a 0B       		.uleb128 0xb
 2240 013b 01       		.uleb128 0x1
 2241 013c 13       		.uleb128 0x13
 2242 013d 00       		.byte	0
 2243 013e 00       		.byte	0
 2244 013f 1A       		.uleb128 0x1a
 2245 0140 0D       		.uleb128 0xd
 2246 0141 00       		.byte	0
 2247 0142 03       		.uleb128 0x3
 2248 0143 0E       		.uleb128 0xe
 2249 0144 3A       		.uleb128 0x3a
 2250 0145 0B       		.uleb128 0xb
 2251 0146 3B       		.uleb128 0x3b
 2252 0147 05       		.uleb128 0x5
 2253 0148 49       		.uleb128 0x49
 2254 0149 13       		.uleb128 0x13
 2255 014a 00       		.byte	0
 2256 014b 00       		.byte	0
 2257 014c 1B       		.uleb128 0x1b
 2258 014d 26       		.uleb128 0x26
 2259 014e 00       		.byte	0
 2260 014f 49       		.uleb128 0x49
 2261 0150 13       		.uleb128 0x13
 2262 0151 00       		.byte	0
 2263 0152 00       		.byte	0
 2264 0153 1C       		.uleb128 0x1c
 2265 0154 34       		.uleb128 0x34
 2266 0155 00       		.byte	0
 2267 0156 03       		.uleb128 0x3
 2268 0157 08       		.uleb128 0x8
 2269 0158 3A       		.uleb128 0x3a
 2270 0159 0B       		.uleb128 0xb
 2271 015a 3B       		.uleb128 0x3b
 2272 015b 05       		.uleb128 0x5
 2273 015c 49       		.uleb128 0x49
 2274 015d 13       		.uleb128 0x13
 2275 015e 3F       		.uleb128 0x3f
ARM GAS  /var/folders/km/q6jdms0143g2bddz5bhvdfd00000gn/T//ccStLzRV.s 			page 41


 2276 015f 19       		.uleb128 0x19
 2277 0160 3C       		.uleb128 0x3c
 2278 0161 19       		.uleb128 0x19
 2279 0162 00       		.byte	0
 2280 0163 00       		.byte	0
 2281 0164 1D       		.uleb128 0x1d
 2282 0165 34       		.uleb128 0x34
 2283 0166 00       		.byte	0
 2284 0167 47       		.uleb128 0x47
 2285 0168 13       		.uleb128 0x13
 2286 0169 3A       		.uleb128 0x3a
 2287 016a 0B       		.uleb128 0xb
 2288 016b 3B       		.uleb128 0x3b
 2289 016c 0B       		.uleb128 0xb
 2290 016d 02       		.uleb128 0x2
 2291 016e 18       		.uleb128 0x18
 2292 016f 00       		.byte	0
 2293 0170 00       		.byte	0
 2294 0171 1E       		.uleb128 0x1e
 2295 0172 2E       		.uleb128 0x2e
 2296 0173 01       		.byte	0x1
 2297 0174 3F       		.uleb128 0x3f
 2298 0175 19       		.uleb128 0x19
 2299 0176 03       		.uleb128 0x3
 2300 0177 0E       		.uleb128 0xe
 2301 0178 3A       		.uleb128 0x3a
 2302 0179 0B       		.uleb128 0xb
 2303 017a 3B       		.uleb128 0x3b
 2304 017b 0B       		.uleb128 0xb
 2305 017c 27       		.uleb128 0x27
 2306 017d 19       		.uleb128 0x19
 2307 017e 49       		.uleb128 0x49
 2308 017f 13       		.uleb128 0x13
 2309 0180 11       		.uleb128 0x11
 2310 0181 01       		.uleb128 0x1
 2311 0182 12       		.uleb128 0x12
 2312 0183 06       		.uleb128 0x6
 2313 0184 40       		.uleb128 0x40
 2314 0185 18       		.uleb128 0x18
 2315 0186 9742     		.uleb128 0x2117
 2316 0188 19       		.uleb128 0x19
 2317 0189 01       		.uleb128 0x1
 2318 018a 13       		.uleb128 0x13
 2319 018b 00       		.byte	0
 2320 018c 00       		.byte	0
 2321 018d 1F       		.uleb128 0x1f
 2322 018e 05       		.uleb128 0x5
 2323 018f 00       		.byte	0
 2324 0190 03       		.uleb128 0x3
 2325 0191 08       		.uleb128 0x8
 2326 0192 3A       		.uleb128 0x3a
 2327 0193 0B       		.uleb128 0xb
 2328 0194 3B       		.uleb128 0x3b
 2329 0195 0B       		.uleb128 0xb
 2330 0196 49       		.uleb128 0x49
 2331 0197 13       		.uleb128 0x13
 2332 0198 02       		.uleb128 0x2
ARM GAS  /var/folders/km/q6jdms0143g2bddz5bhvdfd00000gn/T//ccStLzRV.s 			page 42


 2333 0199 17       		.uleb128 0x17
 2334 019a 00       		.byte	0
 2335 019b 00       		.byte	0
 2336 019c 20       		.uleb128 0x20
 2337 019d 34       		.uleb128 0x34
 2338 019e 00       		.byte	0
 2339 019f 03       		.uleb128 0x3
 2340 01a0 08       		.uleb128 0x8
 2341 01a1 3A       		.uleb128 0x3a
 2342 01a2 0B       		.uleb128 0xb
 2343 01a3 3B       		.uleb128 0x3b
 2344 01a4 0B       		.uleb128 0xb
 2345 01a5 49       		.uleb128 0x49
 2346 01a6 13       		.uleb128 0x13
 2347 01a7 02       		.uleb128 0x2
 2348 01a8 17       		.uleb128 0x17
 2349 01a9 00       		.byte	0
 2350 01aa 00       		.byte	0
 2351 01ab 21       		.uleb128 0x21
 2352 01ac 34       		.uleb128 0x34
 2353 01ad 00       		.byte	0
 2354 01ae 03       		.uleb128 0x3
 2355 01af 0E       		.uleb128 0xe
 2356 01b0 49       		.uleb128 0x49
 2357 01b1 13       		.uleb128 0x13
 2358 01b2 34       		.uleb128 0x34
 2359 01b3 19       		.uleb128 0x19
 2360 01b4 02       		.uleb128 0x2
 2361 01b5 18       		.uleb128 0x18
 2362 01b6 00       		.byte	0
 2363 01b7 00       		.byte	0
 2364 01b8 22       		.uleb128 0x22
 2365 01b9 1D       		.uleb128 0x1d
 2366 01ba 01       		.byte	0x1
 2367 01bb 31       		.uleb128 0x31
 2368 01bc 13       		.uleb128 0x13
 2369 01bd 52       		.uleb128 0x52
 2370 01be 01       		.uleb128 0x1
 2371 01bf 55       		.uleb128 0x55
 2372 01c0 17       		.uleb128 0x17
 2373 01c1 58       		.uleb128 0x58
 2374 01c2 0B       		.uleb128 0xb
 2375 01c3 59       		.uleb128 0x59
 2376 01c4 0B       		.uleb128 0xb
 2377 01c5 01       		.uleb128 0x1
 2378 01c6 13       		.uleb128 0x13
 2379 01c7 00       		.byte	0
 2380 01c8 00       		.byte	0
 2381 01c9 23       		.uleb128 0x23
 2382 01ca 1D       		.uleb128 0x1d
 2383 01cb 01       		.byte	0x1
 2384 01cc 31       		.uleb128 0x31
 2385 01cd 13       		.uleb128 0x13
 2386 01ce 52       		.uleb128 0x52
 2387 01cf 01       		.uleb128 0x1
 2388 01d0 55       		.uleb128 0x55
 2389 01d1 17       		.uleb128 0x17
ARM GAS  /var/folders/km/q6jdms0143g2bddz5bhvdfd00000gn/T//ccStLzRV.s 			page 43


 2390 01d2 58       		.uleb128 0x58
 2391 01d3 0B       		.uleb128 0xb
 2392 01d4 59       		.uleb128 0x59
 2393 01d5 05       		.uleb128 0x5
 2394 01d6 01       		.uleb128 0x1
 2395 01d7 13       		.uleb128 0x13
 2396 01d8 00       		.byte	0
 2397 01d9 00       		.byte	0
 2398 01da 24       		.uleb128 0x24
 2399 01db 1D       		.uleb128 0x1d
 2400 01dc 01       		.byte	0x1
 2401 01dd 31       		.uleb128 0x31
 2402 01de 13       		.uleb128 0x13
 2403 01df 52       		.uleb128 0x52
 2404 01e0 01       		.uleb128 0x1
 2405 01e1 55       		.uleb128 0x55
 2406 01e2 17       		.uleb128 0x17
 2407 01e3 58       		.uleb128 0x58
 2408 01e4 0B       		.uleb128 0xb
 2409 01e5 59       		.uleb128 0x59
 2410 01e6 05       		.uleb128 0x5
 2411 01e7 00       		.byte	0
 2412 01e8 00       		.byte	0
 2413 01e9 25       		.uleb128 0x25
 2414 01ea 05       		.uleb128 0x5
 2415 01eb 00       		.byte	0
 2416 01ec 31       		.uleb128 0x31
 2417 01ed 13       		.uleb128 0x13
 2418 01ee 02       		.uleb128 0x2
 2419 01ef 17       		.uleb128 0x17
 2420 01f0 00       		.byte	0
 2421 01f1 00       		.byte	0
 2422 01f2 26       		.uleb128 0x26
 2423 01f3 898201   		.uleb128 0x4109
 2424 01f6 00       		.byte	0
 2425 01f7 11       		.uleb128 0x11
 2426 01f8 01       		.uleb128 0x1
 2427 01f9 31       		.uleb128 0x31
 2428 01fa 13       		.uleb128 0x13
 2429 01fb 00       		.byte	0
 2430 01fc 00       		.byte	0
 2431 01fd 27       		.uleb128 0x27
 2432 01fe 0B       		.uleb128 0xb
 2433 01ff 01       		.byte	0x1
 2434 0200 55       		.uleb128 0x55
 2435 0201 17       		.uleb128 0x17
 2436 0202 00       		.byte	0
 2437 0203 00       		.byte	0
 2438 0204 28       		.uleb128 0x28
 2439 0205 34       		.uleb128 0x34
 2440 0206 00       		.byte	0
 2441 0207 31       		.uleb128 0x31
 2442 0208 13       		.uleb128 0x13
 2443 0209 00       		.byte	0
 2444 020a 00       		.byte	0
 2445 020b 29       		.uleb128 0x29
 2446 020c 1D       		.uleb128 0x1d
ARM GAS  /var/folders/km/q6jdms0143g2bddz5bhvdfd00000gn/T//ccStLzRV.s 			page 44


 2447 020d 01       		.byte	0x1
 2448 020e 31       		.uleb128 0x31
 2449 020f 13       		.uleb128 0x13
 2450 0210 11       		.uleb128 0x11
 2451 0211 01       		.uleb128 0x1
 2452 0212 12       		.uleb128 0x12
 2453 0213 06       		.uleb128 0x6
 2454 0214 58       		.uleb128 0x58
 2455 0215 0B       		.uleb128 0xb
 2456 0216 59       		.uleb128 0x59
 2457 0217 05       		.uleb128 0x5
 2458 0218 01       		.uleb128 0x1
 2459 0219 13       		.uleb128 0x13
 2460 021a 00       		.byte	0
 2461 021b 00       		.byte	0
 2462 021c 2A       		.uleb128 0x2a
 2463 021d 1D       		.uleb128 0x1d
 2464 021e 01       		.byte	0x1
 2465 021f 31       		.uleb128 0x31
 2466 0220 13       		.uleb128 0x13
 2467 0221 11       		.uleb128 0x11
 2468 0222 01       		.uleb128 0x1
 2469 0223 12       		.uleb128 0x12
 2470 0224 06       		.uleb128 0x6
 2471 0225 58       		.uleb128 0x58
 2472 0226 0B       		.uleb128 0xb
 2473 0227 59       		.uleb128 0x59
 2474 0228 05       		.uleb128 0x5
 2475 0229 00       		.byte	0
 2476 022a 00       		.byte	0
 2477 022b 2B       		.uleb128 0x2b
 2478 022c 898201   		.uleb128 0x4109
 2479 022f 01       		.byte	0x1
 2480 0230 11       		.uleb128 0x11
 2481 0231 01       		.uleb128 0x1
 2482 0232 31       		.uleb128 0x31
 2483 0233 13       		.uleb128 0x13
 2484 0234 00       		.byte	0
 2485 0235 00       		.byte	0
 2486 0236 2C       		.uleb128 0x2c
 2487 0237 8A8201   		.uleb128 0x410a
 2488 023a 00       		.byte	0
 2489 023b 02       		.uleb128 0x2
 2490 023c 18       		.uleb128 0x18
 2491 023d 9142     		.uleb128 0x2111
 2492 023f 18       		.uleb128 0x18
 2493 0240 00       		.byte	0
 2494 0241 00       		.byte	0
 2495 0242 2D       		.uleb128 0x2d
 2496 0243 898201   		.uleb128 0x4109
 2497 0246 01       		.byte	0x1
 2498 0247 11       		.uleb128 0x11
 2499 0248 01       		.uleb128 0x1
 2500 0249 31       		.uleb128 0x31
 2501 024a 13       		.uleb128 0x13
 2502 024b 01       		.uleb128 0x1
 2503 024c 13       		.uleb128 0x13
ARM GAS  /var/folders/km/q6jdms0143g2bddz5bhvdfd00000gn/T//ccStLzRV.s 			page 45


 2504 024d 00       		.byte	0
 2505 024e 00       		.byte	0
 2506 024f 2E       		.uleb128 0x2e
 2507 0250 1D       		.uleb128 0x1d
 2508 0251 01       		.byte	0x1
 2509 0252 31       		.uleb128 0x31
 2510 0253 13       		.uleb128 0x13
 2511 0254 52       		.uleb128 0x52
 2512 0255 01       		.uleb128 0x1
 2513 0256 55       		.uleb128 0x55
 2514 0257 17       		.uleb128 0x17
 2515 0258 58       		.uleb128 0x58
 2516 0259 0B       		.uleb128 0xb
 2517 025a 59       		.uleb128 0x59
 2518 025b 0B       		.uleb128 0xb
 2519 025c 00       		.byte	0
 2520 025d 00       		.byte	0
 2521 025e 2F       		.uleb128 0x2f
 2522 025f 2E       		.uleb128 0x2e
 2523 0260 01       		.byte	0x1
 2524 0261 03       		.uleb128 0x3
 2525 0262 0E       		.uleb128 0xe
 2526 0263 3A       		.uleb128 0x3a
 2527 0264 0B       		.uleb128 0xb
 2528 0265 3B       		.uleb128 0x3b
 2529 0266 05       		.uleb128 0x5
 2530 0267 27       		.uleb128 0x27
 2531 0268 19       		.uleb128 0x19
 2532 0269 20       		.uleb128 0x20
 2533 026a 0B       		.uleb128 0xb
 2534 026b 01       		.uleb128 0x1
 2535 026c 13       		.uleb128 0x13
 2536 026d 00       		.byte	0
 2537 026e 00       		.byte	0
 2538 026f 30       		.uleb128 0x30
 2539 0270 34       		.uleb128 0x34
 2540 0271 00       		.byte	0
 2541 0272 03       		.uleb128 0x3
 2542 0273 0E       		.uleb128 0xe
 2543 0274 49       		.uleb128 0x49
 2544 0275 13       		.uleb128 0x13
 2545 0276 34       		.uleb128 0x34
 2546 0277 19       		.uleb128 0x19
 2547 0278 1C       		.uleb128 0x1c
 2548 0279 0E       		.uleb128 0xe
 2549 027a 00       		.byte	0
 2550 027b 00       		.byte	0
 2551 027c 31       		.uleb128 0x31
 2552 027d 2E       		.uleb128 0x2e
 2553 027e 00       		.byte	0
 2554 027f 03       		.uleb128 0x3
 2555 0280 0E       		.uleb128 0xe
 2556 0281 3A       		.uleb128 0x3a
 2557 0282 0B       		.uleb128 0xb
 2558 0283 3B       		.uleb128 0x3b
 2559 0284 05       		.uleb128 0x5
 2560 0285 27       		.uleb128 0x27
ARM GAS  /var/folders/km/q6jdms0143g2bddz5bhvdfd00000gn/T//ccStLzRV.s 			page 46


 2561 0286 19       		.uleb128 0x19
 2562 0287 20       		.uleb128 0x20
 2563 0288 0B       		.uleb128 0xb
 2564 0289 00       		.byte	0
 2565 028a 00       		.byte	0
 2566 028b 32       		.uleb128 0x32
 2567 028c 05       		.uleb128 0x5
 2568 028d 00       		.byte	0
 2569 028e 03       		.uleb128 0x3
 2570 028f 0E       		.uleb128 0xe
 2571 0290 3A       		.uleb128 0x3a
 2572 0291 0B       		.uleb128 0xb
 2573 0292 3B       		.uleb128 0x3b
 2574 0293 05       		.uleb128 0x5
 2575 0294 49       		.uleb128 0x49
 2576 0295 13       		.uleb128 0x13
 2577 0296 00       		.byte	0
 2578 0297 00       		.byte	0
 2579 0298 33       		.uleb128 0x33
 2580 0299 2E       		.uleb128 0x2e
 2581 029a 00       		.byte	0
 2582 029b 3F       		.uleb128 0x3f
 2583 029c 19       		.uleb128 0x19
 2584 029d 3C       		.uleb128 0x3c
 2585 029e 19       		.uleb128 0x19
 2586 029f 6E       		.uleb128 0x6e
 2587 02a0 0E       		.uleb128 0xe
 2588 02a1 03       		.uleb128 0x3
 2589 02a2 0E       		.uleb128 0xe
 2590 02a3 3A       		.uleb128 0x3a
 2591 02a4 0B       		.uleb128 0xb
 2592 02a5 3B       		.uleb128 0x3b
 2593 02a6 0B       		.uleb128 0xb
 2594 02a7 00       		.byte	0
 2595 02a8 00       		.byte	0
 2596 02a9 34       		.uleb128 0x34
 2597 02aa 2E       		.uleb128 0x2e
 2598 02ab 00       		.byte	0
 2599 02ac 3F       		.uleb128 0x3f
 2600 02ad 19       		.uleb128 0x19
 2601 02ae 3C       		.uleb128 0x3c
 2602 02af 19       		.uleb128 0x19
 2603 02b0 6E       		.uleb128 0x6e
 2604 02b1 0E       		.uleb128 0xe
 2605 02b2 03       		.uleb128 0x3
 2606 02b3 0E       		.uleb128 0xe
 2607 02b4 3A       		.uleb128 0x3a
 2608 02b5 0B       		.uleb128 0xb
 2609 02b6 3B       		.uleb128 0x3b
 2610 02b7 05       		.uleb128 0x5
 2611 02b8 00       		.byte	0
 2612 02b9 00       		.byte	0
 2613 02ba 00       		.byte	0
 2614              		.section	.debug_loc,"",%progbits
 2615              	.Ldebug_loc0:
 2616              	.LLST3:
 2617 0000 00000000 		.4byte	.LVL13
ARM GAS  /var/folders/km/q6jdms0143g2bddz5bhvdfd00000gn/T//ccStLzRV.s 			page 47


 2618 0004 0D000000 		.4byte	.LVL15-1
 2619 0008 0100     		.2byte	0x1
 2620 000a 50       		.byte	0x50
 2621 000b 0D000000 		.4byte	.LVL15-1
 2622 000f 74000000 		.4byte	.LFE220
 2623 0013 0100     		.2byte	0x1
 2624 0015 56       		.byte	0x56
 2625 0016 00000000 		.4byte	0
 2626 001a 00000000 		.4byte	0
 2627              	.LLST4:
 2628 001e 16000000 		.4byte	.LVL17
 2629 0022 66000000 		.4byte	.LVL27
 2630 0026 0100     		.2byte	0x1
 2631 0028 54       		.byte	0x54
 2632 0029 66000000 		.4byte	.LVL27
 2633 002d 74000000 		.4byte	.LFE220
 2634 0031 0200     		.2byte	0x2
 2635 0033 76       		.byte	0x76
 2636 0034 10       		.sleb128 16
 2637 0035 00000000 		.4byte	0
 2638 0039 00000000 		.4byte	0
 2639              	.LLST5:
 2640 003d 00000000 		.4byte	.LVL13
 2641 0041 0A000000 		.4byte	.LVL14
 2642 0045 0300     		.2byte	0x3
 2643 0047 08       		.byte	0x8
 2644 0048 20       		.byte	0x20
 2645 0049 9F       		.byte	0x9f
 2646 004a 00000000 		.4byte	0
 2647 004e 00000000 		.4byte	0
 2648              	.LLST6:
 2649 0052 40000000 		.4byte	.LVL21
 2650 0056 46000000 		.4byte	.LVL22
 2651 005a 0200     		.2byte	0x2
 2652 005c 30       		.byte	0x30
 2653 005d 9F       		.byte	0x9f
 2654 005e 00000000 		.4byte	0
 2655 0062 00000000 		.4byte	0
 2656              	.LLST0:
 2657 0066 14000000 		.4byte	.LVL4
 2658 006a 50000000 		.4byte	.LVL12
 2659 006e 0100     		.2byte	0x1
 2660 0070 55       		.byte	0x55
 2661 0071 50000000 		.4byte	.LVL12
 2662 0075 58000000 		.4byte	.LFE219
 2663 0079 0100     		.2byte	0x1
 2664 007b 50       		.byte	0x50
 2665 007c 00000000 		.4byte	0
 2666 0080 00000000 		.4byte	0
 2667              	.LLST1:
 2668 0084 00000000 		.4byte	.LVL0
 2669 0088 08000000 		.4byte	.LVL1
 2670 008c 0300     		.2byte	0x3
 2671 008e 08       		.byte	0x8
 2672 008f 20       		.byte	0x20
 2673 0090 9F       		.byte	0x9f
 2674 0091 00000000 		.4byte	0
ARM GAS  /var/folders/km/q6jdms0143g2bddz5bhvdfd00000gn/T//ccStLzRV.s 			page 48


 2675 0095 00000000 		.4byte	0
 2676              	.LLST2:
 2677 0099 36000000 		.4byte	.LVL7
 2678 009d 3C000000 		.4byte	.LVL8
 2679 00a1 0200     		.2byte	0x2
 2680 00a3 30       		.byte	0x30
 2681 00a4 9F       		.byte	0x9f
 2682 00a5 46000000 		.4byte	.LVL10
 2683 00a9 4C000000 		.4byte	.LVL11
 2684 00ad 0200     		.2byte	0x2
 2685 00af 30       		.byte	0x30
 2686 00b0 9F       		.byte	0x9f
 2687 00b1 00000000 		.4byte	0
 2688 00b5 00000000 		.4byte	0
 2689              		.section	.debug_aranges,"",%progbits
 2690 0000 24000000 		.4byte	0x24
 2691 0004 0200     		.2byte	0x2
 2692 0006 00000000 		.4byte	.Ldebug_info0
 2693 000a 04       		.byte	0x4
 2694 000b 00       		.byte	0
 2695 000c 0000     		.2byte	0
 2696 000e 0000     		.2byte	0
 2697 0010 00000000 		.4byte	.LFB219
 2698 0014 58000000 		.4byte	.LFE219-.LFB219
 2699 0018 00000000 		.4byte	.LFB220
 2700 001c 74000000 		.4byte	.LFE220-.LFB220
 2701 0020 00000000 		.4byte	0
 2702 0024 00000000 		.4byte	0
 2703              		.section	.debug_ranges,"",%progbits
 2704              	.Ldebug_ranges0:
 2705 0000 02000000 		.4byte	.LBB34
 2706 0004 08000000 		.4byte	.LBE34
 2707 0008 0A000000 		.4byte	.LBB40
 2708 000c 12000000 		.4byte	.LBE40
 2709 0010 00000000 		.4byte	0
 2710 0014 00000000 		.4byte	0
 2711 0018 1E000000 		.4byte	.LBB41
 2712 001c 3C000000 		.4byte	.LBE41
 2713 0020 40000000 		.4byte	.LBB50
 2714 0024 4C000000 		.4byte	.LBE50
 2715 0028 00000000 		.4byte	0
 2716 002c 00000000 		.4byte	0
 2717 0030 36000000 		.4byte	.LBB43
 2718 0034 3C000000 		.4byte	.LBE43
 2719 0038 46000000 		.4byte	.LBB48
 2720 003c 4C000000 		.4byte	.LBE48
 2721 0040 00000000 		.4byte	0
 2722 0044 00000000 		.4byte	0
 2723 0048 02000000 		.4byte	.LBB61
 2724 004c 04000000 		.4byte	.LBE61
 2725 0050 06000000 		.4byte	.LBB71
 2726 0054 0E000000 		.4byte	.LBE71
 2727 0058 10000000 		.4byte	.LBB72
 2728 005c 14000000 		.4byte	.LBE72
 2729 0060 00000000 		.4byte	0
 2730 0064 00000000 		.4byte	0
 2731 0068 02000000 		.4byte	.LBB63
ARM GAS  /var/folders/km/q6jdms0143g2bddz5bhvdfd00000gn/T//ccStLzRV.s 			page 49


 2732 006c 04000000 		.4byte	.LBE63
 2733 0070 06000000 		.4byte	.LBB68
 2734 0074 0A000000 		.4byte	.LBE68
 2735 0078 00000000 		.4byte	0
 2736 007c 00000000 		.4byte	0
 2737 0080 28000000 		.4byte	.LBB73
 2738 0084 46000000 		.4byte	.LBE73
 2739 0088 50000000 		.4byte	.LBB79
 2740 008c 58000000 		.4byte	.LBE79
 2741 0090 00000000 		.4byte	0
 2742 0094 00000000 		.4byte	0
 2743 0098 00000000 		.4byte	.LFB219
 2744 009c 58000000 		.4byte	.LFE219
 2745 00a0 00000000 		.4byte	.LFB220
 2746 00a4 74000000 		.4byte	.LFE220
 2747 00a8 00000000 		.4byte	0
 2748 00ac 00000000 		.4byte	0
 2749              		.section	.debug_line,"",%progbits
 2750              	.Ldebug_line0:
 2751 0000 4D040000 		.section	.debug_str,"MS",%progbits,1
 2751      02009003 
 2751      00000201 
 2751      FB0E0D00 
 2751      01010101 
 2752              	.LASF146:
 2753 0000 63665F6F 		.ascii	"cf_off_older\000"
 2753      66665F6F 
 2753      6C646572 
 2753      00
 2754              	.LASF61:
 2755 000d 72656164 		.ascii	"ready_list_t\000"
 2755      795F6C69 
 2755      73745F74 
 2755      00
 2756              	.LASF99:
 2757 001a 73655F74 		.ascii	"se_time\000"
 2757      696D6500 
 2758              	.LASF4:
 2759 0022 73697A65 		.ascii	"size_t\000"
 2759      5F7400
 2760              	.LASF120:
 2761 0029 7264796D 		.ascii	"rdymsg\000"
 2761      736700
 2762              	.LASF20:
 2763 0030 75696E74 		.ascii	"uint64_t\000"
 2763      36345F74 
 2763      00
 2764              	.LASF91:
 2765 0039 6B65726E 		.ascii	"kernel_stats\000"
 2765      656C5F73 
 2765      74617473 
 2765      00
 2766              	.LASF5:
 2767 0046 5F5F7569 		.ascii	"__uint8_t\000"
 2767      6E74385F 
 2767      7400
 2768              	.LASF98:
ARM GAS  /var/folders/km/q6jdms0143g2bddz5bhvdfd00000gn/T//ccStLzRV.s 			page 50


 2769 0050 706F7274 		.ascii	"port_intctx\000"
 2769      5F696E74 
 2769      63747800 
 2770              	.LASF60:
 2771 005c 63685F74 		.ascii	"ch_threads_queue\000"
 2771      68726561 
 2771      64735F71 
 2771      75657565 
 2771      00
 2772              	.LASF80:
 2773 006d 73797374 		.ascii	"system_debug_t\000"
 2773      656D5F64 
 2773      65627567 
 2773      5F7400
 2774              	.LASF162:
 2775 007c 706F7274 		.ascii	"port_lock\000"
 2775      5F6C6F63 
 2775      6B00
 2776              	.LASF111:
 2777 0086 776F7273 		.ascii	"worst\000"
 2777      7400
 2778              	.LASF114:
 2779 008c 74696D65 		.ascii	"time_measurement_t\000"
 2779      5F6D6561 
 2779      73757265 
 2779      6D656E74 
 2779      5F7400
 2780              	.LASF15:
 2781 009f 6C6F6E67 		.ascii	"long long unsigned int\000"
 2781      206C6F6E 
 2781      6720756E 
 2781      7369676E 
 2781      65642069 
 2782              	.LASF107:
 2783 00b6 63685F74 		.ascii	"ch_trace_buffer_t\000"
 2783      72616365 
 2783      5F627566 
 2783      6665725F 
 2783      7400
 2784              	.LASF142:
 2785 00c8 63685F74 		.ascii	"ch_threadsize\000"
 2785      68726561 
 2785      6473697A 
 2785      6500
 2786              	.LASF121:
 2787 00d6 65786974 		.ascii	"exitcode\000"
 2787      636F6465 
 2787      00
 2788              	.LASF90:
 2789 00df 6D61696E 		.ascii	"mainthread\000"
 2789      74687265 
 2789      616400
 2790              	.LASF165:
 2791 00ea 5F737461 		.ascii	"_stats_start_measure_crit_thd\000"
 2791      74735F73 
 2791      74617274 
 2791      5F6D6561 
ARM GAS  /var/folders/km/q6jdms0143g2bddz5bhvdfd00000gn/T//ccStLzRV.s 			page 51


 2791      73757265 
 2792              	.LASF158:
 2793 0108 63685265 		.ascii	"chRegFirstThread\000"
 2793      67466972 
 2793      73745468 
 2793      72656164 
 2793      00
 2794              	.LASF93:
 2795 0119 49544D5F 		.ascii	"ITM_RxBuffer\000"
 2795      52784275 
 2795      66666572 
 2795      00
 2796              	.LASF22:
 2797 0126 72747469 		.ascii	"rttime_t\000"
 2797      6D655F74 
 2797      00
 2798              	.LASF36:
 2799 012f 705F7072 		.ascii	"p_prio\000"
 2799      696F00
 2800              	.LASF149:
 2801 0136 63665F6F 		.ascii	"cf_off_state\000"
 2801      66665F73 
 2801      74617465 
 2801      00
 2802              	.LASF1:
 2803 0143 6C6F6E67 		.ascii	"long long int\000"
 2803      206C6F6E 
 2803      6720696E 
 2803      7400
 2804              	.LASF3:
 2805 0151 7369676E 		.ascii	"signed char\000"
 2805      65642063 
 2805      68617200 
 2806              	.LASF148:
 2807 015d 63665F6F 		.ascii	"cf_off_stklimit\000"
 2807      66665F73 
 2807      746B6C69 
 2807      6D697400 
 2808              	.LASF150:
 2809 016d 63665F6F 		.ascii	"cf_off_flags\000"
 2809      66665F66 
 2809      6C616773 
 2809      00
 2810              	.LASF53:
 2811 017a 705F6D70 		.ascii	"p_mpool\000"
 2811      6F6F6C00 
 2812              	.LASF131:
 2813 0182 6D5F7175 		.ascii	"m_queue\000"
 2813      65756500 
 2814              	.LASF89:
 2815 018a 76746C69 		.ascii	"vtlist\000"
 2815      737400
 2816              	.LASF161:
 2817 0191 706F7274 		.ascii	"port_unlock\000"
 2817      5F756E6C 
 2817      6F636B00 
 2818              	.LASF26:
ARM GAS  /var/folders/km/q6jdms0143g2bddz5bhvdfd00000gn/T//ccStLzRV.s 			page 52


 2819 019d 74736C69 		.ascii	"tslices_t\000"
 2819      6365735F 
 2819      7400
 2820              	.LASF123:
 2821 01a7 77747472 		.ascii	"wttrp\000"
 2821      7000
 2822              	.LASF87:
 2823 01ad 63685F73 		.ascii	"ch_system\000"
 2823      79737465 
 2823      6D00
 2824              	.LASF11:
 2825 01b7 6C6F6E67 		.ascii	"long int\000"
 2825      20696E74 
 2825      00
 2826              	.LASF24:
 2827 01c0 74737461 		.ascii	"tstate_t\000"
 2827      74655F74 
 2827      00
 2828              	.LASF100:
 2829 01c9 73655F74 		.ascii	"se_tp\000"
 2829      7000
 2830              	.LASF154:
 2831 01cf 63686465 		.ascii	"chdebug_t\000"
 2831      6275675F 
 2831      7400
 2832              	.LASF38:
 2833 01d9 705F6E65 		.ascii	"p_newer\000"
 2833      77657200 
 2834              	.LASF128:
 2835 01e1 735F7175 		.ascii	"s_queue\000"
 2835      65756500 
 2836              	.LASF104:
 2837 01e9 74625F73 		.ascii	"tb_size\000"
 2837      697A6500 
 2838              	.LASF66:
 2839 01f1 725F6E65 		.ascii	"r_newer\000"
 2839      77657200 
 2840              	.LASF95:
 2841 01f9 72656761 		.ascii	"regarm_t\000"
 2841      726D5F74 
 2841      00
 2842              	.LASF73:
 2843 0202 76745F70 		.ascii	"vt_prev\000"
 2843      72657600 
 2844              	.LASF169:
 2845 020a 63685379 		.ascii	"chSysHalt\000"
 2845      7348616C 
 2845      7400
 2846              	.LASF81:
 2847 0214 63685F73 		.ascii	"ch_system_debug\000"
 2847      79737465 
 2847      6D5F6465 
 2847      62756700 
 2848              	.LASF134:
 2849 0224 6D5F636E 		.ascii	"m_cnt\000"
 2849      7400
 2850              	.LASF156:
ARM GAS  /var/folders/km/q6jdms0143g2bddz5bhvdfd00000gn/T//ccStLzRV.s 			page 53


 2851 022a 6D757465 		.ascii	"mutex_t\000"
 2851      785F7400 
 2852              	.LASF174:
 2853 0232 76616C75 		.ascii	"value\000"
 2853      6500
 2854              	.LASF84:
 2855 0238 6C6F636B 		.ascii	"lock_cnt\000"
 2855      5F636E74 
 2855      00
 2856              	.LASF92:
 2857 0241 69646C65 		.ascii	"idle_thread_wa\000"
 2857      5F746872 
 2857      6561645F 
 2857      776100
 2858              	.LASF30:
 2859 0250 636E745F 		.ascii	"cnt_t\000"
 2859      7400
 2860              	.LASF41:
 2861 0256 705F7374 		.ascii	"p_stklimit\000"
 2861      6B6C696D 
 2861      697400
 2862              	.LASF0:
 2863 0261 756E7369 		.ascii	"unsigned int\000"
 2863      676E6564 
 2863      20696E74 
 2863      00
 2864              	.LASF72:
 2865 026e 76745F6E 		.ascii	"vt_next\000"
 2865      65787400 
 2866              	.LASF17:
 2867 0276 75696E74 		.ascii	"uint16_t\000"
 2867      31365F74 
 2867      00
 2868              	.LASF94:
 2869 027f 53797374 		.ascii	"SystemCoreClock\000"
 2869      656D436F 
 2869      7265436C 
 2869      6F636B00 
 2870              	.LASF46:
 2871 028f 705F7469 		.ascii	"p_time\000"
 2871      6D6500
 2872              	.LASF124:
 2873 0296 77747365 		.ascii	"wtsemp\000"
 2873      6D7000
 2874              	.LASF171:
 2875 029d 474E5520 		.ascii	"GNU C11 7.2.1 20170904 (release) [ARM/embedded-7-br"
 2875      43313120 
 2875      372E322E 
 2875      31203230 
 2875      31373039 
 2876 02d0 616E6368 		.ascii	"anch revision 255204] -mcpu=cortex-m4 -mfloat-abi=h"
 2876      20726576 
 2876      6973696F 
 2876      6E203235 
 2876      35323034 
 2877 0303 61726420 		.ascii	"ard -mfpu=fpv4-sp-d16 -mno-thumb-interwork -mthumb "
 2877      2D6D6670 
ARM GAS  /var/folders/km/q6jdms0143g2bddz5bhvdfd00000gn/T//ccStLzRV.s 			page 54


 2877      753D6670 
 2877      76342D73 
 2877      702D6431 
 2878 0336 2D676764 		.ascii	"-ggdb -O2 -fomit-frame-pointer -falign-functions=16"
 2878      62202D4F 
 2878      32202D66 
 2878      6F6D6974 
 2878      2D667261 
 2879 0369 202D6666 		.ascii	" -ffunction-sections -fdata-sections -fno-common -f"
 2879      756E6374 
 2879      696F6E2D 
 2879      73656374 
 2879      696F6E73 
 2880 039c 73696E67 		.ascii	"single-precision-constant\000"
 2880      6C652D70 
 2880      72656369 
 2880      73696F6E 
 2880      2D636F6E 
 2881              	.LASF48:
 2882 03b6 705F6D73 		.ascii	"p_msgqueue\000"
 2882      67717565 
 2882      756500
 2883              	.LASF155:
 2884 03c1 63685F64 		.ascii	"ch_debug\000"
 2884      65627567 
 2884      00
 2885              	.LASF115:
 2886 03ca 6E5F6972 		.ascii	"n_irq\000"
 2886      7100
 2887              	.LASF173:
 2888 03d0 2F557365 		.ascii	"/Users/xavierdulex/Documents/EPFL/MT6/robotique_et_"
 2888      72732F78 
 2888      61766965 
 2888      7264756C 
 2888      65782F44 
 2889 0403 73797374 		.ascii	"systemes_ embarques/GitRobotique/TP3_Chibi/Chibi/\000"
 2889      656D6573 
 2889      5F20656D 
 2889      62617271 
 2889      7565732F 
 2890              	.LASF9:
 2891 0435 73686F72 		.ascii	"short unsigned int\000"
 2891      7420756E 
 2891      7369676E 
 2891      65642069 
 2891      6E7400
 2892              	.LASF119:
 2893 0448 6B65726E 		.ascii	"kernel_stats_t\000"
 2893      656C5F73 
 2893      74617473 
 2893      5F7400
 2894              	.LASF57:
 2895 0457 63685F74 		.ascii	"ch_thread\000"
 2895      68726561 
 2895      6400
 2896              	.LASF172:
 2897 0461 2E2E2F2E 		.ascii	"../../lib/ChibiOS/os/rt/src/chregistry.c\000"
ARM GAS  /var/folders/km/q6jdms0143g2bddz5bhvdfd00000gn/T//ccStLzRV.s 			page 55


 2897      2E2F6C69 
 2897      622F4368 
 2897      6962694F 
 2897      532F6F73 
 2898              	.LASF112:
 2899 048a 6C617374 		.ascii	"last\000"
 2899      00
 2900              	.LASF31:
 2901 048f 75636E74 		.ascii	"ucnt_t\000"
 2901      5F7400
 2902              	.LASF86:
 2903 0496 63685F73 		.ascii	"ch_system_t\000"
 2903      79737465 
 2903      6D5F7400 
 2904              	.LASF153:
 2905 04a2 63665F6F 		.ascii	"cf_off_time\000"
 2905      66665F74 
 2905      696D6500 
 2906              	.LASF118:
 2907 04ae 6D5F6372 		.ascii	"m_crit_isr\000"
 2907      69745F69 
 2907      737200
 2908              	.LASF62:
 2909 04b9 63685F72 		.ascii	"ch_ready_list\000"
 2909      65616479 
 2909      5F6C6973 
 2909      7400
 2910              	.LASF29:
 2911 04c7 6576656E 		.ascii	"eventmask_t\000"
 2911      746D6173 
 2911      6B5F7400 
 2912              	.LASF10:
 2913 04d3 5F5F696E 		.ascii	"__int32_t\000"
 2913      7433325F 
 2913      7400
 2914              	.LASF77:
 2915 04dd 76697274 		.ascii	"virtual_timers_list_t\000"
 2915      75616C5F 
 2915      74696D65 
 2915      72735F6C 
 2915      6973745F 
 2916              	.LASF96:
 2917 04f3 73746B61 		.ascii	"stkalign_t\000"
 2917      6C69676E 
 2917      5F7400
 2918              	.LASF56:
 2919 04fe 74687265 		.ascii	"threads_list_t\000"
 2919      6164735F 
 2919      6C697374 
 2919      5F7400
 2920              	.LASF137:
 2921 050d 63685F7A 		.ascii	"ch_zero\000"
 2921      65726F00 
 2922              	.LASF151:
 2923 0515 63665F6F 		.ascii	"cf_off_refs\000"
 2923      66665F72 
 2923      65667300 
ARM GAS  /var/folders/km/q6jdms0143g2bddz5bhvdfd00000gn/T//ccStLzRV.s 			page 56


 2924              	.LASF47:
 2925 0521 705F7761 		.ascii	"p_waiting\000"
 2925      6974696E 
 2925      6700
 2926              	.LASF168:
 2927 052b 5F737461 		.ascii	"_stats_stop_measure_crit_thd\000"
 2927      74735F73 
 2927      746F705F 
 2927      6D656173 
 2927      7572655F 
 2928              	.LASF21:
 2929 0548 7274636E 		.ascii	"rtcnt_t\000"
 2929      745F7400 
 2930              	.LASF166:
 2931 0550 5F646267 		.ascii	"_dbg_check_lock\000"
 2931      5F636865 
 2931      636B5F6C 
 2931      6F636B00 
 2932              	.LASF78:
 2933 0560 63685F76 		.ascii	"ch_virtual_timers_list\000"
 2933      69727475 
 2933      616C5F74 
 2933      696D6572 
 2933      735F6C69 
 2934              	.LASF2:
 2935 0577 6C6F6E67 		.ascii	"long double\000"
 2935      20646F75 
 2935      626C6500 
 2936              	.LASF141:
 2937 0583 63685F74 		.ascii	"ch_timesize\000"
 2937      696D6573 
 2937      697A6500 
 2938              	.LASF105:
 2939 058f 74625F70 		.ascii	"tb_ptr\000"
 2939      747200
 2940              	.LASF103:
 2941 0596 63685F73 		.ascii	"ch_swc_event_t\000"
 2941      77635F65 
 2941      76656E74 
 2941      5F7400
 2942              	.LASF147:
 2943 05a5 63665F6F 		.ascii	"cf_off_name\000"
 2943      66665F6E 
 2943      616D6500 
 2944              	.LASF39:
 2945 05b1 705F6F6C 		.ascii	"p_older\000"
 2945      64657200 
 2946              	.LASF65:
 2947 05b9 725F6374 		.ascii	"r_ctx\000"
 2947      7800
 2948              	.LASF37:
 2949 05bf 705F6374 		.ascii	"p_ctx\000"
 2949      7800
 2950              	.LASF109:
 2951 05c5 746D5F63 		.ascii	"tm_calibration_t\000"
 2951      616C6962 
 2951      72617469 
ARM GAS  /var/folders/km/q6jdms0143g2bddz5bhvdfd00000gn/T//ccStLzRV.s 			page 57


 2951      6F6E5F74 
 2951      00
 2952              	.LASF68:
 2953 05d6 725F6375 		.ascii	"r_current\000"
 2953      7272656E 
 2953      7400
 2954              	.LASF67:
 2955 05e0 725F6F6C 		.ascii	"r_older\000"
 2955      64657200 
 2956              	.LASF14:
 2957 05e8 5F5F7569 		.ascii	"__uint64_t\000"
 2957      6E743634 
 2957      5F7400
 2958              	.LASF113:
 2959 05f3 63756D75 		.ascii	"cumulative\000"
 2959      6C617469 
 2959      766500
 2960              	.LASF25:
 2961 05fe 74726566 		.ascii	"trefs_t\000"
 2961      735F7400 
 2962              	.LASF106:
 2963 0606 74625F62 		.ascii	"tb_buffer\000"
 2963      75666665 
 2963      7200
 2964              	.LASF140:
 2965 0610 63685F70 		.ascii	"ch_ptrsize\000"
 2965      74727369 
 2965      7A6500
 2966              	.LASF70:
 2967 061b 76697274 		.ascii	"virtual_timer_t\000"
 2967      75616C5F 
 2967      74696D65 
 2967      725F7400 
 2968              	.LASF35:
 2969 062b 705F7072 		.ascii	"p_prev\000"
 2969      657600
 2970              	.LASF28:
 2971 0632 6D73675F 		.ascii	"msg_t\000"
 2971      7400
 2972              	.LASF27:
 2973 0638 74707269 		.ascii	"tprio_t\000"
 2973      6F5F7400 
 2974              	.LASF116:
 2975 0640 6E5F6374 		.ascii	"n_ctxswc\000"
 2975      78737763 
 2975      00
 2976              	.LASF18:
 2977 0649 696E7433 		.ascii	"int32_t\000"
 2977      325F7400 
 2978              	.LASF6:
 2979 0651 756E7369 		.ascii	"unsigned char\000"
 2979      676E6564 
 2979      20636861 
 2979      7200
 2980              	.LASF129:
 2981 065f 735F636E 		.ascii	"s_cnt\000"
 2981      7400
ARM GAS  /var/folders/km/q6jdms0143g2bddz5bhvdfd00000gn/T//ccStLzRV.s 			page 58


 2982              	.LASF51:
 2983 0665 705F6D74 		.ascii	"p_mtxlist\000"
 2983      786C6973 
 2983      7400
 2984              	.LASF7:
 2985 066f 73686F72 		.ascii	"short int\000"
 2985      7420696E 
 2985      7400
 2986              	.LASF42:
 2987 0679 705F7374 		.ascii	"p_state\000"
 2987      61746500 
 2988              	.LASF45:
 2989 0681 705F7072 		.ascii	"p_preempt\000"
 2989      65656D70 
 2989      7400
 2990              	.LASF64:
 2991 068b 725F7072 		.ascii	"r_prio\000"
 2991      696F00
 2992              	.LASF126:
 2993 0692 65776D61 		.ascii	"ewmask\000"
 2993      736B00
 2994              	.LASF34:
 2995 0699 705F6E65 		.ascii	"p_next\000"
 2995      787400
 2996              	.LASF23:
 2997 06a0 746D6F64 		.ascii	"tmode_t\000"
 2997      655F7400 
 2998              	.LASF152:
 2999 06a8 63665F6F 		.ascii	"cf_off_preempt\000"
 2999      66665F70 
 2999      7265656D 
 2999      707400
 3000              	.LASF43:
 3001 06b7 705F666C 		.ascii	"p_flags\000"
 3001      61677300 
 3002              	.LASF159:
 3003 06bf 5F5F6675 		.ascii	"__func__\000"
 3003      6E635F5F 
 3003      00
 3004              	.LASF54:
 3005 06c8 705F7374 		.ascii	"p_stats\000"
 3005      61747300 
 3006              	.LASF160:
 3007 06d0 63685379 		.ascii	"chSysLock\000"
 3007      734C6F63 
 3007      6B00
 3008              	.LASF170:
 3009 06da 63685468 		.ascii	"chThdRelease\000"
 3009      6452656C 
 3009      65617365 
 3009      00
 3010              	.LASF59:
 3011 06e7 74687265 		.ascii	"threads_queue_t\000"
 3011      6164735F 
 3011      71756575 
 3011      655F7400 
 3012              	.LASF71:
ARM GAS  /var/folders/km/q6jdms0143g2bddz5bhvdfd00000gn/T//ccStLzRV.s 			page 59


 3013 06f7 63685F76 		.ascii	"ch_virtual_timer\000"
 3013      69727475 
 3013      616C5F74 
 3013      696D6572 
 3013      00
 3014              	.LASF145:
 3015 0708 63665F6F 		.ascii	"cf_off_newer\000"
 3015      66665F6E 
 3015      65776572 
 3015      00
 3016              	.LASF127:
 3017 0715 63685F73 		.ascii	"ch_semaphore\000"
 3017      656D6170 
 3017      686F7265 
 3017      00
 3018              	.LASF50:
 3019 0722 705F6570 		.ascii	"p_epending\000"
 3019      656E6469 
 3019      6E6700
 3020              	.LASF19:
 3021 072d 75696E74 		.ascii	"uint32_t\000"
 3021      33325F74 
 3021      00
 3022              	.LASF143:
 3023 0736 63665F6F 		.ascii	"cf_off_prio\000"
 3023      66665F70 
 3023      72696F00 
 3024              	.LASF63:
 3025 0742 725F7175 		.ascii	"r_queue\000"
 3025      65756500 
 3026              	.LASF58:
 3027 074a 63685F74 		.ascii	"ch_threads_list\000"
 3027      68726561 
 3027      64735F6C 
 3027      69737400 
 3028              	.LASF138:
 3029 075a 63685F73 		.ascii	"ch_size\000"
 3029      697A6500 
 3030              	.LASF13:
 3031 0762 6C6F6E67 		.ascii	"long unsigned int\000"
 3031      20756E73 
 3031      69676E65 
 3031      6420696E 
 3031      7400
 3032              	.LASF135:
 3033 0774 63686172 		.ascii	"char\000"
 3033      00
 3034              	.LASF157:
 3035 0779 63685265 		.ascii	"chRegNextThread\000"
 3035      674E6578 
 3035      74546872 
 3035      65616400 
 3036              	.LASF125:
 3037 0789 77746D74 		.ascii	"wtmtxp\000"
 3037      787000
 3038              	.LASF8:
 3039 0790 5F5F7569 		.ascii	"__uint16_t\000"
ARM GAS  /var/folders/km/q6jdms0143g2bddz5bhvdfd00000gn/T//ccStLzRV.s 			page 60


 3039      6E743136 
 3039      5F7400
 3040              	.LASF33:
 3041 079b 74687265 		.ascii	"thread_t\000"
 3041      61645F74 
 3041      00
 3042              	.LASF110:
 3043 07a4 62657374 		.ascii	"best\000"
 3043      00
 3044              	.LASF133:
 3045 07a9 6D5F6E65 		.ascii	"m_next\000"
 3045      787400
 3046              	.LASF32:
 3047 07b0 73797374 		.ascii	"systime_t\000"
 3047      696D655F 
 3047      7400
 3048              	.LASF52:
 3049 07ba 705F7265 		.ascii	"p_realprio\000"
 3049      616C7072 
 3049      696F00
 3050              	.LASF69:
 3051 07c5 76746675 		.ascii	"vtfunc_t\000"
 3051      6E635F74 
 3051      00
 3052              	.LASF12:
 3053 07ce 5F5F7569 		.ascii	"__uint32_t\000"
 3053      6E743332 
 3053      5F7400
 3054              	.LASF164:
 3055 07d9 5F5F7365 		.ascii	"__set_BASEPRI\000"
 3055      745F4241 
 3055      53455052 
 3055      4900
 3056              	.LASF82:
 3057 07e7 70616E69 		.ascii	"panic_msg\000"
 3057      635F6D73 
 3057      6700
 3058              	.LASF108:
 3059 07f1 6F666673 		.ascii	"offset\000"
 3059      657400
 3060              	.LASF97:
 3061 07f8 636F6E74 		.ascii	"context\000"
 3061      65787400 
 3062              	.LASF49:
 3063 0800 705F6D73 		.ascii	"p_msg\000"
 3063      6700
 3064              	.LASF76:
 3065 0806 76745F70 		.ascii	"vt_par\000"
 3065      617200
 3066              	.LASF144:
 3067 080d 63665F6F 		.ascii	"cf_off_ctx\000"
 3067      66665F63 
 3067      747800
 3068              	.LASF130:
 3069 0818 63685F6D 		.ascii	"ch_mutex\000"
 3069      75746578 
 3069      00
ARM GAS  /var/folders/km/q6jdms0143g2bddz5bhvdfd00000gn/T//ccStLzRV.s 			page 61


 3070              	.LASF44:
 3071 0821 705F7265 		.ascii	"p_refs\000"
 3071      667300
 3072              	.LASF83:
 3073 0828 6973725F 		.ascii	"isr_cnt\000"
 3073      636E7400 
 3074              	.LASF102:
 3075 0830 73655F73 		.ascii	"se_state\000"
 3075      74617465 
 3075      00
 3076              	.LASF88:
 3077 0839 726C6973 		.ascii	"rlist\000"
 3077      7400
 3078              	.LASF16:
 3079 083f 75696E74 		.ascii	"uint8_t\000"
 3079      385F7400 
 3080              	.LASF167:
 3081 0847 5F646267 		.ascii	"_dbg_check_unlock\000"
 3081      5F636865 
 3081      636B5F75 
 3081      6E6C6F63 
 3081      6B00
 3082              	.LASF55:
 3083 0859 74687265 		.ascii	"thread_reference_t\000"
 3083      61645F72 
 3083      65666572 
 3083      656E6365 
 3083      5F7400
 3084              	.LASF122:
 3085 086c 77746F62 		.ascii	"wtobjp\000"
 3085      6A7000
 3086              	.LASF40:
 3087 0873 705F6E61 		.ascii	"p_name\000"
 3087      6D6500
 3088              	.LASF79:
 3089 087a 76745F73 		.ascii	"vt_systime\000"
 3089      79737469 
 3089      6D6500
 3090              	.LASF85:
 3091 0885 74726163 		.ascii	"trace_buffer\000"
 3091      655F6275 
 3091      66666572 
 3091      00
 3092              	.LASF74:
 3093 0892 76745F64 		.ascii	"vt_delta\000"
 3093      656C7461 
 3093      00
 3094              	.LASF163:
 3095 089b 63685379 		.ascii	"chSysUnlock\000"
 3095      73556E6C 
 3095      6F636B00 
 3096              	.LASF139:
 3097 08a7 63685F76 		.ascii	"ch_version\000"
 3097      65727369 
 3097      6F6E00
 3098              	.LASF117:
 3099 08b2 6D5F6372 		.ascii	"m_crit_thd\000"
ARM GAS  /var/folders/km/q6jdms0143g2bddz5bhvdfd00000gn/T//ccStLzRV.s 			page 62


 3099      69745F74 
 3099      686400
 3100              	.LASF132:
 3101 08bd 6D5F6F77 		.ascii	"m_owner\000"
 3101      6E657200 
 3102              	.LASF101:
 3103 08c5 73655F77 		.ascii	"se_wtobjp\000"
 3103      746F626A 
 3103      7000
 3104              	.LASF136:
 3105 08cf 63685F69 		.ascii	"ch_identifier\000"
 3105      64656E74 
 3105      69666965 
 3105      7200
 3106              	.LASF75:
 3107 08dd 76745F66 		.ascii	"vt_func\000"
 3107      756E6300 
 3108              		.ident	"GCC: (GNU Tools for Arm Embedded Processors 7-2017-q4-major) 7.2.1 20170904 (release) [ARM
ARM GAS  /var/folders/km/q6jdms0143g2bddz5bhvdfd00000gn/T//ccStLzRV.s 			page 63


DEFINED SYMBOLS
                            *ABS*:0000000000000000 chregistry.c
/var/folders/km/q6jdms0143g2bddz5bhvdfd00000gn/T//ccStLzRV.s:18     .text.chRegFirstThread:0000000000000000 $t
/var/folders/km/q6jdms0143g2bddz5bhvdfd00000gn/T//ccStLzRV.s:26     .text.chRegFirstThread:0000000000000000 chRegFirstThread
/var/folders/km/q6jdms0143g2bddz5bhvdfd00000gn/T//ccStLzRV.s:151    .text.chRegFirstThread:0000000000000050 $d
/var/folders/km/q6jdms0143g2bddz5bhvdfd00000gn/T//ccStLzRV.s:157    .text.chRegNextThread:0000000000000000 $t
/var/folders/km/q6jdms0143g2bddz5bhvdfd00000gn/T//ccStLzRV.s:165    .text.chRegNextThread:0000000000000000 chRegNextThread
/var/folders/km/q6jdms0143g2bddz5bhvdfd00000gn/T//ccStLzRV.s:307    .text.chRegNextThread:0000000000000068 $d
/var/folders/km/q6jdms0143g2bddz5bhvdfd00000gn/T//ccStLzRV.s:332    .rodata.ch_debug:0000000000000000 ch_debug
/var/folders/km/q6jdms0143g2bddz5bhvdfd00000gn/T//ccStLzRV.s:315    .rodata.__func__.7153:0000000000000000 $d
/var/folders/km/q6jdms0143g2bddz5bhvdfd00000gn/T//ccStLzRV.s:319    .rodata.__func__.7153:0000000000000000 __func__.7153
/var/folders/km/q6jdms0143g2bddz5bhvdfd00000gn/T//ccStLzRV.s:322    .rodata.__func__.7855:0000000000000000 $d
/var/folders/km/q6jdms0143g2bddz5bhvdfd00000gn/T//ccStLzRV.s:326    .rodata.__func__.7855:0000000000000000 __func__.7855
/var/folders/km/q6jdms0143g2bddz5bhvdfd00000gn/T//ccStLzRV.s:329    .rodata.ch_debug:0000000000000000 $d

UNDEFINED SYMBOLS
_stats_start_measure_crit_thd
_dbg_check_lock
_dbg_check_unlock
_stats_stop_measure_crit_thd
chSysHalt
ch
chThdRelease
