ARM GAS  /var/folders/km/q6jdms0143g2bddz5bhvdfd00000gn/T//ccStLzRV.s 			page 1


   1              		.cpu cortex-m4
   2              		.eabi_attribute 27, 1
   3              		.eabi_attribute 28, 1
   4              		.eabi_attribute 20, 1
   5              		.eabi_attribute 21, 1
   6              		.eabi_attribute 23, 3
   7              		.eabi_attribute 24, 1
   8              		.eabi_attribute 25, 1
   9              		.eabi_attribute 26, 1
  10              		.eabi_attribute 30, 2
  11              		.eabi_attribute 34, 1
  12              		.eabi_attribute 18, 4
  13              		.file	"chregistry.c"
  14              		.text
  15              	.Ltext0:
  16              		.cfi_sections	.debug_frame
  17              		.section	.text.chRegFirstThread,"ax",%progbits
  18              		.align	1
  19              		.p2align 4,,15
  20              		.global	chRegFirstThread
  21              		.syntax unified
  22              		.thumb
  23              		.thumb_func
  24              		.fpu fpv4-sp-d16
  25              		.type	chRegFirstThread, %function
  26              	chRegFirstThread:
  27              	.LFB219:
  28              		.file 1 "../../lib/ChibiOS/os/rt/src/chregistry.c"
  29              		.loc 1 131 0
  30              		.cfi_startproc
  31              		@ args = 0, pretend = 0, frame = 0
  32              		@ frame_needed = 0, uses_anonymous_args = 0
  33              	.LVL0:
  34 0000 38B5     		push	{r3, r4, r5, lr}
  35              		.cfi_def_cfa_offset 16
  36              		.cfi_offset 3, -16
  37              		.cfi_offset 4, -12
  38              		.cfi_offset 5, -8
  39              		.cfi_offset 14, -4
  40              	.LBB34:
  41              	.LBB35:
  42              	.LBB36:
  43              	.LBB37:
  44              	.LBB38:
  45              		.file 2 "../../lib/ChibiOS/os/ext/CMSIS/include/core_cmFunc.h"
  46              		.loc 2 546 0
  47 0002 2023     		movs	r3, #32
  48              		.syntax unified
  49              	@ 546 "../../lib/ChibiOS/os/ext/CMSIS/include/core_cmFunc.h" 1
  50 0004 83F31188 		MSR basepri, r3
  51              	@ 0 "" 2
  52              	.LVL1:
  53              		.thumb
  54              		.syntax unified
  55              	.LBE38:
  56              	.LBE37:
  57              	.LBE36:
ARM GAS  /var/folders/km/q6jdms0143g2bddz5bhvdfd00000gn/T//ccStLzRV.s 			page 2


  58              	.LBE35:
  59              	.LBE34:
  60              		.loc 1 135 0
  61 0008 114C     		ldr	r4, .L6
  62              	.LBB40:
  63              	.LBB39:
  64              		.file 3 "../../lib/ChibiOS/os/rt/include/chsys.h"
  65              		.loc 3 349 0
  66 000a FFF7FEFF 		bl	_stats_start_measure_crit_thd
  67              	.LVL2:
  68              		.loc 3 350 0
  69 000e FFF7FEFF 		bl	_dbg_check_lock
  70              	.LVL3:
  71              	.LBE39:
  72              	.LBE40:
  73              		.loc 1 135 0
  74 0012 2569     		ldr	r5, [r4, #16]
  75              	.LVL4:
  76              		.loc 1 137 0
  77 0014 95F82230 		ldrb	r3, [r5, #34]	@ zero_extendqisi2
  78 0018 0133     		adds	r3, r3, #1
  79 001a 85F82230 		strb	r3, [r5, #34]
  80              	.LBB41:
  81              	.LBB42:
  82              		.loc 3 360 0
  83 001e FFF7FEFF 		bl	_dbg_check_unlock
  84              	.LVL5:
  85              		.loc 3 361 0
  86 0022 FFF7FEFF 		bl	_stats_stop_measure_crit_thd
  87              	.LVL6:
  88              		.loc 3 367 0
  89 0026 2368     		ldr	r3, [r4]
  90 0028 A342     		cmp	r3, r4
  91 002a 04D0     		beq	.L2
  92 002c A269     		ldr	r2, [r4, #24]
  93 002e 9B68     		ldr	r3, [r3, #8]
  94 0030 9268     		ldr	r2, [r2, #8]
  95 0032 9A42     		cmp	r2, r3
  96 0034 04D3     		bcc	.L5
  97              	.L2:
  98              	.LVL7:
  99              	.LBB43:
 100              	.LBB44:
 101              	.LBB45:
 102              		.loc 2 546 0
 103 0036 0023     		movs	r3, #0
 104              		.syntax unified
 105              	@ 546 "../../lib/ChibiOS/os/ext/CMSIS/include/core_cmFunc.h" 1
 106 0038 83F31188 		MSR basepri, r3
 107              	@ 0 "" 2
 108              	.LVL8:
 109              		.thumb
 110              		.syntax unified
 111              	.LBE45:
 112              	.LBE44:
 113              	.LBE43:
 114              	.LBE42:
ARM GAS  /var/folders/km/q6jdms0143g2bddz5bhvdfd00000gn/T//ccStLzRV.s 			page 3


 115              	.LBE41:
 116              		.loc 1 142 0
 117 003c 2846     		mov	r0, r5
 118 003e 38BD     		pop	{r3, r4, r5, pc}
 119              	.LVL9:
 120              	.L5:
 121              	.LBB50:
 122              	.LBB49:
 123              		.loc 3 367 0
 124 0040 0448     		ldr	r0, .L6+4
 125 0042 FFF7FEFF 		bl	chSysHalt
 126              	.LVL10:
 127              	.LBB48:
 128              	.LBB47:
 129              	.LBB46:
 130              		.loc 2 546 0
 131 0046 0023     		movs	r3, #0
 132              		.syntax unified
 133              	@ 546 "../../lib/ChibiOS/os/ext/CMSIS/include/core_cmFunc.h" 1
 134 0048 83F31188 		MSR basepri, r3
 135              	@ 0 "" 2
 136              	.LVL11:
 137              		.thumb
 138              		.syntax unified
 139              	.LBE46:
 140              	.LBE47:
 141              	.LBE48:
 142              	.LBE49:
 143              	.LBE50:
 144              		.loc 1 142 0
 145 004c 2846     		mov	r0, r5
 146 004e 38BD     		pop	{r3, r4, r5, pc}
 147              	.LVL12:
 148              	.L7:
 149              		.align	2
 150              	.L6:
 151 0050 00000000 		.word	ch
 152 0054 00000000 		.word	.LANCHOR0
 153              		.cfi_endproc
 154              	.LFE219:
 155              		.size	chRegFirstThread, .-chRegFirstThread
 156              		.section	.text.chRegNextThread,"ax",%progbits
 157              		.align	1
 158              		.p2align 4,,15
 159              		.global	chRegNextThread
 160              		.syntax unified
 161              		.thumb
 162              		.thumb_func
 163              		.fpu fpv4-sp-d16
 164              		.type	chRegNextThread, %function
 165              	chRegNextThread:
 166              	.LFB220:
 167              		.loc 1 155 0
 168              		.cfi_startproc
 169              		@ args = 0, pretend = 0, frame = 0
 170              		@ frame_needed = 0, uses_anonymous_args = 0
 171              	.LVL13:
ARM GAS  /var/folders/km/q6jdms0143g2bddz5bhvdfd00000gn/T//ccStLzRV.s 			page 4


 172 0000 70B5     		push	{r4, r5, r6, lr}
 173              		.cfi_def_cfa_offset 16
 174              		.cfi_offset 4, -16
 175              		.cfi_offset 5, -12
 176              		.cfi_offset 6, -8
 177              		.cfi_offset 14, -4
 178              	.LBB61:
 179              	.LBB62:
 180              	.LBB63:
 181              	.LBB64:
 182              	.LBB65:
 183              		.loc 2 546 0
 184 0002 2023     		movs	r3, #32
 185              	.LBE65:
 186              	.LBE64:
 187              	.LBE63:
 188              	.LBE62:
 189              	.LBE61:
 190              		.loc 1 155 0
 191 0004 0646     		mov	r6, r0
 192              	.LBB71:
 193              	.LBB69:
 194              	.LBB68:
 195              	.LBB67:
 196              	.LBB66:
 197              		.loc 2 546 0
 198              		.syntax unified
 199              	@ 546 "../../lib/ChibiOS/os/ext/CMSIS/include/core_cmFunc.h" 1
 200 0006 83F31188 		MSR basepri, r3
 201              	@ 0 "" 2
 202              	.LVL14:
 203              		.thumb
 204              		.syntax unified
 205              	.LBE66:
 206              	.LBE67:
 207              	.LBE68:
 208              		.loc 3 349 0
 209 000a FFF7FEFF 		bl	_stats_start_measure_crit_thd
 210              	.LVL15:
 211              	.LBE69:
 212              	.LBE71:
 213              		.loc 1 161 0
 214 000e 164D     		ldr	r5, .L16
 215              	.LBB72:
 216              	.LBB70:
 217              		.loc 3 350 0
 218 0010 FFF7FEFF 		bl	_dbg_check_lock
 219              	.LVL16:
 220              	.LBE70:
 221              	.LBE72:
 222              		.loc 1 159 0
 223 0014 3469     		ldr	r4, [r6, #16]
 224              	.LVL17:
 225              		.loc 1 161 0
 226 0016 AC42     		cmp	r4, r5
 227 0018 24D0     		beq	.L12
 228              		.loc 1 167 0 discriminator 1
ARM GAS  /var/folders/km/q6jdms0143g2bddz5bhvdfd00000gn/T//ccStLzRV.s 			page 5


 229 001a 94F82230 		ldrb	r3, [r4, #34]	@ zero_extendqisi2
 230 001e FF2B     		cmp	r3, #255
 231 0020 1AD0     		beq	.L14
 232              	.L10:
 233              		.loc 1 168 0
 234 0022 0133     		adds	r3, r3, #1
 235 0024 84F82230 		strb	r3, [r4, #34]
 236              	.LVL18:
 237              	.L9:
 238              	.LBB73:
 239              	.LBB74:
 240              		.loc 3 360 0
 241 0028 FFF7FEFF 		bl	_dbg_check_unlock
 242              	.LVL19:
 243              		.loc 3 361 0
 244 002c FFF7FEFF 		bl	_stats_stop_measure_crit_thd
 245              	.LVL20:
 246              		.loc 3 367 0
 247 0030 2B68     		ldr	r3, [r5]
 248 0032 AB42     		cmp	r3, r5
 249 0034 04D0     		beq	.L11
 250 0036 AA69     		ldr	r2, [r5, #24]
 251 0038 9B68     		ldr	r3, [r3, #8]
 252 003a 9268     		ldr	r2, [r2, #8]
 253 003c 9A42     		cmp	r2, r3
 254 003e 07D3     		bcc	.L15
 255              	.L11:
 256              	.LVL21:
 257              	.LBB75:
 258              	.LBB76:
 259              	.LBB77:
 260              		.loc 2 546 0
 261 0040 0023     		movs	r3, #0
 262              		.syntax unified
 263              	@ 546 "../../lib/ChibiOS/os/ext/CMSIS/include/core_cmFunc.h" 1
 264 0042 83F31188 		MSR basepri, r3
 265              	@ 0 "" 2
 266              	.LVL22:
 267              		.thumb
 268              		.syntax unified
 269              	.LBE77:
 270              	.LBE76:
 271              	.LBE75:
 272              	.LBE74:
 273              	.LBE73:
 274              		.loc 1 173 0
 275 0046 3046     		mov	r0, r6
 276 0048 FFF7FEFF 		bl	chThdRelease
 277              	.LVL23:
 278              		.loc 1 177 0
 279 004c 2046     		mov	r0, r4
 280 004e 70BD     		pop	{r4, r5, r6, pc}
 281              	.LVL24:
 282              	.L15:
 283              	.LBB79:
 284              	.LBB78:
 285              		.loc 3 367 0
ARM GAS  /var/folders/km/q6jdms0143g2bddz5bhvdfd00000gn/T//ccStLzRV.s 			page 6


 286 0050 0648     		ldr	r0, .L16+4
 287 0052 FFF7FEFF 		bl	chSysHalt
 288              	.LVL25:
 289 0056 F3E7     		b	.L11
 290              	.L14:
 291              	.LBE78:
 292              	.LBE79:
 293              		.loc 1 167 0 discriminator 2
 294 0058 0548     		ldr	r0, .L16+8
 295 005a FFF7FEFF 		bl	chSysHalt
 296              	.LVL26:
 297 005e 94F82230 		ldrb	r3, [r4, #34]	@ zero_extendqisi2
 298 0062 DEE7     		b	.L10
 299              	.L12:
 300              		.loc 1 163 0
 301 0064 0024     		movs	r4, #0
 302              	.LVL27:
 303 0066 DFE7     		b	.L9
 304              	.L17:
 305              		.align	2
 306              	.L16:
 307 0068 00000000 		.word	ch
 308 006c 00000000 		.word	.LANCHOR0
 309 0070 00000000 		.word	.LANCHOR1
 310              		.cfi_endproc
 311              	.LFE220:
 312              		.size	chRegNextThread, .-chRegNextThread
 313              		.global	ch_debug
 314              		.section	.rodata.__func__.7153,"a",%progbits
 315              		.align	2
 316              		.set	.LANCHOR0,. + 0
 317              		.type	__func__.7153, %object
 318              		.size	__func__.7153, 12
 319              	__func__.7153:
 320 0000 63685379 		.ascii	"chSysUnlock\000"
 320      73556E6C 
 320      6F636B00 
 321              		.section	.rodata.__func__.7855,"a",%progbits
 322              		.align	2
 323              		.set	.LANCHOR1,. + 0
 324              		.type	__func__.7855, %object
 325              		.size	__func__.7855, 16
 326              	__func__.7855:
 327 0000 63685265 		.ascii	"chRegNextThread\000"
 327      674E6578 
 327      74546872 
 327      65616400 
 328              		.section	.rodata.ch_debug,"a",%progbits
 329              		.align	2
 330              		.type	ch_debug, %object
 331              		.size	ch_debug, 22
 332              	ch_debug:
 333 0000 6D       		.byte	109
 334 0001 61       		.byte	97
 335 0002 69       		.byte	105
 336 0003 6E       		.byte	110
 337 0004 00       		.byte	0
ARM GAS  /var/folders/km/q6jdms0143g2bddz5bhvdfd00000gn/T//ccStLzRV.s 			page 7


 338 0005 16       		.byte	22
 339 0006 0118     		.short	6145
 340 0008 04       		.byte	4
 341 0009 04       		.byte	4
 342 000a 68       		.byte	104
 343 000b 08       		.byte	8
 344 000c 0C       		.byte	12
 345 000d 10       		.byte	16
 346 000e 14       		.byte	20
 347 000f 18       		.byte	24
 348 0010 1C       		.byte	28
 349 0011 20       		.byte	32
 350 0012 21       		.byte	33
 351 0013 22       		.byte	34
 352 0014 23       		.byte	35
 353 0015 24       		.byte	36
 354              		.text
 355              	.Letext0:
 356              		.file 4 "/Applications/Eclipse_e-puck2.app/Contents/Eclipse_e-puck2/Tools/gcc-arm-none-eabi-7-2017
 357              		.file 5 "/Applications/Eclipse_e-puck2.app/Contents/Eclipse_e-puck2/Tools/gcc-arm-none-eabi-7-2017
 358              		.file 6 "/Applications/Eclipse_e-puck2.app/Contents/Eclipse_e-puck2/Tools/gcc-arm-none-eabi-7-2017
 359              		.file 7 "../../lib/ChibiOS/os/rt/ports/ARMCMx/compilers/GCC/chtypes.h"
 360              		.file 8 "../../lib/ChibiOS/os/rt/include/chsystypes.h"
 361              		.file 9 "../../lib/ChibiOS/os/rt/include/chschd.h"
 362              		.file 10 "../../lib/ChibiOS/os/ext/CMSIS/include/core_cm4.h"
 363              		.file 11 "../../lib/ChibiOS/os/ext/CMSIS/ST/system_stm32f4xx.h"
 364              		.file 12 "../../lib/ChibiOS/os/rt/ports/ARMCMx/chcore.h"
 365              		.file 13 "../../lib/ChibiOS/os/rt/ports/ARMCMx/chcore_v7m.h"
 366              		.file 14 "../../lib/ChibiOS/os/rt/include/chdebug.h"
 367              		.file 15 "../../lib/ChibiOS/os/rt/include/chtm.h"
 368              		.file 16 "../../lib/ChibiOS/os/rt/include/chstats.h"
 369              		.file 17 "../../lib/ChibiOS/os/rt/include/chsem.h"
 370              		.file 18 "../../lib/ChibiOS/os/rt/include/chmtx.h"
 371              		.file 19 "../../lib/ChibiOS/os/rt/include/chregistry.h"
 372              		.file 20 "../../lib/ChibiOS/os/rt/include/chdynamic.h"