ARM GAS  C:\Users\stoma\AppData\Local\Temp\cc6EBVck.s 			page 1


   1              		.cpu cortex-m4
   2              		.eabi_attribute 27, 1
   3              		.eabi_attribute 28, 1
   4              		.eabi_attribute 20, 1
   5              		.eabi_attribute 21, 1
   6              		.eabi_attribute 23, 3
   7              		.eabi_attribute 24, 1
   8              		.eabi_attribute 25, 1
   9              		.eabi_attribute 26, 1
  10              		.eabi_attribute 30, 2
  11              		.eabi_attribute 34, 1
  12              		.eabi_attribute 18, 4
  13              		.file	"chschd.c"
  14              		.text
  15              	.Ltext0:
  16              		.cfi_sections	.debug_frame
  17              		.section	.text._scheduler_init,"ax",%progbits
  18              		.align	1
  19              		.p2align 4,,15
  20              		.global	_scheduler_init
  21              		.syntax unified
  22              		.thumb
  23              		.thumb_func
  24              		.fpu fpv4-sp-d16
  25              		.type	_scheduler_init, %function
  26              	_scheduler_init:
  27              	.LFB219:
  28              		.file 1 "../../lib/ChibiOS/os/rt/src/chschd.c"
  29              		.loc 1 65 0
  30              		.cfi_startproc
  31              		@ args = 0, pretend = 0, frame = 0
  32              		@ frame_needed = 0, uses_anonymous_args = 0
  33              		@ link register save eliminated.
  34              	.LVL0:
  35              	.LBB103:
  36              	.LBB104:
  37              		.file 2 "../../lib/ChibiOS/os/rt/include/chschd.h"
  38              		.loc 2 604 0
  39 0000 034B     		ldr	r3, .L3
  40              	.LBE104:
  41              	.LBE103:
  42              		.loc 1 68 0
  43 0002 0022     		movs	r2, #0
  44              	.LBB106:
  45              	.LBB105:
  46              		.loc 2 605 0
  47 0004 C3E90033 		strd	r3, r3, [r3]
  48              	.LVL1:
  49              	.LBE105:
  50              	.LBE106:
  51              		.loc 1 71 0
  52 0008 C3E90433 		strd	r3, r3, [r3, #16]
  53              		.loc 1 68 0
  54 000c 9A60     		str	r2, [r3, #8]
  55              		.loc 1 73 0
  56 000e 7047     		bx	lr
  57              	.L4:
ARM GAS  C:\Users\stoma\AppData\Local\Temp\cc6EBVck.s 			page 2


  58              		.align	2
  59              	.L3:
  60 0010 00000000 		.word	.LANCHOR0
  61              		.cfi_endproc
  62              	.LFE219:
  63              		.size	_scheduler_init, .-_scheduler_init
  64              		.section	.text.chSchReadyI,"ax",%progbits
  65              		.align	1
  66              		.p2align 4,,15
  67              		.global	chSchReadyI
  68              		.syntax unified
  69              		.thumb
  70              		.thumb_func
  71              		.fpu fpv4-sp-d16
  72              		.type	chSchReadyI, %function
  73              	chSchReadyI:
  74              	.LFB220:
  75              		.loc 1 218 0
  76              		.cfi_startproc
  77              		@ args = 0, pretend = 0, frame = 0
  78              		@ frame_needed = 0, uses_anonymous_args = 0
  79              	.LVL2:
  80 0000 10B5     		push	{r4, lr}
  81              		.cfi_def_cfa_offset 8
  82              		.cfi_offset 4, -8
  83              		.cfi_offset 14, -4
  84              		.loc 1 218 0
  85 0002 0446     		mov	r4, r0
  86              		.loc 1 221 0
  87 0004 FFF7FEFF 		bl	chDbgCheckClassI
  88              	.LVL3:
  89              		.loc 1 222 0
  90 0008 C4B1     		cbz	r4, .L15
  91              	.L6:
  92              		.loc 1 223 0 discriminator 1
  93 000a 94F82030 		ldrb	r3, [r4, #32]	@ zero_extendqisi2
  94 000e 8BB1     		cbz	r3, .L7
  95              		.loc 1 223 0 is_stmt 0 discriminator 3
  96 0010 0F2B     		cmp	r3, #15
  97 0012 0FD0     		beq	.L7
  98              	.L8:
  99              		.loc 1 227 0 is_stmt 1
 100 0014 0022     		movs	r2, #0
 101              		.loc 1 231 0
 102 0016 A168     		ldr	r1, [r4, #8]
 103              		.loc 1 228 0
 104 0018 0A4B     		ldr	r3, .L16
 105              		.loc 1 227 0
 106 001a 84F82020 		strb	r2, [r4, #32]
 107              	.LVL4:
 108              	.L9:
 109              		.loc 1 230 0 discriminator 1
 110 001e 1B68     		ldr	r3, [r3]
 111              	.LVL5:
 112              		.loc 1 231 0 discriminator 1
 113 0020 9A68     		ldr	r2, [r3, #8]
 114 0022 8A42     		cmp	r2, r1
ARM GAS  C:\Users\stoma\AppData\Local\Temp\cc6EBVck.s 			page 3


 115 0024 FBD2     		bcs	.L9
 116              		.loc 1 234 0
 117 0026 5A68     		ldr	r2, [r3, #4]
 118              		.loc 1 239 0
 119 0028 2046     		mov	r0, r4
 120              		.loc 1 234 0
 121 002a C4E90032 		strd	r3, r2, [r4]
 122              		.loc 1 235 0
 123 002e 1460     		str	r4, [r2]
 124              		.loc 1 236 0
 125 0030 5C60     		str	r4, [r3, #4]
 126              		.loc 1 239 0
 127 0032 10BD     		pop	{r4, pc}
 128              	.LVL6:
 129              	.L7:
 130              		.loc 1 223 0 discriminator 4
 131 0034 0448     		ldr	r0, .L16+4
 132 0036 FFF7FEFF 		bl	chSysHalt
 133              	.LVL7:
 134 003a EBE7     		b	.L8
 135              	.L15:
 136              		.loc 1 222 0 discriminator 2
 137 003c 0248     		ldr	r0, .L16+4
 138 003e FFF7FEFF 		bl	chSysHalt
 139              	.LVL8:
 140 0042 E2E7     		b	.L6
 141              	.L17:
 142              		.align	2
 143              	.L16:
 144 0044 00000000 		.word	.LANCHOR0
 145 0048 00000000 		.word	.LANCHOR1
 146              		.cfi_endproc
 147              	.LFE220:
 148              		.size	chSchReadyI, .-chSchReadyI
 149              		.section	.text.wakeup,"ax",%progbits
 150              		.align	1
 151              		.p2align 4,,15
 152              		.syntax unified
 153              		.thumb
 154              		.thumb_func
 155              		.fpu fpv4-sp-d16
 156              		.type	wakeup, %function
 157              	wakeup:
 158              	.LFB222:
 159              		.loc 1 275 0
 160              		.cfi_startproc
 161              		@ args = 0, pretend = 0, frame = 0
 162              		@ frame_needed = 0, uses_anonymous_args = 0
 163              	.LVL9:
 164 0000 38B5     		push	{r3, r4, r5, lr}
 165              		.cfi_def_cfa_offset 16
 166              		.cfi_offset 3, -16
 167              		.cfi_offset 4, -12
 168              		.cfi_offset 5, -8
 169              		.cfi_offset 14, -4
 170              		.loc 1 275 0
 171 0002 0446     		mov	r4, r0
ARM GAS  C:\Users\stoma\AppData\Local\Temp\cc6EBVck.s 			page 4


 172              	.LBB147:
 173              	.LBB148:
 174              	.LBB149:
 175              	.LBB150:
 176              	.LBB151:
 177              	.LBB152:
 178              		.file 3 "../../lib/ChibiOS/os/ext/CMSIS/include/core_cmFunc.h"
 179              		.loc 3 546 0
 180 0004 2023     		movs	r3, #32
 181              		.syntax unified
 182              	@ 546 "../../lib/ChibiOS/os/ext/CMSIS/include/core_cmFunc.h" 1
 183 0006 83F31188 		MSR basepri, r3
 184              	@ 0 "" 2
 185              	.LVL10:
 186              		.thumb
 187              		.syntax unified
 188              	.LBE152:
 189              	.LBE151:
 190              	.LBE150:
 191              	.LBE149:
 192              		.file 4 "../../lib/ChibiOS/os/rt/include/chsys.h"
 193              		.loc 4 389 0
 194 000a FFF7FEFF 		bl	_stats_start_measure_crit_isr
 195              	.LVL11:
 196              		.loc 4 390 0
 197 000e FFF7FEFF 		bl	_dbg_check_lock_from_isr
 198              	.LVL12:
 199              	.LBE148:
 200              	.LBE147:
 201              		.loc 1 279 0
 202 0012 94F82030 		ldrb	r3, [r4, #32]	@ zero_extendqisi2
 203 0016 072B     		cmp	r3, #7
 204 0018 10D8     		bhi	.L19
 205 001a DFE803F0 		tbb	[pc, r3]
 206              	.L21:
 207 001e 15       		.byte	(.L27-.L21)/2
 208 001f 0F       		.byte	(.L19-.L21)/2
 209 0020 0F       		.byte	(.L19-.L21)/2
 210 0021 1D       		.byte	(.L22-.L21)/2
 211 0022 0A       		.byte	(.L23-.L21)/2
 212 0023 04       		.byte	(.L24-.L21)/2
 213 0024 0F       		.byte	(.L19-.L21)/2
 214 0025 0A       		.byte	(.L23-.L21)/2
 215              		.p2align 1
 216              	.L24:
 217              		.loc 1 290 0
 218 0026 A56A     		ldr	r5, [r4, #40]
 219              	.LVL13:
 220              	.LBB153:
 221              	.LBB154:
 222              		.file 5 "../../lib/ChibiOS/os/rt/include/chsem.h"
 223              		.loc 5 136 0
 224 0028 FFF7FEFF 		bl	chDbgCheckClassI
 225              	.LVL14:
 226              		.loc 5 138 0
 227 002c AB68     		ldr	r3, [r5, #8]
 228 002e 0133     		adds	r3, r3, #1
ARM GAS  C:\Users\stoma\AppData\Local\Temp\cc6EBVck.s 			page 5


 229 0030 AB60     		str	r3, [r5, #8]
 230              	.LVL15:
 231              	.L23:
 232              	.LBE154:
 233              	.LBE153:
 234              	.LBB155:
 235              	.LBB156:
 236              		.loc 2 691 0
 237 0032 D4E90023 		ldrd	r2, r3, [r4]
 238 0036 1A60     		str	r2, [r3]
 239              		.loc 2 692 0
 240 0038 2268     		ldr	r2, [r4]
 241 003a 5360     		str	r3, [r2, #4]
 242              	.LVL16:
 243              	.L19:
 244              	.LBE156:
 245              	.LBE155:
 246              		.loc 1 304 0
 247 003c 4FF0FF33 		mov	r3, #-1
 248 0040 A362     		str	r3, [r4, #40]
 249              		.loc 1 305 0
 250 0042 2046     		mov	r0, r4
 251 0044 FFF7FEFF 		bl	chSchReadyI
 252              	.LVL17:
 253              	.L27:
 254              	.LBB157:
 255              	.LBB158:
 256              		.loc 4 408 0
 257 0048 FFF7FEFF 		bl	_dbg_check_unlock_from_isr
 258              	.LVL18:
 259              		.loc 4 409 0
 260 004c FFF7FEFF 		bl	_stats_stop_measure_crit_isr
 261              	.LVL19:
 262              	.LBB159:
 263              	.LBB160:
 264              	.LBB161:
 265              	.LBB162:
 266              		.loc 3 546 0
 267 0050 0023     		movs	r3, #0
 268              		.syntax unified
 269              	@ 546 "../../lib/ChibiOS/os/ext/CMSIS/include/core_cmFunc.h" 1
 270 0052 83F31188 		MSR basepri, r3
 271              	@ 0 "" 2
 272              	.LVL20:
 273              		.thumb
 274              		.syntax unified
 275              	.LBE162:
 276              	.LBE161:
 277              	.LBE160:
 278              	.LBE159:
 279              	.LBE158:
 280              	.LBE157:
 281              		.loc 1 307 0
 282 0056 38BD     		pop	{r3, r4, r5, pc}
 283              	.LVL21:
 284              	.L22:
 285              		.loc 1 286 0
ARM GAS  C:\Users\stoma\AppData\Local\Temp\cc6EBVck.s 			page 6


 286 0058 A36A     		ldr	r3, [r4, #40]
 287 005a 0022     		movs	r2, #0
 288 005c 1A60     		str	r2, [r3]
 289              		.loc 1 304 0
 290 005e 4FF0FF33 		mov	r3, #-1
 291 0062 A362     		str	r3, [r4, #40]
 292              		.loc 1 305 0
 293 0064 2046     		mov	r0, r4
 294 0066 FFF7FEFF 		bl	chSchReadyI
 295              	.LVL22:
 296 006a EDE7     		b	.L27
 297              		.cfi_endproc
 298              	.LFE222:
 299              		.size	wakeup, .-wakeup
 300              		.section	.text.chSchGoSleepS,"ax",%progbits
 301              		.align	1
 302              		.p2align 4,,15
 303              		.global	chSchGoSleepS
 304              		.syntax unified
 305              		.thumb
 306              		.thumb_func
 307              		.fpu fpv4-sp-d16
 308              		.type	chSchGoSleepS, %function
 309              	chSchGoSleepS:
 310              	.LFB221:
 311              		.loc 1 250 0
 312              		.cfi_startproc
 313              		@ args = 0, pretend = 0, frame = 0
 314              		@ frame_needed = 0, uses_anonymous_args = 0
 315              	.LVL23:
 316 0000 70B5     		push	{r4, r5, r6, lr}
 317              		.cfi_def_cfa_offset 16
 318              		.cfi_offset 4, -16
 319              		.cfi_offset 5, -12
 320              		.cfi_offset 6, -8
 321              		.cfi_offset 14, -4
 322              		.loc 1 255 0
 323 0002 144C     		ldr	r4, .L31
 324              		.loc 1 250 0
 325 0004 0646     		mov	r6, r0
 326              		.loc 1 253 0
 327 0006 FFF7FEFF 		bl	chDbgCheckClassS
 328              	.LVL24:
 329              		.loc 1 255 0
 330 000a A569     		ldr	r5, [r4, #24]
 331              	.LVL25:
 332              	.LBB163:
 333              	.LBB164:
 334              		.loc 2 672 0
 335 000c 2368     		ldr	r3, [r4]
 336              	.LBE164:
 337              	.LBE163:
 338              		.loc 1 256 0
 339 000e 85F82060 		strb	r6, [r5, #32]
 340              		.loc 1 260 0
 341 0012 1422     		movs	r2, #20
 342 0014 85F82320 		strb	r2, [r5, #35]
ARM GAS  C:\Users\stoma\AppData\Local\Temp\cc6EBVck.s 			page 7


 343              	.LVL26:
 344              	.LBB167:
 345              	.LBB165:
 346              		.loc 2 674 0
 347 0018 1A68     		ldr	r2, [r3]
 348 001a 2260     		str	r2, [r4]
 349              	.LBE165:
 350              	.LBE167:
 351              		.loc 1 268 0
 352 001c 0121     		movs	r1, #1
 353              	.LBB168:
 354              	.LBB166:
 355              		.loc 2 675 0
 356 001e 5460     		str	r4, [r2, #4]
 357              	.LVL27:
 358              	.LBE166:
 359              	.LBE168:
 360              		.loc 1 269 0
 361 0020 2846     		mov	r0, r5
 362              		.loc 1 268 0
 363 0022 83F82010 		strb	r1, [r3, #32]
 364              		.loc 1 262 0
 365 0026 A361     		str	r3, [r4, #24]
 366              		.loc 1 269 0
 367 0028 FFF7FEFF 		bl	_dbg_trace
 368              	.LVL28:
 369 002c 2946     		mov	r1, r5
 370 002e A069     		ldr	r0, [r4, #24]
 371 0030 FFF7FEFF 		bl	_stats_ctxswc
 372              	.LVL29:
 373              	.LBB169:
 374              	.LBB170:
 375              	.LBB171:
 376              		.loc 3 428 0
 377              		.syntax unified
 378              	@ 428 "../../lib/ChibiOS/os/ext/CMSIS/include/core_cmFunc.h" 1
 379 0034 EFF30983 		MRS r3, psp
 380              	
 381              	@ 0 "" 2
 382              		.thumb
 383              		.syntax unified
 384              	.LBE171:
 385              	.LBE170:
 386              		.loc 1 269 0
 387 0038 EA69     		ldr	r2, [r5, #28]
 388 003a 643B     		subs	r3, r3, #100
 389 003c 9A42     		cmp	r2, r3
 390 003e 02D9     		bls	.L29
 391              		.loc 1 269 0 is_stmt 0 discriminator 1
 392 0040 0548     		ldr	r0, .L31+4
 393 0042 FFF7FEFF 		bl	chSysHalt
 394              	.LVL30:
 395              	.L29:
 396              		.loc 1 269 0 discriminator 3
 397 0046 2946     		mov	r1, r5
 398 0048 A069     		ldr	r0, [r4, #24]
 399              	.LBE169:
ARM GAS  C:\Users\stoma\AppData\Local\Temp\cc6EBVck.s 			page 8


 400              		.loc 1 270 0 is_stmt 1 discriminator 3
 401 004a BDE87040 		pop	{r4, r5, r6, lr}
 402              		.cfi_restore 14
 403              		.cfi_restore 6
 404              		.cfi_restore 5
 405              		.cfi_restore 4
 406              		.cfi_def_cfa_offset 0
 407              	.LVL31:
 408              	.LBB172:
 409              		.loc 1 269 0 discriminator 3
 410 004e FFF7FEBF 		b	_port_switch
 411              	.LVL32:
 412              	.L32:
 413 0052 00BF     		.align	2
 414              	.L31:
 415 0054 00000000 		.word	.LANCHOR0
 416 0058 00000000 		.word	.LC0
 417              	.LBE172:
 418              		.cfi_endproc
 419              	.LFE221:
 420              		.size	chSchGoSleepS, .-chSchGoSleepS
 421              		.section	.text.chSchGoSleepTimeoutS,"ax",%progbits
 422              		.align	1
 423              		.p2align 4,,15
 424              		.global	chSchGoSleepTimeoutS
 425              		.syntax unified
 426              		.thumb
 427              		.thumb_func
 428              		.fpu fpv4-sp-d16
 429              		.type	chSchGoSleepTimeoutS, %function
 430              	chSchGoSleepTimeoutS:
 431              	.LFB223:
 432              		.loc 1 330 0
 433              		.cfi_startproc
 434              		@ args = 0, pretend = 0, frame = 24
 435              		@ frame_needed = 0, uses_anonymous_args = 0
 436              	.LVL33:
 437 0000 70B5     		push	{r4, r5, r6, lr}
 438              		.cfi_def_cfa_offset 16
 439              		.cfi_offset 4, -16
 440              		.cfi_offset 5, -12
 441              		.cfi_offset 6, -8
 442              		.cfi_offset 14, -4
 443 0002 0D46     		mov	r5, r1
 444 0004 86B0     		sub	sp, sp, #24
 445              		.cfi_def_cfa_offset 40
 446              		.loc 1 330 0
 447 0006 0646     		mov	r6, r0
 448              		.loc 1 332 0
 449 0008 FFF7FEFF 		bl	chDbgCheckClassS
 450              	.LVL34:
 451              		.loc 1 334 0
 452 000c 6B1C     		adds	r3, r5, #1
 453 000e 14D0     		beq	.L34
 454              	.LBB173:
 455              		.loc 1 337 0
 456 0010 0E4C     		ldr	r4, .L41
ARM GAS  C:\Users\stoma\AppData\Local\Temp\cc6EBVck.s 			page 9


 457 0012 0F4A     		ldr	r2, .L41+4
 458 0014 A369     		ldr	r3, [r4, #24]
 459 0016 2946     		mov	r1, r5
 460 0018 01A8     		add	r0, sp, #4
 461 001a FFF7FEFF 		bl	chVTDoSetI
 462              	.LVL35:
 463              		.loc 1 338 0
 464 001e 3046     		mov	r0, r6
 465 0020 FFF7FEFF 		bl	chSchGoSleepS
 466              	.LVL36:
 467              	.LBB174:
 468              	.LBB175:
 469              		.file 6 "../../lib/ChibiOS/os/rt/include/chvt.h"
 470              		.loc 6 339 0
 471 0024 FFF7FEFF 		bl	chDbgCheckClassI
 472              	.LVL37:
 473              	.LBE175:
 474              	.LBE174:
 475              		.loc 1 339 0
 476 0028 049B     		ldr	r3, [sp, #16]
 477 002a 13B1     		cbz	r3, .L36
 478              		.loc 1 340 0
 479 002c 01A8     		add	r0, sp, #4
 480              	.LVL38:
 481 002e FFF7FEFF 		bl	chVTDoResetI
 482              	.LVL39:
 483              	.L36:
 484              	.LBE173:
 485              		.loc 1 347 0
 486 0032 A369     		ldr	r3, [r4, #24]
 487              		.loc 1 348 0
 488 0034 986A     		ldr	r0, [r3, #40]
 489 0036 06B0     		add	sp, sp, #24
 490              		.cfi_remember_state
 491              		.cfi_def_cfa_offset 16
 492              		@ sp needed
 493 0038 70BD     		pop	{r4, r5, r6, pc}
 494              	.LVL40:
 495              	.L34:
 496              		.cfi_restore_state
 497 003a 044C     		ldr	r4, .L41
 498              		.loc 1 344 0
 499 003c 3046     		mov	r0, r6
 500 003e FFF7FEFF 		bl	chSchGoSleepS
 501              	.LVL41:
 502              		.loc 1 347 0
 503 0042 A369     		ldr	r3, [r4, #24]
 504              		.loc 1 348 0
 505 0044 986A     		ldr	r0, [r3, #40]
 506 0046 06B0     		add	sp, sp, #24
 507              		.cfi_def_cfa_offset 16
 508              		@ sp needed
 509 0048 70BD     		pop	{r4, r5, r6, pc}
 510              	.LVL42:
 511              	.L42:
 512 004a 00BF     		.align	2
 513              	.L41:
ARM GAS  C:\Users\stoma\AppData\Local\Temp\cc6EBVck.s 			page 10


 514 004c 00000000 		.word	.LANCHOR0
 515 0050 00000000 		.word	wakeup
 516              		.cfi_endproc
 517              	.LFE223:
 518              		.size	chSchGoSleepTimeoutS, .-chSchGoSleepTimeoutS
 519              		.section	.text.chSchWakeupS,"ax",%progbits
 520              		.align	1
 521              		.p2align 4,,15
 522              		.global	chSchWakeupS
 523              		.syntax unified
 524              		.thumb
 525              		.thumb_func
 526              		.fpu fpv4-sp-d16
 527              		.type	chSchWakeupS, %function
 528              	chSchWakeupS:
 529              	.LFB224:
 530              		.loc 1 367 0
 531              		.cfi_startproc
 532              		@ args = 0, pretend = 0, frame = 0
 533              		@ frame_needed = 0, uses_anonymous_args = 0
 534              	.LVL43:
 535 0000 70B5     		push	{r4, r5, r6, lr}
 536              		.cfi_def_cfa_offset 16
 537              		.cfi_offset 4, -16
 538              		.cfi_offset 5, -12
 539              		.cfi_offset 6, -8
 540              		.cfi_offset 14, -4
 541              		.loc 1 379 0
 542 0002 194D     		ldr	r5, .L49
 543              		.loc 1 367 0
 544 0004 0446     		mov	r4, r0
 545 0006 0E46     		mov	r6, r1
 546              		.loc 1 369 0
 547 0008 FFF7FEFF 		bl	chDbgCheckClassS
 548              	.LVL44:
 549              		.loc 1 379 0
 550 000c A869     		ldr	r0, [r5, #24]
 551 000e A268     		ldr	r2, [r4, #8]
 552 0010 8368     		ldr	r3, [r0, #8]
 553              		.loc 1 373 0
 554 0012 A662     		str	r6, [r4, #40]
 555              		.loc 1 379 0
 556 0014 9A42     		cmp	r2, r3
 557 0016 18D9     		bls	.L47
 558              	.LBB176:
 559              		.loc 1 383 0
 560 0018 FFF7FEFF 		bl	chSchReadyI
 561              	.LVL45:
 562              		.loc 1 390 0
 563 001c 0123     		movs	r3, #1
 564              		.loc 1 383 0
 565 001e 0646     		mov	r6, r0
 566              	.LVL46:
 567              		.loc 1 390 0
 568 0020 84F82030 		strb	r3, [r4, #32]
 569              		.loc 1 384 0
 570 0024 AC61     		str	r4, [r5, #24]
ARM GAS  C:\Users\stoma\AppData\Local\Temp\cc6EBVck.s 			page 11


 571              		.loc 1 391 0
 572 0026 FFF7FEFF 		bl	_dbg_trace
 573              	.LVL47:
 574 002a 3146     		mov	r1, r6
 575 002c 2046     		mov	r0, r4
 576 002e FFF7FEFF 		bl	_stats_ctxswc
 577              	.LVL48:
 578              	.LBB177:
 579              	.LBB178:
 580              	.LBB179:
 581              		.loc 3 428 0
 582              		.syntax unified
 583              	@ 428 "../../lib/ChibiOS/os/ext/CMSIS/include/core_cmFunc.h" 1
 584 0032 EFF30983 		MRS r3, psp
 585              	
 586              	@ 0 "" 2
 587              		.thumb
 588              		.syntax unified
 589              	.LBE179:
 590              	.LBE178:
 591              		.loc 1 391 0
 592 0036 F269     		ldr	r2, [r6, #28]
 593 0038 643B     		subs	r3, r3, #100
 594 003a 9A42     		cmp	r2, r3
 595 003c 0AD8     		bhi	.L48
 596              		.loc 1 391 0 is_stmt 0 discriminator 3
 597 003e 3146     		mov	r1, r6
 598 0040 2046     		mov	r0, r4
 599              	.LBE177:
 600              	.LBE176:
 601              		.loc 1 393 0 is_stmt 1 discriminator 3
 602 0042 BDE87040 		pop	{r4, r5, r6, lr}
 603              		.cfi_remember_state
 604              		.cfi_restore 14
 605              		.cfi_restore 6
 606              		.cfi_restore 5
 607              		.cfi_restore 4
 608              		.cfi_def_cfa_offset 0
 609              	.LVL49:
 610              	.LBB183:
 611              	.LBB180:
 612              		.loc 1 391 0 discriminator 3
 613 0046 FFF7FEBF 		b	_port_switch
 614              	.LVL50:
 615              	.L47:
 616              		.cfi_restore_state
 617              	.LBE180:
 618              	.LBE183:
 619              		.loc 1 380 0
 620 004a 2046     		mov	r0, r4
 621              		.loc 1 393 0
 622 004c BDE87040 		pop	{r4, r5, r6, lr}
 623              		.cfi_remember_state
 624              		.cfi_restore 14
 625              		.cfi_restore 6
 626              		.cfi_restore 5
 627              		.cfi_restore 4
ARM GAS  C:\Users\stoma\AppData\Local\Temp\cc6EBVck.s 			page 12


 628              		.cfi_def_cfa_offset 0
 629              	.LVL51:
 630              		.loc 1 380 0
 631 0050 FFF7FEBF 		b	chSchReadyI
 632              	.LVL52:
 633              	.L48:
 634              		.cfi_restore_state
 635              	.LBB184:
 636              	.LBB181:
 637              		.loc 1 391 0 discriminator 1
 638 0054 0548     		ldr	r0, .L49+4
 639 0056 FFF7FEFF 		bl	chSysHalt
 640              	.LVL53:
 641 005a 3146     		mov	r1, r6
 642 005c 2046     		mov	r0, r4
 643              	.LBE181:
 644              	.LBE184:
 645              		.loc 1 393 0 discriminator 1
 646 005e BDE87040 		pop	{r4, r5, r6, lr}
 647              		.cfi_restore 14
 648              		.cfi_restore 6
 649              		.cfi_restore 5
 650              		.cfi_restore 4
 651              		.cfi_def_cfa_offset 0
 652              	.LVL54:
 653              	.LBB185:
 654              	.LBB182:
 655              		.loc 1 391 0 discriminator 1
 656 0062 FFF7FEBF 		b	_port_switch
 657              	.LVL55:
 658              	.L50:
 659 0066 00BF     		.align	2
 660              	.L49:
 661 0068 00000000 		.word	.LANCHOR0
 662 006c 00000000 		.word	.LC0
 663              	.LBE182:
 664              	.LBE185:
 665              		.cfi_endproc
 666              	.LFE224:
 667              		.size	chSchWakeupS, .-chSchWakeupS
 668              		.section	.text.chSchIsPreemptionRequired,"ax",%progbits
 669              		.align	1
 670              		.p2align 4,,15
 671              		.global	chSchIsPreemptionRequired
 672              		.syntax unified
 673              		.thumb
 674              		.thumb_func
 675              		.fpu fpv4-sp-d16
 676              		.type	chSchIsPreemptionRequired, %function
 677              	chSchIsPreemptionRequired:
 678              	.LFB226:
 679              		.loc 1 424 0
 680              		.cfi_startproc
 681              		@ args = 0, pretend = 0, frame = 0
 682              		@ frame_needed = 0, uses_anonymous_args = 0
 683              		@ link register save eliminated.
 684              		.loc 1 425 0
ARM GAS  C:\Users\stoma\AppData\Local\Temp\cc6EBVck.s 			page 13


 685 0000 084A     		ldr	r2, .L55
 686              		.loc 1 426 0
 687 0002 9369     		ldr	r3, [r2, #24]
 688              		.loc 1 425 0
 689 0004 1168     		ldr	r1, [r2]
 690              		.loc 1 433 0
 691 0006 93F82320 		ldrb	r2, [r3, #35]	@ zero_extendqisi2
 692              		.loc 1 425 0
 693 000a 8868     		ldr	r0, [r1, #8]
 694              	.LVL56:
 695              		.loc 1 426 0
 696 000c 9B68     		ldr	r3, [r3, #8]
 697              	.LVL57:
 698              		.loc 1 433 0
 699 000e 22B9     		cbnz	r2, .L54
 700              		.loc 1 433 0 is_stmt 0 discriminator 2
 701 0010 9842     		cmp	r0, r3
 702 0012 34BF     		ite	cc
 703 0014 0020     		movcc	r0, #0
 704              	.LVL58:
 705 0016 0120     		movcs	r0, #1
 706              		.loc 1 439 0 is_stmt 1 discriminator 2
 707 0018 7047     		bx	lr
 708              	.LVL59:
 709              	.L54:
 710              		.loc 1 433 0 discriminator 1
 711 001a 9842     		cmp	r0, r3
 712 001c 94BF     		ite	ls
 713 001e 0020     		movls	r0, #0
 714              	.LVL60:
 715 0020 0120     		movhi	r0, #1
 716 0022 7047     		bx	lr
 717              	.L56:
 718              		.align	2
 719              	.L55:
 720 0024 00000000 		.word	.LANCHOR0
 721              		.cfi_endproc
 722              	.LFE226:
 723              		.size	chSchIsPreemptionRequired, .-chSchIsPreemptionRequired
 724              		.section	.text.chSchDoRescheduleBehind,"ax",%progbits
 725              		.align	1
 726              		.p2align 4,,15
 727              		.global	chSchDoRescheduleBehind
 728              		.syntax unified
 729              		.thumb
 730              		.thumb_func
 731              		.fpu fpv4-sp-d16
 732              		.type	chSchDoRescheduleBehind, %function
 733              	chSchDoRescheduleBehind:
 734              	.LFB227:
 735              		.loc 1 451 0
 736              		.cfi_startproc
 737              		@ args = 0, pretend = 0, frame = 0
 738              		@ frame_needed = 0, uses_anonymous_args = 0
 739 0000 38B5     		push	{r3, r4, r5, lr}
 740              		.cfi_def_cfa_offset 16
 741              		.cfi_offset 3, -16
ARM GAS  C:\Users\stoma\AppData\Local\Temp\cc6EBVck.s 			page 14


 742              		.cfi_offset 4, -12
 743              		.cfi_offset 5, -8
 744              		.cfi_offset 14, -4
 745              		.loc 1 454 0
 746 0002 134C     		ldr	r4, .L60
 747              	.LBB186:
 748              	.LBB187:
 749              		.loc 2 672 0
 750 0004 2368     		ldr	r3, [r4]
 751              	.LBE187:
 752              	.LBE186:
 753              		.loc 1 454 0
 754 0006 A569     		ldr	r5, [r4, #24]
 755              	.LVL61:
 756              	.LBB190:
 757              	.LBB188:
 758              		.loc 2 674 0
 759 0008 1A68     		ldr	r2, [r3]
 760 000a 2260     		str	r2, [r4]
 761              	.LBE188:
 762              	.LBE190:
 763              		.loc 1 464 0
 764 000c 1421     		movs	r1, #20
 765              		.loc 1 462 0
 766 000e 0120     		movs	r0, #1
 767              	.LBB191:
 768              	.LBB189:
 769              		.loc 2 675 0
 770 0010 5460     		str	r4, [r2, #4]
 771              	.LVL62:
 772              	.LBE189:
 773              	.LBE191:
 774              		.loc 1 462 0
 775 0012 83F82000 		strb	r0, [r3, #32]
 776              		.loc 1 464 0
 777 0016 85F82310 		strb	r1, [r5, #35]
 778              		.loc 1 466 0
 779 001a 2846     		mov	r0, r5
 780              		.loc 1 456 0
 781 001c A361     		str	r3, [r4, #24]
 782              		.loc 1 466 0
 783 001e FFF7FEFF 		bl	chSchReadyI
 784              	.LVL63:
 785              		.loc 1 467 0
 786 0022 2846     		mov	r0, r5
 787 0024 FFF7FEFF 		bl	_dbg_trace
 788              	.LVL64:
 789 0028 2946     		mov	r1, r5
 790 002a A069     		ldr	r0, [r4, #24]
 791 002c FFF7FEFF 		bl	_stats_ctxswc
 792              	.LVL65:
 793              	.LBB192:
 794              	.LBB193:
 795              	.LBB194:
 796              		.loc 3 428 0
 797              		.syntax unified
 798              	@ 428 "../../lib/ChibiOS/os/ext/CMSIS/include/core_cmFunc.h" 1
ARM GAS  C:\Users\stoma\AppData\Local\Temp\cc6EBVck.s 			page 15


 799 0030 EFF30983 		MRS r3, psp
 800              	
 801              	@ 0 "" 2
 802              		.thumb
 803              		.syntax unified
 804              	.LBE194:
 805              	.LBE193:
 806              		.loc 1 467 0
 807 0034 EA69     		ldr	r2, [r5, #28]
 808 0036 643B     		subs	r3, r3, #100
 809 0038 9A42     		cmp	r2, r3
 810 003a 02D9     		bls	.L58
 811              		.loc 1 467 0 is_stmt 0 discriminator 1
 812 003c 0548     		ldr	r0, .L60+4
 813 003e FFF7FEFF 		bl	chSysHalt
 814              	.LVL66:
 815              	.L58:
 816              		.loc 1 467 0 discriminator 3
 817 0042 2946     		mov	r1, r5
 818 0044 A069     		ldr	r0, [r4, #24]
 819              	.LBE192:
 820              		.loc 1 468 0 is_stmt 1 discriminator 3
 821 0046 BDE83840 		pop	{r3, r4, r5, lr}
 822              		.cfi_restore 14
 823              		.cfi_restore 5
 824              		.cfi_restore 4
 825              		.cfi_restore 3
 826              		.cfi_def_cfa_offset 0
 827              	.LVL67:
 828              	.LBB195:
 829              		.loc 1 467 0 discriminator 3
 830 004a FFF7FEBF 		b	_port_switch
 831              	.LVL68:
 832              	.L61:
 833 004e 00BF     		.align	2
 834              	.L60:
 835 0050 00000000 		.word	.LANCHOR0
 836 0054 00000000 		.word	.LC0
 837              	.LBE195:
 838              		.cfi_endproc
 839              	.LFE227:
 840              		.size	chSchDoRescheduleBehind, .-chSchDoRescheduleBehind
 841              		.section	.text.chSchDoRescheduleAhead,"ax",%progbits
 842              		.align	1
 843              		.p2align 4,,15
 844              		.global	chSchDoRescheduleAhead
 845              		.syntax unified
 846              		.thumb
 847              		.thumb_func
 848              		.fpu fpv4-sp-d16
 849              		.type	chSchDoRescheduleAhead, %function
 850              	chSchDoRescheduleAhead:
 851              	.LFB228:
 852              		.loc 1 479 0
 853              		.cfi_startproc
 854              		@ args = 0, pretend = 0, frame = 0
 855              		@ frame_needed = 0, uses_anonymous_args = 0
ARM GAS  C:\Users\stoma\AppData\Local\Temp\cc6EBVck.s 			page 16


 856              		.loc 1 482 0
 857 0000 174B     		ldr	r3, .L67
 858              	.LBB196:
 859              	.LBB197:
 860              		.loc 2 672 0
 861 0002 1A68     		ldr	r2, [r3]
 862              	.LBE197:
 863              	.LBE196:
 864              		.loc 1 479 0
 865 0004 70B5     		push	{r4, r5, r6, lr}
 866              		.cfi_def_cfa_offset 16
 867              		.cfi_offset 4, -16
 868              		.cfi_offset 5, -12
 869              		.cfi_offset 6, -8
 870              		.cfi_offset 14, -4
 871              	.LBB201:
 872              	.LBB198:
 873              		.loc 2 674 0
 874 0006 1068     		ldr	r0, [r2]
 875              	.LBE198:
 876              	.LBE201:
 877              		.loc 1 482 0
 878 0008 9C69     		ldr	r4, [r3, #24]
 879              	.LVL69:
 880              	.LBB202:
 881              	.LBB199:
 882              		.loc 2 674 0
 883 000a 1860     		str	r0, [r3]
 884              	.LBE199:
 885              	.LBE202:
 886              		.loc 1 486 0
 887 000c A168     		ldr	r1, [r4, #8]
 888              	.LBB203:
 889              	.LBB200:
 890              		.loc 2 675 0
 891 000e 4360     		str	r3, [r0, #4]
 892              	.LVL70:
 893              	.LBE200:
 894              	.LBE203:
 895              		.loc 1 490 0
 896 0010 0126     		movs	r6, #1
 897              		.loc 1 492 0
 898 0012 0020     		movs	r0, #0
 899              		.loc 1 490 0
 900 0014 82F82060 		strb	r6, [r2, #32]
 901              		.loc 1 493 0
 902 0018 1D46     		mov	r5, r3
 903              		.loc 1 484 0
 904 001a 9A61     		str	r2, [r3, #24]
 905              		.loc 1 492 0
 906 001c 84F82000 		strb	r0, [r4, #32]
 907              	.LVL71:
 908              	.L63:
 909              		.loc 1 495 0 discriminator 1
 910 0020 1B68     		ldr	r3, [r3]
 911              	.LVL72:
 912              		.loc 1 496 0 discriminator 1
ARM GAS  C:\Users\stoma\AppData\Local\Temp\cc6EBVck.s 			page 17


 913 0022 9A68     		ldr	r2, [r3, #8]
 914 0024 9142     		cmp	r1, r2
 915 0026 FBD3     		bcc	.L63
 916              		.loc 1 499 0
 917 0028 5A68     		ldr	r2, [r3, #4]
 918              		.loc 1 503 0
 919 002a 2046     		mov	r0, r4
 920              		.loc 1 499 0
 921 002c C4E90032 		strd	r3, r2, [r4]
 922              		.loc 1 500 0
 923 0030 1460     		str	r4, [r2]
 924              		.loc 1 501 0
 925 0032 5C60     		str	r4, [r3, #4]
 926              		.loc 1 503 0
 927 0034 FFF7FEFF 		bl	_dbg_trace
 928              	.LVL73:
 929 0038 2146     		mov	r1, r4
 930 003a A869     		ldr	r0, [r5, #24]
 931 003c FFF7FEFF 		bl	_stats_ctxswc
 932              	.LVL74:
 933              	.LBB204:
 934              	.LBB205:
 935              	.LBB206:
 936              		.loc 3 428 0
 937              		.syntax unified
 938              	@ 428 "../../lib/ChibiOS/os/ext/CMSIS/include/core_cmFunc.h" 1
 939 0040 EFF30983 		MRS r3, psp
 940              	
 941              	@ 0 "" 2
 942              		.thumb
 943              		.syntax unified
 944              	.LBE206:
 945              	.LBE205:
 946              		.loc 1 503 0
 947 0044 E269     		ldr	r2, [r4, #28]
 948 0046 643B     		subs	r3, r3, #100
 949 0048 9A42     		cmp	r2, r3
 950 004a 02D9     		bls	.L64
 951              		.loc 1 503 0 is_stmt 0 discriminator 1
 952 004c 0548     		ldr	r0, .L67+4
 953 004e FFF7FEFF 		bl	chSysHalt
 954              	.LVL75:
 955              	.L64:
 956              		.loc 1 503 0 discriminator 3
 957 0052 2146     		mov	r1, r4
 958 0054 A869     		ldr	r0, [r5, #24]
 959              	.LBE204:
 960              		.loc 1 504 0 is_stmt 1 discriminator 3
 961 0056 BDE87040 		pop	{r4, r5, r6, lr}
 962              		.cfi_restore 14
 963              		.cfi_restore 6
 964              		.cfi_restore 5
 965              		.cfi_restore 4
 966              		.cfi_def_cfa_offset 0
 967              	.LVL76:
 968              	.LBB207:
 969              		.loc 1 503 0 discriminator 3
ARM GAS  C:\Users\stoma\AppData\Local\Temp\cc6EBVck.s 			page 18


 970 005a FFF7FEBF 		b	_port_switch
 971              	.LVL77:
 972              	.L68:
 973 005e 00BF     		.align	2
 974              	.L67:
 975 0060 00000000 		.word	.LANCHOR0
 976 0064 00000000 		.word	.LC0
 977              	.LBE207:
 978              		.cfi_endproc
 979              	.LFE228:
 980              		.size	chSchDoRescheduleAhead, .-chSchDoRescheduleAhead
 981              		.section	.text.chSchRescheduleS,"ax",%progbits
 982              		.align	1
 983              		.p2align 4,,15
 984              		.global	chSchRescheduleS
 985              		.syntax unified
 986              		.thumb
 987              		.thumb_func
 988              		.fpu fpv4-sp-d16
 989              		.type	chSchRescheduleS, %function
 990              	chSchRescheduleS:
 991              	.LFB225:
 992              		.loc 1 402 0
 993              		.cfi_startproc
 994              		@ args = 0, pretend = 0, frame = 0
 995              		@ frame_needed = 0, uses_anonymous_args = 0
 996 0000 08B5     		push	{r3, lr}
 997              		.cfi_def_cfa_offset 8
 998              		.cfi_offset 3, -8
 999              		.cfi_offset 14, -4
 1000              		.loc 1 404 0
 1001 0002 FFF7FEFF 		bl	chDbgCheckClassS
 1002              	.LVL78:
 1003              	.LBB208:
 1004              	.LBB209:
 1005              		.loc 2 711 0
 1006 0006 FFF7FEFF 		bl	chDbgCheckClassI
 1007              	.LVL79:
 1008              		.loc 2 713 0
 1009 000a 064B     		ldr	r3, .L73
 1010 000c 1A68     		ldr	r2, [r3]
 1011 000e 9B69     		ldr	r3, [r3, #24]
 1012              	.LBE209:
 1013              	.LBE208:
 1014              		.loc 1 406 0
 1015 0010 9268     		ldr	r2, [r2, #8]
 1016 0012 9B68     		ldr	r3, [r3, #8]
 1017 0014 9A42     		cmp	r2, r3
 1018 0016 00D8     		bhi	.L72
 1019              		.loc 1 409 0
 1020 0018 08BD     		pop	{r3, pc}
 1021              	.L72:
 1022 001a BDE80840 		pop	{r3, lr}
 1023              		.cfi_restore 14
 1024              		.cfi_restore 3
 1025              		.cfi_def_cfa_offset 0
 1026              		.loc 1 407 0
ARM GAS  C:\Users\stoma\AppData\Local\Temp\cc6EBVck.s 			page 19


 1027 001e FFF7FEBF 		b	chSchDoRescheduleAhead
 1028              	.LVL80:
 1029              	.L74:
 1030 0022 00BF     		.align	2
 1031              	.L73:
 1032 0024 00000000 		.word	.LANCHOR0
 1033              		.cfi_endproc
 1034              	.LFE225:
 1035              		.size	chSchRescheduleS, .-chSchRescheduleS
 1036              		.section	.text.chSchDoReschedule,"ax",%progbits
 1037              		.align	1
 1038              		.p2align 4,,15
 1039              		.global	chSchDoReschedule
 1040              		.syntax unified
 1041              		.thumb
 1042              		.thumb_func
 1043              		.fpu fpv4-sp-d16
 1044              		.type	chSchDoReschedule, %function
 1045              	chSchDoReschedule:
 1046              	.LFB229:
 1047              		.loc 1 516 0
 1048              		.cfi_startproc
 1049              		@ args = 0, pretend = 0, frame = 0
 1050              		@ frame_needed = 0, uses_anonymous_args = 0
 1051              		@ link register save eliminated.
 1052              		.loc 1 521 0
 1053 0000 044B     		ldr	r3, .L78
 1054 0002 9B69     		ldr	r3, [r3, #24]
 1055 0004 93F82330 		ldrb	r3, [r3, #35]	@ zero_extendqisi2
 1056 0008 0BB1     		cbz	r3, .L77
 1057              		.loc 1 529 0
 1058 000a FFF7FEBF 		b	chSchDoRescheduleAhead
 1059              	.LVL81:
 1060              	.L77:
 1061              		.loc 1 524 0
 1062 000e FFF7FEBF 		b	chSchDoRescheduleBehind
 1063              	.LVL82:
 1064              	.L79:
 1065 0012 00BF     		.align	2
 1066              	.L78:
 1067 0014 00000000 		.word	.LANCHOR0
 1068              		.cfi_endproc
 1069              	.LFE229:
 1070              		.size	chSchDoReschedule, .-chSchDoReschedule
 1071              		.global	ch
 1072              		.section	.bss.ch,"aw",%nobits
 1073              		.align	3
 1074              		.set	.LANCHOR0,. + 0
 1075              		.type	ch, %object
 1076              		.size	ch, 1648
 1077              	ch:
 1078 0000 00000000 		.space	1648
 1078      00000000 
 1078      00000000 
 1078      00000000 
 1078      00000000 
 1079              		.section	.rodata.__func__.7854,"a",%progbits
ARM GAS  C:\Users\stoma\AppData\Local\Temp\cc6EBVck.s 			page 20


 1080              		.align	2
 1081              		.set	.LANCHOR1,. + 0
 1082              		.type	__func__.7854, %object
 1083              		.size	__func__.7854, 12
 1084              	__func__.7854:
 1085 0000 63685363 		.ascii	"chSchReadyI\000"
 1085      68526561 
 1085      64794900 
 1086              		.section	.rodata.chSchGoSleepS.str1.4,"aMS",%progbits,1
 1087              		.align	2
 1088              	.LC0:
 1089 0000 73746163 		.ascii	"stack overflow\000"
 1089      6B206F76 
 1089      6572666C 
 1089      6F7700
 1090              		.text
 1091              	.Letext0:
 1092              		.file 7 "c:\\users\\stoma\\desktop\\eclipse_e-puck2\\tools\\gcc-arm-none-eabi-7-2017-q4-major-win3
 1093              		.file 8 "c:\\users\\stoma\\desktop\\eclipse_e-puck2\\tools\\gcc-arm-none-eabi-7-2017-q4-major-win3
 1094              		.file 9 "c:\\users\\stoma\\desktop\\eclipse_e-puck2\\tools\\gcc-arm-none-eabi-7-2017-q4-major-win3
 1095              		.file 10 "../../lib/ChibiOS/os/rt/ports/ARMCMx/compilers/GCC/chtypes.h"
 1096              		.file 11 "../../lib/ChibiOS/os/rt/include/chsystypes.h"
 1097              		.file 12 "../../lib/ChibiOS/os/ext/CMSIS/include/core_cm4.h"
 1098              		.file 13 "../../lib/ChibiOS/os/ext/CMSIS/ST/system_stm32f4xx.h"
 1099              		.file 14 "../../lib/ChibiOS/os/rt/ports/ARMCMx/chcore.h"
 1100              		.file 15 "../../lib/ChibiOS/os/rt/ports/ARMCMx/chcore_v7m.h"
 1101              		.file 16 "../../lib/ChibiOS/os/rt/include/chdebug.h"
 1102              		.file 17 "../../lib/ChibiOS/os/rt/include/chtm.h"
 1103              		.file 18 "../../lib/ChibiOS/os/rt/include/chstats.h"
 1104              		.file 19 "../../lib/ChibiOS/os/rt/include/chmtx.h"
 1105              		.file 20 "../../lib/ChibiOS/os/rt/include/chregistry.h"