ARM GAS  /var/folders/km/q6jdms0143g2bddz5bhvdfd00000gn/T//cc1F5rjv.s 			page 1


   1              		.cpu cortex-m4
   2              		.eabi_attribute 27, 1
   3              		.eabi_attribute 28, 1
   4              		.eabi_attribute 20, 1
   5              		.eabi_attribute 21, 1
   6              		.eabi_attribute 23, 3
   7              		.eabi_attribute 24, 1
   8              		.eabi_attribute 25, 1
   9              		.eabi_attribute 26, 1
  10              		.eabi_attribute 30, 2
  11              		.eabi_attribute 34, 1
  12              		.eabi_attribute 18, 4
  13              		.file	"chstats.c"
  14              		.text
  15              	.Ltext0:
  16              		.cfi_sections	.debug_frame
  17              		.section	.text._stats_init,"ax",%progbits
  18              		.align	1
  19              		.p2align 4,,15
  20              		.global	_stats_init
  21              		.syntax unified
  22              		.thumb
  23              		.thumb_func
  24              		.fpu fpv4-sp-d16
  25              		.type	_stats_init, %function
  26              	_stats_init:
  27              	.LFB219:
  28              		.file 1 "../../lib/ChibiOS/os/rt/src/chstats.c"
  29              		.loc 1 62 0
  30              		.cfi_startproc
  31              		@ args = 0, pretend = 0, frame = 0
  32              		@ frame_needed = 0, uses_anonymous_args = 0
  33 0000 10B5     		push	{r4, lr}
  34              		.cfi_def_cfa_offset 8
  35              		.cfi_offset 4, -8
  36              		.cfi_offset 14, -4
  37              		.loc 1 64 0
  38 0002 084C     		ldr	r4, .L4
  39 0004 0023     		movs	r3, #0
  40              		.loc 1 66 0
  41 0006 04F59760 		add	r0, r4, #1208
  42              		.loc 1 64 0
  43 000a C4F8B034 		str	r3, [r4, #1200]
  44              		.loc 1 65 0
  45 000e C4F8B434 		str	r3, [r4, #1204]
  46              		.loc 1 66 0
  47 0012 FFF7FEFF 		bl	chTMObjectInit
  48              	.LVL0:
  49              		.loc 1 67 0
  50 0016 04F59A60 		add	r0, r4, #1232
  51              		.loc 1 68 0
  52 001a BDE81040 		pop	{r4, lr}
  53              		.cfi_restore 14
  54              		.cfi_restore 4
  55              		.cfi_def_cfa_offset 0
  56              		.loc 1 67 0
  57 001e FFF7FEBF 		b	chTMObjectInit
ARM GAS  /var/folders/km/q6jdms0143g2bddz5bhvdfd00000gn/T//cc1F5rjv.s 			page 2


  58              	.LVL1:
  59              	.L5:
  60 0022 00BF     		.align	2
  61              	.L4:
  62 0024 00000000 		.word	ch
  63              		.cfi_endproc
  64              	.LFE219:
  65              		.size	_stats_init, .-_stats_init
  66              		.section	.text._stats_increase_irq,"ax",%progbits
  67              		.align	1
  68              		.p2align 4,,15
  69              		.global	_stats_increase_irq
  70              		.syntax unified
  71              		.thumb
  72              		.thumb_func
  73              		.fpu fpv4-sp-d16
  74              		.type	_stats_increase_irq, %function
  75              	_stats_increase_irq:
  76              	.LFB220:
  77              		.loc 1 73 0
  78              		.cfi_startproc
  79              		@ args = 0, pretend = 0, frame = 0
  80              		@ frame_needed = 0, uses_anonymous_args = 0
  81              		@ link register save eliminated.
  82              		.loc 1 75 0
  83 0000 034A     		ldr	r2, .L7
  84 0002 D2F8B034 		ldr	r3, [r2, #1200]
  85 0006 0133     		adds	r3, r3, #1
  86 0008 C2F8B034 		str	r3, [r2, #1200]
  87              		.loc 1 76 0
  88 000c 7047     		bx	lr
  89              	.L8:
  90 000e 00BF     		.align	2
  91              	.L7:
  92 0010 00000000 		.word	ch
  93              		.cfi_endproc
  94              	.LFE220:
  95              		.size	_stats_increase_irq, .-_stats_increase_irq
  96              		.section	.text._stats_ctxswc,"ax",%progbits
  97              		.align	1
  98              		.p2align 4,,15
  99              		.global	_stats_ctxswc
 100              		.syntax unified
 101              		.thumb
 102              		.thumb_func
 103              		.fpu fpv4-sp-d16
 104              		.type	_stats_ctxswc, %function
 105              	_stats_ctxswc:
 106              	.LFB221:
 107              		.loc 1 84 0
 108              		.cfi_startproc
 109              		@ args = 0, pretend = 0, frame = 0
 110              		@ frame_needed = 0, uses_anonymous_args = 0
 111              		@ link register save eliminated.
 112              	.LVL2:
 113              		.loc 1 86 0
 114 0000 074A     		ldr	r2, .L11
ARM GAS  /var/folders/km/q6jdms0143g2bddz5bhvdfd00000gn/T//cc1F5rjv.s 			page 3


 115 0002 D2F8B434 		ldr	r3, [r2, #1204]
 116              		.loc 1 84 0
 117 0006 10B4     		push	{r4}
 118              		.cfi_def_cfa_offset 4
 119              		.cfi_offset 4, -4
 120              		.loc 1 87 0
 121 0008 01F15004 		add	r4, r1, #80
 122              		.loc 1 86 0
 123 000c 0133     		adds	r3, r3, #1
 124              		.loc 1 87 0
 125 000e 00F15001 		add	r1, r0, #80
 126              	.LVL3:
 127 0012 2046     		mov	r0, r4
 128              	.LVL4:
 129              		.loc 1 88 0
 130 0014 5DF8044B 		ldr	r4, [sp], #4
 131              		.cfi_restore 4
 132              		.cfi_def_cfa_offset 0
 133              	.LVL5:
 134              		.loc 1 86 0
 135 0018 C2F8B434 		str	r3, [r2, #1204]
 136              		.loc 1 87 0
 137 001c FFF7FEBF 		b	chTMChainMeasurementToX
 138              	.LVL6:
 139              	.L12:
 140              		.align	2
 141              	.L11:
 142 0020 00000000 		.word	ch
 143              		.cfi_endproc
 144              	.LFE221:
 145              		.size	_stats_ctxswc, .-_stats_ctxswc
 146              		.section	.text._stats_start_measure_crit_thd,"ax",%progbits
 147              		.align	1
 148              		.p2align 4,,15
 149              		.global	_stats_start_measure_crit_thd
 150              		.syntax unified
 151              		.thumb
 152              		.thumb_func
 153              		.fpu fpv4-sp-d16
 154              		.type	_stats_start_measure_crit_thd, %function
 155              	_stats_start_measure_crit_thd:
 156              	.LFB222:
 157              		.loc 1 93 0
 158              		.cfi_startproc
 159              		@ args = 0, pretend = 0, frame = 0
 160              		@ frame_needed = 0, uses_anonymous_args = 0
 161              		@ link register save eliminated.
 162              		.loc 1 95 0
 163 0000 0148     		ldr	r0, .L14
 164 0002 FFF7FEBF 		b	chTMStartMeasurementX
 165              	.LVL7:
 166              	.L15:
 167 0006 00BF     		.align	2
 168              	.L14:
 169 0008 B8040000 		.word	ch+1208
 170              		.cfi_endproc
 171              	.LFE222:
ARM GAS  /var/folders/km/q6jdms0143g2bddz5bhvdfd00000gn/T//cc1F5rjv.s 			page 4


 172              		.size	_stats_start_measure_crit_thd, .-_stats_start_measure_crit_thd
 173              		.section	.text._stats_stop_measure_crit_thd,"ax",%progbits
 174              		.align	1
 175              		.p2align 4,,15
 176              		.global	_stats_stop_measure_crit_thd
 177              		.syntax unified
 178              		.thumb
 179              		.thumb_func
 180              		.fpu fpv4-sp-d16
 181              		.type	_stats_stop_measure_crit_thd, %function
 182              	_stats_stop_measure_crit_thd:
 183              	.LFB223:
 184              		.loc 1 101 0
 185              		.cfi_startproc
 186              		@ args = 0, pretend = 0, frame = 0
 187              		@ frame_needed = 0, uses_anonymous_args = 0
 188              		@ link register save eliminated.
 189              		.loc 1 103 0
 190 0000 0148     		ldr	r0, .L17
 191 0002 FFF7FEBF 		b	chTMStopMeasurementX
 192              	.LVL8:
 193              	.L18:
 194 0006 00BF     		.align	2
 195              	.L17:
 196 0008 B8040000 		.word	ch+1208
 197              		.cfi_endproc
 198              	.LFE223:
 199              		.size	_stats_stop_measure_crit_thd, .-_stats_stop_measure_crit_thd
 200              		.section	.text._stats_start_measure_crit_isr,"ax",%progbits
 201              		.align	1
 202              		.p2align 4,,15
 203              		.global	_stats_start_measure_crit_isr
 204              		.syntax unified
 205              		.thumb
 206              		.thumb_func
 207              		.fpu fpv4-sp-d16
 208              		.type	_stats_start_measure_crit_isr, %function
 209              	_stats_start_measure_crit_isr:
 210              	.LFB224:
 211              		.loc 1 109 0
 212              		.cfi_startproc
 213              		@ args = 0, pretend = 0, frame = 0
 214              		@ frame_needed = 0, uses_anonymous_args = 0
 215              		@ link register save eliminated.
 216              		.loc 1 111 0
 217 0000 0148     		ldr	r0, .L20
 218 0002 FFF7FEBF 		b	chTMStartMeasurementX
 219              	.LVL9:
 220              	.L21:
 221 0006 00BF     		.align	2
 222              	.L20:
 223 0008 D0040000 		.word	ch+1232
 224              		.cfi_endproc
 225              	.LFE224:
 226              		.size	_stats_start_measure_crit_isr, .-_stats_start_measure_crit_isr
 227              		.section	.text._stats_stop_measure_crit_isr,"ax",%progbits
 228              		.align	1
ARM GAS  /var/folders/km/q6jdms0143g2bddz5bhvdfd00000gn/T//cc1F5rjv.s 			page 5


 229              		.p2align 4,,15
 230              		.global	_stats_stop_measure_crit_isr
 231              		.syntax unified
 232              		.thumb
 233              		.thumb_func
 234              		.fpu fpv4-sp-d16
 235              		.type	_stats_stop_measure_crit_isr, %function
 236              	_stats_stop_measure_crit_isr:
 237              	.LFB225:
 238              		.loc 1 117 0
 239              		.cfi_startproc
 240              		@ args = 0, pretend = 0, frame = 0
 241              		@ frame_needed = 0, uses_anonymous_args = 0
 242              		@ link register save eliminated.
 243              		.loc 1 119 0
 244 0000 0148     		ldr	r0, .L23
 245 0002 FFF7FEBF 		b	chTMStopMeasurementX
 246              	.LVL10:
 247              	.L24:
 248 0006 00BF     		.align	2
 249              	.L23:
 250 0008 D0040000 		.word	ch+1232
 251              		.cfi_endproc
 252              	.LFE225:
 253              		.size	_stats_stop_measure_crit_isr, .-_stats_stop_measure_crit_isr
 254              		.text
 255              	.Letext0:
 256              		.file 2 "/Applications/Eclipse_e-puck2.app/Contents/Eclipse_e-puck2/Tools/gcc-arm-none-eabi-7-2017
 257              		.file 3 "/Applications/Eclipse_e-puck2.app/Contents/Eclipse_e-puck2/Tools/gcc-arm-none-eabi-7-2017
 258              		.file 4 "../../lib/ChibiOS/os/rt/ports/ARMCMx/compilers/GCC/chtypes.h"
 259              		.file 5 "../../lib/ChibiOS/os/rt/include/chsystypes.h"
 260              		.file 6 "../../lib/ChibiOS/os/rt/include/chschd.h"
 261              		.file 7 "../../lib/ChibiOS/os/ext/CMSIS/include/core_cm4.h"
 262              		.file 8 "../../lib/ChibiOS/os/ext/CMSIS/ST/system_stm32f4xx.h"
 263              		.file 9 "../../lib/ChibiOS/os/rt/ports/ARMCMx/chcore.h"
 264              		.file 10 "../../lib/ChibiOS/os/rt/ports/ARMCMx/chcore_v7m.h"
 265              		.file 11 "../../lib/ChibiOS/os/rt/include/chdebug.h"
 266              		.file 12 "../../lib/ChibiOS/os/rt/include/chtm.h"
 267              		.file 13 "../../lib/ChibiOS/os/rt/include/chstats.h"
 268              		.file 14 "../../lib/ChibiOS/os/rt/include/chsem.h"
 269              		.file 15 "../../lib/ChibiOS/os/rt/include/chmtx.h"
 270              		.file 16 "../../lib/ChibiOS/os/rt/include/chregistry.h"