ARM GAS  /var/folders/km/q6jdms0143g2bddz5bhvdfd00000gn/T//ccVb31lm.s 			page 1


   1              		.cpu cortex-m4
   2              		.eabi_attribute 27, 1
   3              		.eabi_attribute 28, 1
   4              		.eabi_attribute 20, 1
   5              		.eabi_attribute 21, 1
   6              		.eabi_attribute 23, 3
   7              		.eabi_attribute 24, 1
   8              		.eabi_attribute 25, 1
   9              		.eabi_attribute 26, 1
  10              		.eabi_attribute 30, 2
  11              		.eabi_attribute 34, 1
  12              		.eabi_attribute 18, 4
  13              		.file	"chsys.c"
  14              		.text
  15              	.Ltext0:
  16              		.cfi_sections	.debug_frame
  17              		.section	.text._idle_thread,"ax",%progbits
  18              		.align	1
  19              		.p2align 4,,15
  20              		.syntax unified
  21              		.thumb
  22              		.thumb_func
  23              		.fpu fpv4-sp-d16
  24              		.type	_idle_thread, %function
  25              	_idle_thread:
  26              	.LFB219:
  27              		.file 1 "../../lib/ChibiOS/os/rt/src/chsys.c"
  28              		.loc 1 65 0
  29              		.cfi_startproc
  30              		@ Volatile: function does not return.
  31              		@ args = 0, pretend = 0, frame = 0
  32              		@ frame_needed = 0, uses_anonymous_args = 0
  33              		@ link register save eliminated.
  34              	.LVL0:
  35              	.L2:
  36 0000 FEE7     		b	.L2
  37              		.cfi_endproc
  38              	.LFE219:
  39              		.size	_idle_thread, .-_idle_thread
  40 0002 00BF     		.section	.text.chSysInit,"ax",%progbits
  41              		.align	1
  42              		.p2align 4,,15
  43              		.global	chSysInit
  44              		.syntax unified
  45              		.thumb
  46              		.thumb_func
  47              		.fpu fpv4-sp-d16
  48              		.type	chSysInit, %function
  49              	chSysInit:
  50              	.LFB220:
  51              		.loc 1 93 0
  52              		.cfi_startproc
  53              		@ args = 0, pretend = 0, frame = 0
  54              		@ frame_needed = 0, uses_anonymous_args = 0
  55              	.LBB132:
  56              	.LBB133:
  57              		.file 2 "../../lib/ChibiOS/os/rt/ports/ARMCMx/chcore_v7m.h"
ARM GAS  /var/folders/km/q6jdms0143g2bddz5bhvdfd00000gn/T//ccVb31lm.s 			page 2


  58              		.loc 2 377 0
  59 0000 254B     		ldr	r3, .L6
  60              	.LBB134:
  61              	.LBB135:
  62              		.file 3 "../../lib/ChibiOS/os/ext/CMSIS/include/core_cm4.h"
  63              		.loc 3 1442 0
  64 0002 264A     		ldr	r2, .L6+4
  65              	.LBE135:
  66              	.LBE134:
  67              		.loc 2 383 0
  68 0004 2648     		ldr	r0, .L6+8
  69              	.LBE133:
  70              	.LBE132:
  71              		.loc 1 93 0
  72 0006 F0B5     		push	{r4, r5, r6, r7, lr}
  73              		.cfi_def_cfa_offset 20
  74              		.cfi_offset 4, -20
  75              		.cfi_offset 5, -16
  76              		.cfi_offset 6, -12
  77              		.cfi_offset 7, -8
  78              		.cfi_offset 14, -4
  79              	.LBB149:
  80              	.LBB146:
  81              		.loc 2 377 0
  82 0008 0024     		movs	r4, #0
  83 000a 9C60     		str	r4, [r3, #8]
  84              	.LVL1:
  85              	.LBB137:
  86              	.LBB136:
  87              		.loc 3 1440 0
  88 000c D968     		ldr	r1, [r3, #12]
  89              	.LVL2:
  90              		.loc 3 1441 0
  91 000e 4FF6FF05 		movw	r5, #63743
  92 0012 2940     		ands	r1, r1, r5
  93              	.LVL3:
  94              		.loc 3 1442 0
  95 0014 0A43     		orrs	r2, r2, r1
  96              	.LVL4:
  97              		.loc 3 1445 0
  98 0016 DA60     		str	r2, [r3, #12]
  99              	.LVL5:
 100              	.LBE136:
 101              	.LBE137:
 102              		.loc 2 383 0
 103 0018 C268     		ldr	r2, [r0, #12]
 104              		.loc 2 384 0
 105 001a 2249     		ldr	r1, .L6+12
 106              	.LBE146:
 107              	.LBE149:
 108              		.loc 1 119 0
 109 001c 224D     		ldr	r5, .L6+16
 110              	.LBB150:
 111              	.LBB147:
 112              		.loc 2 383 0
 113 001e 42F08072 		orr	r2, r2, #16777216
 114 0022 C260     		str	r2, [r0, #12]
ARM GAS  /var/folders/km/q6jdms0143g2bddz5bhvdfd00000gn/T//ccVb31lm.s 			page 3


 115              		.loc 2 384 0
 116 0024 0A68     		ldr	r2, [r1]
 117 0026 42F00102 		orr	r2, r2, #1
 118 002a 0A60     		str	r2, [r1]
 119              	.LVL6:
 120              	.LBB138:
 121              	.LBB139:
 122              		.loc 3 1553 0
 123 002c 1020     		movs	r0, #16
 124              	.LBE139:
 125              	.LBE138:
 126              	.LBB141:
 127              	.LBB142:
 128 002e 2022     		movs	r2, #32
 129              	.LBE142:
 130              	.LBE141:
 131              	.LBE147:
 132              	.LBE150:
 133              		.loc 1 93 0
 134 0030 83B0     		sub	sp, sp, #12
 135              		.cfi_def_cfa_offset 32
 136              	.LBB151:
 137              	.LBB148:
 138              	.LBB144:
 139              	.LBB140:
 140              		.loc 3 1553 0
 141 0032 D877     		strb	r0, [r3, #31]
 142              	.LVL7:
 143              	.LBE140:
 144              	.LBE144:
 145              	.LBB145:
 146              	.LBB143:
 147 0034 83F82220 		strb	r2, [r3, #34]
 148              	.LVL8:
 149              	.LBE143:
 150              	.LBE145:
 151              	.LBE148:
 152              	.LBE151:
 153              		.loc 1 99 0
 154 0038 FFF7FEFF 		bl	_scheduler_init
 155              	.LVL9:
 156              		.loc 1 100 0
 157 003c FFF7FEFF 		bl	_vt_init
 158              	.LVL10:
 159              		.loc 1 102 0
 160 0040 FFF7FEFF 		bl	_tm_init
 161              	.LVL11:
 162              		.loc 1 105 0
 163 0044 FFF7FEFF 		bl	_core_init
 164              	.LVL12:
 165              		.loc 1 108 0
 166 0048 FFF7FEFF 		bl	_heap_init
 167              	.LVL13:
 168              		.loc 1 111 0
 169 004c FFF7FEFF 		bl	_stats_init
 170              	.LVL14:
 171              		.loc 1 114 0
ARM GAS  /var/folders/km/q6jdms0143g2bddz5bhvdfd00000gn/T//ccVb31lm.s 			page 4


 172 0050 FFF7FEFF 		bl	_dbg_trace_init
 173              	.LVL15:
 174              		.loc 1 119 0
 175 0054 4021     		movs	r1, #64
 176 0056 2846     		mov	r0, r5
 177 0058 FFF7FEFF 		bl	_thread_init
 178              	.LVL16:
 179 005c A5F58867 		sub	r7, r5, #1088
 180              		.loc 1 129 0
 181 0060 124B     		ldr	r3, .L6+20
 182 0062 C361     		str	r3, [r0, #28]
 183              		.loc 1 125 0
 184 0064 0126     		movs	r6, #1
 185 0066 80F82060 		strb	r6, [r0, #32]
 186              		.loc 1 119 0
 187 006a B861     		str	r0, [r7, #24]
 188              	.LBB152:
 189              	.LBB153:
 190              		.file 4 "../../lib/ChibiOS/os/rt/include/chsys.h"
 191              		.loc 4 337 0
 192 006c FFF7FEFF 		bl	_dbg_check_enable
 193              	.LVL17:
 194              	.LBB154:
 195              	.LBB155:
 196              	.LBB156:
 197              		.file 5 "../../lib/ChibiOS/os/ext/CMSIS/include/core_cmFunc.h"
 198              		.loc 5 546 0
 199              		.syntax unified
 200              	@ 546 "../../lib/ChibiOS/os/ext/CMSIS/include/core_cmFunc.h" 1
 201 0070 84F31188 		MSR basepri, r4
 202              	@ 0 "" 2
 203              	.LVL18:
 204              		.thumb
 205              		.syntax unified
 206              	.LBE156:
 207              	.LBE155:
 208              	.LBB157:
 209              	.LBB158:
 210              		.loc 5 331 0
 211              		.syntax unified
 212              	@ 331 "../../lib/ChibiOS/os/ext/CMSIS/include/core_cmFunc.h" 1
 213 0074 62B6     		cpsie i
 214              	@ 0 "" 2
 215              	.LVL19:
 216              		.thumb
 217              		.syntax unified
 218              	.LBE158:
 219              	.LBE157:
 220              	.LBE154:
 221              	.LBE153:
 222              	.LBE152:
 223              	.LBB159:
 224              	.LBB160:
 225              		.file 6 "../../lib/ChibiOS/os/rt/include/chregistry.h"
 226              		.loc 6 135 0
 227 0076 BB69     		ldr	r3, [r7, #24]
 228 0078 0D4A     		ldr	r2, .L6+24
ARM GAS  /var/folders/km/q6jdms0143g2bddz5bhvdfd00000gn/T//ccVb31lm.s 			page 5


 229 007a 9A61     		str	r2, [r3, #24]
 230              	.LVL20:
 231              	.LBE160:
 232              	.LBE159:
 233              	.LBB161:
 234              		.loc 1 144 0
 235 007c 05F1A800 		add	r0, r5, #168
 236 0080 3246     		mov	r2, r6
 237 0082 0094     		str	r4, [sp]
 238 0084 0B4B     		ldr	r3, .L6+28
 239 0086 4FF4C471 		mov	r1, #392
 240 008a FFF7FEFF 		bl	chThdCreateStatic
 241              	.LVL21:
 242              	.LBB162:
 243              	.LBB163:
 244              		.loc 6 175 0
 245 008e 0A4B     		ldr	r3, .L6+32
 246 0090 8361     		str	r3, [r0, #24]
 247              	.LVL22:
 248              	.LBE163:
 249              	.LBE162:
 250              	.LBE161:
 251              		.loc 1 152 0
 252 0092 03B0     		add	sp, sp, #12
 253              		.cfi_def_cfa_offset 20
 254              		@ sp needed
 255 0094 F0BD     		pop	{r4, r5, r6, r7, pc}
 256              	.L7:
 257 0096 00BF     		.align	2
 258              	.L6:
 259 0098 00ED00E0 		.word	-536810240
 260 009c 0003FA05 		.word	100270848
 261 00a0 F0ED00E0 		.word	-536810000
 262 00a4 001000E0 		.word	-536866816
 263 00a8 40040000 		.word	ch+1088
 264 00ac 00000000 		.word	__main_thread_stack_base__
 265 00b0 00000000 		.word	ch_debug
 266 00b4 00000000 		.word	_idle_thread
 267 00b8 00000000 		.word	.LC0
 268              		.cfi_endproc
 269              	.LFE220:
 270              		.size	chSysInit, .-chSysInit
 271              		.section	.text.chSysHalt,"ax",%progbits
 272              		.align	1
 273              		.p2align 4,,15
 274              		.global	chSysHalt
 275              		.syntax unified
 276              		.thumb
 277              		.thumb_func
 278              		.fpu fpv4-sp-d16
 279              		.type	chSysHalt, %function
 280              	chSysHalt:
 281              	.LFB221:
 282              		.loc 1 166 0
 283              		.cfi_startproc
 284              		@ Volatile: function does not return.
 285              		@ args = 0, pretend = 0, frame = 0
ARM GAS  /var/folders/km/q6jdms0143g2bddz5bhvdfd00000gn/T//ccVb31lm.s 			page 6


 286              		@ frame_needed = 0, uses_anonymous_args = 0
 287              	.LVL23:
 288 0000 08B5     		push	{r3, lr}
 289              		.cfi_def_cfa_offset 8
 290              		.cfi_offset 3, -8
 291              		.cfi_offset 14, -4
 292              		.loc 1 166 0
 293 0002 0446     		mov	r4, r0
 294              	.LBB164:
 295              	.LBB165:
 296              	.LBB166:
 297              		.loc 5 342 0
 298              		.syntax unified
 299              	@ 342 "../../lib/ChibiOS/os/ext/CMSIS/include/core_cmFunc.h" 1
 300 0004 72B6     		cpsid i
 301              	@ 0 "" 2
 302              		.thumb
 303              		.syntax unified
 304              	.LBE166:
 305              	.LBE165:
 306              	.LBE164:
 307              		.loc 1 171 0
 308 0006 FFF7FEFF 		bl	panic_handler
 309              	.LVL24:
 310              		.loc 1 175 0
 311 000a 014B     		ldr	r3, .L11
 312 000c DC62     		str	r4, [r3, #44]
 313              	.L9:
 314 000e FEE7     		b	.L9
 315              	.L12:
 316              		.align	2
 317              	.L11:
 318 0010 00000000 		.word	ch
 319              		.cfi_endproc
 320              	.LFE221:
 321              		.size	chSysHalt, .-chSysHalt
 322              		.section	.text.chSysIntegrityCheckI,"ax",%progbits
 323              		.align	1
 324              		.p2align 4,,15
 325              		.global	chSysIntegrityCheckI
 326              		.syntax unified
 327              		.thumb
 328              		.thumb_func
 329              		.fpu fpv4-sp-d16
 330              		.type	chSysIntegrityCheckI, %function
 331              	chSysIntegrityCheckI:
 332              	.LFB222:
 333              		.loc 1 206 0
 334              		.cfi_startproc
 335              		@ args = 0, pretend = 0, frame = 0
 336              		@ frame_needed = 0, uses_anonymous_args = 0
 337              	.LVL25:
 338 0000 10B5     		push	{r4, lr}
 339              		.cfi_def_cfa_offset 8
 340              		.cfi_offset 4, -8
 341              		.cfi_offset 14, -4
 342              		.loc 1 206 0
ARM GAS  /var/folders/km/q6jdms0143g2bddz5bhvdfd00000gn/T//ccVb31lm.s 			page 7


 343 0002 0446     		mov	r4, r0
 344              		.loc 1 209 0
 345 0004 FFF7FEFF 		bl	chDbgCheckClassI
 346              	.LVL26:
 347              		.loc 1 212 0
 348 0008 E207     		lsls	r2, r4, #31
 349 000a 12D5     		bpl	.L14
 350              	.LVL27:
 351              	.LBB167:
 352              		.loc 1 217 0
 353 000c 274B     		ldr	r3, .L57
 354 000e D3E90010 		ldrd	r1, r0, [r3]
 355              		.loc 1 218 0
 356 0012 9942     		cmp	r1, r3
 357 0014 3FD0     		beq	.L15
 358              		.loc 1 216 0
 359 0016 0022     		movs	r2, #0
 360              	.LVL28:
 361              	.L16:
 362              		.loc 1 220 0
 363 0018 0968     		ldr	r1, [r1]
 364              	.LVL29:
 365              		.loc 1 218 0
 366 001a 9942     		cmp	r1, r3
 367              		.loc 1 219 0
 368 001c 02F10102 		add	r2, r2, #1
 369              	.LVL30:
 370              		.loc 1 218 0
 371 0020 FAD1     		bne	.L16
 372              	.LVL31:
 373              		.loc 1 225 0
 374 0022 8842     		cmp	r0, r1
 375 0024 35D0     		beq	.L40
 376              	.LVL32:
 377              	.L20:
 378              		.loc 1 227 0
 379 0026 4068     		ldr	r0, [r0, #4]
 380              	.LVL33:
 381              		.loc 1 225 0
 382 0028 9842     		cmp	r0, r3
 383              		.loc 1 226 0
 384 002a 02F1FF32 		add	r2, r2, #-1
 385              	.LVL34:
 386              		.loc 1 225 0
 387 002e FAD1     		bne	.L20
 388              		.loc 1 231 0
 389 0030 7ABB     		cbnz	r2, .L40
 390              	.LVL35:
 391              	.L14:
 392              	.LBE167:
 393              		.loc 1 237 0
 394 0032 A307     		lsls	r3, r4, #30
 395 0034 13D5     		bpl	.L21
 396              	.LVL36:
 397              	.LBB168:
 398              		.loc 1 242 0
 399 0036 1D48     		ldr	r0, .L57
ARM GAS  /var/folders/km/q6jdms0143g2bddz5bhvdfd00000gn/T//ccVb31lm.s 			page 8


 400 0038 D0E90721 		ldrd	r2, r1, [r0, #28]
 401              		.loc 1 243 0
 402 003c 1C30     		adds	r0, r0, #28
 403 003e 8242     		cmp	r2, r0
 404 0040 2DD0     		beq	.L22
 405              		.loc 1 241 0
 406 0042 0023     		movs	r3, #0
 407              	.LVL37:
 408              	.L23:
 409              		.loc 1 245 0
 410 0044 1268     		ldr	r2, [r2]
 411              	.LVL38:
 412              		.loc 1 243 0
 413 0046 8242     		cmp	r2, r0
 414              		.loc 1 244 0
 415 0048 03F10103 		add	r3, r3, #1
 416              	.LVL39:
 417              		.loc 1 243 0
 418 004c FAD1     		bne	.L23
 419              	.LVL40:
 420              		.loc 1 250 0
 421 004e 9142     		cmp	r1, r2
 422 0050 1FD0     		beq	.L40
 423              	.LVL41:
 424              	.L26:
 425              		.loc 1 252 0
 426 0052 4968     		ldr	r1, [r1, #4]
 427              	.LVL42:
 428              		.loc 1 250 0
 429 0054 8142     		cmp	r1, r0
 430              		.loc 1 251 0
 431 0056 03F1FF33 		add	r3, r3, #-1
 432              	.LVL43:
 433              		.loc 1 250 0
 434 005a FAD1     		bne	.L26
 435              		.loc 1 256 0
 436 005c CBB9     		cbnz	r3, .L40
 437              	.LVL44:
 438              	.L21:
 439              	.LBE168:
 440              		.loc 1 262 0
 441 005e 14F00400 		ands	r0, r4, #4
 442 0062 15D0     		beq	.L19
 443              	.LVL45:
 444              	.LBB169:
 445              		.loc 1 267 0
 446 0064 114B     		ldr	r3, .L57
 447 0066 D3E90421 		ldrd	r2, r1, [r3, #16]
 448              		.loc 1 268 0
 449 006a 9A42     		cmp	r2, r3
 450              		.loc 1 266 0
 451 006c 4FF00000 		mov	r0, #0
 452              		.loc 1 268 0
 453 0070 19D0     		beq	.L27
 454              	.LVL46:
 455              	.L28:
 456              		.loc 1 270 0
ARM GAS  /var/folders/km/q6jdms0143g2bddz5bhvdfd00000gn/T//ccVb31lm.s 			page 9


 457 0072 1269     		ldr	r2, [r2, #16]
 458              	.LVL47:
 459              		.loc 1 268 0
 460 0074 9A42     		cmp	r2, r3
 461              		.loc 1 269 0
 462 0076 00F10100 		add	r0, r0, #1
 463              	.LVL48:
 464              		.loc 1 268 0
 465 007a FAD1     		bne	.L28
 466              	.LVL49:
 467              		.loc 1 275 0
 468 007c 9142     		cmp	r1, r2
 469 007e 08D0     		beq	.L40
 470              	.LVL50:
 471              	.L31:
 472              		.loc 1 277 0
 473 0080 4969     		ldr	r1, [r1, #20]
 474              	.LVL51:
 475              		.loc 1 275 0
 476 0082 9942     		cmp	r1, r3
 477              		.loc 1 276 0
 478 0084 00F1FF30 		add	r0, r0, #-1
 479              	.LVL52:
 480              		.loc 1 275 0
 481 0088 FAD1     		bne	.L31
 482              		.loc 1 281 0
 483 008a 0030     		adds	r0, r0, #0
 484 008c 18BF     		it	ne
 485 008e 0120     		movne	r0, #1
 486              	.LVL53:
 487              	.L19:
 488              	.LBE169:
 489              		.loc 1 294 0
 490 0090 10BD     		pop	{r4, pc}
 491              	.LVL54:
 492              	.L40:
 493              	.LBB170:
 494              		.loc 1 232 0
 495 0092 0120     		movs	r0, #1
 496              	.LBE170:
 497              		.loc 1 294 0
 498 0094 10BD     		pop	{r4, pc}
 499              	.LVL55:
 500              	.L15:
 501              	.LBB171:
 502              		.loc 1 225 0
 503 0096 9842     		cmp	r0, r3
 504 0098 CBD0     		beq	.L14
 505              		.loc 1 216 0
 506 009a 0022     		movs	r2, #0
 507 009c C3E7     		b	.L20
 508              	.LVL56:
 509              	.L22:
 510              	.LBE171:
 511              	.LBB172:
 512              		.loc 1 250 0
 513 009e 8142     		cmp	r1, r0
ARM GAS  /var/folders/km/q6jdms0143g2bddz5bhvdfd00000gn/T//ccVb31lm.s 			page 10


 514 00a0 DDD0     		beq	.L21
 515              		.loc 1 241 0
 516 00a2 0023     		movs	r3, #0
 517 00a4 D5E7     		b	.L26
 518              	.LVL57:
 519              	.L27:
 520              	.LBE172:
 521              	.LBB173:
 522              		.loc 1 275 0
 523 00a6 9142     		cmp	r1, r2
 524 00a8 EAD1     		bne	.L31
 525              	.LBE173:
 526              		.loc 1 294 0
 527 00aa 10BD     		pop	{r4, pc}
 528              	.LVL58:
 529              	.L58:
 530              		.align	2
 531              	.L57:
 532 00ac 00000000 		.word	ch
 533              		.cfi_endproc
 534              	.LFE222:
 535              		.size	chSysIntegrityCheckI, .-chSysIntegrityCheckI
 536              		.section	.text.chSysTimerHandlerI,"ax",%progbits
 537              		.align	1
 538              		.p2align 4,,15
 539              		.global	chSysTimerHandlerI
 540              		.syntax unified
 541              		.thumb
 542              		.thumb_func
 543              		.fpu fpv4-sp-d16
 544              		.type	chSysTimerHandlerI, %function
 545              	chSysTimerHandlerI:
 546              	.LFB223:
 547              		.loc 1 307 0
 548              		.cfi_startproc
 549              		@ args = 0, pretend = 0, frame = 0
 550              		@ frame_needed = 0, uses_anonymous_args = 0
 551 0000 2DE9F843 		push	{r3, r4, r5, r6, r7, r8, r9, lr}
 552              		.cfi_def_cfa_offset 32
 553              		.cfi_offset 3, -32
 554              		.cfi_offset 4, -28
 555              		.cfi_offset 5, -24
 556              		.cfi_offset 6, -20
 557              		.cfi_offset 7, -16
 558              		.cfi_offset 8, -12
 559              		.cfi_offset 9, -8
 560              		.cfi_offset 14, -4
 561              		.loc 1 313 0
 562 0004 1A4D     		ldr	r5, .L69
 563              		.loc 1 309 0
 564 0006 FFF7FEFF 		bl	chDbgCheckClassI
 565              	.LVL59:
 566              		.loc 1 313 0
 567 000a AB69     		ldr	r3, [r5, #24]
 568 000c 93F82320 		ldrb	r2, [r3, #35]	@ zero_extendqisi2
 569 0010 12B1     		cbz	r2, .L60
 570              		.loc 1 315 0
ARM GAS  /var/folders/km/q6jdms0143g2bddz5bhvdfd00000gn/T//ccVb31lm.s 			page 11


 571 0012 013A     		subs	r2, r2, #1
 572 0014 83F82320 		strb	r2, [r3, #35]
 573              	.L60:
 574              		.loc 1 319 0
 575 0018 5A6A     		ldr	r2, [r3, #36]
 576              	.LBB189:
 577              	.LBB190:
 578              		.file 7 "../../lib/ChibiOS/os/rt/include/chvt.h"
 579              		.loc 7 472 0
 580 001a 164F     		ldr	r7, .L69+4
 581              	.LBE190:
 582              	.LBE189:
 583              		.loc 1 319 0
 584 001c 0132     		adds	r2, r2, #1
 585 001e 5A62     		str	r2, [r3, #36]
 586              	.LBB211:
 587              	.LBB210:
 588              		.loc 7 468 0
 589 0020 FFF7FEFF 		bl	chDbgCheckClassI
 590              	.LVL60:
 591              		.loc 7 471 0
 592 0024 AB6A     		ldr	r3, [r5, #40]
 593              		.loc 7 472 0
 594 0026 EC69     		ldr	r4, [r5, #28]
 595              		.loc 7 471 0
 596 0028 0133     		adds	r3, r3, #1
 597              		.loc 7 472 0
 598 002a BC42     		cmp	r4, r7
 599              		.loc 7 471 0
 600 002c AB62     		str	r3, [r5, #40]
 601              		.loc 7 472 0
 602 002e 1DD0     		beq	.L59
 603              		.loc 7 474 0
 604 0030 A668     		ldr	r6, [r4, #8]
 605 0032 013E     		subs	r6, r6, #1
 606 0034 A660     		str	r6, [r4, #8]
 607              		.loc 7 475 0
 608 0036 CEB9     		cbnz	r6, .L59
 609              	.LBB191:
 610              	.LBB192:
 611              	.LBB193:
 612              	.LBB194:
 613              	.LBB195:
 614              	.LBB196:
 615              	.LBB197:
 616              		.loc 5 546 0
 617 0038 4FF02009 		mov	r9, #32
 618              	.L62:
 619              	.LVL61:
 620              	.LBE197:
 621              	.LBE196:
 622              	.LBE195:
 623              	.LBE194:
 624              	.LBE193:
 625              	.LBE192:
 626              		.loc 7 482 0
 627 003c 2368     		ldr	r3, [r4]
ARM GAS  /var/folders/km/q6jdms0143g2bddz5bhvdfd00000gn/T//ccVb31lm.s 			page 12


 628              		.loc 7 480 0
 629 003e D4F80C80 		ldr	r8, [r4, #12]
 630              	.LVL62:
 631              		.loc 7 481 0
 632 0042 E660     		str	r6, [r4, #12]
 633              		.loc 7 482 0
 634 0044 5F60     		str	r7, [r3, #4]
 635              		.loc 7 483 0
 636 0046 EB61     		str	r3, [r5, #28]
 637              	.LBB203:
 638              	.LBB204:
 639              		.loc 4 408 0
 640 0048 FFF7FEFF 		bl	_dbg_check_unlock_from_isr
 641              	.LVL63:
 642              		.loc 4 409 0
 643 004c FFF7FEFF 		bl	_stats_stop_measure_crit_isr
 644              	.LVL64:
 645              	.LBB205:
 646              	.LBB206:
 647              	.LBB207:
 648              	.LBB208:
 649              		.loc 5 546 0
 650              		.syntax unified
 651              	@ 546 "../../lib/ChibiOS/os/ext/CMSIS/include/core_cmFunc.h" 1
 652 0050 86F31188 		MSR basepri, r6
 653              	@ 0 "" 2
 654              	.LVL65:
 655              		.thumb
 656              		.syntax unified
 657              	.LBE208:
 658              	.LBE207:
 659              	.LBE206:
 660              	.LBE205:
 661              	.LBE204:
 662              	.LBE203:
 663              		.loc 7 485 0
 664 0054 2069     		ldr	r0, [r4, #16]
 665 0056 C047     		blx	r8
 666              	.LVL66:
 667              	.LBB209:
 668              	.LBB202:
 669              	.LBB201:
 670              	.LBB200:
 671              	.LBB199:
 672              	.LBB198:
 673              		.loc 5 546 0
 674              		.syntax unified
 675              	@ 546 "../../lib/ChibiOS/os/ext/CMSIS/include/core_cmFunc.h" 1
 676 0058 89F31188 		MSR basepri, r9
 677              	@ 0 "" 2
 678              	.LVL67:
 679              		.thumb
 680              		.syntax unified
 681              	.LBE198:
 682              	.LBE199:
 683              	.LBE200:
 684              	.LBE201:
ARM GAS  /var/folders/km/q6jdms0143g2bddz5bhvdfd00000gn/T//ccVb31lm.s 			page 13


 685              		.loc 4 389 0
 686 005c FFF7FEFF 		bl	_stats_start_measure_crit_isr
 687              	.LVL68:
 688              		.loc 4 390 0
 689 0060 FFF7FEFF 		bl	_dbg_check_lock_from_isr
 690              	.LVL69:
 691              	.LBE202:
 692              	.LBE209:
 693              	.LBE191:
 694              		.loc 7 475 0
 695 0064 EC69     		ldr	r4, [r5, #28]
 696              	.LVL70:
 697 0066 A368     		ldr	r3, [r4, #8]
 698 0068 002B     		cmp	r3, #0
 699 006a E7D0     		beq	.L62
 700              	.LVL71:
 701              	.L59:
 702              	.LBE210:
 703              	.LBE211:
 704              		.loc 1 325 0
 705 006c BDE8F883 		pop	{r3, r4, r5, r6, r7, r8, r9, pc}
 706              	.L70:
 707              		.align	2
 708              	.L69:
 709 0070 00000000 		.word	ch
 710 0074 1C000000 		.word	ch+28
 711              		.cfi_endproc
 712              	.LFE223:
 713              		.size	chSysTimerHandlerI, .-chSysTimerHandlerI
 714              		.section	.text.chSysGetStatusAndLockX,"ax",%progbits
 715              		.align	1
 716              		.p2align 4,,15
 717              		.global	chSysGetStatusAndLockX
 718              		.syntax unified
 719              		.thumb
 720              		.thumb_func
 721              		.fpu fpv4-sp-d16
 722              		.type	chSysGetStatusAndLockX, %function
 723              	chSysGetStatusAndLockX:
 724              	.LFB224:
 725              		.loc 1 340 0
 726              		.cfi_startproc
 727              		@ args = 0, pretend = 0, frame = 0
 728              		@ frame_needed = 0, uses_anonymous_args = 0
 729 0000 10B5     		push	{r4, lr}
 730              		.cfi_def_cfa_offset 8
 731              		.cfi_offset 4, -8
 732              		.cfi_offset 14, -4
 733              	.LBB212:
 734              	.LBB213:
 735              	.LBB214:
 736              	.LBB215:
 737              		.loc 5 533 0
 738              		.syntax unified
 739              	@ 533 "../../lib/ChibiOS/os/ext/CMSIS/include/core_cmFunc.h" 1
 740 0002 EFF31284 		MRS r4, basepri_max
 741              	@ 0 "" 2
ARM GAS  /var/folders/km/q6jdms0143g2bddz5bhvdfd00000gn/T//ccVb31lm.s 			page 14


 742              		.thumb
 743              		.syntax unified
 744              	.LBE215:
 745              	.LBE214:
 746              	.LBE213:
 747              	.LBE212:
 748              		.loc 1 343 0
 749 0006 5CB9     		cbnz	r4, .L71
 750              	.LBB216:
 751              	.LBB217:
 752              	.LBB218:
 753              	.LBB219:
 754              		.loc 5 383 0
 755              		.syntax unified
 756              	@ 383 "../../lib/ChibiOS/os/ext/CMSIS/include/core_cmFunc.h" 1
 757 0008 EFF30583 		MRS r3, ipsr
 758              	@ 0 "" 2
 759              		.thumb
 760              		.syntax unified
 761              	.LBE219:
 762              	.LBE218:
 763              		.loc 2 436 0
 764 000c C3F30803 		ubfx	r3, r3, #0, #9
 765              	.LBE217:
 766              	.LBE216:
 767              		.loc 1 344 0
 768 0010 43B9     		cbnz	r3, .L75
 769              	.LVL72:
 770              	.LBB220:
 771              	.LBB221:
 772              	.LBB222:
 773              	.LBB223:
 774              	.LBB224:
 775              		.loc 5 546 0
 776 0012 2023     		movs	r3, #32
 777              		.syntax unified
 778              	@ 546 "../../lib/ChibiOS/os/ext/CMSIS/include/core_cmFunc.h" 1
 779 0014 83F31188 		MSR basepri, r3
 780              	@ 0 "" 2
 781              	.LVL73:
 782              		.thumb
 783              		.syntax unified
 784              	.LBE224:
 785              	.LBE223:
 786              	.LBE222:
 787              		.loc 4 349 0
 788 0018 FFF7FEFF 		bl	_stats_start_measure_crit_thd
 789              	.LVL74:
 790              		.loc 4 350 0
 791 001c FFF7FEFF 		bl	_dbg_check_lock
 792              	.LVL75:
 793              	.L71:
 794              	.LBE221:
 795              	.LBE220:
 796              		.loc 1 352 0
 797 0020 2046     		mov	r0, r4
 798 0022 10BD     		pop	{r4, pc}
ARM GAS  /var/folders/km/q6jdms0143g2bddz5bhvdfd00000gn/T//ccVb31lm.s 			page 15


 799              	.L75:
 800              	.LVL76:
 801              	.LBB225:
 802              	.LBB226:
 803              	.LBB227:
 804              	.LBB228:
 805              	.LBB229:
 806              	.LBB230:
 807              		.loc 5 546 0
 808 0024 2023     		movs	r3, #32
 809              		.syntax unified
 810              	@ 546 "../../lib/ChibiOS/os/ext/CMSIS/include/core_cmFunc.h" 1
 811 0026 83F31188 		MSR basepri, r3
 812              	@ 0 "" 2
 813              	.LVL77:
 814              		.thumb
 815              		.syntax unified
 816              	.LBE230:
 817              	.LBE229:
 818              	.LBE228:
 819              	.LBE227:
 820              		.loc 4 389 0
 821 002a FFF7FEFF 		bl	_stats_start_measure_crit_isr
 822              	.LVL78:
 823              		.loc 4 390 0
 824 002e FFF7FEFF 		bl	_dbg_check_lock_from_isr
 825              	.LVL79:
 826              	.LBE226:
 827              	.LBE225:
 828              		.loc 1 352 0
 829 0032 2046     		mov	r0, r4
 830 0034 10BD     		pop	{r4, pc}
 831              		.cfi_endproc
 832              	.LFE224:
 833              		.size	chSysGetStatusAndLockX, .-chSysGetStatusAndLockX
 834 0036 00BF     		.section	.text.chSysRestoreStatusX,"ax",%progbits
 835              		.align	1
 836              		.p2align 4,,15
 837              		.global	chSysRestoreStatusX
 838              		.syntax unified
 839              		.thumb
 840              		.thumb_func
 841              		.fpu fpv4-sp-d16
 842              		.type	chSysRestoreStatusX, %function
 843              	chSysRestoreStatusX:
 844              	.LFB225:
 845              		.loc 1 363 0
 846              		.cfi_startproc
 847              		@ args = 0, pretend = 0, frame = 0
 848              		@ frame_needed = 0, uses_anonymous_args = 0
 849              	.LVL80:
 850              		.loc 1 365 0
 851 0000 00BB     		cbnz	r0, .L81
 852              		.loc 1 363 0
 853 0002 10B5     		push	{r4, lr}
 854              		.cfi_def_cfa_offset 8
 855              		.cfi_offset 4, -8
ARM GAS  /var/folders/km/q6jdms0143g2bddz5bhvdfd00000gn/T//ccVb31lm.s 			page 16


 856              		.cfi_offset 14, -4
 857 0004 0446     		mov	r4, r0
 858              	.LBB246:
 859              	.LBB247:
 860              	.LBB248:
 861              	.LBB249:
 862              		.loc 5 383 0
 863              		.syntax unified
 864              	@ 383 "../../lib/ChibiOS/os/ext/CMSIS/include/core_cmFunc.h" 1
 865 0006 EFF30583 		MRS r3, ipsr
 866              	@ 0 "" 2
 867              		.thumb
 868              		.syntax unified
 869              	.LBE249:
 870              	.LBE248:
 871              		.loc 2 436 0
 872 000a C3F30803 		ubfx	r3, r3, #0, #9
 873              	.LBE247:
 874              	.LBE246:
 875              		.loc 1 366 0
 876 000e 93B9     		cbnz	r3, .L84
 877              		.loc 1 370 0
 878 0010 FFF7FEFF 		bl	chSchRescheduleS
 879              	.LVL81:
 880              	.LBB250:
 881              	.LBB251:
 882              		.loc 4 360 0
 883 0014 FFF7FEFF 		bl	_dbg_check_unlock
 884              	.LVL82:
 885              		.loc 4 361 0
 886 0018 FFF7FEFF 		bl	_stats_stop_measure_crit_thd
 887              	.LVL83:
 888              		.loc 4 367 0
 889 001c 0B4B     		ldr	r3, .L86
 890 001e 1A68     		ldr	r2, [r3]
 891 0020 9A42     		cmp	r2, r3
 892 0022 04D0     		beq	.L79
 893 0024 9969     		ldr	r1, [r3, #24]
 894 0026 9368     		ldr	r3, [r2, #8]
 895 0028 8A68     		ldr	r2, [r1, #8]
 896 002a 9A42     		cmp	r2, r3
 897 002c 0BD3     		bcc	.L85
 898              	.L79:
 899              	.LVL84:
 900              	.LBB252:
 901              	.LBB253:
 902              	.LBB254:
 903              		.loc 5 546 0
 904 002e 0023     		movs	r3, #0
 905              		.syntax unified
 906              	@ 546 "../../lib/ChibiOS/os/ext/CMSIS/include/core_cmFunc.h" 1
 907 0030 83F31188 		MSR basepri, r3
 908              	@ 0 "" 2
 909              	.LVL85:
 910              		.thumb
 911              		.syntax unified
 912              	.LBE254:
ARM GAS  /var/folders/km/q6jdms0143g2bddz5bhvdfd00000gn/T//ccVb31lm.s 			page 17


 913              	.LBE253:
 914              	.LBE252:
 915              	.LBE251:
 916              	.LBE250:
 917              		.loc 1 374 0
 918 0034 10BD     		pop	{r4, pc}
 919              	.LVL86:
 920              	.L84:
 921              	.LBB256:
 922              	.LBB257:
 923              		.loc 4 408 0
 924 0036 FFF7FEFF 		bl	_dbg_check_unlock_from_isr
 925              	.LVL87:
 926              		.loc 4 409 0
 927 003a FFF7FEFF 		bl	_stats_stop_measure_crit_isr
 928              	.LVL88:
 929              	.LBB258:
 930              	.LBB259:
 931              	.LBB260:
 932              	.LBB261:
 933              		.loc 5 546 0
 934              		.syntax unified
 935              	@ 546 "../../lib/ChibiOS/os/ext/CMSIS/include/core_cmFunc.h" 1
 936 003e 84F31188 		MSR basepri, r4
 937              	@ 0 "" 2
 938              	.LVL89:
 939              		.thumb
 940              		.syntax unified
 941              	.LBE261:
 942              	.LBE260:
 943              	.LBE259:
 944              	.LBE258:
 945              	.LBE257:
 946              	.LBE256:
 947              		.loc 1 374 0
 948 0042 10BD     		pop	{r4, pc}
 949              	.LVL90:
 950              	.L81:
 951              		.cfi_def_cfa_offset 0
 952              		.cfi_restore 4
 953              		.cfi_restore 14
 954 0044 7047     		bx	lr
 955              	.LVL91:
 956              	.L85:
 957              		.cfi_def_cfa_offset 8
 958              		.cfi_offset 4, -8
 959              		.cfi_offset 14, -4
 960              	.LBB262:
 961              	.LBB255:
 962              		.loc 4 367 0
 963 0046 0248     		ldr	r0, .L86+4
 964 0048 FFF7FEFF 		bl	chSysHalt
 965              	.LVL92:
 966              	.L87:
 967              		.align	2
 968              	.L86:
 969 004c 00000000 		.word	ch
ARM GAS  /var/folders/km/q6jdms0143g2bddz5bhvdfd00000gn/T//ccVb31lm.s 			page 18


 970 0050 00000000 		.word	.LANCHOR0
 971              	.LBE255:
 972              	.LBE262:
 973              		.cfi_endproc
 974              	.LFE225:
 975              		.size	chSysRestoreStatusX, .-chSysRestoreStatusX
 976              		.section	.text.chSysIsCounterWithinX,"ax",%progbits
 977              		.align	1
 978              		.p2align 4,,15
 979              		.global	chSysIsCounterWithinX
 980              		.syntax unified
 981              		.thumb
 982              		.thumb_func
 983              		.fpu fpv4-sp-d16
 984              		.type	chSysIsCounterWithinX, %function
 985              	chSysIsCounterWithinX:
 986              	.LFB226:
 987              		.loc 1 395 0
 988              		.cfi_startproc
 989              		@ args = 0, pretend = 0, frame = 0
 990              		@ frame_needed = 0, uses_anonymous_args = 0
 991              		@ link register save eliminated.
 992              	.LVL93:
 993              		.loc 1 397 0
 994 0000 401A     		subs	r0, r0, r1
 995              	.LVL94:
 996 0002 521A     		subs	r2, r2, r1
 997              	.LVL95:
 998              		.loc 1 398 0
 999 0004 9042     		cmp	r0, r2
 1000 0006 2CBF     		ite	cs
 1001 0008 0020     		movcs	r0, #0
 1002 000a 0120     		movcc	r0, #1
 1003 000c 7047     		bx	lr
 1004              		.cfi_endproc
 1005              	.LFE226:
 1006              		.size	chSysIsCounterWithinX, .-chSysIsCounterWithinX
 1007 000e 00BF     		.section	.text.chSysPolledDelayX,"ax",%progbits
 1008              		.align	1
 1009              		.p2align 4,,15
 1010              		.global	chSysPolledDelayX
 1011              		.syntax unified
 1012              		.thumb
 1013              		.thumb_func
 1014              		.fpu fpv4-sp-d16
 1015              		.type	chSysPolledDelayX, %function
 1016              	chSysPolledDelayX:
 1017              	.LFB227:
 1018              		.loc 1 411 0
 1019              		.cfi_startproc
 1020              		@ args = 0, pretend = 0, frame = 0
 1021              		@ frame_needed = 0, uses_anonymous_args = 0
 1022              		@ link register save eliminated.
 1023              	.LVL96:
 1024              	.LBB263:
 1025              	.LBB264:
 1026              		.loc 2 548 0
ARM GAS  /var/folders/km/q6jdms0143g2bddz5bhvdfd00000gn/T//ccVb31lm.s 			page 19


 1027 0000 034A     		ldr	r2, .L92
 1028 0002 5168     		ldr	r1, [r2, #4]
 1029              	.LVL97:
 1030              	.L90:
 1031              	.LBE264:
 1032              	.LBE263:
 1033              	.LBB265:
 1034              	.LBB266:
 1035              		.loc 2 548 0 is_stmt 0 discriminator 1
 1036 0004 5368     		ldr	r3, [r2, #4]
 1037              	.LBE266:
 1038              	.LBE265:
 1039              	.LBB267:
 1040              	.LBB268:
 1041              		.loc 1 397 0 is_stmt 1 discriminator 1
 1042 0006 5B1A     		subs	r3, r3, r1
 1043              	.LBE268:
 1044              	.LBE267:
 1045              		.loc 1 415 0 discriminator 1
 1046 0008 9842     		cmp	r0, r3
 1047 000a FBD8     		bhi	.L90
 1048              		.loc 1 417 0
 1049 000c 7047     		bx	lr
 1050              	.L93:
 1051 000e 00BF     		.align	2
 1052              	.L92:
 1053 0010 001000E0 		.word	-536866816
 1054              		.cfi_endproc
 1055              	.LFE227:
 1056              		.size	chSysPolledDelayX, .-chSysPolledDelayX
 1057              		.section	.rodata.__func__.7153,"a",%progbits
 1058              		.align	2
 1059              		.set	.LANCHOR0,. + 0
 1060              		.type	__func__.7153, %object
 1061              		.size	__func__.7153, 12
 1062              	__func__.7153:
 1063 0000 63685379 		.ascii	"chSysUnlock\000"
 1063      73556E6C 
 1063      6F636B00 
 1064              		.section	.rodata.chSysInit.str1.4,"aMS",%progbits,1
 1065              		.align	2
 1066              	.LC0:
 1067 0000 69646C65 		.ascii	"idle\000"
 1067      00
 1068              		.text
 1069              	.Letext0:
 1070              		.file 8 "/Applications/Eclipse_e-puck2.app/Contents/Eclipse_e-puck2/Tools/gcc-arm-none-eabi-7-2017
 1071              		.file 9 "/Applications/Eclipse_e-puck2.app/Contents/Eclipse_e-puck2/Tools/gcc-arm-none-eabi-7-2017
 1072              		.file 10 "../../lib/ChibiOS/os/rt/ports/ARMCMx/compilers/GCC/chtypes.h"
 1073              		.file 11 "../../lib/ChibiOS/os/rt/include/chsystypes.h"
 1074              		.file 12 "../../lib/ChibiOS/os/rt/include/chschd.h"
 1075              		.file 13 "../../lib/ChibiOS/os/ext/CMSIS/ST/stm32f407xx.h"
 1076              		.file 14 "../../lib/ChibiOS/os/ext/CMSIS/ST/system_stm32f4xx.h"
 1077              		.file 15 "../../lib/ChibiOS/os/rt/ports/ARMCMx/chcore.h"
 1078              		.file 16 "../../lib/ChibiOS/os/rt/include/chdebug.h"
 1079              		.file 17 "../../lib/ChibiOS/os/rt/include/chtm.h"
 1080              		.file 18 "../../lib/ChibiOS/os/rt/include/chstats.h"
ARM GAS  /var/folders/km/q6jdms0143g2bddz5bhvdfd00000gn/T//ccVb31lm.s 			page 20


 1081              		.file 19 "../../lib/ChibiOS/os/rt/include/chsem.h"
 1082              		.file 20 "../../lib/ChibiOS/os/rt/include/chmtx.h"
 1083              		.file 21 "../../lib/ChibiOS/os/rt/include/chthreads.h"
 1084              		.file 22 "./chconf.h"
 1085              		.file 23 "../../lib/ChibiOS/os/rt/include/chmemcore.h"
 1086              		.file 24 "../../lib/ChibiOS/os/rt/include/chheap.h"