ARM GAS  C:\Users\stoma\AppData\Local\Temp\ccM6eeUx.s 			page 1


   1              		.cpu cortex-m4
   2              		.eabi_attribute 27, 1
   3              		.eabi_attribute 28, 1
   4              		.eabi_attribute 20, 1
   5              		.eabi_attribute 21, 1
   6              		.eabi_attribute 23, 3
   7              		.eabi_attribute 24, 1
   8              		.eabi_attribute 25, 1
   9              		.eabi_attribute 26, 1
  10              		.eabi_attribute 30, 2
  11              		.eabi_attribute 34, 1
  12              		.eabi_attribute 18, 4
  13              		.file	"gpt_lld.c"
  14              		.text
  15              	.Ltext0:
  16              		.cfi_sections	.debug_frame
  17              		.section	.text.VectorA8,"ax",%progbits
  18              		.align	1
  19              		.p2align 4,,15
  20              		.global	VectorA8
  21              		.syntax unified
  22              		.thumb
  23              		.thumb_func
  24              		.fpu fpv4-sp-d16
  25              		.type	VectorA8, %function
  26              	VectorA8:
  27              	.LFB257:
  28              		.file 1 "../../lib/ChibiOS/os/hal/ports/STM32/LLD/TIMv1/gpt_lld.c"
  29              		.loc 1 340 0
  30              		.cfi_startproc
  31              		@ args = 0, pretend = 0, frame = 0
  32              		@ frame_needed = 0, uses_anonymous_args = 0
  33 0000 08B5     		push	{r3, lr}
  34              		.cfi_def_cfa_offset 8
  35              		.cfi_offset 3, -8
  36              		.cfi_offset 14, -4
  37              		.loc 1 342 0
  38 0002 FFF7FEFF 		bl	_stats_increase_irq
  39              	.LVL0:
  40 0006 FFF7FEFF 		bl	_dbg_check_enter_isr
  41              	.LVL1:
  42              	.LBB8:
  43              	.LBB9:
  44              		.loc 1 148 0
  45 000a 0C4B     		ldr	r3, .L5
  46              		.loc 1 149 0
  47 000c 1878     		ldrb	r0, [r3]	@ zero_extendqisi2
  48              		.loc 1 148 0
  49 000e DA68     		ldr	r2, [r3, #12]
  50 0010 0021     		movs	r1, #0
  51              		.loc 1 149 0
  52 0012 0428     		cmp	r0, #4
  53              		.loc 1 148 0
  54 0014 1161     		str	r1, [r2, #16]
  55              		.loc 1 149 0
  56 0016 07D1     		bne	.L2
  57              		.loc 1 150 0
ARM GAS  C:\Users\stoma\AppData\Local\Temp\ccM6eeUx.s 			page 2


  58 0018 0220     		movs	r0, #2
  59 001a 1870     		strb	r0, [r3]
  60              	.LVL2:
  61              	.LBB10:
  62              	.LBB11:
  63              		.loc 1 733 0
  64 001c 1160     		str	r1, [r2]
  65              		.loc 1 734 0
  66 001e 1161     		str	r1, [r2, #16]
  67              		.loc 1 737 0
  68 0020 D168     		ldr	r1, [r2, #12]
  69 0022 21F0FF01 		bic	r1, r1, #255
  70 0026 D160     		str	r1, [r2, #12]
  71              	.LVL3:
  72              	.L2:
  73              	.LBE11:
  74              	.LBE10:
  75              		.loc 1 153 0
  76 0028 5B68     		ldr	r3, [r3, #4]
  77 002a 0448     		ldr	r0, .L5
  78 002c 5B68     		ldr	r3, [r3, #4]
  79 002e 9847     		blx	r3
  80              	.LVL4:
  81              	.LBE9:
  82              	.LBE8:
  83              		.loc 1 346 0
  84 0030 FFF7FEFF 		bl	_dbg_check_leave_isr
  85              	.LVL5:
  86              		.loc 1 347 0
  87 0034 BDE80840 		pop	{r3, lr}
  88              		.cfi_restore 14
  89              		.cfi_restore 3
  90              		.cfi_def_cfa_offset 0
  91              		.loc 1 346 0
  92 0038 FFF7FEBF 		b	_port_irq_epilogue
  93              	.LVL6:
  94              	.L6:
  95              		.align	2
  96              	.L5:
  97 003c 00000000 		.word	.LANCHOR0
  98              		.cfi_endproc
  99              	.LFE257:
 100              		.size	VectorA8, .-VectorA8
 101              		.section	.text.gpt_lld_init,"ax",%progbits
 102              		.align	1
 103              		.p2align 4,,15
 104              		.global	gpt_lld_init
 105              		.syntax unified
 106              		.thumb
 107              		.thumb_func
 108              		.fpu fpv4-sp-d16
 109              		.type	gpt_lld_init, %function
 110              	gpt_lld_init:
 111              	.LFB258:
 112              		.loc 1 397 0
 113              		.cfi_startproc
 114              		@ args = 0, pretend = 0, frame = 0
ARM GAS  C:\Users\stoma\AppData\Local\Temp\ccM6eeUx.s 			page 3


 115              		@ frame_needed = 0, uses_anonymous_args = 0
 116              		@ link register save eliminated.
 117              		.loc 1 455 0
 118 0000 0248     		ldr	r0, .L8
 119 0002 034B     		ldr	r3, .L8+4
 120 0004 C360     		str	r3, [r0, #12]
 121              		.loc 1 456 0
 122 0006 FFF7FEBF 		b	gptObjectInit
 123              	.LVL7:
 124              	.L9:
 125 000a 00BF     		.align	2
 126              	.L8:
 127 000c 00000000 		.word	.LANCHOR0
 128 0010 00480140 		.word	1073825792
 129              		.cfi_endproc
 130              	.LFE258:
 131              		.size	gpt_lld_init, .-gpt_lld_init
 132              		.section	.text.gpt_lld_start,"ax",%progbits
 133              		.align	1
 134              		.p2align 4,,15
 135              		.global	gpt_lld_start
 136              		.syntax unified
 137              		.thumb
 138              		.thumb_func
 139              		.fpu fpv4-sp-d16
 140              		.type	gpt_lld_start, %function
 141              	gpt_lld_start:
 142              	.LFB259:
 143              		.loc 1 479 0
 144              		.cfi_startproc
 145              		@ args = 0, pretend = 0, frame = 0
 146              		@ frame_needed = 0, uses_anonymous_args = 0
 147              	.LVL8:
 148 0000 38B5     		push	{r3, r4, r5, lr}
 149              		.cfi_def_cfa_offset 16
 150              		.cfi_offset 3, -16
 151              		.cfi_offset 4, -12
 152              		.cfi_offset 5, -8
 153              		.cfi_offset 14, -4
 154              		.loc 1 482 0
 155 0002 0378     		ldrb	r3, [r0]	@ zero_extendqisi2
 156 0004 012B     		cmp	r3, #1
 157              		.loc 1 479 0
 158 0006 0546     		mov	r5, r0
 159              		.loc 1 482 0
 160 0008 1AD0     		beq	.L14
 161              	.LVL9:
 162              	.L11:
 163              		.loc 1 599 0
 164 000a D5E90121 		ldrd	r2, r1, [r5, #4]
 165 000e 1368     		ldr	r3, [r2]
 166 0010 B1FBF3F4 		udiv	r4, r1, r3
 167 0014 013C     		subs	r4, r4, #1
 168 0016 A4B2     		uxth	r4, r4
 169              	.LVL10:
 170              		.loc 1 600 0
 171 0018 04FB0333 		mla	r3, r4, r3, r3
ARM GAS  C:\Users\stoma\AppData\Local\Temp\ccM6eeUx.s 			page 4


 172 001c 9942     		cmp	r1, r3
 173 001e 03D0     		beq	.L12
 174              		.loc 1 600 0 is_stmt 0 discriminator 2
 175 0020 1248     		ldr	r0, .L15
 176 0022 FFF7FEFF 		bl	chSysHalt
 177              	.LVL11:
 178 0026 6A68     		ldr	r2, [r5, #4]
 179              	.L12:
 180              		.loc 1 608 0 is_stmt 1
 181 0028 D168     		ldr	r1, [r2, #12]
 182              		.loc 1 604 0
 183 002a EB68     		ldr	r3, [r5, #12]
 184              		.loc 1 605 0
 185 002c 9568     		ldr	r5, [r2, #8]
 186              	.LVL12:
 187              		.loc 1 604 0
 188 002e 0020     		movs	r0, #0
 189              		.loc 1 608 0
 190 0030 21F0FF01 		bic	r1, r1, #255
 191              		.loc 1 604 0
 192 0034 1860     		str	r0, [r3]
 193              		.loc 1 605 0
 194 0036 5D60     		str	r5, [r3, #4]
 195              		.loc 1 606 0
 196 0038 9C62     		str	r4, [r3, #40]
 197              		.loc 1 607 0
 198 003a 1861     		str	r0, [r3, #16]
 199              		.loc 1 608 0
 200 003c D960     		str	r1, [r3, #12]
 201              		.loc 1 610 0
 202 003e 38BD     		pop	{r3, r4, r5, pc}
 203              	.LVL13:
 204              	.L14:
 205              		.loc 1 571 0
 206 0040 0B4B     		ldr	r3, .L15+4
 207 0042 9842     		cmp	r0, r3
 208 0044 E1D1     		bne	.L11
 209              		.loc 1 572 0
 210 0046 0B4B     		ldr	r3, .L15+8
 211 0048 5A6C     		ldr	r2, [r3, #68]
 212 004a 42F48022 		orr	r2, r2, #262144
 213 004e 5A64     		str	r2, [r3, #68]
 214              		.loc 1 573 0
 215 0050 5A6A     		ldr	r2, [r3, #36]
 216 0052 0020     		movs	r0, #0
 217              	.LVL14:
 218 0054 42F48022 		orr	r2, r2, #262144
 219 0058 5A62     		str	r2, [r3, #36]
 220              		.loc 1 574 0
 221 005a 0721     		movs	r1, #7
 222              		.loc 1 573 0
 223 005c 5862     		str	r0, [r3, #36]
 224              		.loc 1 574 0
 225 005e 1A20     		movs	r0, #26
 226 0060 FFF7FEFF 		bl	nvicEnableVector
 227              	.LVL15:
 228              		.loc 1 575 0
ARM GAS  C:\Users\stoma\AppData\Local\Temp\ccM6eeUx.s 			page 5


 229 0064 044B     		ldr	r3, .L15+12
 230 0066 AB60     		str	r3, [r5, #8]
 231 0068 CFE7     		b	.L11
 232              	.L16:
 233 006a 00BF     		.align	2
 234              	.L15:
 235 006c 00000000 		.word	.LANCHOR1
 236 0070 00000000 		.word	.LANCHOR0
 237 0074 00380240 		.word	1073887232
 238 0078 007A030A 		.word	168000000
 239              		.cfi_endproc
 240              	.LFE259:
 241              		.size	gpt_lld_start, .-gpt_lld_start
 242              		.section	.text.gpt_lld_stop,"ax",%progbits
 243              		.align	1
 244              		.p2align 4,,15
 245              		.global	gpt_lld_stop
 246              		.syntax unified
 247              		.thumb
 248              		.thumb_func
 249              		.fpu fpv4-sp-d16
 250              		.type	gpt_lld_stop, %function
 251              	gpt_lld_stop:
 252              	.LFB260:
 253              		.loc 1 619 0
 254              		.cfi_startproc
 255              		@ args = 0, pretend = 0, frame = 0
 256              		@ frame_needed = 0, uses_anonymous_args = 0
 257              	.LVL16:
 258 0000 08B5     		push	{r3, lr}
 259              		.cfi_def_cfa_offset 8
 260              		.cfi_offset 3, -8
 261              		.cfi_offset 14, -4
 262              		.loc 1 621 0
 263 0002 0378     		ldrb	r3, [r0]	@ zero_extendqisi2
 264 0004 022B     		cmp	r3, #2
 265 0006 00D0     		beq	.L22
 266              	.L17:
 267              		.loc 1 699 0
 268 0008 08BD     		pop	{r3, pc}
 269              	.L22:
 270              		.loc 1 681 0
 271 000a 0849     		ldr	r1, .L23
 272              		.loc 1 622 0
 273 000c C368     		ldr	r3, [r0, #12]
 274 000e 0022     		movs	r2, #0
 275              		.loc 1 681 0
 276 0010 8842     		cmp	r0, r1
 277              		.loc 1 622 0
 278 0012 1A60     		str	r2, [r3]
 279              		.loc 1 623 0
 280 0014 DA60     		str	r2, [r3, #12]
 281              		.loc 1 624 0
 282 0016 1A61     		str	r2, [r3, #16]
 283              		.loc 1 681 0
 284 0018 F6D1     		bne	.L17
 285              		.loc 1 682 0
ARM GAS  C:\Users\stoma\AppData\Local\Temp\ccM6eeUx.s 			page 6


 286 001a 1A20     		movs	r0, #26
 287              	.LVL17:
 288 001c FFF7FEFF 		bl	nvicDisableVector
 289              	.LVL18:
 290              		.loc 1 683 0
 291 0020 034A     		ldr	r2, .L23+4
 292 0022 536C     		ldr	r3, [r2, #68]
 293 0024 23F48023 		bic	r3, r3, #262144
 294 0028 5364     		str	r3, [r2, #68]
 295              		.loc 1 699 0
 296 002a 08BD     		pop	{r3, pc}
 297              	.L24:
 298              		.align	2
 299              	.L23:
 300 002c 00000000 		.word	.LANCHOR0
 301 0030 00380240 		.word	1073887232
 302              		.cfi_endproc
 303              	.LFE260:
 304              		.size	gpt_lld_stop, .-gpt_lld_stop
 305              		.section	.text.gpt_lld_start_timer,"ax",%progbits
 306              		.align	1
 307              		.p2align 4,,15
 308              		.global	gpt_lld_start_timer
 309              		.syntax unified
 310              		.thumb
 311              		.thumb_func
 312              		.fpu fpv4-sp-d16
 313              		.type	gpt_lld_start_timer, %function
 314              	gpt_lld_start_timer:
 315              	.LFB261:
 316              		.loc 1 709 0
 317              		.cfi_startproc
 318              		@ args = 0, pretend = 0, frame = 0
 319              		@ frame_needed = 0, uses_anonymous_args = 0
 320              		@ link register save eliminated.
 321              	.LVL19:
 322              		.loc 1 719 0
 323 0000 4268     		ldr	r2, [r0, #4]
 324              		.loc 1 711 0
 325 0002 C368     		ldr	r3, [r0, #12]
 326              		.loc 1 719 0
 327 0004 5068     		ldr	r0, [r2, #4]
 328              	.LVL20:
 329              		.loc 1 711 0
 330 0006 0139     		subs	r1, r1, #1
 331              	.LVL21:
 332 0008 D962     		str	r1, [r3, #44]
 333              		.loc 1 713 0
 334 000a 0022     		movs	r2, #0
 335              		.loc 1 712 0
 336 000c 0121     		movs	r1, #1
 337              	.LVL22:
 338 000e 5961     		str	r1, [r3, #20]
 339              	.LVL23:
 340              		.loc 1 713 0
 341 0010 5A62     		str	r2, [r3, #36]
 342              		.loc 1 718 0
ARM GAS  C:\Users\stoma\AppData\Local\Temp\ccM6eeUx.s 			page 7


 343 0012 1A61     		str	r2, [r3, #16]
 344              		.loc 1 719 0
 345 0014 10B1     		cbz	r0, .L26
 346              		.loc 1 720 0
 347 0016 DA68     		ldr	r2, [r3, #12]
 348 0018 0A43     		orrs	r2, r2, r1
 349 001a DA60     		str	r2, [r3, #12]
 350              	.L26:
 351              		.loc 1 721 0
 352 001c 0522     		movs	r2, #5
 353 001e 1A60     		str	r2, [r3]
 354              		.loc 1 722 0
 355 0020 7047     		bx	lr
 356              		.cfi_endproc
 357              	.LFE261:
 358              		.size	gpt_lld_start_timer, .-gpt_lld_start_timer
 359 0022 00BF     		.section	.text.gpt_lld_stop_timer,"ax",%progbits
 360              		.align	1
 361              		.p2align 4,,15
 362              		.global	gpt_lld_stop_timer
 363              		.syntax unified
 364              		.thumb
 365              		.thumb_func
 366              		.fpu fpv4-sp-d16
 367              		.type	gpt_lld_stop_timer, %function
 368              	gpt_lld_stop_timer:
 369              	.LFB262:
 370              		.loc 1 731 0
 371              		.cfi_startproc
 372              		@ args = 0, pretend = 0, frame = 0
 373              		@ frame_needed = 0, uses_anonymous_args = 0
 374              		@ link register save eliminated.
 375              	.LVL24:
 376              		.loc 1 733 0
 377 0000 C368     		ldr	r3, [r0, #12]
 378 0002 0022     		movs	r2, #0
 379 0004 1A60     		str	r2, [r3]
 380              		.loc 1 734 0
 381 0006 1A61     		str	r2, [r3, #16]
 382              		.loc 1 737 0
 383 0008 DA68     		ldr	r2, [r3, #12]
 384 000a 22F0FF02 		bic	r2, r2, #255
 385 000e DA60     		str	r2, [r3, #12]
 386              		.loc 1 738 0
 387 0010 7047     		bx	lr
 388              		.cfi_endproc
 389              	.LFE262:
 390              		.size	gpt_lld_stop_timer, .-gpt_lld_stop_timer
 391 0012 00BF     		.section	.text.gpt_lld_polled_delay,"ax",%progbits
 392              		.align	1
 393              		.p2align 4,,15
 394              		.global	gpt_lld_polled_delay
 395              		.syntax unified
 396              		.thumb
 397              		.thumb_func
 398              		.fpu fpv4-sp-d16
 399              		.type	gpt_lld_polled_delay, %function
ARM GAS  C:\Users\stoma\AppData\Local\Temp\ccM6eeUx.s 			page 8


 400              	gpt_lld_polled_delay:
 401              	.LFB263:
 402              		.loc 1 751 0
 403              		.cfi_startproc
 404              		@ args = 0, pretend = 0, frame = 0
 405              		@ frame_needed = 0, uses_anonymous_args = 0
 406              		@ link register save eliminated.
 407              	.LVL25:
 408              		.loc 1 753 0
 409 0000 C268     		ldr	r2, [r0, #12]
 410 0002 0139     		subs	r1, r1, #1
 411              	.LVL26:
 412              		.loc 1 754 0
 413 0004 0120     		movs	r0, #1
 414              	.LVL27:
 415              		.loc 1 755 0
 416 0006 0D23     		movs	r3, #13
 417              		.loc 1 753 0
 418 0008 D162     		str	r1, [r2, #44]
 419              		.loc 1 754 0
 420 000a 5061     		str	r0, [r2, #20]
 421              		.loc 1 755 0
 422 000c 1360     		str	r3, [r2]
 423              	.L32:
 424              		.loc 1 756 0 discriminator 1
 425 000e 1369     		ldr	r3, [r2, #16]
 426 0010 DB07     		lsls	r3, r3, #31
 427 0012 FCD5     		bpl	.L32
 428              		.loc 1 758 0
 429 0014 0023     		movs	r3, #0
 430 0016 1361     		str	r3, [r2, #16]
 431              		.loc 1 759 0
 432 0018 7047     		bx	lr
 433              		.cfi_endproc
 434              	.LFE263:
 435              		.size	gpt_lld_polled_delay, .-gpt_lld_polled_delay
 436              		.global	GPTD11
 437 001a 00BF     		.section	.bss.GPTD11,"aw",%nobits
 438              		.align	2
 439              		.set	.LANCHOR0,. + 0
 440              		.type	GPTD11, %object
 441              		.size	GPTD11, 16
 442              	GPTD11:
 443 0000 00000000 		.space	16
 443      00000000 
 443      00000000 
 443      00000000 
 444              		.section	.rodata.__func__.8894,"a",%progbits
 445              		.align	2
 446              		.set	.LANCHOR1,. + 0
 447              		.type	__func__.8894, %object
 448              		.size	__func__.8894, 14
 449              	__func__.8894:
 450 0000 6770745F 		.ascii	"gpt_lld_start\000"
 450      6C6C645F 
 450      73746172 
 450      7400
ARM GAS  C:\Users\stoma\AppData\Local\Temp\ccM6eeUx.s 			page 9


 451              		.text
 452              	.Letext0:
 453              		.file 2 "c:\\users\\stoma\\desktop\\eclipse_e-puck2\\tools\\gcc-arm-none-eabi-7-2017-q4-major-win3
 454              		.file 3 "c:\\users\\stoma\\desktop\\eclipse_e-puck2\\tools\\gcc-arm-none-eabi-7-2017-q4-major-win3
 455              		.file 4 "c:\\users\\stoma\\desktop\\eclipse_e-puck2\\tools\\gcc-arm-none-eabi-7-2017-q4-major-win3
 456              		.file 5 "../../lib/ChibiOS/os/rt/ports/ARMCMx/compilers/GCC/chtypes.h"
 457              		.file 6 "../../lib/ChibiOS/os/rt/include/chsystypes.h"
 458              		.file 7 "../../lib/ChibiOS/os/rt/include/chschd.h"
 459              		.file 8 "../../lib/ChibiOS/os/ext/CMSIS/include/core_cm4.h"
 460              		.file 9 "../../lib/ChibiOS/os/ext/CMSIS/ST/system_stm32f4xx.h"
 461              		.file 10 "../../lib/ChibiOS/os/ext/CMSIS/ST/stm32f407xx.h"
 462              		.file 11 "../../lib/ChibiOS/os/rt/ports/ARMCMx/chcore.h"
 463              		.file 12 "../../lib/ChibiOS/os/rt/ports/ARMCMx/chcore_v7m.h"
 464              		.file 13 "../../lib/ChibiOS/os/rt/include/chdebug.h"
 465              		.file 14 "../../lib/ChibiOS/os/rt/include/chtm.h"
 466              		.file 15 "../../lib/ChibiOS/os/rt/include/chstats.h"
 467              		.file 16 "../../lib/ChibiOS/os/rt/include/chsem.h"
 468              		.file 17 "../../lib/ChibiOS/os/rt/include/chmtx.h"
 469              		.file 18 "../../lib/ChibiOS/os/rt/include/chregistry.h"
 470              		.file 19 "../../lib/ChibiOS/os/rt/include/chevents.h"
 471              		.file 20 "../../lib/ChibiOS/os/rt/include/chqueues.h"
 472              		.file 21 "../../lib/ChibiOS/os/hal/ports/STM32/STM32F4xx/stm32_dma.h"
 473              		.file 22 "../../lib/ChibiOS/os/hal/ports/STM32/LLD/GPIOv2/pal_lld.h"
 474              		.file 23 "../../lib/ChibiOS/os/hal/include/gpt.h"
 475              		.file 24 "../../lib/ChibiOS/os/hal/ports/STM32/LLD/TIMv1/gpt_lld.h"
 476              		.file 25 "../../lib/ChibiOS/os/hal/ports/STM32/LLD/TIMv1/stm32_tim.h"
 477              		.file 26 "../../lib/ChibiOS/os/hal/include/i2c.h"
 478              		.file 27 "../../lib/ChibiOS/os/hal/ports/STM32/LLD/I2Cv1/i2c_lld.h"
 479              		.file 28 "../../lib/ChibiOS/os/hal/include/serial.h"
 480              		.file 29 "../../lib/ChibiOS/os/hal/ports/STM32/LLD/USARTv1/serial_lld.h"
 481              		.file 30 "../../lib/ChibiOS/os/hal/include/usb.h"
 482              		.file 31 "../../lib/ChibiOS/os/hal/ports/STM32/LLD/OTGv1/usb_lld.h"
 483              		.file 32 "../../lib/ChibiOS/os/hal/ports/STM32/LLD/OTGv1/stm32_otg.h"
 484              		.file 33 "../../lib/ChibiOS/os/hal/ports/common/ARMCMx/nvic.h"
 485              		.file 34 "../../lib/ChibiOS/os/rt/include/chsys.h"