ARM GAS  C:\Users\stoma\AppData\Local\Temp\ccY5jHl3.s 			page 1


   1              		.cpu cortex-m4
   2              		.eabi_attribute 27, 1
   3              		.eabi_attribute 28, 1
   4              		.eabi_attribute 20, 1
   5              		.eabi_attribute 21, 1
   6              		.eabi_attribute 23, 3
   7              		.eabi_attribute 24, 1
   8              		.eabi_attribute 25, 1
   9              		.eabi_attribute 26, 1
  10              		.eabi_attribute 30, 2
  11              		.eabi_attribute 34, 1
  12              		.eabi_attribute 18, 4
  13              		.file	"i2c_lld.c"
  14              		.text
  15              	.Ltext0:
  16              		.cfi_sections	.debug_frame
  17              		.section	.text.i2c_lld_serve_tx_end_irq,"ax",%progbits
  18              		.align	1
  19              		.p2align 4,,15
  20              		.syntax unified
  21              		.thumb
  22              		.thumb_func
  23              		.fpu fpv4-sp-d16
  24              		.type	i2c_lld_serve_tx_end_irq, %function
  25              	i2c_lld_serve_tx_end_irq:
  26              	.LFB261:
  27              		.file 1 "../../lib/ChibiOS/os/hal/ports/STM32/LLD/I2Cv1/i2c_lld.c"
  28              		.loc 1 332 0
  29              		.cfi_startproc
  30              		@ args = 0, pretend = 0, frame = 0
  31              		@ frame_needed = 0, uses_anonymous_args = 0
  32              	.LVL0:
  33              		.loc 1 337 0
  34 0000 11F00C0F 		tst	r1, #12
  35              		.loc 1 332 0
  36 0004 38B5     		push	{r3, r4, r5, lr}
  37              		.cfi_def_cfa_offset 16
  38              		.cfi_offset 3, -16
  39              		.cfi_offset 4, -12
  40              		.cfi_offset 5, -8
  41              		.cfi_offset 14, -4
  42              		.loc 1 332 0
  43 0006 0546     		mov	r5, r0
  44              		.loc 1 333 0
  45 0008 846B     		ldr	r4, [r0, #56]
  46              	.LVL1:
  47              		.loc 1 337 0
  48 000a 12D1     		bne	.L10
  49              	.LVL2:
  50              	.L2:
  51              		.loc 1 344 0
  52 000c 696B     		ldr	r1, [r5, #52]
  53 000e 0A68     		ldr	r2, [r1]
  54 0010 1368     		ldr	r3, [r2]
  55 0012 23F01F03 		bic	r3, r3, #31
  56 0016 1360     		str	r3, [r2]
  57              	.L3:
ARM GAS  C:\Users\stoma\AppData\Local\Temp\ccY5jHl3.s 			page 2


  58              		.loc 1 344 0 is_stmt 0 discriminator 2
  59 0018 1368     		ldr	r3, [r2]
  60 001a DB07     		lsls	r3, r3, #31
  61 001c FCD4     		bmi	.L3
  62              		.loc 1 344 0 discriminator 3
  63 001e 087A     		ldrb	r0, [r1, #8]	@ zero_extendqisi2
  64 0020 4A68     		ldr	r2, [r1, #4]
  65 0022 3D23     		movs	r3, #61
  66 0024 8340     		lsls	r3, r3, r0
  67 0026 1360     		str	r3, [r2]
  68              		.loc 1 348 0 is_stmt 1 discriminator 3
  69 0028 6368     		ldr	r3, [r4, #4]
  70 002a 43F40073 		orr	r3, r3, #512
  71 002e 6360     		str	r3, [r4, #4]
  72              		.loc 1 349 0 discriminator 3
  73 0030 38BD     		pop	{r3, r4, r5, pc}
  74              	.LVL3:
  75              	.L10:
  76              	.LBB196:
  77              	.LBB197:
  78              		.file 2 "../../lib/ChibiOS/os/hal/osal/rt/osal.h"
  79              		.loc 2 416 0
  80 0032 0248     		ldr	r0, .L11
  81              	.LVL4:
  82 0034 FFF7FEFF 		bl	chSysHalt
  83              	.LVL5:
  84 0038 E8E7     		b	.L2
  85              	.L12:
  86 003a 00BF     		.align	2
  87              	.L11:
  88 003c 00000000 		.word	.LC0
  89              	.LBE197:
  90              	.LBE196:
  91              		.cfi_endproc
  92              	.LFE261:
  93              		.size	i2c_lld_serve_tx_end_irq, .-i2c_lld_serve_tx_end_irq
  94              		.section	.text.i2c_lld_serve_rx_end_irq,"ax",%progbits
  95              		.align	1
  96              		.p2align 4,,15
  97              		.syntax unified
  98              		.thumb
  99              		.thumb_func
 100              		.fpu fpv4-sp-d16
 101              		.type	i2c_lld_serve_rx_end_irq, %function
 102              	i2c_lld_serve_rx_end_irq:
 103              	.LFB260:
 104              		.loc 1 305 0
 105              		.cfi_startproc
 106              		@ args = 0, pretend = 0, frame = 0
 107              		@ frame_needed = 0, uses_anonymous_args = 0
 108              	.LVL6:
 109              		.loc 1 310 0
 110 0000 11F00C0F 		tst	r1, #12
 111              		.loc 1 305 0
 112 0004 70B5     		push	{r4, r5, r6, lr}
 113              		.cfi_def_cfa_offset 16
 114              		.cfi_offset 4, -16
ARM GAS  C:\Users\stoma\AppData\Local\Temp\ccY5jHl3.s 			page 3


 115              		.cfi_offset 5, -12
 116              		.cfi_offset 6, -8
 117              		.cfi_offset 14, -4
 118              		.loc 1 305 0
 119 0006 0646     		mov	r6, r0
 120              		.loc 1 306 0
 121 0008 856B     		ldr	r5, [r0, #56]
 122              	.LVL7:
 123              		.loc 1 310 0
 124 000a 2DD1     		bne	.L21
 125              	.LVL8:
 126              	.L14:
 127              		.loc 1 317 0
 128 000c 326B     		ldr	r2, [r6, #48]
 129 000e 1368     		ldr	r3, [r2]
 130 0010 1968     		ldr	r1, [r3]
 131 0012 21F01F01 		bic	r1, r1, #31
 132 0016 1960     		str	r1, [r3]
 133              	.L15:
 134              		.loc 1 317 0 is_stmt 0 discriminator 2
 135 0018 1C68     		ldr	r4, [r3]
 136 001a 14F00104 		ands	r4, r4, #1
 137 001e FBD1     		bne	.L15
 138              		.loc 1 317 0 discriminator 3
 139 0020 117A     		ldrb	r1, [r2, #8]	@ zero_extendqisi2
 140 0022 5268     		ldr	r2, [r2, #4]
 141 0024 3D23     		movs	r3, #61
 142 0026 8B40     		lsls	r3, r3, r1
 143 0028 1360     		str	r3, [r2]
 144              		.loc 1 319 0 is_stmt 1 discriminator 3
 145 002a 6B68     		ldr	r3, [r5, #4]
 146 002c 23F48053 		bic	r3, r3, #4096
 147 0030 6B60     		str	r3, [r5, #4]
 148              		.loc 1 320 0 discriminator 3
 149 0032 2B68     		ldr	r3, [r5]
 150 0034 23F48063 		bic	r3, r3, #1024
 151 0038 2B60     		str	r3, [r5]
 152              		.loc 1 321 0 discriminator 3
 153 003a 2B68     		ldr	r3, [r5]
 154 003c 43F40073 		orr	r3, r3, #512
 155 0040 2B60     		str	r3, [r5]
 156              	.LVL9:
 157              	.LBB198:
 158              	.LBB199:
 159              	.LBB200:
 160              	.LBB201:
 161              	.LBB202:
 162              	.LBB203:
 163              	.LBB204:
 164              		.file 3 "../../lib/ChibiOS/os/ext/CMSIS/include/core_cmFunc.h"
 165              		.loc 3 546 0 discriminator 3
 166 0042 2023     		movs	r3, #32
 167              		.syntax unified
 168              	@ 546 "../../lib/ChibiOS/os/ext/CMSIS/include/core_cmFunc.h" 1
 169 0044 83F31188 		MSR basepri, r3
 170              	@ 0 "" 2
 171              	.LVL10:
ARM GAS  C:\Users\stoma\AppData\Local\Temp\ccY5jHl3.s 			page 4


 172              		.thumb
 173              		.syntax unified
 174              	.LBE204:
 175              	.LBE203:
 176              	.LBE202:
 177              	.LBE201:
 178              		.file 4 "../../lib/ChibiOS/os/rt/include/chsys.h"
 179              		.loc 4 389 0 discriminator 3
 180 0048 FFF7FEFF 		bl	_stats_start_measure_crit_isr
 181              	.LVL11:
 182              		.loc 4 390 0 discriminator 3
 183 004c FFF7FEFF 		bl	_dbg_check_lock_from_isr
 184              	.LVL12:
 185              	.LBE200:
 186              	.LBE199:
 187              	.LBE198:
 188              	.LBB205:
 189              	.LBB206:
 190              		.loc 2 682 0 discriminator 3
 191 0050 2146     		mov	r1, r4
 192 0052 06F12000 		add	r0, r6, #32
 193              	.LVL13:
 194 0056 FFF7FEFF 		bl	chThdResumeI
 195              	.LVL14:
 196              	.LBE206:
 197              	.LBE205:
 198              	.LBB207:
 199              	.LBB208:
 200              	.LBB209:
 201              		.loc 4 408 0 discriminator 3
 202 005a FFF7FEFF 		bl	_dbg_check_unlock_from_isr
 203              	.LVL15:
 204              		.loc 4 409 0 discriminator 3
 205 005e FFF7FEFF 		bl	_stats_stop_measure_crit_isr
 206              	.LVL16:
 207              	.LBB210:
 208              	.LBB211:
 209              	.LBB212:
 210              	.LBB213:
 211              		.loc 3 546 0 discriminator 3
 212              		.syntax unified
 213              	@ 546 "../../lib/ChibiOS/os/ext/CMSIS/include/core_cmFunc.h" 1
 214 0062 84F31188 		MSR basepri, r4
 215              	@ 0 "" 2
 216              	.LVL17:
 217              		.thumb
 218              		.syntax unified
 219              	.LBE213:
 220              	.LBE212:
 221              	.LBE211:
 222              	.LBE210:
 223              	.LBE209:
 224              	.LBE208:
 225              	.LBE207:
 226              		.loc 1 323 0 discriminator 3
 227 0066 70BD     		pop	{r4, r5, r6, pc}
 228              	.LVL18:
ARM GAS  C:\Users\stoma\AppData\Local\Temp\ccY5jHl3.s 			page 5


 229              	.L21:
 230              	.LBB214:
 231              	.LBB215:
 232              		.loc 2 416 0
 233 0068 0148     		ldr	r0, .L22
 234              	.LVL19:
 235 006a FFF7FEFF 		bl	chSysHalt
 236              	.LVL20:
 237 006e CDE7     		b	.L14
 238              	.L23:
 239              		.align	2
 240              	.L22:
 241 0070 00000000 		.word	.LC0
 242              	.LBE215:
 243              	.LBE214:
 244              		.cfi_endproc
 245              	.LFE260:
 246              		.size	i2c_lld_serve_rx_end_irq, .-i2c_lld_serve_rx_end_irq
 247              		.section	.text.VectorBC,"ax",%progbits
 248              		.align	1
 249              		.p2align 4,,15
 250              		.global	VectorBC
 251              		.syntax unified
 252              		.thumb
 253              		.thumb_func
 254              		.fpu fpv4-sp-d16
 255              		.type	VectorBC, %function
 256              	VectorBC:
 257              	.LFB263:
 258              		.loc 1 406 0
 259              		.cfi_startproc
 260              		@ args = 0, pretend = 0, frame = 0
 261              		@ frame_needed = 0, uses_anonymous_args = 0
 262 0000 F8B5     		push	{r3, r4, r5, r6, r7, lr}
 263              		.cfi_def_cfa_offset 24
 264              		.cfi_offset 3, -24
 265              		.cfi_offset 4, -20
 266              		.cfi_offset 5, -16
 267              		.cfi_offset 6, -12
 268              		.cfi_offset 7, -8
 269              		.cfi_offset 14, -4
 270              	.LBB234:
 271              	.LBB235:
 272              		.loc 1 246 0
 273 0002 424D     		ldr	r5, .L40
 274              	.LBE235:
 275              	.LBE234:
 276              		.loc 1 408 0
 277 0004 FFF7FEFF 		bl	_stats_increase_irq
 278              	.LVL21:
 279 0008 FFF7FEFF 		bl	_dbg_check_enter_isr
 280              	.LVL22:
 281              	.LBB255:
 282              	.LBB252:
 283              		.loc 1 246 0
 284 000c AC6B     		ldr	r4, [r5, #56]
 285              	.LVL23:
ARM GAS  C:\Users\stoma\AppData\Local\Temp\ccY5jHl3.s 			page 6


 286              		.loc 1 253 0
 287 000e 404A     		ldr	r2, .L40+4
 288              		.loc 1 247 0
 289 0010 A369     		ldr	r3, [r4, #24]
 290              	.LVL24:
 291              		.loc 1 248 0
 292 0012 6669     		ldr	r6, [r4, #20]
 293              	.LVL25:
 294              		.loc 1 253 0
 295 0014 46EA0343 		orr	r3, r6, r3, lsl #16
 296              	.LVL26:
 297 0018 23F07F43 		bic	r3, r3, #-16777216
 298 001c 9342     		cmp	r3, r2
 299 001e 54D0     		beq	.L26
 300 0020 24D8     		bhi	.L27
 301 0022 073A     		subs	r2, r2, #7
 302 0024 9342     		cmp	r3, r2
 303 0026 44D0     		beq	.L28
 304 0028 0132     		adds	r2, r2, #1
 305 002a 9342     		cmp	r3, r2
 306 002c 14D1     		bne	.L25
 307              		.loc 1 267 0
 308 002e 6268     		ldr	r2, [r4, #4]
 309              		.loc 1 268 0
 310 0030 2B6B     		ldr	r3, [r5, #48]
 311              		.loc 1 267 0
 312 0032 22F40072 		bic	r2, r2, #512
 313              		.loc 1 268 0
 314 0036 1B68     		ldr	r3, [r3]
 315              		.loc 1 267 0
 316 0038 6260     		str	r2, [r4, #4]
 317              		.loc 1 268 0
 318 003a 1A68     		ldr	r2, [r3]
 319 003c 42F00102 		orr	r2, r2, #1
 320 0040 1A60     		str	r2, [r3]
 321              		.loc 1 269 0
 322 0042 6268     		ldr	r2, [r4, #4]
 323 0044 42F48052 		orr	r2, r2, #4096
 324 0048 6260     		str	r2, [r4, #4]
 325              		.loc 1 270 0
 326 004a 5B68     		ldr	r3, [r3, #4]
 327 004c 012B     		cmp	r3, #1
 328 004e 03D8     		bhi	.L25
 329              		.loc 1 271 0
 330 0050 2368     		ldr	r3, [r4]
 331 0052 23F48063 		bic	r3, r3, #1024
 332 0056 2360     		str	r3, [r4]
 333              	.L25:
 334              		.loc 1 293 0
 335 0058 16F00A0F 		tst	r6, #10
 336              		.loc 1 294 0
 337 005c 18BF     		it	ne
 338 005e A369     		ldrne	r3, [r4, #24]
 339              	.LVL27:
 340              	.LBE252:
 341              	.LBE255:
 342              		.loc 1 412 0
ARM GAS  C:\Users\stoma\AppData\Local\Temp\ccY5jHl3.s 			page 7


 343 0060 FFF7FEFF 		bl	_dbg_check_leave_isr
 344              	.LVL28:
 345              		.loc 1 413 0
 346 0064 BDE8F840 		pop	{r3, r4, r5, r6, r7, lr}
 347              		.cfi_remember_state
 348              		.cfi_restore 14
 349              		.cfi_restore 7
 350              		.cfi_restore 6
 351              		.cfi_restore 5
 352              		.cfi_restore 4
 353              		.cfi_restore 3
 354              		.cfi_def_cfa_offset 0
 355              		.loc 1 412 0
 356 0068 FFF7FEBF 		b	_port_irq_epilogue
 357              	.LVL29:
 358              	.L27:
 359              		.cfi_restore_state
 360              	.LBB256:
 361              	.LBB253:
 362              		.loc 1 253 0
 363 006c 294A     		ldr	r2, .L40+8
 364 006e 9342     		cmp	r3, r2
 365 0070 14D0     		beq	.L30
 366 0072 0232     		adds	r2, r2, #2
 367 0074 9342     		cmp	r3, r2
 368 0076 EFD1     		bne	.L25
 369              		.loc 1 279 0
 370 0078 2B6B     		ldr	r3, [r5, #48]
 371 007a 1B68     		ldr	r3, [r3]
 372 007c 5F68     		ldr	r7, [r3, #4]
 373 007e 4FB3     		cbz	r7, .L33
 374              		.loc 1 281 0
 375 0080 AA8C     		ldrh	r2, [r5, #36]
 376              		.loc 1 282 0
 377 0082 2368     		ldr	r3, [r4]
 378              		.loc 1 281 0
 379 0084 42F00102 		orr	r2, r2, #1
 380              		.loc 1 282 0
 381 0088 43F4A063 		orr	r3, r3, #1280
 382              		.loc 1 281 0
 383 008c AA84     		strh	r2, [r5, #36]	@ movhi
 384              		.loc 1 282 0
 385 008e 2360     		str	r3, [r4]
 386              	.LVL30:
 387              	.LBE253:
 388              	.LBE256:
 389              		.loc 1 412 0
 390 0090 FFF7FEFF 		bl	_dbg_check_leave_isr
 391              	.LVL31:
 392              		.loc 1 413 0
 393 0094 BDE8F840 		pop	{r3, r4, r5, r6, r7, lr}
 394              		.cfi_remember_state
 395              		.cfi_restore 14
 396              		.cfi_restore 7
 397              		.cfi_restore 6
 398              		.cfi_restore 5
 399              		.cfi_restore 4
ARM GAS  C:\Users\stoma\AppData\Local\Temp\ccY5jHl3.s 			page 8


 400              		.cfi_restore 3
 401              		.cfi_def_cfa_offset 0
 402              		.loc 1 412 0
 403 0098 FFF7FEBF 		b	_port_irq_epilogue
 404              	.LVL32:
 405              	.L30:
 406              		.cfi_restore_state
 407              	.LBB257:
 408              	.LBB254:
 409              		.loc 1 274 0
 410 009c 6368     		ldr	r3, [r4, #4]
 411              		.loc 1 275 0
 412 009e 6A6B     		ldr	r2, [r5, #52]
 413              		.loc 1 274 0
 414 00a0 23F40073 		bic	r3, r3, #512
 415              		.loc 1 275 0
 416 00a4 1268     		ldr	r2, [r2]
 417              		.loc 1 274 0
 418 00a6 6360     		str	r3, [r4, #4]
 419              		.loc 1 275 0
 420 00a8 1368     		ldr	r3, [r2]
 421 00aa 43F00103 		orr	r3, r3, #1
 422 00ae 1360     		str	r3, [r2]
 423 00b0 D2E7     		b	.L25
 424              	.L28:
 425              		.loc 1 255 0
 426 00b2 AB8C     		ldrh	r3, [r5, #36]
 427 00b4 1A0A     		lsrs	r2, r3, #8
 428 00b6 0BD0     		beq	.L39
 429              		.loc 1 257 0
 430 00b8 03F00103 		and	r3, r3, #1
 431 00bc 43F0F003 		orr	r3, r3, #240
 432 00c0 02F00602 		and	r2, r2, #6
 433 00c4 1343     		orrs	r3, r3, r2
 434 00c6 2361     		str	r3, [r4, #16]
 435 00c8 C6E7     		b	.L25
 436              	.L26:
 437              		.loc 1 264 0
 438 00ca AB8C     		ldrh	r3, [r5, #36]
 439 00cc C3F34703 		ubfx	r3, r3, #1, #8
 440              	.L39:
 441 00d0 2361     		str	r3, [r4, #16]
 442 00d2 C1E7     		b	.L25
 443              	.L33:
 444              		.loc 1 285 0
 445 00d4 6368     		ldr	r3, [r4, #4]
 446 00d6 23F40073 		bic	r3, r3, #512
 447 00da 6360     		str	r3, [r4, #4]
 448              		.loc 1 286 0
 449 00dc 2368     		ldr	r3, [r4]
 450 00de 43F40073 		orr	r3, r3, #512
 451 00e2 2360     		str	r3, [r4]
 452              	.LVL33:
 453              	.LBB236:
 454              	.LBB237:
 455              	.LBB238:
 456              	.LBB239:
ARM GAS  C:\Users\stoma\AppData\Local\Temp\ccY5jHl3.s 			page 9


 457              	.LBB240:
 458              	.LBB241:
 459              	.LBB242:
 460              		.loc 3 546 0
 461 00e4 2023     		movs	r3, #32
 462              		.syntax unified
 463              	@ 546 "../../lib/ChibiOS/os/ext/CMSIS/include/core_cmFunc.h" 1
 464 00e6 83F31188 		MSR basepri, r3
 465              	@ 0 "" 2
 466              	.LVL34:
 467              		.thumb
 468              		.syntax unified
 469              	.LBE242:
 470              	.LBE241:
 471              	.LBE240:
 472              	.LBE239:
 473              		.loc 4 389 0
 474 00ea FFF7FEFF 		bl	_stats_start_measure_crit_isr
 475              	.LVL35:
 476              		.loc 4 390 0
 477 00ee FFF7FEFF 		bl	_dbg_check_lock_from_isr
 478              	.LVL36:
 479              	.LBE238:
 480              	.LBE237:
 481              	.LBE236:
 482              	.LBB243:
 483              	.LBB244:
 484              		.loc 2 682 0
 485 00f2 3946     		mov	r1, r7
 486 00f4 05F12000 		add	r0, r5, #32
 487 00f8 FFF7FEFF 		bl	chThdResumeI
 488              	.LVL37:
 489              	.LBE244:
 490              	.LBE243:
 491              	.LBB245:
 492              	.LBB246:
 493              	.LBB247:
 494              		.loc 4 408 0
 495 00fc FFF7FEFF 		bl	_dbg_check_unlock_from_isr
 496              	.LVL38:
 497              		.loc 4 409 0
 498 0100 FFF7FEFF 		bl	_stats_stop_measure_crit_isr
 499              	.LVL39:
 500              	.LBB248:
 501              	.LBB249:
 502              	.LBB250:
 503              	.LBB251:
 504              		.loc 3 546 0
 505              		.syntax unified
 506              	@ 546 "../../lib/ChibiOS/os/ext/CMSIS/include/core_cmFunc.h" 1
 507 0104 87F31188 		MSR basepri, r7
 508              	@ 0 "" 2
 509              	.LVL40:
 510              		.thumb
 511              		.syntax unified
 512 0108 A6E7     		b	.L25
 513              	.L41:
ARM GAS  C:\Users\stoma\AppData\Local\Temp\ccY5jHl3.s 			page 10


 514 010a 00BF     		.align	2
 515              	.L40:
 516 010c 00000000 		.word	.LANCHOR0
 517 0110 08000300 		.word	196616
 518 0114 82000700 		.word	458882
 519              	.LBE251:
 520              	.LBE250:
 521              	.LBE249:
 522              	.LBE248:
 523              	.LBE247:
 524              	.LBE246:
 525              	.LBE245:
 526              	.LBE254:
 527              	.LBE257:
 528              		.cfi_endproc
 529              	.LFE263:
 530              		.size	VectorBC, .-VectorBC
 531              		.section	.text.VectorC0,"ax",%progbits
 532              		.align	1
 533              		.p2align 4,,15
 534              		.global	VectorC0
 535              		.syntax unified
 536              		.thumb
 537              		.thumb_func
 538              		.fpu fpv4-sp-d16
 539              		.type	VectorC0, %function
 540              	VectorC0:
 541              	.LFB264:
 542              		.loc 1 418 0
 543              		.cfi_startproc
 544              		@ args = 0, pretend = 0, frame = 0
 545              		@ frame_needed = 0, uses_anonymous_args = 0
 546 0000 F8B5     		push	{r3, r4, r5, r6, r7, lr}
 547              		.cfi_def_cfa_offset 24
 548              		.cfi_offset 3, -24
 549              		.cfi_offset 4, -20
 550              		.cfi_offset 5, -16
 551              		.cfi_offset 6, -12
 552              		.cfi_offset 7, -8
 553              		.cfi_offset 14, -4
 554              		.loc 1 419 0
 555 0002 3C4C     		ldr	r4, .L74
 556 0004 A36B     		ldr	r3, [r4, #56]
 557 0006 5D69     		ldr	r5, [r3, #20]
 558              		.loc 1 421 0
 559 0008 FFF7FEFF 		bl	_stats_increase_irq
 560              	.LVL41:
 561 000c FFF7FEFF 		bl	_dbg_check_enter_isr
 562              	.LVL42:
 563              		.loc 1 423 0
 564 0010 D4E90D70 		ldrd	r7, r0, [r4, #52]
 565 0014 05F45F43 		and	r3, r5, #57088
 566              	.LBB276:
 567              	.LBB277:
 568              		.loc 1 362 0
 569 0018 3A68     		ldr	r2, [r7]
 570              	.LBE277:
ARM GAS  C:\Users\stoma\AppData\Local\Temp\ccY5jHl3.s 			page 11


 571              	.LBE276:
 572              		.loc 1 423 0
 573 001a DB43     		mvns	r3, r3
 574 001c 4361     		str	r3, [r0, #20]
 575              	.LBB298:
 576              	.LBB294:
 577              		.loc 1 362 0
 578 001e 1368     		ldr	r3, [r2]
 579 0020 23F01F03 		bic	r3, r3, #31
 580 0024 1360     		str	r3, [r2]
 581              	.LBE294:
 582              	.LBE298:
 583              		.loc 1 419 0
 584 0026 A9B2     		uxth	r1, r5
 585              	.LVL43:
 586              	.L43:
 587              	.LBB299:
 588              	.LBB295:
 589              		.loc 1 362 0
 590 0028 1368     		ldr	r3, [r2]
 591 002a DB07     		lsls	r3, r3, #31
 592 002c FCD4     		bmi	.L43
 593 002e 3A7A     		ldrb	r2, [r7, #8]	@ zero_extendqisi2
 594              		.loc 1 363 0
 595 0030 266B     		ldr	r6, [r4, #48]
 596              		.loc 1 362 0
 597 0032 7F68     		ldr	r7, [r7, #4]
 598 0034 3D23     		movs	r3, #61
 599 0036 9340     		lsls	r3, r3, r2
 600              		.loc 1 363 0
 601 0038 3268     		ldr	r2, [r6]
 602              		.loc 1 362 0
 603 003a 3B60     		str	r3, [r7]
 604              		.loc 1 363 0
 605 003c 1368     		ldr	r3, [r2]
 606 003e 23F01F03 		bic	r3, r3, #31
 607 0042 1360     		str	r3, [r2]
 608              	.L44:
 609 0044 1368     		ldr	r3, [r2]
 610 0046 DF07     		lsls	r7, r3, #31
 611 0048 FCD4     		bmi	.L44
 612 004a 377A     		ldrb	r7, [r6, #8]	@ zero_extendqisi2
 613 004c 7268     		ldr	r2, [r6, #4]
 614 004e 3D23     		movs	r3, #61
 615 0050 BB40     		lsls	r3, r3, r7
 616 0052 1360     		str	r3, [r2]
 617              		.loc 1 367 0
 618 0054 11F48073 		ands	r3, r1, #256
 619              		.loc 1 368 0
 620 0058 18BF     		it	ne
 621 005a 0123     		movne	r3, #1
 622              		.loc 1 370 0
 623 005c 8A05     		lsls	r2, r1, #22
 624              		.loc 1 368 0
 625 005e A360     		str	r3, [r4, #8]
 626              		.loc 1 371 0
 627 0060 44BF     		itt	mi
ARM GAS  C:\Users\stoma\AppData\Local\Temp\ccY5jHl3.s 			page 12


 628 0062 43F00203 		orrmi	r3, r3, #2
 629 0066 A360     		strmi	r3, [r4, #8]
 630              		.loc 1 373 0
 631 0068 4F05     		lsls	r7, r1, #21
 632 006a 0AD5     		bpl	.L48
 633              		.loc 1 374 0
 634 006c 4268     		ldr	r2, [r0, #4]
 635 006e 22F40072 		bic	r2, r2, #512
 636 0072 4260     		str	r2, [r0, #4]
 637              		.loc 1 375 0
 638 0074 0268     		ldr	r2, [r0]
 639              		.loc 1 376 0
 640 0076 43F00403 		orr	r3, r3, #4
 641              		.loc 1 375 0
 642 007a 42F40072 		orr	r2, r2, #512
 643 007e 0260     		str	r2, [r0]
 644              		.loc 1 376 0
 645 0080 A360     		str	r3, [r4, #8]
 646              	.L48:
 647              		.loc 1 379 0
 648 0082 0E05     		lsls	r6, r1, #20
 649              		.loc 1 380 0
 650 0084 44BF     		itt	mi
 651 0086 43F00803 		orrmi	r3, r3, #8
 652 008a A360     		strmi	r3, [r4, #8]
 653              		.loc 1 382 0
 654 008c 4804     		lsls	r0, r1, #17
 655              		.loc 1 383 0
 656 008e 44BF     		itt	mi
 657 0090 43F02003 		orrmi	r3, r3, #32
 658 0094 A360     		strmi	r3, [r4, #8]
 659              		.loc 1 385 0
 660 0096 CA04     		lsls	r2, r1, #19
 661 0098 2DB2     		sxth	r5, r5
 662 009a 1DD5     		bpl	.L51
 663              		.loc 1 386 0
 664 009c 43F01003 		orr	r3, r3, #16
 665              		.loc 1 388 0
 666 00a0 002D     		cmp	r5, #0
 667              		.loc 1 386 0
 668 00a2 A360     		str	r3, [r4, #8]
 669              		.loc 1 388 0
 670 00a4 22DB     		blt	.L52
 671              	.L53:
 672              	.LVL44:
 673              	.LBB278:
 674              	.LBB279:
 675              	.LBB280:
 676              	.LBB281:
 677              	.LBB282:
 678              	.LBB283:
 679              	.LBB284:
 680              		.loc 3 546 0
 681 00a6 2023     		movs	r3, #32
 682              		.syntax unified
 683              	@ 546 "../../lib/ChibiOS/os/ext/CMSIS/include/core_cmFunc.h" 1
 684 00a8 83F31188 		MSR basepri, r3
ARM GAS  C:\Users\stoma\AppData\Local\Temp\ccY5jHl3.s 			page 13


 685              	@ 0 "" 2
 686              	.LVL45:
 687              		.thumb
 688              		.syntax unified
 689              	.LBE284:
 690              	.LBE283:
 691              	.LBE282:
 692              	.LBE281:
 693              		.loc 4 389 0
 694 00ac FFF7FEFF 		bl	_stats_start_measure_crit_isr
 695              	.LVL46:
 696              		.loc 4 390 0
 697 00b0 FFF7FEFF 		bl	_dbg_check_lock_from_isr
 698              	.LVL47:
 699              	.LBE280:
 700              	.LBE279:
 701              	.LBE278:
 702              	.LBB285:
 703              	.LBB286:
 704              		.loc 2 682 0
 705 00b4 6FF00101 		mvn	r1, #1
 706 00b8 0F48     		ldr	r0, .L74+4
 707 00ba FFF7FEFF 		bl	chThdResumeI
 708              	.LVL48:
 709              	.LBE286:
 710              	.LBE285:
 711              	.LBB287:
 712              	.LBB288:
 713              	.LBB289:
 714              		.loc 4 408 0
 715 00be FFF7FEFF 		bl	_dbg_check_unlock_from_isr
 716              	.LVL49:
 717              		.loc 4 409 0
 718 00c2 FFF7FEFF 		bl	_stats_stop_measure_crit_isr
 719              	.LVL50:
 720              	.LBB290:
 721              	.LBB291:
 722              	.LBB292:
 723              	.LBB293:
 724              		.loc 3 546 0
 725 00c6 0023     		movs	r3, #0
 726              		.syntax unified
 727              	@ 546 "../../lib/ChibiOS/os/ext/CMSIS/include/core_cmFunc.h" 1
 728 00c8 83F31188 		MSR basepri, r3
 729              	@ 0 "" 2
 730              	.LVL51:
 731              		.thumb
 732              		.syntax unified
 733              	.LBE293:
 734              	.LBE292:
 735              	.LBE291:
 736              	.LBE290:
 737              	.LBE289:
 738              	.LBE288:
 739              	.LBE287:
 740              	.LBE295:
 741              	.LBE299:
ARM GAS  C:\Users\stoma\AppData\Local\Temp\ccY5jHl3.s 			page 14


 742              		.loc 1 426 0
 743 00cc FFF7FEFF 		bl	_dbg_check_leave_isr
 744              	.LVL52:
 745              		.loc 1 427 0
 746 00d0 BDE8F840 		pop	{r3, r4, r5, r6, r7, lr}
 747              		.cfi_remember_state
 748              		.cfi_restore 14
 749              		.cfi_restore 7
 750              		.cfi_restore 6
 751              		.cfi_restore 5
 752              		.cfi_restore 4
 753              		.cfi_restore 3
 754              		.cfi_def_cfa_offset 0
 755              	.LVL53:
 756              		.loc 1 426 0
 757 00d4 FFF7FEBF 		b	_port_irq_epilogue
 758              	.LVL54:
 759              	.L51:
 760              		.cfi_restore_state
 761              	.LBB300:
 762              	.LBB296:
 763              		.loc 1 388 0
 764 00d8 002D     		cmp	r5, #0
 765 00da 07DB     		blt	.L52
 766              		.loc 1 392 0
 767 00dc 002B     		cmp	r3, #0
 768 00de E2D1     		bne	.L53
 769              	.LVL55:
 770              	.LBE296:
 771              	.LBE300:
 772              		.loc 1 426 0
 773 00e0 FFF7FEFF 		bl	_dbg_check_leave_isr
 774              	.LVL56:
 775              		.loc 1 427 0
 776 00e4 BDE8F840 		pop	{r3, r4, r5, r6, r7, lr}
 777              		.cfi_remember_state
 778              		.cfi_restore 14
 779              		.cfi_restore 7
 780              		.cfi_restore 6
 781              		.cfi_restore 5
 782              		.cfi_restore 4
 783              		.cfi_restore 3
 784              		.cfi_def_cfa_offset 0
 785              	.LVL57:
 786              		.loc 1 426 0
 787 00e8 FFF7FEBF 		b	_port_irq_epilogue
 788              	.LVL58:
 789              	.L52:
 790              		.cfi_restore_state
 791              	.LBB301:
 792              	.LBB297:
 793              		.loc 1 389 0
 794 00ec 43F04003 		orr	r3, r3, #64
 795 00f0 A360     		str	r3, [r4, #8]
 796 00f2 D8E7     		b	.L53
 797              	.L75:
 798              		.align	2
ARM GAS  C:\Users\stoma\AppData\Local\Temp\ccY5jHl3.s 			page 15


 799              	.L74:
 800 00f4 00000000 		.word	.LANCHOR0
 801 00f8 20000000 		.word	.LANCHOR0+32
 802              	.LBE297:
 803              	.LBE301:
 804              		.cfi_endproc
 805              	.LFE264:
 806              		.size	VectorC0, .-VectorC0
 807              		.section	.text.i2c_lld_init,"ax",%progbits
 808              		.align	1
 809              		.p2align 4,,15
 810              		.global	i2c_lld_init
 811              		.syntax unified
 812              		.thumb
 813              		.thumb_func
 814              		.fpu fpv4-sp-d16
 815              		.type	i2c_lld_init, %function
 816              	i2c_lld_init:
 817              	.LFB265:
 818              		.loc 1 503 0
 819              		.cfi_startproc
 820              		@ args = 0, pretend = 0, frame = 0
 821              		@ frame_needed = 0, uses_anonymous_args = 0
 822 0000 10B5     		push	{r4, lr}
 823              		.cfi_def_cfa_offset 8
 824              		.cfi_offset 4, -8
 825              		.cfi_offset 14, -4
 826              		.loc 1 506 0
 827 0002 074C     		ldr	r4, .L78
 828 0004 2046     		mov	r0, r4
 829 0006 FFF7FEFF 		bl	i2cObjectInit
 830              	.LVL59:
 831              		.loc 1 509 0
 832 000a 064B     		ldr	r3, .L78+4
 833              		.loc 1 508 0
 834 000c 064A     		ldr	r2, .L78+8
 835 000e A263     		str	r2, [r4, #56]
 836              		.loc 1 507 0
 837 0010 0021     		movs	r1, #0
 838              		.loc 1 510 0
 839 0012 03F15402 		add	r2, r3, #84
 840              		.loc 1 507 0
 841 0016 2162     		str	r1, [r4, #32]
 842              		.loc 1 510 0
 843 0018 C4E90C32 		strd	r3, r2, [r4, #48]
 844              		.loc 1 528 0
 845 001c 10BD     		pop	{r4, pc}
 846              	.L79:
 847 001e 00BF     		.align	2
 848              	.L78:
 849 0020 00000000 		.word	.LANCHOR0
 850 0024 00000000 		.word	_stm32_dma_streams
 851 0028 00540040 		.word	1073763328
 852              		.cfi_endproc
 853              	.LFE265:
 854              		.size	i2c_lld_init, .-i2c_lld_init
 855              		.section	.text.i2c_lld_start,"ax",%progbits
ARM GAS  C:\Users\stoma\AppData\Local\Temp\ccY5jHl3.s 			page 16


 856              		.align	1
 857              		.p2align 4,,15
 858              		.global	i2c_lld_start
 859              		.syntax unified
 860              		.thumb
 861              		.thumb_func
 862              		.fpu fpv4-sp-d16
 863              		.type	i2c_lld_start, %function
 864              	i2c_lld_start:
 865              	.LFB266:
 866              		.loc 1 537 0
 867              		.cfi_startproc
 868              		@ args = 0, pretend = 0, frame = 0
 869              		@ frame_needed = 0, uses_anonymous_args = 0
 870              	.LVL60:
 871              		.loc 1 550 0
 872 0000 0378     		ldrb	r3, [r0]	@ zero_extendqisi2
 873              		.loc 1 540 0
 874 0002 40F25642 		movw	r2, #1110
 875              		.loc 1 537 0
 876 0006 2DE9F041 		push	{r4, r5, r6, r7, r8, lr}
 877              		.cfi_def_cfa_offset 24
 878              		.cfi_offset 4, -24
 879              		.cfi_offset 5, -20
 880              		.cfi_offset 6, -16
 881              		.cfi_offset 7, -12
 882              		.cfi_offset 8, -8
 883              		.cfi_offset 14, -4
 884              		.loc 1 550 0
 885 000a 012B     		cmp	r3, #1
 886              		.loc 1 540 0
 887 000c C262     		str	r2, [r0, #44]
 888              		.loc 1 544 0
 889 000e 40F21642 		movw	r2, #1046
 890              		.loc 1 537 0
 891 0012 0446     		mov	r4, r0
 892              		.loc 1 544 0
 893 0014 8262     		str	r2, [r0, #40]
 894              		.loc 1 538 0
 895 0016 856B     		ldr	r5, [r0, #56]
 896              	.LVL61:
 897              		.loc 1 550 0
 898 0018 7ED0     		beq	.L124
 899              	.L103:
 900              		.loc 1 538 0
 901 001a 2F46     		mov	r7, r5
 902              	.LVL62:
 903              	.L81:
 904              		.loc 1 633 0
 905 001c D4E90C12 		ldrd	r1, r2, [r4, #48]
 906 0020 6368     		ldr	r3, [r4, #4]
 907              	.LVL63:
 908              		.loc 1 632 0
 909 0022 0868     		ldr	r0, [r1]
 910              		.loc 1 633 0
 911 0024 1168     		ldr	r1, [r2]
 912              	.LBB307:
ARM GAS  C:\Users\stoma\AppData\Local\Temp\ccY5jHl3.s 			page 17


 913              	.LBB308:
 914              		.loc 1 146 0
 915 0026 5E68     		ldr	r6, [r3, #4]
 916              	.LVL64:
 917              		.loc 1 147 0
 918 0028 93F80880 		ldrb	r8, [r3, #8]	@ zero_extendqisi2
 919              	.LVL65:
 920              		.loc 1 149 0
 921 002c 7A4A     		ldr	r2, .L133
 922              	.LBE308:
 923              	.LBE307:
 924              		.loc 1 632 0
 925 002e 05F11003 		add	r3, r5, #16
 926 0032 8360     		str	r3, [r0, #8]
 927              		.loc 1 633 0
 928 0034 8B60     		str	r3, [r1, #8]
 929              		.loc 1 636 0
 930 0036 4FF40041 		mov	r1, #32768
 931 003a 2960     		str	r1, [r5]
 932              	.LBB317:
 933              	.LBB309:
 934              		.loc 1 149 0
 935 003c 731E     		subs	r3, r6, #1
 936              	.LBE309:
 937              	.LBE317:
 938              		.loc 1 637 0
 939 003e 0021     		movs	r1, #0
 940 0040 2960     		str	r1, [r5]
 941              	.LBB318:
 942              	.LBB310:
 943              		.loc 1 149 0
 944 0042 9342     		cmp	r3, r2
 945              	.LBE310:
 946              	.LBE318:
 947              		.loc 1 638 0
 948 0044 4FF41061 		mov	r1, #2304
 949 0048 6960     		str	r1, [r5, #4]
 950              	.LBB319:
 951              	.LBB311:
 952              		.loc 1 149 0
 953 004a 02D9     		bls	.L84
 954 004c 7348     		ldr	r0, .L133+4
 955 004e FFF7FEFF 		bl	chSysHalt
 956              	.LVL66:
 957              	.L84:
 958              		.loc 1 154 0
 959 0052 7B68     		ldr	r3, [r7, #4]
 960              		.loc 1 161 0
 961 0054 724A     		ldr	r2, .L133+8
 962              		.loc 1 154 0
 963 0056 4FF6C071 		movw	r1, #65472
 964 005a 0B40     		ands	r3, r3, r1
 965 005c 7B60     		str	r3, [r7, #4]
 966              		.loc 1 155 0
 967 005e 7B68     		ldr	r3, [r7, #4]
 968              		.loc 1 161 0
 969 0060 9642     		cmp	r6, r2
ARM GAS  C:\Users\stoma\AppData\Local\Temp\ccY5jHl3.s 			page 18


 970              		.loc 1 155 0
 971 0062 43F02A03 		orr	r3, r3, #42
 972 0066 7B60     		str	r3, [r7, #4]
 973              	.LVL67:
 974              		.loc 1 161 0
 975 0068 35DC     		bgt	.L85
 976              		.loc 1 163 0
 977 006a B8F1010F 		cmp	r8, #1
 978 006e 40F08480 		bne	.L125
 979              	.L86:
 980              		.loc 1 166 0
 981 0072 6C4A     		ldr	r2, .L133+12
 982 0074 4FEA4608 		lsl	r8, r6, #1
 983              	.LVL68:
 984 0078 B2FBF8F3 		udiv	r3, r2, r8
 985 007c 08FB1323 		mls	r3, r8, r3, r2
 986 0080 002B     		cmp	r3, #0
 987 0082 40F08A80 		bne	.L126
 988              		.loc 1 168 0
 989 0086 674E     		ldr	r6, .L133+12
 990              	.LVL69:
 991 0088 B6FBF8F6 		udiv	r6, r6, r8
 992 008c B6B2     		uxth	r6, r6
 993              	.LVL70:
 994              		.loc 1 170 0
 995 008e 032E     		cmp	r6, #3
 996 0090 40F28D80 		bls	.L127
 997              	.L88:
 998              	.LVL71:
 999              		.loc 1 175 0
 1000 0094 2B23     		movs	r3, #43
 1001              		.loc 1 205 0
 1002 0096 B6F5805F 		cmp	r6, #4096
 1003              		.loc 1 175 0
 1004 009a 3B62     		str	r3, [r7, #32]
 1005 009c C6F30B08 		ubfx	r8, r6, #0, #12
 1006              		.loc 1 205 0
 1007 00a0 02D3     		bcc	.L89
 1008 00a2 5E48     		ldr	r0, .L133+4
 1009 00a4 FFF7FEFF 		bl	chSysHalt
 1010              	.LVL72:
 1011              	.L89:
 1012              	.LBE311:
 1013              	.LBE319:
 1014              	.LBB320:
 1015              	.LBB321:
 1016              		.loc 1 219 0
 1017 00a8 6368     		ldr	r3, [r4, #4]
 1018 00aa A16B     		ldr	r1, [r4, #56]
 1019              		.loc 1 223 0
 1020 00ac 1A78     		ldrb	r2, [r3]	@ zero_extendqisi2
 1021              	.LBE321:
 1022              	.LBE320:
 1023              	.LBB324:
 1024              	.LBB312:
 1025              		.loc 1 207 0
 1026 00ae C7F81C80 		str	r8, [r7, #28]
ARM GAS  C:\Users\stoma\AppData\Local\Temp\ccY5jHl3.s 			page 19


 1027              	.LVL73:
 1028              	.LBE312:
 1029              	.LBE324:
 1030              	.LBB325:
 1031              	.LBB322:
 1032              		.loc 1 222 0
 1033 00b2 0B68     		ldr	r3, [r1]
 1034              		.loc 1 223 0
 1035 00b4 022A     		cmp	r2, #2
 1036              		.loc 1 222 0
 1037 00b6 9BB2     		uxth	r3, r3
 1038              	.LVL74:
 1039              		.loc 1 223 0
 1040 00b8 69D0     		beq	.L99
 1041 00ba 032A     		cmp	r2, #3
 1042 00bc 64D0     		beq	.L100
 1043 00be 012A     		cmp	r2, #1
 1044 00c0 02D1     		bne	.L98
 1045              		.loc 1 225 0
 1046 00c2 23F00A03 		bic	r3, r3, #10
 1047              	.LVL75:
 1048 00c6 9BB2     		uxth	r3, r3
 1049              	.LVL76:
 1050              	.L98:
 1051              		.loc 1 235 0
 1052 00c8 0B60     		str	r3, [r1]
 1053              	.LVL77:
 1054              	.LBE322:
 1055              	.LBE325:
 1056              		.loc 1 645 0
 1057 00ca 2B68     		ldr	r3, [r5]
 1058 00cc 43F00103 		orr	r3, r3, #1
 1059 00d0 2B60     		str	r3, [r5]
 1060              		.loc 1 646 0
 1061 00d2 BDE8F081 		pop	{r4, r5, r6, r7, r8, pc}
 1062              	.LVL78:
 1063              	.L85:
 1064              	.LBB326:
 1065              	.LBB313:
 1066              		.loc 1 177 0
 1067 00d6 544B     		ldr	r3, .L133+16
 1068 00d8 9E42     		cmp	r6, r3
 1069 00da 52DC     		bgt	.L104
 1070              		.loc 1 179 0
 1071 00dc A8F10203 		sub	r3, r8, #2
 1072 00e0 012B     		cmp	r3, #1
 1073 00e2 6CD8     		bhi	.L128
 1074              		.loc 1 183 0
 1075 00e4 B8F1020F 		cmp	r8, #2
 1076 00e8 71D1     		bne	.L93
 1077              		.loc 1 185 0
 1078 00ea 4E4A     		ldr	r2, .L133+12
 1079 00ec 06EB4606 		add	r6, r6, r6, lsl #1
 1080              	.LVL79:
 1081 00f0 B2FBF6F3 		udiv	r3, r2, r6
 1082 00f4 06FB1323 		mls	r3, r6, r3, r2
 1083 00f8 002B     		cmp	r3, #0
ARM GAS  C:\Users\stoma\AppData\Local\Temp\ccY5jHl3.s 			page 20


 1084 00fa 40F08980 		bne	.L129
 1085              	.L94:
 1086              		.loc 1 187 0
 1087 00fe 494B     		ldr	r3, .L133+12
 1088 0100 B3FBF6F8 		udiv	r8, r3, r6
 1089              	.LVL80:
 1090              		.loc 1 158 0
 1091 0104 0023     		movs	r3, #0
 1092              		.loc 1 187 0
 1093 0106 1FFA88F8 		uxth	r8, r8
 1094              	.LVL81:
 1095              	.L95:
 1096              		.loc 1 199 0
 1097 010a 48EA0308 		orr	r8, r8, r3
 1098              	.LVL82:
 1099              		.loc 1 202 0
 1100 010e 0D23     		movs	r3, #13
 1101 0110 48F40048 		orr	r8, r8, #32768
 1102              	.LVL83:
 1103 0114 3B62     		str	r3, [r7, #32]
 1104 0116 C7E7     		b	.L89
 1105              	.LVL84:
 1106              	.L124:
 1107              	.LBE313:
 1108              	.LBE326:
 1109              		.loc 1 553 0
 1110 0118 444E     		ldr	r6, .L133+20
 1111 011a B042     		cmp	r0, r6
 1112 011c 7FF47DAF 		bne	.L103
 1113              	.LBB327:
 1114              		.loc 1 556 0
 1115 0120 434B     		ldr	r3, .L133+24
 1116              		.loc 1 557 0
 1117 0122 006B     		ldr	r0, [r0, #48]
 1118              	.LVL85:
 1119              		.loc 1 556 0
 1120 0124 196A     		ldr	r1, [r3, #32]
 1121              		.loc 1 557 0
 1122 0126 434A     		ldr	r2, .L133+28
 1123              		.loc 1 556 0
 1124 0128 41F40011 		orr	r1, r1, #2097152
 1125 012c 0027     		movs	r7, #0
 1126 012e 1962     		str	r1, [r3, #32]
 1127 0130 1F62     		str	r7, [r3, #32]
 1128              		.loc 1 557 0
 1129 0132 0521     		movs	r1, #5
 1130 0134 2346     		mov	r3, r4
 1131 0136 FFF7FEFF 		bl	dmaStreamAllocate
 1132              	.LVL86:
 1133              		.loc 1 561 0
 1134 013a 0028     		cmp	r0, #0
 1135 013c 64D1     		bne	.L130
 1136              	.LVL87:
 1137              	.L82:
 1138              		.loc 1 562 0
 1139 013e 3B4B     		ldr	r3, .L133+20
 1140 0140 3D4A     		ldr	r2, .L133+32
ARM GAS  C:\Users\stoma\AppData\Local\Temp\ccY5jHl3.s 			page 21


 1141 0142 706B     		ldr	r0, [r6, #52]
 1142 0144 0521     		movs	r1, #5
 1143 0146 FFF7FEFF 		bl	dmaStreamAllocate
 1144              	.LVL88:
 1145              		.loc 1 566 0
 1146 014a 0028     		cmp	r0, #0
 1147 014c 58D1     		bne	.L131
 1148              	.LVL89:
 1149              	.L83:
 1150              		.loc 1 567 0
 1151 014e 384A     		ldr	r2, .L133+24
 1152 0150 136C     		ldr	r3, [r2, #64]
 1153 0152 43F40013 		orr	r3, r3, #2097152
 1154 0156 1364     		str	r3, [r2, #64]
 1155              		.loc 1 568 0
 1156 0158 0521     		movs	r1, #5
 1157 015a 1F20     		movs	r0, #31
 1158 015c FFF7FEFF 		bl	nvicEnableVector
 1159              	.LVL90:
 1160              		.loc 1 569 0
 1161 0160 0521     		movs	r1, #5
 1162 0162 2020     		movs	r0, #32
 1163 0164 FFF7FEFF 		bl	nvicEnableVector
 1164              	.LVL91:
 1165              		.loc 1 571 0
 1166 0168 B26A     		ldr	r2, [r6, #40]
 1167 016a 3449     		ldr	r1, .L133+36
 1168              		.loc 1 573 0
 1169 016c F36A     		ldr	r3, [r6, #44]
 1170 016e B76B     		ldr	r7, [r6, #56]
 1171              		.loc 1 571 0
 1172 0170 0A43     		orrs	r2, r2, r1
 1173              		.loc 1 573 0
 1174 0172 0B43     		orrs	r3, r3, r1
 1175 0174 C6E90A23 		strd	r2, r3, [r6, #40]
 1176 0178 50E7     		b	.L81
 1177              	.LVL92:
 1178              	.L125:
 1179              	.LBE327:
 1180              	.LBB328:
 1181              	.LBB314:
 1182              		.loc 1 163 0
 1183 017a 2848     		ldr	r0, .L133+4
 1184 017c FFF7FEFF 		bl	chSysHalt
 1185              	.LVL93:
 1186 0180 77E7     		b	.L86
 1187              	.L104:
 1188              		.loc 1 177 0
 1189 0182 4FF00008 		mov	r8, #0
 1190              	.LVL94:
 1191 0186 8FE7     		b	.L89
 1192              	.LVL95:
 1193              	.L100:
 1194              	.LBE314:
 1195              	.LBE328:
 1196              	.LBB329:
 1197              	.LBB323:
ARM GAS  C:\Users\stoma\AppData\Local\Temp\ccY5jHl3.s 			page 22


 1198              		.loc 1 232 0
 1199 0188 43F00A03 		orr	r3, r3, #10
 1200              	.LVL96:
 1201 018c 9CE7     		b	.L98
 1202              	.L99:
 1203              	.LVL97:
 1204 018e 23F00803 		bic	r3, r3, #8
 1205              	.LVL98:
 1206 0192 9BB2     		uxth	r3, r3
 1207              		.loc 1 229 0
 1208 0194 43F00203 		orr	r3, r3, #2
 1209              	.LVL99:
 1210 0198 96E7     		b	.L98
 1211              	.LVL100:
 1212              	.L126:
 1213              	.LBE323:
 1214              	.LBE329:
 1215              	.LBB330:
 1216              	.LBB315:
 1217              		.loc 1 166 0
 1218 019a 2048     		ldr	r0, .L133+4
 1219              		.loc 1 168 0
 1220 019c 214E     		ldr	r6, .L133+12
 1221              	.LVL101:
 1222              		.loc 1 166 0
 1223 019e FFF7FEFF 		bl	chSysHalt
 1224              	.LVL102:
 1225              		.loc 1 168 0
 1226 01a2 B6FBF8F6 		udiv	r6, r6, r8
 1227 01a6 B6B2     		uxth	r6, r6
 1228              	.LVL103:
 1229              		.loc 1 170 0
 1230 01a8 032E     		cmp	r6, #3
 1231 01aa 3FF673AF 		bhi	.L88
 1232              	.L127:
 1233 01ae 1B48     		ldr	r0, .L133+4
 1234 01b0 FFF7FEFF 		bl	chSysHalt
 1235              	.LVL104:
 1236              		.loc 1 175 0
 1237 01b4 2B23     		movs	r3, #43
 1238 01b6 C6F30B08 		ubfx	r8, r6, #0, #12
 1239 01ba 3B62     		str	r3, [r7, #32]
 1240 01bc 74E7     		b	.L89
 1241              	.LVL105:
 1242              	.L128:
 1243              		.loc 1 179 0
 1244 01be 1748     		ldr	r0, .L133+4
 1245 01c0 FFF7FEFF 		bl	chSysHalt
 1246              	.LVL106:
 1247              	.L92:
 1248              		.loc 1 202 0
 1249 01c4 0D23     		movs	r3, #13
 1250 01c6 3B62     		str	r3, [r7, #32]
 1251 01c8 48F6FF78 		movw	r8, #36863
 1252              	.LVL107:
 1253 01cc 6CE7     		b	.L89
 1254              	.LVL108:
ARM GAS  C:\Users\stoma\AppData\Local\Temp\ccY5jHl3.s 			page 23


 1255              	.L93:
 1256              		.loc 1 189 0
 1257 01ce B8F1030F 		cmp	r8, #3
 1258 01d2 F7D1     		bne	.L92
 1259              		.loc 1 191 0
 1260 01d4 134A     		ldr	r2, .L133+12
 1261 01d6 06EB8606 		add	r6, r6, r6, lsl #2
 1262              	.LVL109:
 1263 01da 06EB8606 		add	r6, r6, r6, lsl #2
 1264 01de B2FBF6F3 		udiv	r3, r2, r6
 1265 01e2 06FB1323 		mls	r3, r6, r3, r2
 1266 01e6 3BB9     		cbnz	r3, .L132
 1267              	.L97:
 1268              		.loc 1 193 0
 1269 01e8 0E4B     		ldr	r3, .L133+12
 1270 01ea B3FBF6F6 		udiv	r6, r3, r6
 1271              		.loc 1 194 0
 1272 01ee 4FF48043 		mov	r3, #16384
 1273              		.loc 1 193 0
 1274 01f2 1FFA86F8 		uxth	r8, r6
 1275              	.LVL110:
 1276 01f6 88E7     		b	.L95
 1277              	.LVL111:
 1278              	.L132:
 1279              		.loc 1 191 0
 1280 01f8 0848     		ldr	r0, .L133+4
 1281 01fa FFF7FEFF 		bl	chSysHalt
 1282              	.LVL112:
 1283 01fe F3E7     		b	.L97
 1284              	.LVL113:
 1285              	.L131:
 1286              	.LBE315:
 1287              	.LBE330:
 1288              	.LBB331:
 1289              		.loc 1 566 0 discriminator 2
 1290 0200 0F48     		ldr	r0, .L133+40
 1291              	.LVL114:
 1292 0202 FFF7FEFF 		bl	chSysHalt
 1293              	.LVL115:
 1294 0206 A2E7     		b	.L83
 1295              	.LVL116:
 1296              	.L130:
 1297              		.loc 1 561 0 discriminator 2
 1298 0208 0D48     		ldr	r0, .L133+40
 1299              	.LVL117:
 1300 020a FFF7FEFF 		bl	chSysHalt
 1301              	.LVL118:
 1302 020e 96E7     		b	.L82
 1303              	.LVL119:
 1304              	.L129:
 1305              	.LBE331:
 1306              	.LBB332:
 1307              	.LBB316:
 1308              		.loc 1 185 0
 1309 0210 0248     		ldr	r0, .L133+4
 1310 0212 FFF7FEFF 		bl	chSysHalt
 1311              	.LVL120:
ARM GAS  C:\Users\stoma\AppData\Local\Temp\ccY5jHl3.s 			page 24


 1312 0216 72E7     		b	.L94
 1313              	.L134:
 1314              		.align	2
 1315              	.L133:
 1316 0218 FF083D00 		.word	3999999
 1317 021c 00000000 		.word	.LANCHOR2
 1318 0220 A0860100 		.word	100000
 1319 0224 80DE8002 		.word	42000000
 1320 0228 801A0600 		.word	400000
 1321 022c 00000000 		.word	.LANCHOR0
 1322 0230 00380240 		.word	1073887232
 1323 0234 00000000 		.word	i2c_lld_serve_rx_end_irq
 1324 0238 00000000 		.word	i2c_lld_serve_tx_end_irq
 1325 023c 00000302 		.word	33751040
 1326 0240 00000000 		.word	.LANCHOR1
 1327              	.LBE316:
 1328              	.LBE332:
 1329              		.cfi_endproc
 1330              	.LFE266:
 1331              		.size	i2c_lld_start, .-i2c_lld_start
 1332              		.section	.text.i2c_lld_stop,"ax",%progbits
 1333              		.align	1
 1334              		.p2align 4,,15
 1335              		.global	i2c_lld_stop
 1336              		.syntax unified
 1337              		.thumb
 1338              		.thumb_func
 1339              		.fpu fpv4-sp-d16
 1340              		.type	i2c_lld_stop, %function
 1341              	i2c_lld_stop:
 1342              	.LFB267:
 1343              		.loc 1 655 0
 1344              		.cfi_startproc
 1345              		@ args = 0, pretend = 0, frame = 0
 1346              		@ frame_needed = 0, uses_anonymous_args = 0
 1347              	.LVL121:
 1348 0000 38B5     		push	{r3, r4, r5, lr}
 1349              		.cfi_def_cfa_offset 16
 1350              		.cfi_offset 3, -16
 1351              		.cfi_offset 4, -12
 1352              		.cfi_offset 5, -8
 1353              		.cfi_offset 14, -4
 1354              		.loc 1 658 0
 1355 0002 0378     		ldrb	r3, [r0]	@ zero_extendqisi2
 1356 0004 012B     		cmp	r3, #1
 1357 0006 2DD0     		beq	.L135
 1358              	.LVL122:
 1359              	.LBB335:
 1360              	.LBB336:
 1361              		.loc 1 123 0
 1362 0008 D0E90D13 		ldrd	r1, r3, [r0, #52]
 1363              	.LVL123:
 1364              		.loc 1 127 0
 1365 000c 0024     		movs	r4, #0
 1366              		.loc 1 132 0
 1367 000e 0A68     		ldr	r2, [r1]
 1368              		.loc 1 126 0
ARM GAS  C:\Users\stoma\AppData\Local\Temp\ccY5jHl3.s 			page 25


 1369 0010 4FF40045 		mov	r5, #32768
 1370 0014 1D60     		str	r5, [r3]
 1371              		.loc 1 127 0
 1372 0016 1C60     		str	r4, [r3]
 1373              		.loc 1 128 0
 1374 0018 5C60     		str	r4, [r3, #4]
 1375              		.loc 1 129 0
 1376 001a 5C61     		str	r4, [r3, #20]
 1377              		.loc 1 132 0
 1378 001c 1368     		ldr	r3, [r2]
 1379              	.LVL124:
 1380 001e 23F01F03 		bic	r3, r3, #31
 1381 0022 1360     		str	r3, [r2]
 1382              	.L138:
 1383 0024 1368     		ldr	r3, [r2]
 1384 0026 DC07     		lsls	r4, r3, #31
 1385 0028 FCD4     		bmi	.L138
 1386 002a 0A7A     		ldrb	r2, [r1, #8]	@ zero_extendqisi2
 1387              		.loc 1 133 0
 1388 002c 056B     		ldr	r5, [r0, #48]
 1389              		.loc 1 132 0
 1390 002e 4C68     		ldr	r4, [r1, #4]
 1391 0030 3D23     		movs	r3, #61
 1392 0032 9340     		lsls	r3, r3, r2
 1393              		.loc 1 133 0
 1394 0034 2A68     		ldr	r2, [r5]
 1395              		.loc 1 132 0
 1396 0036 2360     		str	r3, [r4]
 1397              		.loc 1 133 0
 1398 0038 1368     		ldr	r3, [r2]
 1399 003a 23F01F03 		bic	r3, r3, #31
 1400 003e 1360     		str	r3, [r2]
 1401              	.L139:
 1402 0040 1368     		ldr	r3, [r2]
 1403 0042 DB07     		lsls	r3, r3, #31
 1404 0044 FCD4     		bmi	.L139
 1405 0046 0446     		mov	r4, r0
 1406 0048 287A     		ldrb	r0, [r5, #8]	@ zero_extendqisi2
 1407              	.LVL125:
 1408 004a 6A68     		ldr	r2, [r5, #4]
 1409 004c 3D23     		movs	r3, #61
 1410 004e 8340     		lsls	r3, r3, r0
 1411 0050 1360     		str	r3, [r2]
 1412              	.LVL126:
 1413              	.LBE336:
 1414              	.LBE335:
 1415              		.loc 1 662 0
 1416 0052 0846     		mov	r0, r1
 1417 0054 FFF7FEFF 		bl	dmaStreamRelease
 1418              	.LVL127:
 1419              		.loc 1 663 0
 1420 0058 206B     		ldr	r0, [r4, #48]
 1421 005a FFF7FEFF 		bl	dmaStreamRelease
 1422              	.LVL128:
 1423              		.loc 1 666 0
 1424 005e 084B     		ldr	r3, .L145
 1425 0060 9C42     		cmp	r4, r3
ARM GAS  C:\Users\stoma\AppData\Local\Temp\ccY5jHl3.s 			page 26


 1426 0062 00D0     		beq	.L144
 1427              	.LVL129:
 1428              	.L135:
 1429              		.loc 1 689 0
 1430 0064 38BD     		pop	{r3, r4, r5, pc}
 1431              	.LVL130:
 1432              	.L144:
 1433              		.loc 1 667 0
 1434 0066 1F20     		movs	r0, #31
 1435 0068 FFF7FEFF 		bl	nvicDisableVector
 1436              	.LVL131:
 1437              		.loc 1 668 0
 1438 006c 2020     		movs	r0, #32
 1439 006e FFF7FEFF 		bl	nvicDisableVector
 1440              	.LVL132:
 1441              		.loc 1 669 0
 1442 0072 044A     		ldr	r2, .L145+4
 1443 0074 136C     		ldr	r3, [r2, #64]
 1444 0076 23F40013 		bic	r3, r3, #2097152
 1445 007a 1364     		str	r3, [r2, #64]
 1446              		.loc 1 689 0
 1447 007c 38BD     		pop	{r3, r4, r5, pc}
 1448              	.LVL133:
 1449              	.L146:
 1450 007e 00BF     		.align	2
 1451              	.L145:
 1452 0080 00000000 		.word	.LANCHOR0
 1453 0084 00380240 		.word	1073887232
 1454              		.cfi_endproc
 1455              	.LFE267:
 1456              		.size	i2c_lld_stop, .-i2c_lld_stop
 1457              		.section	.text.i2c_lld_master_receive_timeout,"ax",%progbits
 1458              		.align	1
 1459              		.p2align 4,,15
 1460              		.global	i2c_lld_master_receive_timeout
 1461              		.syntax unified
 1462              		.thumb
 1463              		.thumb_func
 1464              		.fpu fpv4-sp-d16
 1465              		.type	i2c_lld_master_receive_timeout, %function
 1466              	i2c_lld_master_receive_timeout:
 1467              	.LFB268:
 1468              		.loc 1 716 0
 1469              		.cfi_startproc
 1470              		@ args = 4, pretend = 0, frame = 0
 1471              		@ frame_needed = 0, uses_anonymous_args = 0
 1472              	.LVL134:
 1473 0000 2DE9F84F 		push	{r3, r4, r5, r6, r7, r8, r9, r10, fp, lr}
 1474              		.cfi_def_cfa_offset 40
 1475              		.cfi_offset 3, -40
 1476              		.cfi_offset 4, -36
 1477              		.cfi_offset 5, -32
 1478              		.cfi_offset 6, -28
 1479              		.cfi_offset 7, -24
 1480              		.cfi_offset 8, -20
 1481              		.cfi_offset 9, -16
 1482              		.cfi_offset 10, -12
ARM GAS  C:\Users\stoma\AppData\Local\Temp\ccY5jHl3.s 			page 27


 1483              		.cfi_offset 11, -8
 1484              		.cfi_offset 14, -4
 1485              		.loc 1 728 0
 1486 0004 4900     		lsls	r1, r1, #1
 1487              	.LVL135:
 1488              		.loc 1 716 0
 1489 0006 8146     		mov	r9, r0
 1490              		.loc 1 728 0
 1491 0008 41F00101 		orr	r1, r1, #1
 1492              		.loc 1 725 0
 1493 000c 0020     		movs	r0, #0
 1494              	.LVL136:
 1495              	.LBB368:
 1496              	.LBB369:
 1497              	.LBB370:
 1498              		.loc 4 367 0
 1499 000e 314C     		ldr	r4, .L157
 1500              	.LBE370:
 1501              	.LBE369:
 1502              	.LBE368:
 1503              		.loc 1 728 0
 1504 0010 A9F82410 		strh	r1, [r9, #36]	@ movhi
 1505              		.loc 1 725 0
 1506 0014 C9F80800 		str	r0, [r9, #8]
 1507              		.loc 1 716 0
 1508 0018 1F46     		mov	r7, r3
 1509 001a 1646     		mov	r6, r2
 1510              		.loc 1 717 0
 1511 001c D9F83850 		ldr	r5, [r9, #56]
 1512              	.LVL137:
 1513              		.loc 1 716 0
 1514 0020 DDF828B0 		ldr	fp, [sp, #40]
 1515              	.LBB378:
 1516              	.LBB376:
 1517              	.LBB374:
 1518              		.loc 4 360 0
 1519 0024 FFF7FEFF 		bl	_dbg_check_unlock
 1520              	.LVL138:
 1521              		.loc 4 361 0
 1522 0028 FFF7FEFF 		bl	_stats_stop_measure_crit_thd
 1523              	.LVL139:
 1524              		.loc 4 367 0
 1525 002c 2368     		ldr	r3, [r4]
 1526 002e A342     		cmp	r3, r4
 1527 0030 04D0     		beq	.L148
 1528 0032 A269     		ldr	r2, [r4, #24]
 1529 0034 9B68     		ldr	r3, [r3, #8]
 1530 0036 9268     		ldr	r2, [r2, #8]
 1531 0038 9A42     		cmp	r2, r3
 1532 003a 37D3     		bcc	.L155
 1533              	.L148:
 1534              	.LVL140:
 1535              	.LBB371:
 1536              	.LBB372:
 1537              	.LBB373:
 1538              		.loc 3 546 0
 1539 003c 0022     		movs	r2, #0
ARM GAS  C:\Users\stoma\AppData\Local\Temp\ccY5jHl3.s 			page 28


 1540              		.syntax unified
 1541              	@ 546 "../../lib/ChibiOS/os/ext/CMSIS/include/core_cmFunc.h" 1
 1542 003e 82F31188 		MSR basepri, r2
 1543              	@ 0 "" 2
 1544              	.LVL141:
 1545              		.thumb
 1546              		.syntax unified
 1547              	.LBE373:
 1548              	.LBE372:
 1549              	.LBE371:
 1550              	.LBE374:
 1551              	.LBE376:
 1552              	.LBE378:
 1553              		.loc 1 734 0
 1554 0042 D9F83030 		ldr	r3, [r9, #48]
 1555 0046 D9F82810 		ldr	r1, [r9, #40]
 1556 004a 1B68     		ldr	r3, [r3]
 1557              	.LBB379:
 1558              	.LBB380:
 1559              	.LBB381:
 1560              		.loc 4 367 0
 1561 004c DFF888A0 		ldr	r10, .L157+4
 1562              	.LBE381:
 1563              	.LBE380:
 1564              	.LBE379:
 1565              		.loc 1 734 0
 1566 0050 1960     		str	r1, [r3]
 1567              		.loc 1 735 0
 1568 0052 DE60     		str	r6, [r3, #12]
 1569              		.loc 1 736 0
 1570 0054 5F60     		str	r7, [r3, #4]
 1571              	.LBB392:
 1572              	.LBB393:
 1573              	.LBB394:
 1574              		.file 5 "../../lib/ChibiOS/os/rt/include/chvt.h"
 1575              		.loc 5 231 0
 1576 0056 D4F82880 		ldr	r8, [r4, #40]
 1577              	.LVL142:
 1578              	.LBE394:
 1579              	.LBE393:
 1580              	.LBE392:
 1581              	.LBB395:
 1582              	.LBB390:
 1583              	.LBB388:
 1584              	.LBB382:
 1585              	.LBB383:
 1586              	.LBB384:
 1587              		.loc 3 546 0
 1588 005a 1646     		mov	r6, r2
 1589              	.LVL143:
 1590              	.LBE384:
 1591              	.LBE383:
 1592              	.LBE382:
 1593              	.LBE388:
 1594              	.LBE390:
 1595              	.LBE395:
 1596              	.LBB396:
ARM GAS  C:\Users\stoma\AppData\Local\Temp\ccY5jHl3.s 			page 29


 1597              	.LBB397:
 1598              	.LBB398:
 1599              	.LBB399:
 1600              	.LBB400:
 1601              	.LBB401:
 1602 005c 2027     		movs	r7, #32
 1603              	.LVL144:
 1604 005e 10E0     		b	.L153
 1605              	.LVL145:
 1606              	.L156:
 1607              	.LBE401:
 1608              	.LBE400:
 1609              	.LBE399:
 1610              	.LBE398:
 1611              	.LBE397:
 1612              	.LBE396:
 1613              	.LBB407:
 1614              	.LBB391:
 1615              	.LBB389:
 1616              		.loc 4 360 0
 1617 0060 FFF7FEFF 		bl	_dbg_check_unlock
 1618              	.LVL146:
 1619              		.loc 4 361 0
 1620 0064 FFF7FEFF 		bl	_stats_stop_measure_crit_thd
 1621              	.LVL147:
 1622              		.loc 4 367 0
 1623 0068 2368     		ldr	r3, [r4]
 1624 006a A342     		cmp	r3, r4
 1625 006c 07D0     		beq	.L152
 1626 006e A269     		ldr	r2, [r4, #24]
 1627 0070 9B68     		ldr	r3, [r3, #8]
 1628 0072 9268     		ldr	r2, [r2, #8]
 1629 0074 9A42     		cmp	r2, r3
 1630 0076 02D2     		bcs	.L152
 1631 0078 5046     		mov	r0, r10
 1632 007a FFF7FEFF 		bl	chSysHalt
 1633              	.LVL148:
 1634              	.L152:
 1635              	.LBB387:
 1636              	.LBB386:
 1637              	.LBB385:
 1638              		.loc 3 546 0
 1639              		.syntax unified
 1640              	@ 546 "../../lib/ChibiOS/os/ext/CMSIS/include/core_cmFunc.h" 1
 1641 007e 86F31188 		MSR basepri, r6
 1642              	@ 0 "" 2
 1643              	.LVL149:
 1644              		.thumb
 1645              		.syntax unified
 1646              	.L153:
 1647              	.LBE385:
 1648              	.LBE386:
 1649              	.LBE387:
 1650              	.LBE389:
 1651              	.LBE391:
 1652              	.LBE407:
 1653              	.LBB408:
ARM GAS  C:\Users\stoma\AppData\Local\Temp\ccY5jHl3.s 			page 30


 1654              	.LBB406:
 1655              	.LBB405:
 1656              	.LBB404:
 1657              	.LBB403:
 1658              	.LBB402:
 1659              		.syntax unified
 1660              	@ 546 "../../lib/ChibiOS/os/ext/CMSIS/include/core_cmFunc.h" 1
 1661 0082 87F31188 		MSR basepri, r7
 1662              	@ 0 "" 2
 1663              	.LVL150:
 1664              		.thumb
 1665              		.syntax unified
 1666              	.LBE402:
 1667              	.LBE403:
 1668              	.LBE404:
 1669              		.loc 4 349 0
 1670 0086 FFF7FEFF 		bl	_stats_start_measure_crit_thd
 1671              	.LVL151:
 1672              		.loc 4 350 0
 1673 008a FFF7FEFF 		bl	_dbg_check_lock
 1674              	.LVL152:
 1675              	.LBE405:
 1676              	.LBE406:
 1677              	.LBE408:
 1678              		.loc 1 749 0
 1679 008e AB69     		ldr	r3, [r5, #24]
 1680 0090 9A07     		lsls	r2, r3, #30
 1681 0092 02D4     		bmi	.L149
 1682              		.loc 1 749 0 is_stmt 0 discriminator 1
 1683 0094 2B68     		ldr	r3, [r5]
 1684 0096 9B05     		lsls	r3, r3, #22
 1685 0098 0CD5     		bpl	.L150
 1686              	.L149:
 1687              	.LBB409:
 1688              	.LBB410:
 1689              	.LBB411:
 1690              		.loc 5 231 0 is_stmt 1
 1691 009a A36A     		ldr	r3, [r4, #40]
 1692              	.LBE411:
 1693              	.LBE410:
 1694              	.LBE409:
 1695              	.LBB412:
 1696              	.LBB413:
 1697              	.LBB414:
 1698              		.loc 5 288 0
 1699 009c A3EB0803 		sub	r3, r3, r8
 1700              	.LBE414:
 1701              	.LBE413:
 1702              	.LBE412:
 1703              		.loc 1 754 0
 1704 00a0 312B     		cmp	r3, #49
 1705 00a2 DDD9     		bls	.L156
 1706              		.loc 1 766 0
 1707 00a4 4FF0FF30 		mov	r0, #-1
 1708 00a8 BDE8F88F 		pop	{r3, r4, r5, r6, r7, r8, r9, r10, fp, pc}
 1709              	.LVL153:
 1710              	.L155:
ARM GAS  C:\Users\stoma\AppData\Local\Temp\ccY5jHl3.s 			page 31


 1711              	.LBB415:
 1712              	.LBB377:
 1713              	.LBB375:
 1714              		.loc 4 367 0
 1715 00ac 0A48     		ldr	r0, .L157+4
 1716 00ae FFF7FEFF 		bl	chSysHalt
 1717              	.LVL154:
 1718 00b2 C3E7     		b	.L148
 1719              	.LVL155:
 1720              	.L150:
 1721              	.LBE375:
 1722              	.LBE377:
 1723              	.LBE415:
 1724              		.loc 1 761 0
 1725 00b4 6B68     		ldr	r3, [r5, #4]
 1726 00b6 43F40073 		orr	r3, r3, #512
 1727 00ba 6B60     		str	r3, [r5, #4]
 1728              		.loc 1 762 0
 1729 00bc 2B68     		ldr	r3, [r5]
 1730 00be 43F4A063 		orr	r3, r3, #1280
 1731              	.LBB416:
 1732              	.LBB417:
 1733              		.loc 2 667 0
 1734 00c2 5946     		mov	r1, fp
 1735 00c4 09F12000 		add	r0, r9, #32
 1736              	.LBE417:
 1737              	.LBE416:
 1738              		.loc 1 762 0
 1739 00c8 2B60     		str	r3, [r5]
 1740              	.LVL156:
 1741              		.loc 1 766 0
 1742 00ca BDE8F84F 		pop	{r3, r4, r5, r6, r7, r8, r9, r10, fp, lr}
 1743              		.cfi_restore 14
 1744              		.cfi_restore 11
 1745              		.cfi_restore 10
 1746              		.cfi_restore 9
 1747              		.cfi_restore 8
 1748              		.cfi_restore 7
 1749              		.cfi_restore 6
 1750              		.cfi_restore 5
 1751              		.cfi_restore 4
 1752              		.cfi_restore 3
 1753              		.cfi_def_cfa_offset 0
 1754              	.LVL157:
 1755              	.LBB419:
 1756              	.LBB418:
 1757              		.loc 2 667 0
 1758 00ce FFF7FEBF 		b	chThdSuspendTimeoutS
 1759              	.LVL158:
 1760              	.L158:
 1761 00d2 00BF     		.align	2
 1762              	.L157:
 1763 00d4 00000000 		.word	ch
 1764 00d8 00000000 		.word	.LANCHOR3
 1765              	.LBE418:
 1766              	.LBE419:
 1767              		.cfi_endproc
ARM GAS  C:\Users\stoma\AppData\Local\Temp\ccY5jHl3.s 			page 32


 1768              	.LFE268:
 1769              		.size	i2c_lld_master_receive_timeout, .-i2c_lld_master_receive_timeout
 1770              		.section	.text.i2c_lld_master_transmit_timeout,"ax",%progbits
 1771              		.align	1
 1772              		.p2align 4,,15
 1773              		.global	i2c_lld_master_transmit_timeout
 1774              		.syntax unified
 1775              		.thumb
 1776              		.thumb_func
 1777              		.fpu fpv4-sp-d16
 1778              		.type	i2c_lld_master_transmit_timeout, %function
 1779              	i2c_lld_master_transmit_timeout:
 1780              	.LFB269:
 1781              		.loc 1 796 0
 1782              		.cfi_startproc
 1783              		@ args = 12, pretend = 0, frame = 0
 1784              		@ frame_needed = 0, uses_anonymous_args = 0
 1785              	.LVL159:
 1786 0000 2DE9F84F 		push	{r3, r4, r5, r6, r7, r8, r9, r10, fp, lr}
 1787              		.cfi_def_cfa_offset 40
 1788              		.cfi_offset 3, -40
 1789              		.cfi_offset 4, -36
 1790              		.cfi_offset 5, -32
 1791              		.cfi_offset 6, -28
 1792              		.cfi_offset 7, -24
 1793              		.cfi_offset 8, -20
 1794              		.cfi_offset 9, -16
 1795              		.cfi_offset 10, -12
 1796              		.cfi_offset 11, -8
 1797              		.cfi_offset 14, -4
 1798              		.loc 1 796 0
 1799 0004 8146     		mov	r9, r0
 1800              		.loc 1 808 0
 1801 0006 4900     		lsls	r1, r1, #1
 1802              	.LVL160:
 1803              		.loc 1 805 0
 1804 0008 0020     		movs	r0, #0
 1805              	.LVL161:
 1806              	.LBB451:
 1807              	.LBB452:
 1808              	.LBB453:
 1809              		.loc 4 367 0
 1810 000a 364C     		ldr	r4, .L169
 1811              	.LBE453:
 1812              	.LBE452:
 1813              	.LBE451:
 1814              		.loc 1 808 0
 1815 000c A9F82410 		strh	r1, [r9, #36]	@ movhi
 1816              		.loc 1 805 0
 1817 0010 C9F80800 		str	r0, [r9, #8]
 1818              		.loc 1 796 0
 1819 0014 9846     		mov	r8, r3
 1820 0016 9246     		mov	r10, r2
 1821              		.loc 1 797 0
 1822 0018 D9F83850 		ldr	r5, [r9, #56]
 1823              	.LVL162:
 1824              		.loc 1 796 0
ARM GAS  C:\Users\stoma\AppData\Local\Temp\ccY5jHl3.s 			page 33


 1825 001c DDF830B0 		ldr	fp, [sp, #48]
 1826 0020 DDE90A67 		ldrd	r6, r7, [sp, #40]
 1827              	.LBB461:
 1828              	.LBB459:
 1829              	.LBB457:
 1830              		.loc 4 360 0
 1831 0024 FFF7FEFF 		bl	_dbg_check_unlock
 1832              	.LVL163:
 1833              		.loc 4 361 0
 1834 0028 FFF7FEFF 		bl	_stats_stop_measure_crit_thd
 1835              	.LVL164:
 1836              		.loc 4 367 0
 1837 002c 2368     		ldr	r3, [r4]
 1838 002e A342     		cmp	r3, r4
 1839 0030 04D0     		beq	.L160
 1840 0032 A269     		ldr	r2, [r4, #24]
 1841 0034 9B68     		ldr	r3, [r3, #8]
 1842 0036 9268     		ldr	r2, [r2, #8]
 1843 0038 9A42     		cmp	r2, r3
 1844 003a 3FD3     		bcc	.L167
 1845              	.L160:
 1846              	.LVL165:
 1847              	.LBB454:
 1848              	.LBB455:
 1849              	.LBB456:
 1850              		.loc 3 546 0
 1851 003c 0020     		movs	r0, #0
 1852              		.syntax unified
 1853              	@ 546 "../../lib/ChibiOS/os/ext/CMSIS/include/core_cmFunc.h" 1
 1854 003e 80F31188 		MSR basepri, r0
 1855              	@ 0 "" 2
 1856              	.LVL166:
 1857              		.thumb
 1858              		.syntax unified
 1859              	.LBE456:
 1860              	.LBE455:
 1861              	.LBE454:
 1862              	.LBE457:
 1863              	.LBE459:
 1864              	.LBE461:
 1865              		.loc 1 819 0
 1866 0042 D9E90C32 		ldrd	r3, r2, [r9, #48]
 1867              		.loc 1 814 0
 1868 0046 1268     		ldr	r2, [r2]
 1869 0048 D9F82C10 		ldr	r1, [r9, #44]
 1870              		.loc 1 819 0
 1871 004c 1B68     		ldr	r3, [r3]
 1872              		.loc 1 814 0
 1873 004e 1160     		str	r1, [r2]
 1874              		.loc 1 819 0
 1875 0050 D9F82810 		ldr	r1, [r9, #40]
 1876              		.loc 1 815 0
 1877 0054 C2F80CA0 		str	r10, [r2, #12]
 1878              		.loc 1 816 0
 1879 0058 C2F80480 		str	r8, [r2, #4]
 1880              		.loc 1 819 0
 1881 005c 1960     		str	r1, [r3]
ARM GAS  C:\Users\stoma\AppData\Local\Temp\ccY5jHl3.s 			page 34


 1882              		.loc 1 820 0
 1883 005e DE60     		str	r6, [r3, #12]
 1884              		.loc 1 821 0
 1885 0060 5F60     		str	r7, [r3, #4]
 1886              	.LBB462:
 1887              	.LBB463:
 1888              	.LBB464:
 1889              		.loc 5 231 0
 1890 0062 D4F82880 		ldr	r8, [r4, #40]
 1891              	.LVL167:
 1892              	.LBE464:
 1893              	.LBE463:
 1894              	.LBE462:
 1895              	.LBB465:
 1896              	.LBB466:
 1897              	.LBB467:
 1898              		.loc 4 367 0
 1899 0066 DFF880A0 		ldr	r10, .L169+4
 1900              	.LVL168:
 1901              	.LBB468:
 1902              	.LBB469:
 1903              	.LBB470:
 1904              		.loc 3 546 0
 1905 006a 0646     		mov	r6, r0
 1906              	.LBE470:
 1907              	.LBE469:
 1908              	.LBE468:
 1909              	.LBE467:
 1910              	.LBE466:
 1911              	.LBE465:
 1912              	.LBB476:
 1913              	.LBB477:
 1914              	.LBB478:
 1915              	.LBB479:
 1916              	.LBB480:
 1917              	.LBB481:
 1918 006c 2027     		movs	r7, #32
 1919 006e 10E0     		b	.L165
 1920              	.L168:
 1921              	.LBE481:
 1922              	.LBE480:
 1923              	.LBE479:
 1924              	.LBE478:
 1925              	.LBE477:
 1926              	.LBE476:
 1927              	.LBB487:
 1928              	.LBB475:
 1929              	.LBB474:
 1930              		.loc 4 360 0
 1931 0070 FFF7FEFF 		bl	_dbg_check_unlock
 1932              	.LVL169:
 1933              		.loc 4 361 0
 1934 0074 FFF7FEFF 		bl	_stats_stop_measure_crit_thd
 1935              	.LVL170:
 1936              		.loc 4 367 0
 1937 0078 2368     		ldr	r3, [r4]
 1938 007a A342     		cmp	r3, r4
ARM GAS  C:\Users\stoma\AppData\Local\Temp\ccY5jHl3.s 			page 35


 1939 007c 07D0     		beq	.L164
 1940 007e A269     		ldr	r2, [r4, #24]
 1941 0080 9B68     		ldr	r3, [r3, #8]
 1942 0082 9268     		ldr	r2, [r2, #8]
 1943 0084 9A42     		cmp	r2, r3
 1944 0086 02D2     		bcs	.L164
 1945 0088 5046     		mov	r0, r10
 1946 008a FFF7FEFF 		bl	chSysHalt
 1947              	.LVL171:
 1948              	.L164:
 1949              	.LBB473:
 1950              	.LBB472:
 1951              	.LBB471:
 1952              		.loc 3 546 0
 1953              		.syntax unified
 1954              	@ 546 "../../lib/ChibiOS/os/ext/CMSIS/include/core_cmFunc.h" 1
 1955 008e 86F31188 		MSR basepri, r6
 1956              	@ 0 "" 2
 1957              	.LVL172:
 1958              		.thumb
 1959              		.syntax unified
 1960              	.L165:
 1961              	.LBE471:
 1962              	.LBE472:
 1963              	.LBE473:
 1964              	.LBE474:
 1965              	.LBE475:
 1966              	.LBE487:
 1967              	.LBB488:
 1968              	.LBB486:
 1969              	.LBB485:
 1970              	.LBB484:
 1971              	.LBB483:
 1972              	.LBB482:
 1973              		.syntax unified
 1974              	@ 546 "../../lib/ChibiOS/os/ext/CMSIS/include/core_cmFunc.h" 1
 1975 0092 87F31188 		MSR basepri, r7
 1976              	@ 0 "" 2
 1977              	.LVL173:
 1978              		.thumb
 1979              		.syntax unified
 1980              	.LBE482:
 1981              	.LBE483:
 1982              	.LBE484:
 1983              		.loc 4 349 0
 1984 0096 FFF7FEFF 		bl	_stats_start_measure_crit_thd
 1985              	.LVL174:
 1986              		.loc 4 350 0
 1987 009a FFF7FEFF 		bl	_dbg_check_lock
 1988              	.LVL175:
 1989              	.LBE485:
 1990              	.LBE486:
 1991              	.LBE488:
 1992              		.loc 1 834 0
 1993 009e AB69     		ldr	r3, [r5, #24]
 1994 00a0 9A07     		lsls	r2, r3, #30
 1995 00a2 02D4     		bmi	.L161
ARM GAS  C:\Users\stoma\AppData\Local\Temp\ccY5jHl3.s 			page 36


 1996              		.loc 1 834 0 is_stmt 0 discriminator 1
 1997 00a4 2B68     		ldr	r3, [r5]
 1998 00a6 9B05     		lsls	r3, r3, #22
 1999 00a8 0CD5     		bpl	.L162
 2000              	.L161:
 2001              	.LBB489:
 2002              	.LBB490:
 2003              	.LBB491:
 2004              		.loc 5 231 0 is_stmt 1
 2005 00aa A36A     		ldr	r3, [r4, #40]
 2006              	.LBE491:
 2007              	.LBE490:
 2008              	.LBE489:
 2009              	.LBB492:
 2010              	.LBB493:
 2011              	.LBB494:
 2012              		.loc 5 288 0
 2013 00ac A3EB0803 		sub	r3, r3, r8
 2014              	.LBE494:
 2015              	.LBE493:
 2016              	.LBE492:
 2017              		.loc 1 839 0
 2018 00b0 312B     		cmp	r3, #49
 2019 00b2 DDD9     		bls	.L168
 2020              		.loc 1 851 0
 2021 00b4 4FF0FF30 		mov	r0, #-1
 2022 00b8 BDE8F88F 		pop	{r3, r4, r5, r6, r7, r8, r9, r10, fp, pc}
 2023              	.LVL176:
 2024              	.L167:
 2025              	.LBB495:
 2026              	.LBB460:
 2027              	.LBB458:
 2028              		.loc 4 367 0
 2029 00bc 0A48     		ldr	r0, .L169+4
 2030 00be FFF7FEFF 		bl	chSysHalt
 2031              	.LVL177:
 2032 00c2 BBE7     		b	.L160
 2033              	.LVL178:
 2034              	.L162:
 2035              	.LBE458:
 2036              	.LBE460:
 2037              	.LBE495:
 2038              		.loc 1 846 0
 2039 00c4 6B68     		ldr	r3, [r5, #4]
 2040 00c6 43F40073 		orr	r3, r3, #512
 2041 00ca 6B60     		str	r3, [r5, #4]
 2042              		.loc 1 847 0
 2043 00cc 2B68     		ldr	r3, [r5]
 2044 00ce 43F48073 		orr	r3, r3, #256
 2045              	.LBB496:
 2046              	.LBB497:
 2047              		.loc 2 667 0
 2048 00d2 5946     		mov	r1, fp
 2049 00d4 09F12000 		add	r0, r9, #32
 2050              	.LBE497:
 2051              	.LBE496:
 2052              		.loc 1 847 0
ARM GAS  C:\Users\stoma\AppData\Local\Temp\ccY5jHl3.s 			page 37


 2053 00d8 2B60     		str	r3, [r5]
 2054              	.LVL179:
 2055              		.loc 1 851 0
 2056 00da BDE8F84F 		pop	{r3, r4, r5, r6, r7, r8, r9, r10, fp, lr}
 2057              		.cfi_restore 14
 2058              		.cfi_restore 11
 2059              		.cfi_restore 10
 2060              		.cfi_restore 9
 2061              		.cfi_restore 8
 2062              		.cfi_restore 7
 2063              		.cfi_restore 6
 2064              		.cfi_restore 5
 2065              		.cfi_restore 4
 2066              		.cfi_restore 3
 2067              		.cfi_def_cfa_offset 0
 2068              	.LVL180:
 2069              	.LBB499:
 2070              	.LBB498:
 2071              		.loc 2 667 0
 2072 00de FFF7FEBF 		b	chThdSuspendTimeoutS
 2073              	.LVL181:
 2074              	.L170:
 2075 00e2 00BF     		.align	2
 2076              	.L169:
 2077 00e4 00000000 		.word	ch
 2078 00e8 00000000 		.word	.LANCHOR3
 2079              	.LBE498:
 2080              	.LBE499:
 2081              		.cfi_endproc
 2082              	.LFE269:
 2083              		.size	i2c_lld_master_transmit_timeout, .-i2c_lld_master_transmit_timeout
 2084              		.global	I2CD1
 2085              		.section	.bss.I2CD1,"aw",%nobits
 2086              		.align	2
 2087              		.set	.LANCHOR0,. + 0
 2088              		.type	I2CD1, %object
 2089              		.size	I2CD1, 60
 2090              	I2CD1:
 2091 0000 00000000 		.space	60
 2091      00000000 
 2091      00000000 
 2091      00000000 
 2091      00000000 
 2092              		.section	.rodata.__func__.7153,"a",%progbits
 2093              		.align	2
 2094              		.set	.LANCHOR3,. + 0
 2095              		.type	__func__.7153, %object
 2096              		.size	__func__.7153, 12
 2097              	__func__.7153:
 2098 0000 63685379 		.ascii	"chSysUnlock\000"
 2098      73556E6C 
 2098      6F636B00 
 2099              		.section	.rodata.__func__.8899,"a",%progbits
 2100              		.align	2
 2101              		.set	.LANCHOR2,. + 0
 2102              		.type	__func__.8899, %object
 2103              		.size	__func__.8899, 18
ARM GAS  C:\Users\stoma\AppData\Local\Temp\ccY5jHl3.s 			page 38


 2104              	__func__.8899:
 2105 0000 6932635F 		.ascii	"i2c_lld_set_clock\000"
 2105      6C6C645F 
 2105      7365745F 
 2105      636C6F63 
 2105      6B00
 2106              		.section	.rodata.__func__.8964,"a",%progbits
 2107              		.align	2
 2108              		.set	.LANCHOR1,. + 0
 2109              		.type	__func__.8964, %object
 2110              		.size	__func__.8964, 14
 2111              	__func__.8964:
 2112 0000 6932635F 		.ascii	"i2c_lld_start\000"
 2112      6C6C645F 
 2112      73746172 
 2112      7400
 2113              		.section	.rodata.i2c_lld_serve_tx_end_irq.str1.4,"aMS",%progbits,1
 2114              		.align	2
 2115              	.LC0:
 2116 0000 444D4120 		.ascii	"DMA failure\000"
 2116      6661696C 
 2116      75726500 
 2117              		.text
 2118              	.Letext0:
 2119              		.file 6 "c:\\users\\stoma\\desktop\\eclipse_e-puck2\\tools\\gcc-arm-none-eabi-7-2017-q4-major-win3
 2120              		.file 7 "c:\\users\\stoma\\desktop\\eclipse_e-puck2\\tools\\gcc-arm-none-eabi-7-2017-q4-major-win3
 2121              		.file 8 "c:\\users\\stoma\\desktop\\eclipse_e-puck2\\tools\\gcc-arm-none-eabi-7-2017-q4-major-win3
 2122              		.file 9 "../../lib/ChibiOS/os/rt/ports/ARMCMx/compilers/GCC/chtypes.h"
 2123              		.file 10 "../../lib/ChibiOS/os/rt/include/chsystypes.h"
 2124              		.file 11 "../../lib/ChibiOS/os/rt/include/chschd.h"
 2125              		.file 12 "../../lib/ChibiOS/os/ext/CMSIS/include/core_cm4.h"
 2126              		.file 13 "../../lib/ChibiOS/os/ext/CMSIS/ST/system_stm32f4xx.h"
 2127              		.file 14 "../../lib/ChibiOS/os/ext/CMSIS/ST/stm32f407xx.h"
 2128              		.file 15 "../../lib/ChibiOS/os/rt/ports/ARMCMx/chcore.h"
 2129              		.file 16 "../../lib/ChibiOS/os/rt/ports/ARMCMx/chcore_v7m.h"
 2130              		.file 17 "../../lib/ChibiOS/os/rt/include/chdebug.h"
 2131              		.file 18 "../../lib/ChibiOS/os/rt/include/chtm.h"
 2132              		.file 19 "../../lib/ChibiOS/os/rt/include/chstats.h"
 2133              		.file 20 "../../lib/ChibiOS/os/rt/include/chsem.h"
 2134              		.file 21 "../../lib/ChibiOS/os/rt/include/chmtx.h"
 2135              		.file 22 "../../lib/ChibiOS/os/rt/include/chregistry.h"
 2136              		.file 23 "../../lib/ChibiOS/os/rt/include/chevents.h"
 2137              		.file 24 "../../lib/ChibiOS/os/rt/include/chqueues.h"
 2138              		.file 25 "../../lib/ChibiOS/os/hal/ports/STM32/STM32F4xx/stm32_dma.h"
 2139              		.file 26 "../../lib/ChibiOS/os/hal/ports/STM32/LLD/GPIOv2/pal_lld.h"
 2140              		.file 27 "../../lib/ChibiOS/os/hal/include/gpt.h"
 2141              		.file 28 "../../lib/ChibiOS/os/hal/ports/STM32/LLD/TIMv1/gpt_lld.h"
 2142              		.file 29 "../../lib/ChibiOS/os/hal/ports/STM32/LLD/TIMv1/stm32_tim.h"
 2143              		.file 30 "../../lib/ChibiOS/os/hal/include/i2c.h"
 2144              		.file 31 "../../lib/ChibiOS/os/hal/ports/STM32/LLD/I2Cv1/i2c_lld.h"
 2145              		.file 32 "../../lib/ChibiOS/os/hal/include/serial.h"
 2146              		.file 33 "../../lib/ChibiOS/os/hal/ports/STM32/LLD/USARTv1/serial_lld.h"
 2147              		.file 34 "../../lib/ChibiOS/os/hal/include/usb.h"
 2148              		.file 35 "../../lib/ChibiOS/os/hal/ports/STM32/LLD/OTGv1/usb_lld.h"
 2149              		.file 36 "../../lib/ChibiOS/os/hal/ports/STM32/LLD/OTGv1/stm32_otg.h"
 2150              		.file 37 "../../lib/ChibiOS/os/rt/include/chthreads.h"
 2151              		.file 38 "../../lib/ChibiOS/os/hal/ports/common/ARMCMx/nvic.h"
ARM GAS  C:\Users\stoma\AppData\Local\Temp\ccY5jHl3.s 			page 39

