ARM GAS  /var/folders/km/q6jdms0143g2bddz5bhvdfd00000gn/T//ccPr0wH1.s 			page 1


   1              		.cpu cortex-m4
   2              		.eabi_attribute 27, 1
   3              		.eabi_attribute 28, 1
   4              		.eabi_attribute 20, 1
   5              		.eabi_attribute 21, 1
   6              		.eabi_attribute 23, 3
   7              		.eabi_attribute 24, 1
   8              		.eabi_attribute 25, 1
   9              		.eabi_attribute 26, 1
  10              		.eabi_attribute 30, 2
  11              		.eabi_attribute 34, 1
  12              		.eabi_attribute 18, 4
  13              		.file	"imu.c"
  14              		.text
  15              	.Ltext0:
  16              		.cfi_sections	.debug_frame
  17              		.section	.text.imu_reader_thd,"ax",%progbits
  18              		.align	1
  19              		.p2align 4,,15
  20              		.syntax unified
  21              		.thumb
  22              		.thumb_func
  23              		.fpu fpv4-sp-d16
  24              		.type	imu_reader_thd, %function
  25              	imu_reader_thd:
  26              	.LFB257:
  27              		.file 1 "imu.c"
  28              		.loc 1 33 0
  29              		.cfi_startproc
  30              		@ args = 0, pretend = 0, frame = 120
  31              		@ frame_needed = 0, uses_anonymous_args = 0
  32              	.LVL0:
  33 0000 2DE9F043 		push	{r4, r5, r6, r7, r8, r9, lr}
  34              		.cfi_def_cfa_offset 28
  35              		.cfi_offset 4, -28
  36              		.cfi_offset 5, -24
  37              		.cfi_offset 6, -20
  38              		.cfi_offset 7, -16
  39              		.cfi_offset 8, -12
  40              		.cfi_offset 9, -8
  41              		.cfi_offset 14, -4
  42              	.LBB60:
  43              	.LBB61:
  44              		.file 2 "../../lib/ChibiOS/os/rt/include/chregistry.h"
  45              		.loc 2 135 0
  46 0004 2E4C     		ldr	r4, .L13
  47 0006 2F49     		ldr	r1, .L13+4
  48 0008 A269     		ldr	r2, [r4, #24]
  49              	.LBE61:
  50              	.LBE60:
  51              		.loc 1 41 0
  52 000a 2F4B     		ldr	r3, .L13+8
  53              	.LBB63:
  54              	.LBB62:
  55              		.loc 2 135 0
  56 000c 9161     		str	r1, [r2, #24]
  57              	.LVL1:
ARM GAS  /var/folders/km/q6jdms0143g2bddz5bhvdfd00000gn/T//ccPr0wH1.s 			page 2


  58              	.LBE62:
  59              	.LBE63:
  60              		.loc 1 33 0
  61 000e A1B0     		sub	sp, sp, #132
  62              		.cfi_def_cfa_offset 160
  63              		.loc 1 39 0
  64 0010 04A8     		add	r0, sp, #16
  65              	.LVL2:
  66              		.loc 1 40 0
  67 0012 02AD     		add	r5, sp, #8
  68              		.loc 1 41 0
  69 0014 5022     		movs	r2, #80
  70 0016 0146     		mov	r1, r0
  71 0018 0092     		str	r2, [sp]
  72              		.loc 1 39 0
  73 001a CDE90400 		strd	r0, r0, [sp, #16]
  74              		.loc 1 41 0
  75 001e 2A46     		mov	r2, r5
  76 0020 09A8     		add	r0, sp, #36
  77              		.loc 1 40 0
  78 0022 CDE90255 		strd	r5, r5, [sp, #8]
  79              		.loc 1 39 0
  80 0026 0025     		movs	r5, #0
  81 0028 CDE90655 		strd	r5, r5, [sp, #24]
  82 002c 0895     		str	r5, [sp, #32]
  83              		.loc 1 41 0
  84 002e FFF7FEFF 		bl	messagebus_topic_init
  85              	.LVL3:
  86              		.loc 1 42 0
  87 0032 264A     		ldr	r2, .L13+12
  88 0034 2648     		ldr	r0, .L13+16
  89 0036 09A9     		add	r1, sp, #36
  90 0038 FFF7FEFF 		bl	messagebus_advertise_topic
  91              	.LVL4:
  92              	.LBB64:
  93              	.LBB65:
  94              		.file 3 "../../lib/ChibiOS/os/rt/include/chthreads.h"
  95              		.loc 3 233 0
  96 003c A369     		ldr	r3, [r4, #24]
  97              	.LBE65:
  98              	.LBE64:
  99              		.loc 1 46 0
 100 003e 93F82130 		ldrb	r3, [r3, #33]	@ zero_extendqisi2
 101 0042 5A07     		lsls	r2, r3, #29
 102 0044 38D4     		bmi	.L1
 103              		.loc 1 51 0
 104 0046 DFF89480 		ldr	r8, .L13+28
 105 004a 224F     		ldr	r7, .L13+20
 106              	.LBB67:
 107              	.LBB68:
 108              	.LBB69:
 109              	.LBB70:
 110              		.file 4 "../../lib/ChibiOS/os/rt/include/chsys.h"
 111              		.loc 4 367 0
 112 004c DFF89090 		ldr	r9, .L13+32
 113              	.LBE70:
 114              	.LBE69:
ARM GAS  /var/folders/km/q6jdms0143g2bddz5bhvdfd00000gn/T//ccPr0wH1.s 			page 3


 115              	.LBE68:
 116              	.LBE67:
 117              		.loc 1 57 0
 118 0050 A8F14C06 		sub	r6, r8, #76
 119 0054 0DE0     		b	.L5
 120              	.L4:
 121 0056 5022     		movs	r2, #80
 122 0058 3146     		mov	r1, r6
 123 005a 09A8     		add	r0, sp, #36
 124 005c FFF7FEFF 		bl	messagebus_topic_publish
 125              	.LVL5:
 126              		.loc 1 59 0
 127 0060 291D     		adds	r1, r5, #4
 128 0062 2846     		mov	r0, r5
 129 0064 FFF7FEFF 		bl	chThdSleepUntilWindowed
 130              	.LVL6:
 131              	.LBB84:
 132              	.LBB66:
 133              		.loc 3 233 0
 134 0068 A369     		ldr	r3, [r4, #24]
 135              	.LBE66:
 136              	.LBE84:
 137              		.loc 1 46 0
 138 006a 93F82130 		ldrb	r3, [r3, #33]	@ zero_extendqisi2
 139 006e 5B07     		lsls	r3, r3, #29
 140 0070 22D4     		bmi	.L1
 141              	.L5:
 142              	.LVL7:
 143              	.LBB85:
 144              	.LBB83:
 145              	.LBB75:
 146              	.LBB76:
 147              	.LBB77:
 148              	.LBB78:
 149              	.LBB79:
 150              		.file 5 "../../lib/ChibiOS/os/ext/CMSIS/include/core_cmFunc.h"
 151              		.loc 5 546 0
 152 0072 2023     		movs	r3, #32
 153              		.syntax unified
 154              	@ 546 "../../lib/ChibiOS/os/ext/CMSIS/include/core_cmFunc.h" 1
 155 0074 83F31188 		MSR basepri, r3
 156              	@ 0 "" 2
 157              	.LVL8:
 158              		.thumb
 159              		.syntax unified
 160              	.LBE79:
 161              	.LBE78:
 162              	.LBE77:
 163              		.loc 4 349 0
 164 0078 FFF7FEFF 		bl	_stats_start_measure_crit_thd
 165              	.LVL9:
 166              		.loc 4 350 0
 167 007c FFF7FEFF 		bl	_dbg_check_lock
 168              	.LVL10:
 169              	.LBE76:
 170              	.LBE75:
 171              	.LBB80:
ARM GAS  /var/folders/km/q6jdms0143g2bddz5bhvdfd00000gn/T//ccPr0wH1.s 			page 4


 172              	.LBB81:
 173              		.file 6 "../../lib/ChibiOS/os/rt/include/chvt.h"
 174              		.loc 6 231 0
 175 0080 A56A     		ldr	r5, [r4, #40]
 176              	.LBE81:
 177              	.LBE80:
 178              	.LBB82:
 179              	.LBB74:
 180              		.loc 4 360 0
 181 0082 FFF7FEFF 		bl	_dbg_check_unlock
 182              	.LVL11:
 183              		.loc 4 361 0
 184 0086 FFF7FEFF 		bl	_stats_stop_measure_crit_thd
 185              	.LVL12:
 186              		.loc 4 367 0
 187 008a 2368     		ldr	r3, [r4]
 188 008c A342     		cmp	r3, r4
 189 008e 07D0     		beq	.L3
 190 0090 A269     		ldr	r2, [r4, #24]
 191 0092 9B68     		ldr	r3, [r3, #8]
 192 0094 9268     		ldr	r2, [r2, #8]
 193 0096 9A42     		cmp	r2, r3
 194 0098 02D2     		bcs	.L3
 195 009a 4846     		mov	r0, r9
 196 009c FFF7FEFF 		bl	chSysHalt
 197              	.LVL13:
 198              	.L3:
 199              	.LBB71:
 200              	.LBB72:
 201              	.LBB73:
 202              		.loc 5 546 0
 203 00a0 0023     		movs	r3, #0
 204              		.syntax unified
 205              	@ 546 "../../lib/ChibiOS/os/ext/CMSIS/include/core_cmFunc.h" 1
 206 00a2 83F31188 		MSR basepri, r3
 207              	@ 0 "" 2
 208              	.LVL14:
 209              		.thumb
 210              		.syntax unified
 211              	.LBE73:
 212              	.LBE72:
 213              	.LBE71:
 214              	.LBE74:
 215              	.LBE82:
 216              	.LBE83:
 217              	.LBE85:
 218              		.loc 1 49 0
 219 00a6 3B78     		ldrb	r3, [r7]	@ zero_extendqisi2
 220 00a8 002B     		cmp	r3, #0
 221 00aa D4D0     		beq	.L4
 222              		.loc 1 51 0
 223 00ac 0A49     		ldr	r1, .L13+24
 224 00ae 4246     		mov	r2, r8
 225 00b0 881D     		adds	r0, r1, #6
 226 00b2 FFF7FEFF 		bl	mpu9250_read
 227              	.LVL15:
 228 00b6 CEE7     		b	.L4
ARM GAS  /var/folders/km/q6jdms0143g2bddz5bhvdfd00000gn/T//ccPr0wH1.s 			page 5


 229              	.L1:
 230              		.loc 1 62 0
 231 00b8 21B0     		add	sp, sp, #132
 232              		.cfi_def_cfa_offset 28
 233              		@ sp needed
 234 00ba BDE8F083 		pop	{r4, r5, r6, r7, r8, r9, pc}
 235              	.L14:
 236 00be 00BF     		.align	2
 237              	.L13:
 238 00c0 00000000 		.word	ch
 239 00c4 00000000 		.word	.LANCHOR0
 240 00c8 00000000 		.word	.LANCHOR1
 241 00cc 00000000 		.word	.LC0
 242 00d0 00000000 		.word	bus
 243 00d4 00000000 		.word	.LANCHOR3
 244 00d8 28000000 		.word	.LANCHOR1+40
 245 00dc 4C000000 		.word	.LANCHOR1+76
 246 00e0 00000000 		.word	.LANCHOR2
 247              		.cfi_endproc
 248              	.LFE257:
 249              		.size	imu_reader_thd, .-imu_reader_thd
 250              		.section	.text.imu_compute_units,"ax",%progbits
 251              		.align	1
 252              		.p2align 4,,15
 253              		.global	imu_compute_units
 254              		.syntax unified
 255              		.thumb
 256              		.thumb_func
 257              		.fpu fpv4-sp-d16
 258              		.type	imu_compute_units, %function
 259              	imu_compute_units:
 260              	.LFB256:
 261              		.loc 1 24 0
 262              		.cfi_startproc
 263              		@ args = 0, pretend = 0, frame = 0
 264              		@ frame_needed = 0, uses_anonymous_args = 0
 265              		@ link register save eliminated.
 266              		.loc 1 28 0
 267 0000 7047     		bx	lr
 268              		.cfi_endproc
 269              	.LFE256:
 270              		.size	imu_compute_units, .-imu_compute_units
 271 0002 00BF     		.section	.text.imu_start,"ax",%progbits
 272              		.align	1
 273              		.p2align 4,,15
 274              		.global	imu_start
 275              		.syntax unified
 276              		.thumb
 277              		.thumb_func
 278              		.fpu fpv4-sp-d16
 279              		.type	imu_start, %function
 280              	imu_start:
 281              	.LFB258:
 282              		.loc 1 70 0
 283              		.cfi_startproc
 284              		@ args = 0, pretend = 0, frame = 0
 285              		@ frame_needed = 0, uses_anonymous_args = 0
ARM GAS  /var/folders/km/q6jdms0143g2bddz5bhvdfd00000gn/T//ccPr0wH1.s 			page 6


 286              	.LVL16:
 287 0000 00B5     		push	{lr}
 288              		.cfi_def_cfa_offset 4
 289              		.cfi_offset 14, -4
 290              		.loc 1 73 0
 291 0002 4FF4C840 		mov	r0, #25600
 292              		.loc 1 70 0
 293 0006 83B0     		sub	sp, sp, #12
 294              		.cfi_def_cfa_offset 16
 295              		.loc 1 73 0
 296 0008 FFF7FEFF 		bl	mpu9250_setup
 297              	.LVL17:
 298              		.loc 1 84 0
 299 000c 10B9     		cbnz	r0, .L17
 300              		.loc 1 85 0
 301 000e 084B     		ldr	r3, .L19
 302 0010 0122     		movs	r2, #1
 303 0012 1A70     		strb	r2, [r3]
 304              	.L17:
 305              		.loc 1 89 0
 306 0014 0023     		movs	r3, #0
 307 0016 0093     		str	r3, [sp]
 308 0018 4022     		movs	r2, #64
 309 001a 064B     		ldr	r3, .L19+4
 310 001c 0648     		ldr	r0, .L19+8
 311              	.LVL18:
 312 001e 4FF4AF61 		mov	r1, #1400
 313 0022 FFF7FEFF 		bl	chThdCreateStatic
 314              	.LVL19:
 315 0026 054B     		ldr	r3, .L19+12
 316 0028 1860     		str	r0, [r3]
 317              		.loc 1 90 0
 318 002a 03B0     		add	sp, sp, #12
 319              		.cfi_def_cfa_offset 4
 320              		@ sp needed
 321 002c 5DF804FB 		ldr	pc, [sp], #4
 322              	.L20:
 323              		.align	2
 324              	.L19:
 325 0030 00000000 		.word	.LANCHOR3
 326 0034 00000000 		.word	imu_reader_thd
 327 0038 00000000 		.word	.LANCHOR4
 328 003c 00000000 		.word	.LANCHOR5
 329              		.cfi_endproc
 330              	.LFE258:
 331              		.size	imu_start, .-imu_start
 332              		.section	.text.imu_stop,"ax",%progbits
 333              		.align	1
 334              		.p2align 4,,15
 335              		.global	imu_stop
 336              		.syntax unified
 337              		.thumb
 338              		.thumb_func
 339              		.fpu fpv4-sp-d16
 340              		.type	imu_stop, %function
 341              	imu_stop:
 342              	.LFB259:
ARM GAS  /var/folders/km/q6jdms0143g2bddz5bhvdfd00000gn/T//ccPr0wH1.s 			page 7


 343              		.loc 1 92 0
 344              		.cfi_startproc
 345              		@ args = 0, pretend = 0, frame = 0
 346              		@ frame_needed = 0, uses_anonymous_args = 0
 347 0000 10B5     		push	{r4, lr}
 348              		.cfi_def_cfa_offset 8
 349              		.cfi_offset 4, -8
 350              		.cfi_offset 14, -4
 351              		.loc 1 93 0
 352 0002 054C     		ldr	r4, .L23
 353 0004 2068     		ldr	r0, [r4]
 354 0006 FFF7FEFF 		bl	chThdTerminate
 355              	.LVL20:
 356              		.loc 1 94 0
 357 000a 2068     		ldr	r0, [r4]
 358 000c FFF7FEFF 		bl	chThdWait
 359              	.LVL21:
 360              		.loc 1 95 0
 361 0010 0023     		movs	r3, #0
 362 0012 2360     		str	r3, [r4]
 363              		.loc 1 96 0
 364 0014 10BD     		pop	{r4, pc}
 365              	.L24:
 366 0016 00BF     		.align	2
 367              	.L23:
 368 0018 00000000 		.word	.LANCHOR5
 369              		.cfi_endproc
 370              	.LFE259:
 371              		.size	imu_stop, .-imu_stop
 372              		.section	.text.imu_compute_offset,"ax",%progbits
 373              		.align	1
 374              		.p2align 4,,15
 375              		.global	imu_compute_offset
 376              		.syntax unified
 377              		.thumb
 378              		.thumb_func
 379              		.fpu fpv4-sp-d16
 380              		.type	imu_compute_offset, %function
 381              	imu_compute_offset:
 382              	.LFB260:
 383              		.loc 1 98 0
 384              		.cfi_startproc
 385              		@ args = 0, pretend = 0, frame = 0
 386              		@ frame_needed = 0, uses_anonymous_args = 0
 387              		@ link register save eliminated.
 388              	.LVL22:
 389              		.loc 1 103 0
 390 0000 7047     		bx	lr
 391              		.cfi_endproc
 392              	.LFE260:
 393              		.size	imu_compute_offset, .-imu_compute_offset
 394 0002 00BF     		.section	.text.get_acc,"ax",%progbits
 395              		.align	1
 396              		.p2align 4,,15
 397              		.global	get_acc
 398              		.syntax unified
 399              		.thumb
ARM GAS  /var/folders/km/q6jdms0143g2bddz5bhvdfd00000gn/T//ccPr0wH1.s 			page 8


 400              		.thumb_func
 401              		.fpu fpv4-sp-d16
 402              		.type	get_acc, %function
 403              	get_acc:
 404              	.LFB261:
 405              		.loc 1 105 0
 406              		.cfi_startproc
 407              		@ args = 0, pretend = 0, frame = 0
 408              		@ frame_needed = 0, uses_anonymous_args = 0
 409              		@ link register save eliminated.
 410              	.LVL23:
 411              		.loc 1 106 0
 412 0000 0228     		cmp	r0, #2
 413              		.loc 1 107 0
 414 0002 9DBF     		ittte	ls
 415 0004 1430     		addls	r0, r0, #20
 416              	.LVL24:
 417 0006 024B     		ldrls	r3, .L29
 418 0008 33F91000 		ldrshls	r0, [r3, r0, lsl #1]
 419              		.loc 1 109 0
 420 000c 0020     		movhi	r0, #0
 421              		.loc 1 110 0
 422 000e 7047     		bx	lr
 423              	.L30:
 424              		.align	2
 425              	.L29:
 426 0010 00000000 		.word	.LANCHOR1
 427              		.cfi_endproc
 428              	.LFE261:
 429              		.size	get_acc, .-get_acc
 430              		.section	.text.get_acc_all,"ax",%progbits
 431              		.align	1
 432              		.p2align 4,,15
 433              		.global	get_acc_all
 434              		.syntax unified
 435              		.thumb
 436              		.thumb_func
 437              		.fpu fpv4-sp-d16
 438              		.type	get_acc_all, %function
 439              	get_acc_all:
 440              	.LFB262:
 441              		.loc 1 112 0
 442              		.cfi_startproc
 443              		@ args = 0, pretend = 0, frame = 0
 444              		@ frame_needed = 0, uses_anonymous_args = 0
 445              		@ link register save eliminated.
 446              	.LVL25:
 447              		.loc 1 113 0
 448 0000 054B     		ldr	r3, .L32
 449 0002 B3F92820 		ldrsh	r2, [r3, #40]
 450 0006 0280     		strh	r2, [r0]	@ movhi
 451              		.loc 1 114 0
 452 0008 B3F92A20 		ldrsh	r2, [r3, #42]
 453 000c 4280     		strh	r2, [r0, #2]	@ movhi
 454              		.loc 1 115 0
 455 000e B3F92C30 		ldrsh	r3, [r3, #44]
 456 0012 8380     		strh	r3, [r0, #4]	@ movhi
ARM GAS  /var/folders/km/q6jdms0143g2bddz5bhvdfd00000gn/T//ccPr0wH1.s 			page 9


 457              		.loc 1 116 0
 458 0014 7047     		bx	lr
 459              	.L33:
 460 0016 00BF     		.align	2
 461              	.L32:
 462 0018 00000000 		.word	.LANCHOR1
 463              		.cfi_endproc
 464              	.LFE262:
 465              		.size	get_acc_all, .-get_acc_all
 466              		.section	.text.get_acc_offset,"ax",%progbits
 467              		.align	1
 468              		.p2align 4,,15
 469              		.global	get_acc_offset
 470              		.syntax unified
 471              		.thumb
 472              		.thumb_func
 473              		.fpu fpv4-sp-d16
 474              		.type	get_acc_offset, %function
 475              	get_acc_offset:
 476              	.LFB263:
 477              		.loc 1 119 0
 478              		.cfi_startproc
 479              		@ args = 0, pretend = 0, frame = 0
 480              		@ frame_needed = 0, uses_anonymous_args = 0
 481              		@ link register save eliminated.
 482              	.LVL26:
 483              		.loc 1 120 0
 484 0000 0228     		cmp	r0, #2
 485              		.loc 1 121 0
 486 0002 9DBF     		ittte	ls
 487 0004 034B     		ldrls	r3, .L37
 488 0006 03EB4000 		addls	r0, r3, r0, lsl #1
 489              	.LVL27:
 490 000a B0F93400 		ldrshls	r0, [r0, #52]
 491              		.loc 1 123 0
 492 000e 0020     		movhi	r0, #0
 493              		.loc 1 124 0
 494 0010 7047     		bx	lr
 495              	.L38:
 496 0012 00BF     		.align	2
 497              	.L37:
 498 0014 00000000 		.word	.LANCHOR1
 499              		.cfi_endproc
 500              	.LFE263:
 501              		.size	get_acc_offset, .-get_acc_offset
 502              		.section	.text.get_acceleration,"ax",%progbits
 503              		.align	1
 504              		.p2align 4,,15
 505              		.global	get_acceleration
 506              		.syntax unified
 507              		.thumb
 508              		.thumb_func
 509              		.fpu fpv4-sp-d16
 510              		.type	get_acceleration, %function
 511              	get_acceleration:
 512              	.LFB264:
 513              		.loc 1 126 0
ARM GAS  /var/folders/km/q6jdms0143g2bddz5bhvdfd00000gn/T//ccPr0wH1.s 			page 10


 514              		.cfi_startproc
 515              		@ args = 0, pretend = 0, frame = 0
 516              		@ frame_needed = 0, uses_anonymous_args = 0
 517              		@ link register save eliminated.
 518              	.LVL28:
 519              		.loc 1 127 0
 520 0000 0228     		cmp	r0, #2
 521              		.loc 1 128 0
 522 0002 9DBF     		ittte	ls
 523 0004 034B     		ldrls	r3, .L42
 524 0006 03EB8000 		addls	r0, r3, r0, lsl #2
 525              	.LVL29:
 526 000a 90ED000A 		vldrls.32	s0, [r0]
 527              		.loc 1 130 0
 528 000e 9FED020A 		vldrhi.32	s0, .L42+4
 529              		.loc 1 131 0
 530 0012 7047     		bx	lr
 531              	.L43:
 532              		.align	2
 533              	.L42:
 534 0014 00000000 		.word	.LANCHOR1
 535 0018 00000000 		.word	0
 536              		.cfi_endproc
 537              	.LFE264:
 538              		.size	get_acceleration, .-get_acceleration
 539              		.section	.text.get_gyro,"ax",%progbits
 540              		.align	1
 541              		.p2align 4,,15
 542              		.global	get_gyro
 543              		.syntax unified
 544              		.thumb
 545              		.thumb_func
 546              		.fpu fpv4-sp-d16
 547              		.type	get_gyro, %function
 548              	get_gyro:
 549              	.LFB265:
 550              		.loc 1 134 0
 551              		.cfi_startproc
 552              		@ args = 0, pretend = 0, frame = 0
 553              		@ frame_needed = 0, uses_anonymous_args = 0
 554              		@ link register save eliminated.
 555              	.LVL30:
 556              		.loc 1 135 0
 557 0000 0228     		cmp	r0, #2
 558              		.loc 1 136 0
 559 0002 9DBF     		ittte	ls
 560 0004 034B     		ldrls	r3, .L47
 561 0006 03EB4000 		addls	r0, r3, r0, lsl #1
 562              	.LVL31:
 563 000a B0F92E00 		ldrshls	r0, [r0, #46]
 564              		.loc 1 138 0
 565 000e 0020     		movhi	r0, #0
 566              		.loc 1 139 0
 567 0010 7047     		bx	lr
 568              	.L48:
 569 0012 00BF     		.align	2
 570              	.L47:
ARM GAS  /var/folders/km/q6jdms0143g2bddz5bhvdfd00000gn/T//ccPr0wH1.s 			page 11


 571 0014 00000000 		.word	.LANCHOR1
 572              		.cfi_endproc
 573              	.LFE265:
 574              		.size	get_gyro, .-get_gyro
 575              		.section	.text.get_gyro_all,"ax",%progbits
 576              		.align	1
 577              		.p2align 4,,15
 578              		.global	get_gyro_all
 579              		.syntax unified
 580              		.thumb
 581              		.thumb_func
 582              		.fpu fpv4-sp-d16
 583              		.type	get_gyro_all, %function
 584              	get_gyro_all:
 585              	.LFB266:
 586              		.loc 1 141 0
 587              		.cfi_startproc
 588              		@ args = 0, pretend = 0, frame = 0
 589              		@ frame_needed = 0, uses_anonymous_args = 0
 590              		@ link register save eliminated.
 591              	.LVL32:
 592              		.loc 1 142 0
 593 0000 054B     		ldr	r3, .L50
 594 0002 B3F92E20 		ldrsh	r2, [r3, #46]
 595 0006 0280     		strh	r2, [r0]	@ movhi
 596              		.loc 1 143 0
 597 0008 B3F93020 		ldrsh	r2, [r3, #48]
 598 000c 4280     		strh	r2, [r0, #2]	@ movhi
 599              		.loc 1 144 0
 600 000e B3F93230 		ldrsh	r3, [r3, #50]
 601 0012 8380     		strh	r3, [r0, #4]	@ movhi
 602              		.loc 1 145 0
 603 0014 7047     		bx	lr
 604              	.L51:
 605 0016 00BF     		.align	2
 606              	.L50:
 607 0018 00000000 		.word	.LANCHOR1
 608              		.cfi_endproc
 609              	.LFE266:
 610              		.size	get_gyro_all, .-get_gyro_all
 611              		.section	.text.get_gyro_offset,"ax",%progbits
 612              		.align	1
 613              		.p2align 4,,15
 614              		.global	get_gyro_offset
 615              		.syntax unified
 616              		.thumb
 617              		.thumb_func
 618              		.fpu fpv4-sp-d16
 619              		.type	get_gyro_offset, %function
 620              	get_gyro_offset:
 621              	.LFB267:
 622              		.loc 1 147 0
 623              		.cfi_startproc
 624              		@ args = 0, pretend = 0, frame = 0
 625              		@ frame_needed = 0, uses_anonymous_args = 0
 626              		@ link register save eliminated.
 627              	.LVL33:
ARM GAS  /var/folders/km/q6jdms0143g2bddz5bhvdfd00000gn/T//ccPr0wH1.s 			page 12


 628              		.loc 1 148 0
 629 0000 0228     		cmp	r0, #2
 630              		.loc 1 149 0
 631 0002 9DBF     		ittte	ls
 632 0004 034B     		ldrls	r3, .L55
 633 0006 03EB4000 		addls	r0, r3, r0, lsl #1
 634              	.LVL34:
 635 000a B0F93A00 		ldrshls	r0, [r0, #58]
 636              		.loc 1 151 0
 637 000e 0020     		movhi	r0, #0
 638              		.loc 1 152 0
 639 0010 7047     		bx	lr
 640              	.L56:
 641 0012 00BF     		.align	2
 642              	.L55:
 643 0014 00000000 		.word	.LANCHOR1
 644              		.cfi_endproc
 645              	.LFE267:
 646              		.size	get_gyro_offset, .-get_gyro_offset
 647              		.section	.text.get_gyro_rate,"ax",%progbits
 648              		.align	1
 649              		.p2align 4,,15
 650              		.global	get_gyro_rate
 651              		.syntax unified
 652              		.thumb
 653              		.thumb_func
 654              		.fpu fpv4-sp-d16
 655              		.type	get_gyro_rate, %function
 656              	get_gyro_rate:
 657              	.LFB268:
 658              		.loc 1 154 0
 659              		.cfi_startproc
 660              		@ args = 0, pretend = 0, frame = 0
 661              		@ frame_needed = 0, uses_anonymous_args = 0
 662              		@ link register save eliminated.
 663              	.LVL35:
 664              		.loc 1 155 0
 665 0000 0228     		cmp	r0, #2
 666              		.loc 1 156 0
 667 0002 9DBF     		ittte	ls
 668 0004 034B     		ldrls	r3, .L60
 669 0006 03EB8000 		addls	r0, r3, r0, lsl #2
 670              	.LVL36:
 671 000a 90ED030A 		vldrls.32	s0, [r0, #12]
 672              		.loc 1 158 0
 673 000e 9FED020A 		vldrhi.32	s0, .L60+4
 674              		.loc 1 159 0
 675 0012 7047     		bx	lr
 676              	.L61:
 677              		.align	2
 678              	.L60:
 679 0014 00000000 		.word	.LANCHOR1
 680 0018 00000000 		.word	0
 681              		.cfi_endproc
 682              	.LFE268:
 683              		.size	get_gyro_rate, .-get_gyro_rate
 684              		.section	.text.get_temperature,"ax",%progbits
ARM GAS  /var/folders/km/q6jdms0143g2bddz5bhvdfd00000gn/T//ccPr0wH1.s 			page 13


 685              		.align	1
 686              		.p2align 4,,15
 687              		.global	get_temperature
 688              		.syntax unified
 689              		.thumb
 690              		.thumb_func
 691              		.fpu fpv4-sp-d16
 692              		.type	get_temperature, %function
 693              	get_temperature:
 694              	.LFB269:
 695              		.loc 1 161 0
 696              		.cfi_startproc
 697              		@ args = 0, pretend = 0, frame = 0
 698              		@ frame_needed = 0, uses_anonymous_args = 0
 699              		@ link register save eliminated.
 700              		.loc 1 162 0
 701 0000 014B     		ldr	r3, .L63
 702              		.loc 1 163 0
 703 0002 93ED060A 		vldr.32	s0, [r3, #24]
 704 0006 7047     		bx	lr
 705              	.L64:
 706              		.align	2
 707              	.L63:
 708 0008 00000000 		.word	.LANCHOR1
 709              		.cfi_endproc
 710              	.LFE269:
 711              		.size	get_temperature, .-get_temperature
 712              		.section	.bss.imuThd,"aw",%nobits
 713              		.align	2
 714              		.set	.LANCHOR5,. + 0
 715              		.type	imuThd, %object
 716              		.size	imuThd, 4
 717              	imuThd:
 718 0000 00000000 		.space	4
 719              		.section	.bss.imu_configured,"aw",%nobits
 720              		.set	.LANCHOR3,. + 0
 721              		.type	imu_configured, %object
 722              		.size	imu_configured, 1
 723              	imu_configured:
 724 0000 00       		.space	1
 725              		.section	.bss.imu_reader_thd_wa.10141,"aw",%nobits
 726              		.align	3
 727              		.set	.LANCHOR4,. + 0
 728              		.type	imu_reader_thd_wa.10141, %object
 729              		.size	imu_reader_thd_wa.10141, 1400
 730              	imu_reader_thd_wa.10141:
 731 0000 00000000 		.space	1400
 731      00000000 
 731      00000000 
 731      00000000 
 731      00000000 
 732              		.section	.bss.imu_values,"aw",%nobits
 733              		.align	2
 734              		.set	.LANCHOR1,. + 0
 735              		.type	imu_values, %object
 736              		.size	imu_values, 80
 737              	imu_values:
ARM GAS  /var/folders/km/q6jdms0143g2bddz5bhvdfd00000gn/T//ccPr0wH1.s 			page 14


 738 0000 00000000 		.space	80
 738      00000000 
 738      00000000 
 738      00000000 
 738      00000000 
 739              		.section	.rodata.__FUNCTION__.10129,"a",%progbits
 740              		.align	2
 741              		.set	.LANCHOR0,. + 0
 742              		.type	__FUNCTION__.10129, %object
 743              		.size	__FUNCTION__.10129, 15
 744              	__FUNCTION__.10129:
 745 0000 696D755F 		.ascii	"imu_reader_thd\000"
 745      72656164 
 745      65725F74 
 745      686400
 746              		.section	.rodata.__func__.7153,"a",%progbits
 747              		.align	2
 748              		.set	.LANCHOR2,. + 0
 749              		.type	__func__.7153, %object
 750              		.size	__func__.7153, 12
 751              	__func__.7153:
 752 0000 63685379 		.ascii	"chSysUnlock\000"
 752      73556E6C 
 752      6F636B00 
 753              		.section	.rodata.imu_reader_thd.str1.4,"aMS",%progbits,1
 754              		.align	2
 755              	.LC0:
 756 0000 2F696D75 		.ascii	"/imu\000"
 756      00
 757              		.text
 758              	.Letext0:
 759              		.file 7 "/Applications/Eclipse_e-puck2.app/Contents/Eclipse_e-puck2/Tools/gcc-arm-none-eabi-7-2017
 760              		.file 8 "/Applications/Eclipse_e-puck2.app/Contents/Eclipse_e-puck2/Tools/gcc-arm-none-eabi-7-2017
 761              		.file 9 "/Applications/Eclipse_e-puck2.app/Contents/Eclipse_e-puck2/Tools/gcc-arm-none-eabi-7-2017
 762              		.file 10 "../../lib/ChibiOS/os/rt/ports/ARMCMx/compilers/GCC/chtypes.h"
 763              		.file 11 "../../lib/ChibiOS/os/rt/include/chsystypes.h"
 764              		.file 12 "../../lib/ChibiOS/os/rt/include/chschd.h"
 765              		.file 13 "../../lib/ChibiOS/os/ext/CMSIS/include/core_cm4.h"
 766              		.file 14 "../../lib/ChibiOS/os/ext/CMSIS/ST/system_stm32f4xx.h"
 767              		.file 15 "../../lib/ChibiOS/os/ext/CMSIS/ST/stm32f407xx.h"
 768              		.file 16 "../../lib/ChibiOS/os/rt/ports/ARMCMx/chcore.h"
 769              		.file 17 "../../lib/ChibiOS/os/rt/ports/ARMCMx/chcore_v7m.h"
 770              		.file 18 "../../lib/ChibiOS/os/rt/include/chdebug.h"
 771              		.file 19 "../../lib/ChibiOS/os/rt/include/chtm.h"
 772              		.file 20 "../../lib/ChibiOS/os/rt/include/chstats.h"
 773              		.file 21 "../../lib/ChibiOS/os/rt/include/chsem.h"
 774              		.file 22 "../../lib/ChibiOS/os/rt/include/chmtx.h"
 775              		.file 23 "../../lib/ChibiOS/os/rt/include/chcond.h"
 776              		.file 24 "../../lib/ChibiOS/os/rt/include/chevents.h"
 777              		.file 25 "../../lib/ChibiOS/os/rt/include/chqueues.h"
 778              		.file 26 "../../lib/ChibiOS/os/hal/ports/STM32/STM32F4xx/stm32_dma.h"
 779              		.file 27 "../../lib/ChibiOS/os/hal/ports/STM32/LLD/GPIOv2/pal_lld.h"
 780              		.file 28 "../../lib/ChibiOS/os/hal/include/gpt.h"
 781              		.file 29 "../../lib/ChibiOS/os/hal/ports/STM32/LLD/TIMv1/gpt_lld.h"
 782              		.file 30 "../../lib/ChibiOS/os/hal/ports/STM32/LLD/TIMv1/stm32_tim.h"
 783              		.file 31 "../../lib/ChibiOS/os/hal/include/i2c.h"
 784              		.file 32 "../../lib/ChibiOS/os/hal/ports/STM32/LLD/I2Cv1/i2c_lld.h"
ARM GAS  /var/folders/km/q6jdms0143g2bddz5bhvdfd00000gn/T//ccPr0wH1.s 			page 15


 785              		.file 33 "../../lib/ChibiOS/os/hal/include/serial.h"
 786              		.file 34 "../../lib/ChibiOS/os/hal/ports/STM32/LLD/USARTv1/serial_lld.h"
 787              		.file 35 "../../lib/ChibiOS/os/hal/include/usb.h"
 788              		.file 36 "../../lib/ChibiOS/os/hal/ports/STM32/LLD/OTGv1/usb_lld.h"
 789              		.file 37 "../../lib/ChibiOS/os/hal/ports/STM32/LLD/OTGv1/stm32_otg.h"
 790              		.file 38 "/Applications/Eclipse_e-puck2.app/Contents/Eclipse_e-puck2/Tools/gcc-arm-none-eabi-7-201
 791              		.file 39 "/Applications/Eclipse_e-puck2.app/Contents/Eclipse_e-puck2/Tools/gcc-arm-none-eabi-7-201
 792              		.file 40 "/Applications/Eclipse_e-puck2.app/Contents/Eclipse_e-puck2/Tools/gcc-arm-none-eabi-7-201
 793              		.file 41 "/Applications/Eclipse_e-puck2.app/Contents/Eclipse_e-puck2/Tools/gcc-arm-none-eabi-7-201
 794              		.file 42 "/Applications/Eclipse_e-puck2.app/Contents/Eclipse_e-puck2/Tools/gcc-arm-none-eabi-7-201
 795              		.file 43 "../../lib/msgbus/messagebus.h"
 796              		.file 44 "./mpu9250.h"
 797              		.file 45 "./imu.h"