ARM GAS  /var/folders/km/q6jdms0143g2bddz5bhvdfd00000gn/T//ccXWoxYK.s 			page 1


   1              		.cpu cortex-m4
   2              		.eabi_attribute 27, 1
   3              		.eabi_attribute 28, 1
   4              		.eabi_attribute 20, 1
   5              		.eabi_attribute 21, 1
   6              		.eabi_attribute 23, 3
   7              		.eabi_attribute 24, 1
   8              		.eabi_attribute 25, 1
   9              		.eabi_attribute 26, 1
  10              		.eabi_attribute 30, 2
  11              		.eabi_attribute 34, 1
  12              		.eabi_attribute 18, 4
  13              		.file	"main.c"
  14              		.text
  15              	.Ltext0:
  16              		.cfi_sections	.debug_frame
  17              		.section	.text.chprintf.constprop.0,"ax",%progbits
  18              		.align	1
  19              		.p2align 4,,15
  20              		.syntax unified
  21              		.thumb
  22              		.thumb_func
  23              		.fpu fpv4-sp-d16
  24              		.type	chprintf.constprop.0, %function
  25              	chprintf.constprop.0:
  26              	.LFB264:
  27              		.file 1 "../../lib/ChibiOS/os/hal/lib/streams/chprintf.h"
  28              		.loc 1 69 0
  29              		.cfi_startproc
  30              		@ args = 4, pretend = 12, frame = 8
  31              		@ frame_needed = 0, uses_anonymous_args = 1
  32              	.LVL0:
  33 0000 0EB4     		push	{r1, r2, r3}
  34              		.cfi_def_cfa_offset 12
  35              		.cfi_offset 1, -12
  36              		.cfi_offset 2, -8
  37              		.cfi_offset 3, -4
  38 0002 00B5     		push	{lr}
  39              		.cfi_def_cfa_offset 16
  40              		.cfi_offset 14, -16
  41 0004 82B0     		sub	sp, sp, #8
  42              		.cfi_def_cfa_offset 24
  43              		.loc 1 69 0
  44 0006 03AA     		add	r2, sp, #12
  45              		.loc 1 74 0
  46 0008 0548     		ldr	r0, .L4
  47              	.LVL1:
  48              		.loc 1 69 0
  49 000a 52F8041B 		ldr	r1, [r2], #4
  50              		.loc 1 73 0
  51 000e 0192     		str	r2, [sp, #4]
  52              		.loc 1 74 0
  53 0010 FFF7FEFF 		bl	chvprintf
  54              	.LVL2:
  55              		.loc 1 78 0
  56 0014 02B0     		add	sp, sp, #8
  57              		.cfi_def_cfa_offset 16
ARM GAS  /var/folders/km/q6jdms0143g2bddz5bhvdfd00000gn/T//ccXWoxYK.s 			page 2


  58              		@ sp needed
  59 0016 5DF804EB 		ldr	lr, [sp], #4
  60              		.cfi_restore 14
  61              		.cfi_def_cfa_offset 12
  62 001a 03B0     		add	sp, sp, #12
  63              		.cfi_restore 3
  64              		.cfi_restore 2
  65              		.cfi_restore 1
  66              		.cfi_def_cfa_offset 0
  67 001c 7047     		bx	lr
  68              	.L5:
  69 001e 00BF     		.align	2
  70              	.L4:
  71 0020 00000000 		.word	SD3
  72              		.cfi_endproc
  73              	.LFE264:
  74              		.size	chprintf.constprop.0, .-chprintf.constprop.0
  75              		.section	.text.panic_handler,"ax",%progbits
  76              		.align	1
  77              		.p2align 4,,15
  78              		.global	panic_handler
  79              		.syntax unified
  80              		.thumb
  81              		.thumb_func
  82              		.fpu fpv4-sp-d16
  83              		.type	panic_handler, %function
  84              	panic_handler:
  85              	.LFB257:
  86              		.file 2 "main.c"
  87              		.loc 2 16 0
  88              		.cfi_startproc
  89              		@ Volatile: function does not return.
  90              		@ args = 0, pretend = 0, frame = 0
  91              		@ frame_needed = 0, uses_anonymous_args = 0
  92              		@ link register save eliminated.
  93              	.LVL3:
  94              		.loc 2 19 0
  95 0000 084B     		ldr	r3, .L8
  96              		.loc 2 24 0
  97 0002 094A     		ldr	r2, .L8+4
  98              		.loc 2 19 0
  99 0004 2020     		movs	r0, #32
 100              	.LVL4:
 101              		.loc 2 20 0
 102 0006 4021     		movs	r1, #64
 103              		.loc 2 19 0
 104 0008 5883     		strh	r0, [r3, #26]	@ movhi
 105              		.loc 2 21 0
 106 000a 4FF48065 		mov	r5, #1024
 107              		.loc 2 20 0
 108 000e 5983     		strh	r1, [r3, #26]	@ movhi
 109              		.loc 2 22 0
 110 0010 4FF40064 		mov	r4, #2048
 111              		.loc 2 23 0
 112 0014 4FF48040 		mov	r0, #16384
 113              		.loc 2 24 0
 114 0018 0421     		movs	r1, #4
ARM GAS  /var/folders/km/q6jdms0143g2bddz5bhvdfd00000gn/T//ccXWoxYK.s 			page 3


 115              		.loc 2 21 0
 116 001a 5D83     		strh	r5, [r3, #26]	@ movhi
 117              		.loc 2 22 0
 118 001c 5C83     		strh	r4, [r3, #26]	@ movhi
 119              		.loc 2 23 0
 120 001e 5883     		strh	r0, [r3, #26]	@ movhi
 121              		.loc 2 24 0
 122 0020 5183     		strh	r1, [r2, #26]	@ movhi
 123              	.L7:
 124 0022 FEE7     		b	.L7
 125              	.L9:
 126              		.align	2
 127              	.L8:
 128 0024 000C0240 		.word	1073875968
 129 0028 00040240 		.word	1073873920
 130              		.cfi_endproc
 131              	.LFE257:
 132              		.size	panic_handler, .-panic_handler
 133              		.section	.text.show_gravity,"ax",%progbits
 134              		.align	1
 135              		.p2align 4,,15
 136              		.global	show_gravity
 137              		.syntax unified
 138              		.thumb
 139              		.thumb_func
 140              		.fpu fpv4-sp-d16
 141              		.type	show_gravity, %function
 142              	show_gravity:
 143              	.LFB262:
 144              		.loc 2 110 0
 145              		.cfi_startproc
 146              		@ args = 0, pretend = 0, frame = 8
 147              		@ frame_needed = 0, uses_anonymous_args = 0
 148              	.LVL5:
 149 0000 10B5     		push	{r4, lr}
 150              		.cfi_def_cfa_offset 8
 151              		.cfi_offset 4, -8
 152              		.cfi_offset 14, -4
 153 0002 82B0     		sub	sp, sp, #8
 154              		.cfi_def_cfa_offset 16
 155              		.loc 2 114 0
 156 0004 0024     		movs	r4, #0
 157 0006 ADF80640 		strh	r4, [sp, #6]	@ movhi
 158              	.LVL6:
 159              	.LBB31:
 160              	.LBB32:
 161              	.LBB33:
 162              	.LBB34:
 163              	.LBB35:
 164              		.file 3 "../../lib/ChibiOS/os/ext/CMSIS/include/core_cmFunc.h"
 165              		.loc 3 546 0
 166 000a 2023     		movs	r3, #32
 167              		.syntax unified
 168              	@ 546 "../../lib/ChibiOS/os/ext/CMSIS/include/core_cmFunc.h" 1
 169 000c 83F31188 		MSR basepri, r3
 170              	@ 0 "" 2
 171              	.LVL7:
ARM GAS  /var/folders/km/q6jdms0143g2bddz5bhvdfd00000gn/T//ccXWoxYK.s 			page 4


 172              		.thumb
 173              		.syntax unified
 174              	.LBE35:
 175              	.LBE34:
 176              	.LBE33:
 177              		.file 4 "../../lib/ChibiOS/os/rt/include/chsys.h"
 178              		.loc 4 349 0
 179 0010 FFF7FEFF 		bl	_stats_start_measure_crit_thd
 180              	.LVL8:
 181              		.loc 4 350 0
 182 0014 FFF7FEFF 		bl	_dbg_check_lock
 183              	.LVL9:
 184              	.LBE32:
 185              	.LBE31:
 186              		.loc 2 123 0
 187 0018 104B     		ldr	r3, .L14
 188 001a DB68     		ldr	r3, [r3, #12]
 189 001c 5C62     		str	r4, [r3, #36]
 190              		.loc 2 130 0
 191 001e 5B6A     		ldr	r3, [r3, #36]
 192 0020 9BB2     		uxth	r3, r3
 193 0022 ADF80630 		strh	r3, [sp, #6]	@ movhi
 194              	.LBB36:
 195              	.LBB37:
 196              		.loc 4 360 0
 197 0026 FFF7FEFF 		bl	_dbg_check_unlock
 198              	.LVL10:
 199              		.loc 4 361 0
 200 002a FFF7FEFF 		bl	_stats_stop_measure_crit_thd
 201              	.LVL11:
 202              		.loc 4 367 0
 203 002e 0C4B     		ldr	r3, .L14+4
 204 0030 1A68     		ldr	r2, [r3]
 205 0032 9A42     		cmp	r2, r3
 206 0034 04D0     		beq	.L11
 207 0036 9969     		ldr	r1, [r3, #24]
 208 0038 9368     		ldr	r3, [r2, #8]
 209 003a 8A68     		ldr	r2, [r1, #8]
 210 003c 9A42     		cmp	r2, r3
 211 003e 04D3     		bcc	.L13
 212              	.L11:
 213              	.LVL12:
 214              	.LBB38:
 215              	.LBB39:
 216              	.LBB40:
 217              		.loc 3 546 0
 218 0040 0023     		movs	r3, #0
 219              		.syntax unified
 220              	@ 546 "../../lib/ChibiOS/os/ext/CMSIS/include/core_cmFunc.h" 1
 221 0042 83F31188 		MSR basepri, r3
 222              	@ 0 "" 2
 223              	.LVL13:
 224              		.thumb
 225              		.syntax unified
 226              	.LBE40:
 227              	.LBE39:
 228              	.LBE38:
ARM GAS  /var/folders/km/q6jdms0143g2bddz5bhvdfd00000gn/T//ccXWoxYK.s 			page 5


 229              	.LBE37:
 230              	.LBE36:
 231              		.loc 2 137 0
 232 0046 02B0     		add	sp, sp, #8
 233              		.cfi_remember_state
 234              		.cfi_def_cfa_offset 8
 235              		@ sp needed
 236 0048 10BD     		pop	{r4, pc}
 237              	.L13:
 238              		.cfi_restore_state
 239              	.LBB45:
 240              	.LBB44:
 241              		.loc 4 367 0
 242 004a 0648     		ldr	r0, .L14+8
 243 004c FFF7FEFF 		bl	chSysHalt
 244              	.LVL14:
 245              	.LBB43:
 246              	.LBB42:
 247              	.LBB41:
 248              		.loc 3 546 0
 249 0050 0023     		movs	r3, #0
 250              		.syntax unified
 251              	@ 546 "../../lib/ChibiOS/os/ext/CMSIS/include/core_cmFunc.h" 1
 252 0052 83F31188 		MSR basepri, r3
 253              	@ 0 "" 2
 254              	.LVL15:
 255              		.thumb
 256              		.syntax unified
 257              	.LBE41:
 258              	.LBE42:
 259              	.LBE43:
 260              	.LBE44:
 261              	.LBE45:
 262              		.loc 2 137 0
 263 0056 02B0     		add	sp, sp, #8
 264              		.cfi_def_cfa_offset 8
 265              		@ sp needed
 266 0058 10BD     		pop	{r4, pc}
 267              	.L15:
 268 005a 00BF     		.align	2
 269              	.L14:
 270 005c 00000000 		.word	GPTD11
 271 0060 00000000 		.word	ch
 272 0064 00000000 		.word	.LANCHOR0
 273              		.cfi_endproc
 274              	.LFE262:
 275              		.size	show_gravity, .-show_gravity
 276              		.global	__aeabi_f2d
 277              		.section	.text.startup.main,"ax",%progbits
 278              		.align	1
 279              		.p2align 4,,15
 280              		.global	main
 281              		.syntax unified
 282              		.thumb
 283              		.thumb_func
 284              		.fpu fpv4-sp-d16
 285              		.type	main, %function
ARM GAS  /var/folders/km/q6jdms0143g2bddz5bhvdfd00000gn/T//ccXWoxYK.s 			page 6


 286              	main:
 287              	.LFB263:
 288              		.loc 2 140 0
 289              		.cfi_startproc
 290              		@ args = 0, pretend = 0, frame = 80
 291              		@ frame_needed = 0, uses_anonymous_args = 0
 292 0000 2DE9F04F 		push	{r4, r5, r6, r7, r8, r9, r10, fp, lr}
 293              		.cfi_def_cfa_offset 36
 294              		.cfi_offset 4, -36
 295              		.cfi_offset 5, -32
 296              		.cfi_offset 6, -28
 297              		.cfi_offset 7, -24
 298              		.cfi_offset 8, -20
 299              		.cfi_offset 9, -16
 300              		.cfi_offset 10, -12
 301              		.cfi_offset 11, -8
 302              		.cfi_offset 14, -4
 303 0004 A1B0     		sub	sp, sp, #132
 304              		.cfi_def_cfa_offset 168
 305              		.loc 2 142 0
 306 0006 FFF7FEFF 		bl	halInit
 307              	.LVL16:
 308              		.loc 2 143 0
 309 000a FFF7FEFF 		bl	chSysInit
 310              	.LVL17:
 311              	.LBB50:
 312              	.LBB51:
 313              		.loc 2 40 0
 314 000e 4C48     		ldr	r0, .L19
 315 0010 4C49     		ldr	r1, .L19+4
 316              	.LBE51:
 317              	.LBE50:
 318              		.loc 2 173 0
 319 0012 4D4D     		ldr	r5, .L19+8
 320              		.loc 2 187 0
 321 0014 DFF84C91 		ldr	r9, .L19+36
 322              		.loc 2 173 0
 323 0018 0446     		mov	r4, r0
 324              	.LBB53:
 325              	.LBB52:
 326              		.loc 2 40 0
 327 001a FFF7FEFF 		bl	sdStart
 328              	.LVL18:
 329              	.LBE52:
 330              	.LBE53:
 331              	.LBB54:
 332              	.LBB55:
 333              		.loc 2 54 0
 334 001e 4B49     		ldr	r1, .L19+12
 335 0020 4B48     		ldr	r0, .L19+16
 336 0022 FFF7FEFF 		bl	gptStart
 337              	.LVL19:
 338              		.loc 2 56 0
 339 0026 4FF6FF71 		movw	r1, #65535
 340 002a 4948     		ldr	r0, .L19+16
 341 002c FFF7FEFF 		bl	gptStartContinuous
 342              	.LVL20:
ARM GAS  /var/folders/km/q6jdms0143g2bddz5bhvdfd00000gn/T//ccXWoxYK.s 			page 7


 343              	.LBE55:
 344              	.LBE54:
 345              		.loc 2 146 0
 346 0030 FFF7FEFF 		bl	i2c_start
 347              	.LVL21:
 348              		.loc 2 147 0
 349 0034 FFF7FEFF 		bl	imu_start
 350              	.LVL22:
 351              		.loc 2 150 0
 352 0038 464A     		ldr	r2, .L19+20
 353 003a 4749     		ldr	r1, .L19+24
 354 003c 4748     		ldr	r0, .L19+28
 355 003e FFF7FEFF 		bl	messagebus_init
 356              	.LVL23:
 357              		.loc 2 162 0
 358 0042 4749     		ldr	r1, .L19+32
 359 0044 4548     		ldr	r0, .L19+28
 360 0046 FFF7FEFF 		bl	messagebus_find_topic_blocking
 361              	.LVL24:
 362 004a 8046     		mov	r8, r0
 363              	.LVL25:
 364              		.loc 2 166 0
 365 004c 4FF4FA60 		mov	r0, #2000
 366              	.LVL26:
 367 0050 FFF7FEFF 		bl	chThdSleep
 368              	.LVL27:
 369              		.loc 2 167 0
 370 0054 4046     		mov	r0, r8
 371 0056 C821     		movs	r1, #200
 372 0058 FFF7FEFF 		bl	imu_compute_offset
 373              	.LVL28:
 374              	.L17:
 375              		.loc 2 171 0 discriminator 1
 376 005c 0CA9     		add	r1, sp, #48
 377 005e 4046     		mov	r0, r8
 378 0060 5022     		movs	r2, #80
 379 0062 FFF7FEFF 		bl	messagebus_topic_wait
 380              	.LVL29:
 381              		.loc 2 173 0 discriminator 1
 382 0066 BDF96270 		ldrsh	r7, [sp, #98]
 383 006a BDF96060 		ldrsh	r6, [sp, #96]
 384 006e BDF95E00 		ldrsh	r0, [sp, #94]
 385 0072 BDF95C10 		ldrsh	r1, [sp, #92]
 386 0076 BDF95A30 		ldrsh	r3, [sp, #90]
 387 007a BDF95820 		ldrsh	r2, [sp, #88]
 388 007e CDE90267 		strd	r6, r7, [sp, #8]
 389 0082 CDE90010 		strd	r1, r0, [sp]
 390 0086 2946     		mov	r1, r5
 391 0088 2046     		mov	r0, r4
 392 008a FFF7FEFF 		bl	chprintf.constprop.0
 393              	.LVL30:
 394              		.loc 2 184 0 discriminator 1
 395 008e BDF962B0 		ldrsh	fp, [sp, #98]
 396 0092 BDF96E20 		ldrsh	r2, [sp, #110]
 397              		.loc 2 183 0 discriminator 1
 398 0096 BDF96C70 		ldrsh	r7, [sp, #108]
 399 009a BDF96060 		ldrsh	r6, [sp, #96]
ARM GAS  /var/folders/km/q6jdms0143g2bddz5bhvdfd00000gn/T//ccXWoxYK.s 			page 8


 400              		.loc 2 181 0 discriminator 1
 401 009e BDF968E0 		ldrsh	lr, [sp, #104]
 402              		.loc 2 182 0 discriminator 1
 403 00a2 BDF95E00 		ldrsh	r0, [sp, #94]
 404 00a6 BDF96AA0 		ldrsh	r10, [sp, #106]
 405              		.loc 2 181 0 discriminator 1
 406 00aa BDF95C10 		ldrsh	r1, [sp, #92]
 407              		.loc 2 180 0 discriminator 1
 408 00ae BDF95AC0 		ldrsh	ip, [sp, #90]
 409 00b2 BDF96630 		ldrsh	r3, [sp, #102]
 410              		.loc 2 178 0 discriminator 1
 411 00b6 ABEB0202 		sub	r2, fp, r2
 412 00ba F61B     		subs	r6, r6, r7
 413 00bc 0392     		str	r2, [sp, #12]
 414              		.loc 2 179 0 discriminator 1
 415 00be BDF95870 		ldrsh	r7, [sp, #88]
 416 00c2 BDF96420 		ldrsh	r2, [sp, #100]
 417              		.loc 2 178 0 discriminator 1
 418 00c6 0296     		str	r6, [sp, #8]
 419 00c8 A1EB0E01 		sub	r1, r1, lr
 420 00cc A0EB0A00 		sub	r0, r0, r10
 421 00d0 ACEB0303 		sub	r3, ip, r3
 422 00d4 BA1A     		subs	r2, r7, r2
 423 00d6 CDE90010 		strd	r1, r0, [sp]
 424 00da 2946     		mov	r1, r5
 425 00dc 2046     		mov	r0, r4
 426 00de FFF7FEFF 		bl	chprintf.constprop.0
 427              	.LVL31:
 428              		.loc 2 187 0 discriminator 1
 429 00e2 0C98     		ldr	r0, [sp, #48]	@ float
 430 00e4 FFF7FEFF 		bl	__aeabi_f2d
 431              	.LVL32:
 432 00e8 9DF87C30 		ldrb	r3, [sp, #124]	@ zero_extendqisi2
 433 00ec 0A93     		str	r3, [sp, #40]
 434 00ee 0646     		mov	r6, r0
 435 00f0 1198     		ldr	r0, [sp, #68]	@ float
 436 00f2 0F46     		mov	r7, r1
 437 00f4 FFF7FEFF 		bl	__aeabi_f2d
 438              	.LVL33:
 439 00f8 CDE90801 		strd	r0, [sp, #32]
 440 00fc 1098     		ldr	r0, [sp, #64]	@ float
 441 00fe FFF7FEFF 		bl	__aeabi_f2d
 442              	.LVL34:
 443 0102 CDE90601 		strd	r0, [sp, #24]
 444 0106 0F98     		ldr	r0, [sp, #60]	@ float
 445 0108 FFF7FEFF 		bl	__aeabi_f2d
 446              	.LVL35:
 447 010c CDE90401 		strd	r0, [sp, #16]
 448 0110 0E98     		ldr	r0, [sp, #56]	@ float
 449 0112 FFF7FEFF 		bl	__aeabi_f2d
 450              	.LVL36:
 451 0116 CDE90201 		strd	r0, [sp, #8]
 452 011a 0D98     		ldr	r0, [sp, #52]	@ float
 453 011c FFF7FEFF 		bl	__aeabi_f2d
 454              	.LVL37:
 455 0120 3246     		mov	r2, r6
 456 0122 CDE90001 		strd	r0, [sp]
ARM GAS  /var/folders/km/q6jdms0143g2bddz5bhvdfd00000gn/T//ccXWoxYK.s 			page 9


 457 0126 3B46     		mov	r3, r7
 458 0128 4946     		mov	r1, r9
 459 012a 2046     		mov	r0, r4
 460 012c FFF7FEFF 		bl	chprintf.constprop.0
 461              	.LVL38:
 462              		.loc 2 192 0 discriminator 1
 463 0130 0CA8     		add	r0, sp, #48
 464 0132 FFF7FEFF 		bl	show_gravity
 465              	.LVL39:
 466              		.loc 2 193 0 discriminator 1
 467 0136 6420     		movs	r0, #100
 468 0138 FFF7FEFF 		bl	chThdSleep
 469              	.LVL40:
 470 013c 8EE7     		b	.L17
 471              	.L20:
 472 013e 00BF     		.align	2
 473              	.L19:
 474 0140 00000000 		.word	SD3
 475 0144 00000000 		.word	.LANCHOR1
 476 0148 08000000 		.word	.LC1
 477 014c 00000000 		.word	.LANCHOR2
 478 0150 00000000 		.word	GPTD11
 479 0154 00000000 		.word	.LANCHOR3
 480 0158 00000000 		.word	.LANCHOR4
 481 015c 00000000 		.word	.LANCHOR5
 482 0160 00000000 		.word	.LC0
 483 0164 3C000000 		.word	.LC2
 484              		.cfi_endproc
 485              	.LFE263:
 486              		.size	main, .-main
 487              		.global	bus_condvar
 488              		.global	bus_lock
 489              		.global	bus
 490              		.section	.bss.bus,"aw",%nobits
 491              		.align	2
 492              		.set	.LANCHOR5,. + 0
 493              		.type	bus, %object
 494              		.size	bus, 12
 495              	bus:
 496 0000 00000000 		.space	12
 496      00000000 
 496      00000000 
 497              		.section	.data.bus_condvar,"aw",%progbits
 498              		.align	2
 499              		.set	.LANCHOR3,. + 0
 500              		.type	bus_condvar, %object
 501              		.size	bus_condvar, 8
 502              	bus_condvar:
 503 0000 00000000 		.word	bus_condvar
 504 0004 00000000 		.word	bus_condvar
 505              		.section	.data.bus_lock,"aw",%progbits
 506              		.align	2
 507              		.set	.LANCHOR4,. + 0
 508              		.type	bus_lock, %object
 509              		.size	bus_lock, 20
 510              	bus_lock:
 511 0000 00000000 		.word	bus_lock
ARM GAS  /var/folders/km/q6jdms0143g2bddz5bhvdfd00000gn/T//ccXWoxYK.s 			page 10


 512 0004 00000000 		.word	bus_lock
 513 0008 00000000 		.word	0
 514 000c 00000000 		.word	0
 515 0010 00000000 		.word	0
 516              		.section	.data.ser_cfg.10164,"aw",%progbits
 517              		.align	2
 518              		.set	.LANCHOR1,. + 0
 519              		.type	ser_cfg.10164, %object
 520              		.size	ser_cfg.10164, 12
 521              	ser_cfg.10164:
 522 0000 00C20100 		.word	115200
 523 0004 0000     		.short	0
 524 0006 0000     		.short	0
 525 0008 0000     		.short	0
 526 000a 0000     		.space	2
 527              		.section	.rodata.__func__.7153,"a",%progbits
 528              		.align	2
 529              		.set	.LANCHOR0,. + 0
 530              		.type	__func__.7153, %object
 531              		.size	__func__.7153, 12
 532              	__func__.7153:
 533 0000 63685379 		.ascii	"chSysUnlock\000"
 533      73556E6C 
 533      6F636B00 
 534              		.section	.rodata.gpt11cfg.10168,"a",%progbits
 535              		.align	2
 536              		.set	.LANCHOR2,. + 0
 537              		.type	gpt11cfg.10168, %object
 538              		.size	gpt11cfg.10168, 16
 539              	gpt11cfg.10168:
 540 0000 40420F00 		.word	1000000
 541 0004 00000000 		.word	0
 542 0008 00000000 		.word	0
 543 000c 00000000 		.word	0
 544              		.section	.rodata.main.str1.4,"aMS",%progbits,1
 545              		.align	2
 546              	.LC0:
 547 0000 2F696D75 		.ascii	"/imu\000"
 547      00
 548 0005 000000   		.space	3
 549              	.LC1:
 550 0008 2541783D 		.ascii	"%Ax=%-7d Ay=%-7d Az=%-7d Gx=%-7d Gy=%-7d Gz=%-7d\015"
 550      252D3764 
 550      2041793D 
 550      252D3764 
 550      20417A3D 
 551 0039 0A00     		.ascii	"\012\000"
 552 003b 00       		.space	1
 553              	.LC2:
 554 003c 2541783D 		.ascii	"%Ax=%.2f Ay=%.2f Az=%.2f Gx=%.2f Gy=%.2f Gz=%.2f (%"
 554      252E3266 
 554      2041793D 
 554      252E3266 
 554      20417A3D 
 555 006f 78290D0A 		.ascii	"x)\015\012\012\000"
 555      0A00
 556              		.text
ARM GAS  /var/folders/km/q6jdms0143g2bddz5bhvdfd00000gn/T//ccXWoxYK.s 			page 11


 557              	.Letext0:
 558              		.file 5 "/Applications/Eclipse_e-puck2.app/Contents/Eclipse_e-puck2/Tools/gcc-arm-none-eabi-7-2017
 559              		.file 6 "/Applications/Eclipse_e-puck2.app/Contents/Eclipse_e-puck2/Tools/gcc-arm-none-eabi-7-2017
 560              		.file 7 "/Applications/Eclipse_e-puck2.app/Contents/Eclipse_e-puck2/Tools/gcc-arm-none-eabi-7-2017
 561              		.file 8 "../../lib/ChibiOS/os/rt/ports/ARMCMx/compilers/GCC/chtypes.h"
 562              		.file 9 "../../lib/ChibiOS/os/rt/include/chsystypes.h"
 563              		.file 10 "../../lib/ChibiOS/os/rt/include/chschd.h"
 564              		.file 11 "../../lib/ChibiOS/os/ext/CMSIS/include/core_cm4.h"
 565              		.file 12 "../../lib/ChibiOS/os/ext/CMSIS/ST/system_stm32f4xx.h"
 566              		.file 13 "../../lib/ChibiOS/os/ext/CMSIS/ST/stm32f407xx.h"
 567              		.file 14 "../../lib/ChibiOS/os/rt/ports/ARMCMx/chcore.h"
 568              		.file 15 "../../lib/ChibiOS/os/rt/ports/ARMCMx/chcore_v7m.h"
 569              		.file 16 "../../lib/ChibiOS/os/rt/include/chdebug.h"
 570              		.file 17 "../../lib/ChibiOS/os/rt/include/chtm.h"
 571              		.file 18 "../../lib/ChibiOS/os/rt/include/chstats.h"
 572              		.file 19 "../../lib/ChibiOS/os/rt/include/chsem.h"
 573              		.file 20 "../../lib/ChibiOS/os/rt/include/chmtx.h"
 574              		.file 21 "../../lib/ChibiOS/os/rt/include/chregistry.h"
 575              		.file 22 "../../lib/ChibiOS/os/rt/include/chcond.h"
 576              		.file 23 "../../lib/ChibiOS/os/rt/include/chevents.h"
 577              		.file 24 "../../lib/ChibiOS/os/rt/include/chqueues.h"
 578              		.file 25 "../../lib/ChibiOS/os/rt/include/chstreams.h"
 579              		.file 26 "../../lib/ChibiOS/os/hal/ports/STM32/STM32F4xx/stm32_dma.h"
 580              		.file 27 "../../lib/ChibiOS/os/hal/ports/STM32/LLD/GPIOv2/pal_lld.h"
 581              		.file 28 "../../lib/ChibiOS/os/hal/include/gpt.h"
 582              		.file 29 "../../lib/ChibiOS/os/hal/ports/STM32/LLD/TIMv1/gpt_lld.h"
 583              		.file 30 "../../lib/ChibiOS/os/hal/ports/STM32/LLD/TIMv1/stm32_tim.h"
 584              		.file 31 "../../lib/ChibiOS/os/hal/include/i2c.h"
 585              		.file 32 "../../lib/ChibiOS/os/hal/ports/STM32/LLD/I2Cv1/i2c_lld.h"
 586              		.file 33 "../../lib/ChibiOS/os/hal/include/serial.h"
 587              		.file 34 "../../lib/ChibiOS/os/hal/ports/STM32/LLD/USARTv1/serial_lld.h"
 588              		.file 35 "../../lib/ChibiOS/os/hal/include/usb.h"
 589              		.file 36 "../../lib/ChibiOS/os/hal/ports/STM32/LLD/OTGv1/usb_lld.h"
 590              		.file 37 "../../lib/ChibiOS/os/hal/ports/STM32/LLD/OTGv1/stm32_otg.h"
 591              		.file 38 "/Applications/Eclipse_e-puck2.app/Contents/Eclipse_e-puck2/Tools/gcc-arm-none-eabi-7-201
 592              		.file 39 "/Applications/Eclipse_e-puck2.app/Contents/Eclipse_e-puck2/Tools/gcc-arm-none-eabi-7-201
 593              		.file 40 "/Applications/Eclipse_e-puck2.app/Contents/Eclipse_e-puck2/Tools/gcc-arm-none-eabi-7-201
 594              		.file 41 "/Applications/Eclipse_e-puck2.app/Contents/Eclipse_e-puck2/Tools/gcc-arm-none-eabi-7-201
 595              		.file 42 "/Applications/Eclipse_e-puck2.app/Contents/Eclipse_e-puck2/Tools/gcc-arm-none-eabi-7-201
 596              		.file 43 "<built-in>"
 597              		.file 44 "/Applications/Eclipse_e-puck2.app/Contents/Eclipse_e-puck2/Tools/gcc-arm-none-eabi-7-201
 598              		.file 45 "../../lib/msgbus/messagebus.h"
 599              		.file 46 "./mpu9250.h"
 600              		.file 47 "./imu.h"
 601              		.file 48 "../../lib/ChibiOS/os/hal/include/hal.h"
 602              		.file 49 "./i2c_bus.h"
 603              		.file 50 "../../lib/ChibiOS/os/rt/include/chthreads.h"