ARM GAS  /var/folders/km/q6jdms0143g2bddz5bhvdfd00000gn/T//ccoDSJLO.s 			page 1


   1              		.cpu cortex-m4
   2              		.eabi_attribute 27, 1
   3              		.eabi_attribute 28, 1
   4              		.eabi_attribute 20, 1
   5              		.eabi_attribute 21, 1
   6              		.eabi_attribute 23, 3
   7              		.eabi_attribute 24, 1
   8              		.eabi_attribute 25, 1
   9              		.eabi_attribute 26, 1
  10              		.eabi_attribute 30, 2
  11              		.eabi_attribute 34, 1
  12              		.eabi_attribute 18, 4
  13              		.file	"mpu9250.c"
  14              		.text
  15              	.Ltext0:
  16              		.cfi_sections	.debug_frame
  17              		.section	.text.mpu9250_change_addr,"ax",%progbits
  18              		.align	1
  19              		.p2align 4,,15
  20              		.global	mpu9250_change_addr
  21              		.syntax unified
  22              		.thumb
  23              		.thumb_func
  24              		.fpu fpv4-sp-d16
  25              		.type	mpu9250_change_addr, %function
  26              	mpu9250_change_addr:
  27              	.LFB256:
  28              		.file 1 "mpu9250.c"
  29              		.loc 1 10 0
  30              		.cfi_startproc
  31              		@ args = 0, pretend = 0, frame = 0
  32              		@ frame_needed = 0, uses_anonymous_args = 0
  33              		@ link register save eliminated.
  34              		.loc 1 11 0
  35 0000 034B     		ldr	r3, .L5
  36 0002 1A78     		ldrb	r2, [r3]	@ zero_extendqisi2
  37 0004 682A     		cmp	r2, #104
  38              		.loc 1 12 0
  39 0006 0CBF     		ite	eq
  40 0008 6922     		moveq	r2, #105
  41              		.loc 1 14 0
  42 000a 6822     		movne	r2, #104
  43 000c 1A70     		strb	r2, [r3]
  44              		.loc 1 16 0
  45 000e 7047     		bx	lr
  46              	.L6:
  47              		.align	2
  48              	.L5:
  49 0010 00000000 		.word	.LANCHOR0
  50              		.cfi_endproc
  51              	.LFE256:
  52              		.size	mpu9250_change_addr, .-mpu9250_change_addr
  53              		.section	.text.mpu9250_read_id,"ax",%progbits
  54              		.align	1
  55              		.p2align 4,,15
  56              		.global	mpu9250_read_id
  57              		.syntax unified
ARM GAS  /var/folders/km/q6jdms0143g2bddz5bhvdfd00000gn/T//ccoDSJLO.s 			page 2


  58              		.thumb
  59              		.thumb_func
  60              		.fpu fpv4-sp-d16
  61              		.type	mpu9250_read_id, %function
  62              	mpu9250_read_id:
  63              	.LFB257:
  64              		.loc 1 27 0
  65              		.cfi_startproc
  66              		@ args = 0, pretend = 0, frame = 0
  67              		@ frame_needed = 0, uses_anonymous_args = 0
  68              	.LVL0:
  69 0000 38B5     		push	{r3, r4, r5, lr}
  70              		.cfi_def_cfa_offset 16
  71              		.cfi_offset 3, -16
  72              		.cfi_offset 4, -12
  73              		.cfi_offset 5, -8
  74              		.cfi_offset 14, -4
  75              		.loc 1 29 0
  76 0002 0A4C     		ldr	r4, .L12
  77              		.loc 1 27 0
  78 0004 0546     		mov	r5, r0
  79              		.loc 1 29 0
  80 0006 0246     		mov	r2, r0
  81 0008 7521     		movs	r1, #117
  82 000a 2078     		ldrb	r0, [r4]	@ zero_extendqisi2
  83              	.LVL1:
  84 000c FFF7FEFF 		bl	read_reg
  85              	.LVL2:
  86 0010 58B1     		cbz	r0, .L8
  87              	.LVL3:
  88              	.LBB50:
  89              	.LBB51:
  90              	.LBB52:
  91              	.LBB53:
  92              		.loc 1 11 0
  93 0012 2378     		ldrb	r3, [r4]	@ zero_extendqisi2
  94 0014 682B     		cmp	r3, #104
  95              		.loc 1 12 0
  96 0016 0CBF     		ite	eq
  97 0018 6920     		moveq	r0, #105
  98              	.LVL4:
  99              		.loc 1 14 0
 100 001a 6820     		movne	r0, #104
 101 001c 2070     		strb	r0, [r4]
 102              	.LBE53:
 103              	.LBE52:
 104              		.loc 1 31 0
 105 001e 2A46     		mov	r2, r5
 106 0020 7521     		movs	r1, #117
 107              	.LBE51:
 108              	.LBE50:
 109              		.loc 1 36 0
 110 0022 BDE83840 		pop	{r3, r4, r5, lr}
 111              		.cfi_remember_state
 112              		.cfi_restore 14
 113              		.cfi_restore 5
 114              		.cfi_restore 4
ARM GAS  /var/folders/km/q6jdms0143g2bddz5bhvdfd00000gn/T//ccoDSJLO.s 			page 3


 115              		.cfi_restore 3
 116              		.cfi_def_cfa_offset 0
 117              	.LVL5:
 118              	.LBB55:
 119              	.LBB54:
 120              		.loc 1 31 0
 121 0026 FFF7FEBF 		b	read_reg
 122              	.LVL6:
 123              	.L8:
 124              		.cfi_restore_state
 125              	.LBE54:
 126              	.LBE55:
 127              		.loc 1 36 0
 128 002a 38BD     		pop	{r3, r4, r5, pc}
 129              	.LVL7:
 130              	.L13:
 131              		.align	2
 132              	.L12:
 133 002c 00000000 		.word	.LANCHOR0
 134              		.cfi_endproc
 135              	.LFE257:
 136              		.size	mpu9250_read_id, .-mpu9250_read_id
 137              		.section	.text.mpu9250_setup,"ax",%progbits
 138              		.align	1
 139              		.p2align 4,,15
 140              		.global	mpu9250_setup
 141              		.syntax unified
 142              		.thumb
 143              		.thumb_func
 144              		.fpu fpv4-sp-d16
 145              		.type	mpu9250_setup, %function
 146              	mpu9250_setup:
 147              	.LFB259:
 148              		.loc 1 55 0
 149              		.cfi_startproc
 150              		@ args = 0, pretend = 0, frame = 8
 151              		@ frame_needed = 0, uses_anonymous_args = 0
 152              	.LVL8:
 153 0000 70B5     		push	{r4, r5, r6, lr}
 154              		.cfi_def_cfa_offset 16
 155              		.cfi_offset 4, -16
 156              		.cfi_offset 5, -12
 157              		.cfi_offset 6, -8
 158              		.cfi_offset 14, -4
 159              		.loc 1 62 0
 160 0002 4C4C     		ldr	r4, .L48
 161              		.loc 1 55 0
 162 0004 82B0     		sub	sp, sp, #8
 163              		.cfi_def_cfa_offset 24
 164              		.loc 1 55 0
 165 0006 0546     		mov	r5, r0
 166              		.loc 1 57 0
 167 0008 0023     		movs	r3, #0
 168              		.loc 1 62 0
 169 000a 2078     		ldrb	r0, [r4]	@ zero_extendqisi2
 170              	.LVL9:
 171              		.loc 1 57 0
ARM GAS  /var/folders/km/q6jdms0143g2bddz5bhvdfd00000gn/T//ccoDSJLO.s 			page 4


 172 000c 8DF80730 		strb	r3, [sp, #7]
 173              		.loc 1 62 0
 174 0010 8022     		movs	r2, #128
 175 0012 6B21     		movs	r1, #107
 176 0014 FFF7FEFF 		bl	write_reg
 177              	.LVL10:
 178 0018 58B1     		cbz	r0, .L20
 179              	.LBB56:
 180              	.LBB57:
 181              		.loc 1 11 0
 182 001a 2378     		ldrb	r3, [r4]	@ zero_extendqisi2
 183 001c 682B     		cmp	r3, #104
 184              		.loc 1 12 0
 185 001e 0CBF     		ite	eq
 186 0020 6920     		moveq	r0, #105
 187              	.LVL11:
 188              		.loc 1 14 0
 189 0022 6820     		movne	r0, #104
 190              	.LBE57:
 191              	.LBE56:
 192              		.loc 1 64 0
 193 0024 8022     		movs	r2, #128
 194 0026 6B21     		movs	r1, #107
 195              	.LBB59:
 196              	.LBB58:
 197              		.loc 1 14 0
 198 0028 2070     		strb	r0, [r4]
 199              	.LBE58:
 200              	.LBE59:
 201              		.loc 1 64 0
 202 002a FFF7FEFF 		bl	write_reg
 203              	.LVL12:
 204 002e 0028     		cmp	r0, #0
 205 0030 7DD1     		bne	.L19
 206              	.L20:
 207              		.loc 1 68 0
 208 0032 0120     		movs	r0, #1
 209              	.LVL13:
 210 0034 FFF7FEFF 		bl	chThdSleep
 211              	.LVL14:
 212              	.LBB60:
 213              	.LBB61:
 214              		.loc 1 14 0
 215 0038 6826     		movs	r6, #104
 216 003a 01E0     		b	.L16
 217              	.L46:
 218              	.LBE61:
 219              	.LBE60:
 220              		.loc 1 79 0
 221 003c FFF7FEFF 		bl	chThdSleep
 222              	.LVL15:
 223              	.L16:
 224              		.loc 1 70 0
 225 0040 0DF10702 		add	r2, sp, #7
 226 0044 6B21     		movs	r1, #107
 227 0046 2078     		ldrb	r0, [r4]	@ zero_extendqisi2
 228 0048 FFF7FEFF 		bl	read_reg
ARM GAS  /var/folders/km/q6jdms0143g2bddz5bhvdfd00000gn/T//ccoDSJLO.s 			page 5


 229              	.LVL16:
 230 004c 78B1     		cbz	r0, .L26
 231              	.LBB64:
 232              	.LBB62:
 233              		.loc 1 11 0
 234 004e 2378     		ldrb	r3, [r4]	@ zero_extendqisi2
 235 0050 682B     		cmp	r3, #104
 236              		.loc 1 12 0
 237 0052 0CBF     		ite	eq
 238 0054 6920     		moveq	r0, #105
 239              	.LVL17:
 240              		.loc 1 14 0
 241 0056 6820     		movne	r0, #104
 242              	.LBE62:
 243              	.LBE64:
 244              		.loc 1 72 0
 245 0058 4FF06B01 		mov	r1, #107
 246 005c 0DF10702 		add	r2, sp, #7
 247              	.LBB65:
 248              	.LBB63:
 249              		.loc 1 12 0
 250 0060 0CBF     		ite	eq
 251 0062 2070     		strbeq	r0, [r4]
 252              		.loc 1 14 0
 253 0064 2670     		strbne	r6, [r4]
 254              	.LBE63:
 255              	.LBE65:
 256              		.loc 1 72 0
 257 0066 FFF7FEFF 		bl	read_reg
 258              	.LVL18:
 259 006a 0028     		cmp	r0, #0
 260 006c 5FD1     		bne	.L19
 261              	.L26:
 262              		.loc 1 76 0
 263 006e 9DF90730 		ldrsb	r3, [sp, #7]
 264 0072 002B     		cmp	r3, #0
 265              		.loc 1 79 0
 266 0074 4FF00100 		mov	r0, #1
 267              	.LVL19:
 268              		.loc 1 76 0
 269 0078 E0DB     		blt	.L46
 270              		.loc 1 83 0
 271 007a 6E00     		lsls	r6, r5, #1
 272 007c 06F01806 		and	r6, r6, #24
 273 0080 3246     		mov	r2, r6
 274 0082 1B21     		movs	r1, #27
 275 0084 2078     		ldrb	r0, [r4]	@ zero_extendqisi2
 276 0086 FFF7FEFF 		bl	write_reg
 277              	.LVL20:
 278 008a 58B1     		cbz	r0, .L32
 279              	.LBB66:
 280              	.LBB67:
 281              		.loc 1 11 0
 282 008c 2378     		ldrb	r3, [r4]	@ zero_extendqisi2
 283 008e 682B     		cmp	r3, #104
 284              		.loc 1 12 0
 285 0090 0CBF     		ite	eq
ARM GAS  /var/folders/km/q6jdms0143g2bddz5bhvdfd00000gn/T//ccoDSJLO.s 			page 6


 286 0092 6920     		moveq	r0, #105
 287              	.LVL21:
 288              		.loc 1 14 0
 289 0094 6820     		movne	r0, #104
 290              	.LBE67:
 291              	.LBE66:
 292              		.loc 1 85 0
 293 0096 3246     		mov	r2, r6
 294 0098 1B21     		movs	r1, #27
 295              	.LBB69:
 296              	.LBB68:
 297              		.loc 1 14 0
 298 009a 2070     		strb	r0, [r4]
 299              	.LBE68:
 300              	.LBE69:
 301              		.loc 1 85 0
 302 009c FFF7FEFF 		bl	write_reg
 303              	.LVL22:
 304 00a0 0028     		cmp	r0, #0
 305 00a2 44D1     		bne	.L19
 306              	.L32:
 307              		.loc 1 92 0
 308 00a4 EE00     		lsls	r6, r5, #3
 309              		.loc 1 89 0
 310 00a6 0120     		movs	r0, #1
 311              	.LVL23:
 312              		.loc 1 92 0
 313 00a8 06F01806 		and	r6, r6, #24
 314              		.loc 1 89 0
 315 00ac FFF7FEFF 		bl	chThdSleep
 316              	.LVL24:
 317              		.loc 1 92 0
 318 00b0 3246     		mov	r2, r6
 319 00b2 1C21     		movs	r1, #28
 320 00b4 2078     		ldrb	r0, [r4]	@ zero_extendqisi2
 321 00b6 FFF7FEFF 		bl	write_reg
 322              	.LVL25:
 323 00ba 50B1     		cbz	r0, .L29
 324              	.LBB70:
 325              	.LBB71:
 326              		.loc 1 11 0
 327 00bc 2378     		ldrb	r3, [r4]	@ zero_extendqisi2
 328 00be 682B     		cmp	r3, #104
 329              		.loc 1 12 0
 330 00c0 0CBF     		ite	eq
 331 00c2 6920     		moveq	r0, #105
 332              	.LVL26:
 333              		.loc 1 14 0
 334 00c4 6820     		movne	r0, #104
 335              	.LBE71:
 336              	.LBE70:
 337              		.loc 1 94 0
 338 00c6 3246     		mov	r2, r6
 339 00c8 1C21     		movs	r1, #28
 340              	.LBB73:
 341              	.LBB72:
 342              		.loc 1 14 0
ARM GAS  /var/folders/km/q6jdms0143g2bddz5bhvdfd00000gn/T//ccoDSJLO.s 			page 7


 343 00ca 2070     		strb	r0, [r4]
 344              	.LBE72:
 345              	.LBE73:
 346              		.loc 1 94 0
 347 00cc FFF7FEFF 		bl	write_reg
 348              	.LVL27:
 349 00d0 68BB     		cbnz	r0, .L19
 350              	.L29:
 351              		.loc 1 98 0
 352 00d2 0120     		movs	r0, #1
 353              	.LVL28:
 354              		.loc 1 101 0
 355 00d4 C5F30725 		ubfx	r5, r5, #8, #8
 356              	.LVL29:
 357              		.loc 1 98 0
 358 00d8 FFF7FEFF 		bl	chThdSleep
 359              	.LVL30:
 360              		.loc 1 101 0
 361 00dc 2A46     		mov	r2, r5
 362 00de 1921     		movs	r1, #25
 363 00e0 2078     		ldrb	r0, [r4]	@ zero_extendqisi2
 364 00e2 FFF7FEFF 		bl	write_reg
 365              	.LVL31:
 366 00e6 50B1     		cbz	r0, .L34
 367              	.LBB74:
 368              	.LBB75:
 369              		.loc 1 11 0
 370 00e8 2378     		ldrb	r3, [r4]	@ zero_extendqisi2
 371 00ea 682B     		cmp	r3, #104
 372              		.loc 1 12 0
 373 00ec 0CBF     		ite	eq
 374 00ee 6920     		moveq	r0, #105
 375              	.LVL32:
 376              		.loc 1 14 0
 377 00f0 6820     		movne	r0, #104
 378              	.LBE75:
 379              	.LBE74:
 380              		.loc 1 103 0
 381 00f2 2A46     		mov	r2, r5
 382 00f4 1921     		movs	r1, #25
 383              	.LBB77:
 384              	.LBB76:
 385              		.loc 1 14 0
 386 00f6 2070     		strb	r0, [r4]
 387              	.LBE76:
 388              	.LBE77:
 389              		.loc 1 103 0
 390 00f8 FFF7FEFF 		bl	write_reg
 391              	.LVL33:
 392 00fc B8B9     		cbnz	r0, .L19
 393              	.L34:
 394              		.loc 1 107 0
 395 00fe 0120     		movs	r0, #1
 396              	.LVL34:
 397 0100 FFF7FEFF 		bl	chThdSleep
 398              	.LVL35:
 399              		.loc 1 110 0
ARM GAS  /var/folders/km/q6jdms0143g2bddz5bhvdfd00000gn/T//ccoDSJLO.s 			page 8


 400 0104 0122     		movs	r2, #1
 401 0106 3821     		movs	r1, #56
 402 0108 2078     		ldrb	r0, [r4]	@ zero_extendqisi2
 403 010a FFF7FEFF 		bl	write_reg
 404              	.LVL36:
 405 010e 50B1     		cbz	r0, .L38
 406              	.LBB78:
 407              	.LBB79:
 408              		.loc 1 11 0
 409 0110 2378     		ldrb	r3, [r4]	@ zero_extendqisi2
 410 0112 682B     		cmp	r3, #104
 411              		.loc 1 12 0
 412 0114 0CBF     		ite	eq
 413 0116 6920     		moveq	r0, #105
 414              	.LVL37:
 415              		.loc 1 14 0
 416 0118 6820     		movne	r0, #104
 417              	.LBE79:
 418              	.LBE78:
 419              		.loc 1 112 0
 420 011a 0122     		movs	r2, #1
 421 011c 3821     		movs	r1, #56
 422              	.LBB81:
 423              	.LBB80:
 424              		.loc 1 14 0
 425 011e 2070     		strb	r0, [r4]
 426              	.LBE80:
 427              	.LBE81:
 428              		.loc 1 112 0
 429 0120 FFF7FEFF 		bl	write_reg
 430              	.LVL38:
 431 0124 18B9     		cbnz	r0, .L19
 432              	.L38:
 433              	.LVL39:
 434              		.loc 1 116 0
 435 0126 0120     		movs	r0, #1
 436 0128 FFF7FEFF 		bl	chThdSleep
 437              	.LVL40:
 438              		.loc 1 122 0
 439 012c 0020     		movs	r0, #0
 440              	.LVL41:
 441              	.L19:
 442              		.loc 1 124 0
 443 012e 02B0     		add	sp, sp, #8
 444              		.cfi_def_cfa_offset 16
 445              		@ sp needed
 446 0130 70BD     		pop	{r4, r5, r6, pc}
 447              	.L49:
 448 0132 00BF     		.align	2
 449              	.L48:
 450 0134 00000000 		.word	.LANCHOR0
 451              		.cfi_endproc
 452              	.LFE259:
 453              		.size	mpu9250_setup, .-mpu9250_setup
 454              		.section	.text.mpu9250_magnetometer_setup,"ax",%progbits
 455              		.align	1
 456              		.p2align 4,,15
ARM GAS  /var/folders/km/q6jdms0143g2bddz5bhvdfd00000gn/T//ccoDSJLO.s 			page 9


 457              		.global	mpu9250_magnetometer_setup
 458              		.syntax unified
 459              		.thumb
 460              		.thumb_func
 461              		.fpu fpv4-sp-d16
 462              		.type	mpu9250_magnetometer_setup, %function
 463              	mpu9250_magnetometer_setup:
 464              	.LFB260:
 465              		.loc 1 126 0
 466              		.cfi_startproc
 467              		@ args = 0, pretend = 0, frame = 0
 468              		@ frame_needed = 0, uses_anonymous_args = 0
 469              	.LVL42:
 470 0000 38B5     		push	{r3, r4, r5, lr}
 471              		.cfi_def_cfa_offset 16
 472              		.cfi_offset 3, -16
 473              		.cfi_offset 4, -12
 474              		.cfi_offset 5, -8
 475              		.cfi_offset 14, -4
 476              		.loc 1 131 0
 477 0002 4C4C     		ldr	r4, .L92
 478 0004 0222     		movs	r2, #2
 479 0006 2078     		ldrb	r0, [r4]	@ zero_extendqisi2
 480 0008 3721     		movs	r1, #55
 481 000a FFF7FEFF 		bl	write_reg
 482              	.LVL43:
 483 000e 58B1     		cbz	r0, .L56
 484              	.LBB82:
 485              	.LBB83:
 486              		.loc 1 11 0
 487 0010 2378     		ldrb	r3, [r4]	@ zero_extendqisi2
 488 0012 682B     		cmp	r3, #104
 489              		.loc 1 12 0
 490 0014 0CBF     		ite	eq
 491 0016 6920     		moveq	r0, #105
 492              	.LVL44:
 493              		.loc 1 14 0
 494 0018 6820     		movne	r0, #104
 495              	.LBE83:
 496              	.LBE82:
 497              		.loc 1 133 0
 498 001a 0222     		movs	r2, #2
 499 001c 3721     		movs	r1, #55
 500              	.LBB85:
 501              	.LBB84:
 502              		.loc 1 14 0
 503 001e 2070     		strb	r0, [r4]
 504              	.LBE84:
 505              	.LBE85:
 506              		.loc 1 133 0
 507 0020 FFF7FEFF 		bl	write_reg
 508              	.LVL45:
 509 0024 0546     		mov	r5, r0
 510 0026 30B9     		cbnz	r0, .L52
 511              	.L56:
 512              		.loc 1 139 0
 513 0028 1222     		movs	r2, #18
ARM GAS  /var/folders/km/q6jdms0143g2bddz5bhvdfd00000gn/T//ccoDSJLO.s 			page 10


 514 002a 0A21     		movs	r1, #10
 515 002c 0C20     		movs	r0, #12
 516              	.LVL46:
 517 002e FFF7FEFF 		bl	write_reg
 518              	.LVL47:
 519 0032 0546     		mov	r5, r0
 520 0034 08B1     		cbz	r0, .L91
 521              	.LVL48:
 522              	.L52:
 523              		.loc 1 209 0
 524 0036 2846     		mov	r0, r5
 525 0038 38BD     		pop	{r3, r4, r5, pc}
 526              	.LVL49:
 527              	.L91:
 528              		.loc 1 145 0
 529 003a 0246     		mov	r2, r0
 530 003c 3721     		movs	r1, #55
 531 003e 2078     		ldrb	r0, [r4]	@ zero_extendqisi2
 532              	.LVL50:
 533 0040 FFF7FEFF 		bl	write_reg
 534              	.LVL51:
 535 0044 58B1     		cbz	r0, .L62
 536              	.LBB86:
 537              	.LBB87:
 538              		.loc 1 11 0
 539 0046 2378     		ldrb	r3, [r4]	@ zero_extendqisi2
 540 0048 682B     		cmp	r3, #104
 541              		.loc 1 12 0
 542 004a 0CBF     		ite	eq
 543 004c 6920     		moveq	r0, #105
 544              	.LVL52:
 545              		.loc 1 14 0
 546 004e 6820     		movne	r0, #104
 547              	.LBE87:
 548              	.LBE86:
 549              		.loc 1 147 0
 550 0050 0022     		movs	r2, #0
 551 0052 3721     		movs	r1, #55
 552              	.LBB89:
 553              	.LBB88:
 554              		.loc 1 14 0
 555 0054 2070     		strb	r0, [r4]
 556              	.LBE88:
 557              	.LBE89:
 558              		.loc 1 147 0
 559 0056 FFF7FEFF 		bl	write_reg
 560              	.LVL53:
 561 005a 0028     		cmp	r0, #0
 562 005c 66D1     		bne	.L85
 563              	.L62:
 564              		.loc 1 160 0
 565 005e 5D22     		movs	r2, #93
 566 0060 2421     		movs	r1, #36
 567 0062 2078     		ldrb	r0, [r4]	@ zero_extendqisi2
 568              	.LVL54:
 569 0064 FFF7FEFF 		bl	write_reg
 570              	.LVL55:
ARM GAS  /var/folders/km/q6jdms0143g2bddz5bhvdfd00000gn/T//ccoDSJLO.s 			page 11


 571 0068 58B1     		cbz	r0, .L59
 572              	.LBB90:
 573              	.LBB91:
 574              		.loc 1 11 0
 575 006a 2378     		ldrb	r3, [r4]	@ zero_extendqisi2
 576 006c 682B     		cmp	r3, #104
 577              		.loc 1 12 0
 578 006e 0CBF     		ite	eq
 579 0070 6920     		moveq	r0, #105
 580              	.LVL56:
 581              		.loc 1 14 0
 582 0072 6820     		movne	r0, #104
 583              	.LBE91:
 584              	.LBE90:
 585              		.loc 1 162 0
 586 0074 5D22     		movs	r2, #93
 587 0076 2421     		movs	r1, #36
 588              	.LBB93:
 589              	.LBB92:
 590              		.loc 1 14 0
 591 0078 2070     		strb	r0, [r4]
 592              	.LBE92:
 593              	.LBE93:
 594              		.loc 1 162 0
 595 007a FFF7FEFF 		bl	write_reg
 596              	.LVL57:
 597 007e 0028     		cmp	r0, #0
 598 0080 54D1     		bne	.L85
 599              	.L59:
 600              		.loc 1 166 0
 601 0082 0120     		movs	r0, #1
 602              	.LVL58:
 603 0084 FFF7FEFF 		bl	chThdSleep
 604              	.LVL59:
 605              		.loc 1 169 0
 606 0088 2022     		movs	r2, #32
 607 008a 6A21     		movs	r1, #106
 608 008c 2078     		ldrb	r0, [r4]	@ zero_extendqisi2
 609 008e FFF7FEFF 		bl	write_reg
 610              	.LVL60:
 611 0092 58B1     		cbz	r0, .L64
 612              	.LBB94:
 613              	.LBB95:
 614              		.loc 1 11 0
 615 0094 2378     		ldrb	r3, [r4]	@ zero_extendqisi2
 616 0096 682B     		cmp	r3, #104
 617              		.loc 1 12 0
 618 0098 0CBF     		ite	eq
 619 009a 6920     		moveq	r0, #105
 620              	.LVL61:
 621              		.loc 1 14 0
 622 009c 6820     		movne	r0, #104
 623              	.LBE95:
 624              	.LBE94:
 625              		.loc 1 171 0
 626 009e 2022     		movs	r2, #32
 627 00a0 6A21     		movs	r1, #106
ARM GAS  /var/folders/km/q6jdms0143g2bddz5bhvdfd00000gn/T//ccoDSJLO.s 			page 12


 628              	.LBB97:
 629              	.LBB96:
 630              		.loc 1 14 0
 631 00a2 2070     		strb	r0, [r4]
 632              	.LBE96:
 633              	.LBE97:
 634              		.loc 1 171 0
 635 00a4 FFF7FEFF 		bl	write_reg
 636              	.LVL62:
 637 00a8 0028     		cmp	r0, #0
 638 00aa 3FD1     		bne	.L85
 639              	.L64:
 640              		.loc 1 175 0
 641 00ac 0120     		movs	r0, #1
 642              	.LVL63:
 643 00ae FFF7FEFF 		bl	chThdSleep
 644              	.LVL64:
 645              		.loc 1 178 0
 646 00b2 8C22     		movs	r2, #140
 647 00b4 2521     		movs	r1, #37
 648 00b6 2078     		ldrb	r0, [r4]	@ zero_extendqisi2
 649 00b8 FFF7FEFF 		bl	write_reg
 650              	.LVL65:
 651 00bc 50B1     		cbz	r0, .L68
 652              	.LBB98:
 653              	.LBB99:
 654              		.loc 1 11 0
 655 00be 2378     		ldrb	r3, [r4]	@ zero_extendqisi2
 656 00c0 682B     		cmp	r3, #104
 657              		.loc 1 12 0
 658 00c2 0CBF     		ite	eq
 659 00c4 6920     		moveq	r0, #105
 660              	.LVL66:
 661              		.loc 1 14 0
 662 00c6 6820     		movne	r0, #104
 663              	.LBE99:
 664              	.LBE98:
 665              		.loc 1 180 0
 666 00c8 8C22     		movs	r2, #140
 667 00ca 2521     		movs	r1, #37
 668              	.LBB101:
 669              	.LBB100:
 670              		.loc 1 14 0
 671 00cc 2070     		strb	r0, [r4]
 672              	.LBE100:
 673              	.LBE101:
 674              		.loc 1 180 0
 675 00ce FFF7FEFF 		bl	write_reg
 676              	.LVL67:
 677 00d2 58BB     		cbnz	r0, .L85
 678              	.L68:
 679              		.loc 1 184 0
 680 00d4 0120     		movs	r0, #1
 681              	.LVL68:
 682 00d6 FFF7FEFF 		bl	chThdSleep
 683              	.LVL69:
 684              		.loc 1 187 0
ARM GAS  /var/folders/km/q6jdms0143g2bddz5bhvdfd00000gn/T//ccoDSJLO.s 			page 13


 685 00da 0322     		movs	r2, #3
 686 00dc 2621     		movs	r1, #38
 687 00de 2078     		ldrb	r0, [r4]	@ zero_extendqisi2
 688 00e0 FFF7FEFF 		bl	write_reg
 689              	.LVL70:
 690 00e4 50B1     		cbz	r0, .L72
 691              	.LBB102:
 692              	.LBB103:
 693              		.loc 1 11 0
 694 00e6 2378     		ldrb	r3, [r4]	@ zero_extendqisi2
 695 00e8 682B     		cmp	r3, #104
 696              		.loc 1 12 0
 697 00ea 0CBF     		ite	eq
 698 00ec 6920     		moveq	r0, #105
 699              	.LVL71:
 700              		.loc 1 14 0
 701 00ee 6820     		movne	r0, #104
 702              	.LBE103:
 703              	.LBE102:
 704              		.loc 1 189 0
 705 00f0 0322     		movs	r2, #3
 706 00f2 2621     		movs	r1, #38
 707              	.LBB105:
 708              	.LBB104:
 709              		.loc 1 14 0
 710 00f4 2070     		strb	r0, [r4]
 711              	.LBE104:
 712              	.LBE105:
 713              		.loc 1 189 0
 714 00f6 FFF7FEFF 		bl	write_reg
 715              	.LVL72:
 716 00fa B8B9     		cbnz	r0, .L85
 717              	.L72:
 718              		.loc 1 193 0
 719 00fc 0120     		movs	r0, #1
 720              	.LVL73:
 721 00fe FFF7FEFF 		bl	chThdSleep
 722              	.LVL74:
 723              		.loc 1 200 0
 724 0102 8722     		movs	r2, #135
 725 0104 2721     		movs	r1, #39
 726 0106 2078     		ldrb	r0, [r4]	@ zero_extendqisi2
 727 0108 FFF7FEFF 		bl	write_reg
 728              	.LVL75:
 729 010c 50B1     		cbz	r0, .L76
 730              	.LBB106:
 731              	.LBB107:
 732              		.loc 1 11 0
 733 010e 2378     		ldrb	r3, [r4]	@ zero_extendqisi2
 734 0110 682B     		cmp	r3, #104
 735              		.loc 1 12 0
 736 0112 0CBF     		ite	eq
 737 0114 6920     		moveq	r0, #105
 738              	.LVL76:
 739              		.loc 1 14 0
 740 0116 6820     		movne	r0, #104
 741              	.LBE107:
ARM GAS  /var/folders/km/q6jdms0143g2bddz5bhvdfd00000gn/T//ccoDSJLO.s 			page 14


 742              	.LBE106:
 743              		.loc 1 202 0
 744 0118 8722     		movs	r2, #135
 745 011a 2721     		movs	r1, #39
 746              	.LBB109:
 747              	.LBB108:
 748              		.loc 1 14 0
 749 011c 2070     		strb	r0, [r4]
 750              	.LBE108:
 751              	.LBE109:
 752              		.loc 1 202 0
 753 011e FFF7FEFF 		bl	write_reg
 754              	.LVL77:
 755 0122 18B9     		cbnz	r0, .L85
 756              	.L76:
 757              	.LVL78:
 758              		.loc 1 206 0
 759 0124 0120     		movs	r0, #1
 760 0126 FFF7FEFF 		bl	chThdSleep
 761              	.LVL79:
 762              		.loc 1 208 0
 763 012a 84E7     		b	.L52
 764              	.LVL80:
 765              	.L85:
 766 012c 0546     		mov	r5, r0
 767              		.loc 1 209 0
 768 012e 2846     		mov	r0, r5
 769              	.LVL81:
 770 0130 38BD     		pop	{r3, r4, r5, pc}
 771              	.L93:
 772 0132 00BF     		.align	2
 773              	.L92:
 774 0134 00000000 		.word	.LANCHOR0
 775              		.cfi_endproc
 776              	.LFE260:
 777              		.size	mpu9250_magnetometer_setup, .-mpu9250_magnetometer_setup
 778              		.section	.text.mpu9250_ping,"ax",%progbits
 779              		.align	1
 780              		.p2align 4,,15
 781              		.global	mpu9250_ping
 782              		.syntax unified
 783              		.thumb
 784              		.thumb_func
 785              		.fpu fpv4-sp-d16
 786              		.type	mpu9250_ping, %function
 787              	mpu9250_ping:
 788              	.LFB261:
 789              		.loc 1 211 0
 790              		.cfi_startproc
 791              		@ args = 0, pretend = 0, frame = 8
 792              		@ frame_needed = 0, uses_anonymous_args = 0
 793 0000 00B5     		push	{lr}
 794              		.cfi_def_cfa_offset 4
 795              		.cfi_offset 14, -4
 796 0002 83B0     		sub	sp, sp, #12
 797              		.cfi_def_cfa_offset 16
 798              		.loc 1 212 0
ARM GAS  /var/folders/km/q6jdms0143g2bddz5bhvdfd00000gn/T//ccoDSJLO.s 			page 15


 799 0004 02A8     		add	r0, sp, #8
 800 0006 0023     		movs	r3, #0
 801 0008 00F8013D 		strb	r3, [r0, #-1]!
 802              		.loc 1 213 0
 803 000c FFF7FEFF 		bl	mpu9250_read_id
 804              	.LVL82:
 805              		.loc 1 214 0
 806 0010 9DF80700 		ldrb	r0, [sp, #7]	@ zero_extendqisi2
 807              		.loc 1 215 0
 808 0014 A0F16800 		sub	r0, #104
 809 0018 B0FA80F0 		clz	r0, r0
 810 001c 4009     		lsrs	r0, r0, #5
 811 001e 03B0     		add	sp, sp, #12
 812              		.cfi_def_cfa_offset 4
 813              		@ sp needed
 814 0020 5DF804FB 		ldr	pc, [sp], #4
 815              		.cfi_endproc
 816              	.LFE261:
 817              		.size	mpu9250_ping, .-mpu9250_ping
 818              		.section	.text.mpu9250_read,"ax",%progbits
 819              		.align	1
 820              		.p2align 4,,15
 821              		.global	mpu9250_read
 822              		.syntax unified
 823              		.thumb
 824              		.thumb_func
 825              		.fpu fpv4-sp-d16
 826              		.type	mpu9250_read, %function
 827              	mpu9250_read:
 828              	.LFB262:
 829              		.loc 1 217 0
 830              		.cfi_startproc
 831              		@ args = 0, pretend = 0, frame = 24
 832              		@ frame_needed = 0, uses_anonymous_args = 0
 833              	.LVL83:
 834 0000 F0B5     		push	{r4, r5, r6, r7, lr}
 835              		.cfi_def_cfa_offset 20
 836              		.cfi_offset 4, -20
 837              		.cfi_offset 5, -16
 838              		.cfi_offset 6, -12
 839              		.cfi_offset 7, -8
 840              		.cfi_offset 14, -4
 841              		.loc 1 221 0
 842 0002 284E     		ldr	r6, .L110
 843              		.loc 1 217 0
 844 0004 87B0     		sub	sp, sp, #28
 845              		.cfi_def_cfa_offset 48
 846              		.loc 1 217 0
 847 0006 0446     		mov	r4, r0
 848 0008 0D46     		mov	r5, r1
 849 000a 1746     		mov	r7, r2
 850              		.loc 1 221 0
 851 000c 3078     		ldrb	r0, [r6]	@ zero_extendqisi2
 852              	.LVL84:
 853 000e 6A46     		mov	r2, sp
 854              	.LVL85:
 855 0010 1623     		movs	r3, #22
ARM GAS  /var/folders/km/q6jdms0143g2bddz5bhvdfd00000gn/T//ccoDSJLO.s 			page 16


 856 0012 3A21     		movs	r1, #58
 857              	.LVL86:
 858 0014 FFF7FEFF 		bl	read_reg_multi
 859              	.LVL87:
 860 0018 58B1     		cbz	r0, .L103
 861              	.LBB110:
 862              	.LBB111:
 863              		.loc 1 11 0
 864 001a 3378     		ldrb	r3, [r6]	@ zero_extendqisi2
 865 001c 682B     		cmp	r3, #104
 866              		.loc 1 12 0
 867 001e 0CBF     		ite	eq
 868 0020 6920     		moveq	r0, #105
 869              	.LVL88:
 870              		.loc 1 14 0
 871 0022 6820     		movne	r0, #104
 872              	.LBE111:
 873              	.LBE110:
 874              		.loc 1 223 0
 875 0024 6A46     		mov	r2, sp
 876 0026 1623     		movs	r3, #22
 877 0028 3A21     		movs	r1, #58
 878              	.LBB113:
 879              	.LBB112:
 880              		.loc 1 14 0
 881 002a 3070     		strb	r0, [r6]
 882              	.LBE112:
 883              	.LBE113:
 884              		.loc 1 223 0
 885 002c FFF7FEFF 		bl	read_reg_multi
 886              	.LVL89:
 887 0030 98BB     		cbnz	r0, .L102
 888              	.L103:
 889              		.loc 1 228 0
 890 0032 17B1     		cbz	r7, .L99
 891              		.loc 1 229 0
 892 0034 9DF80030 		ldrb	r3, [sp]	@ zero_extendqisi2
 893 0038 3B70     		strb	r3, [r7]
 894              	.L99:
 895              		.loc 1 231 0
 896 003a BDB1     		cbz	r5, .L104
 897              	.LBB114:
 898              	.LBB115:
 899              		.loc 1 47 0
 900 003c 9DF90170 		ldrsb	r7, [sp, #1]
 901              	.LVL90:
 902 0040 9DF80210 		ldrb	r1, [sp, #2]	@ zero_extendqisi2
 903              	.LBE115:
 904              	.LBE114:
 905              	.LBB117:
 906              	.LBB118:
 907 0044 9DF90360 		ldrsb	r6, [sp, #3]
 908 0048 9DF80420 		ldrb	r2, [sp, #4]	@ zero_extendqisi2
 909              	.LBE118:
 910              	.LBE117:
 911              	.LBB120:
 912              	.LBB121:
ARM GAS  /var/folders/km/q6jdms0143g2bddz5bhvdfd00000gn/T//ccoDSJLO.s 			page 17


 913 004c 9DF90500 		ldrsb	r0, [sp, #5]
 914              	.LVL91:
 915 0050 9DF80630 		ldrb	r3, [sp, #6]	@ zero_extendqisi2
 916              	.LBE121:
 917              	.LBE120:
 918              	.LBB123:
 919              	.LBB116:
 920 0054 41EA0721 		orr	r1, r1, r7, lsl #8
 921              	.LBE116:
 922              	.LBE123:
 923              	.LBB124:
 924              	.LBB119:
 925 0058 42EA0622 		orr	r2, r2, r6, lsl #8
 926              	.LBE119:
 927              	.LBE124:
 928              	.LBB125:
 929              	.LBB122:
 930 005c 43EA0023 		orr	r3, r3, r0, lsl #8
 931              	.LBE122:
 932              	.LBE125:
 933              		.loc 1 233 0
 934 0060 4942     		negs	r1, r1
 935              		.loc 1 234 0
 936 0062 5242     		negs	r2, r2
 937              		.loc 1 235 0
 938 0064 5B42     		negs	r3, r3
 939              		.loc 1 233 0
 940 0066 2980     		strh	r1, [r5]	@ movhi
 941              		.loc 1 234 0
 942 0068 6A80     		strh	r2, [r5, #2]	@ movhi
 943              		.loc 1 235 0
 944 006a AB80     		strh	r3, [r5, #4]	@ movhi
 945              	.L104:
 946              		.loc 1 238 0
 947 006c BCB1     		cbz	r4, .L105
 948              	.LBB126:
 949              	.LBB127:
 950              		.loc 1 47 0
 951 006e 9DF90D00 		ldrsb	r0, [sp, #13]
 952              	.LBE127:
 953              	.LBE126:
 954              	.LBB130:
 955              	.LBB131:
 956 0072 9DF90960 		ldrsb	r6, [sp, #9]
 957 0076 9DF80A10 		ldrb	r1, [sp, #10]	@ zero_extendqisi2
 958              	.LBE131:
 959              	.LBE130:
 960              	.LBB133:
 961              	.LBB134:
 962 007a 9DF90B50 		ldrsb	r5, [sp, #11]
 963              	.LVL92:
 964 007e 9DF80C20 		ldrb	r2, [sp, #12]	@ zero_extendqisi2
 965              	.LBE134:
 966              	.LBE133:
 967              	.LBB136:
 968              	.LBB128:
 969 0082 9DF80E30 		ldrb	r3, [sp, #14]	@ zero_extendqisi2
ARM GAS  /var/folders/km/q6jdms0143g2bddz5bhvdfd00000gn/T//ccoDSJLO.s 			page 18


 970              	.LBE128:
 971              	.LBE136:
 972              	.LBB137:
 973              	.LBB132:
 974 0086 41EA0621 		orr	r1, r1, r6, lsl #8
 975              	.LBE132:
 976              	.LBE137:
 977              	.LBB138:
 978              	.LBB129:
 979 008a 43EA0023 		orr	r3, r3, r0, lsl #8
 980              	.LBE129:
 981              	.LBE138:
 982              	.LBB139:
 983              	.LBB135:
 984 008e 42EA0522 		orr	r2, r2, r5, lsl #8
 985              	.LBE135:
 986              	.LBE139:
 987              		.loc 1 239 0
 988 0092 2180     		strh	r1, [r4]	@ movhi
 989              		.loc 1 240 0
 990 0094 6280     		strh	r2, [r4, #2]	@ movhi
 991              		.loc 1 241 0
 992 0096 A380     		strh	r3, [r4, #4]	@ movhi
 993              		.loc 1 244 0
 994 0098 0020     		movs	r0, #0
 995              	.L102:
 996              		.loc 1 245 0
 997 009a 07B0     		add	sp, sp, #28
 998              		.cfi_remember_state
 999              		.cfi_def_cfa_offset 20
 1000              		@ sp needed
 1001 009c F0BD     		pop	{r4, r5, r6, r7, pc}
 1002              	.LVL93:
 1003              	.L105:
 1004              		.cfi_restore_state
 1005              		.loc 1 244 0
 1006 009e 2046     		mov	r0, r4
 1007              		.loc 1 245 0
 1008 00a0 07B0     		add	sp, sp, #28
 1009              		.cfi_def_cfa_offset 20
 1010              		@ sp needed
 1011 00a2 F0BD     		pop	{r4, r5, r6, r7, pc}
 1012              	.LVL94:
 1013              	.L111:
 1014              		.align	2
 1015              	.L110:
 1016 00a4 00000000 		.word	.LANCHOR0
 1017              		.cfi_endproc
 1018              	.LFE262:
 1019              		.size	mpu9250_read, .-mpu9250_read
 1020              		.section	.data.imu_addr,"aw",%progbits
 1021              		.set	.LANCHOR0,. + 0
 1022              		.type	imu_addr, %object
 1023              		.size	imu_addr, 1
 1024              	imu_addr:
 1025 0000 68       		.byte	104
 1026              		.text
ARM GAS  /var/folders/km/q6jdms0143g2bddz5bhvdfd00000gn/T//ccoDSJLO.s 			page 19


 1027              	.Letext0:
 1028              		.file 2 "/Applications/Eclipse_e-puck2.app/Contents/Eclipse_e-puck2/Tools/gcc-arm-none-eabi-7-2017
 1029              		.file 3 "/Applications/Eclipse_e-puck2.app/Contents/Eclipse_e-puck2/Tools/gcc-arm-none-eabi-7-2017
 1030              		.file 4 "/Applications/Eclipse_e-puck2.app/Contents/Eclipse_e-puck2/Tools/gcc-arm-none-eabi-7-2017
 1031              		.file 5 "../../lib/ChibiOS/os/rt/ports/ARMCMx/compilers/GCC/chtypes.h"
 1032              		.file 6 "../../lib/ChibiOS/os/rt/include/chsystypes.h"
 1033              		.file 7 "../../lib/ChibiOS/os/rt/include/chschd.h"
 1034              		.file 8 "../../lib/ChibiOS/os/ext/CMSIS/include/core_cm4.h"
 1035              		.file 9 "../../lib/ChibiOS/os/ext/CMSIS/ST/system_stm32f4xx.h"
 1036              		.file 10 "../../lib/ChibiOS/os/ext/CMSIS/ST/stm32f407xx.h"
 1037              		.file 11 "../../lib/ChibiOS/os/rt/ports/ARMCMx/chcore.h"
 1038              		.file 12 "../../lib/ChibiOS/os/rt/ports/ARMCMx/chcore_v7m.h"
 1039              		.file 13 "../../lib/ChibiOS/os/rt/include/chdebug.h"
 1040              		.file 14 "../../lib/ChibiOS/os/rt/include/chtm.h"
 1041              		.file 15 "../../lib/ChibiOS/os/rt/include/chstats.h"
 1042              		.file 16 "../../lib/ChibiOS/os/rt/include/chsem.h"
 1043              		.file 17 "../../lib/ChibiOS/os/rt/include/chmtx.h"
 1044              		.file 18 "../../lib/ChibiOS/os/rt/include/chregistry.h"
 1045              		.file 19 "../../lib/ChibiOS/os/rt/include/chevents.h"
 1046              		.file 20 "../../lib/ChibiOS/os/rt/include/chqueues.h"
 1047              		.file 21 "../../lib/ChibiOS/os/hal/ports/STM32/STM32F4xx/stm32_dma.h"
 1048              		.file 22 "../../lib/ChibiOS/os/hal/ports/STM32/LLD/GPIOv2/pal_lld.h"
 1049              		.file 23 "../../lib/ChibiOS/os/hal/include/gpt.h"
 1050              		.file 24 "../../lib/ChibiOS/os/hal/ports/STM32/LLD/TIMv1/gpt_lld.h"
 1051              		.file 25 "../../lib/ChibiOS/os/hal/ports/STM32/LLD/TIMv1/stm32_tim.h"
 1052              		.file 26 "../../lib/ChibiOS/os/hal/include/i2c.h"
 1053              		.file 27 "../../lib/ChibiOS/os/hal/ports/STM32/LLD/I2Cv1/i2c_lld.h"
 1054              		.file 28 "../../lib/ChibiOS/os/hal/include/serial.h"
 1055              		.file 29 "../../lib/ChibiOS/os/hal/ports/STM32/LLD/USARTv1/serial_lld.h"
 1056              		.file 30 "../../lib/ChibiOS/os/hal/include/usb.h"
 1057              		.file 31 "../../lib/ChibiOS/os/hal/ports/STM32/LLD/OTGv1/usb_lld.h"
 1058              		.file 32 "../../lib/ChibiOS/os/hal/ports/STM32/LLD/OTGv1/stm32_otg.h"
 1059              		.file 33 "./i2c_bus.h"
 1060              		.file 34 "../../lib/ChibiOS/os/rt/include/chthreads.h"