ARM GAS  /var/folders/km/q6jdms0143g2bddz5bhvdfd00000gn/T//ccdsvKlo.s 			page 1


   1              		.cpu cortex-m4
   2              		.eabi_attribute 27, 1
   3              		.eabi_attribute 28, 1
   4              		.eabi_attribute 20, 1
   5              		.eabi_attribute 21, 1
   6              		.eabi_attribute 23, 3
   7              		.eabi_attribute 24, 1
   8              		.eabi_attribute 25, 1
   9              		.eabi_attribute 26, 1
  10              		.eabi_attribute 30, 2
  11              		.eabi_attribute 34, 1
  12              		.eabi_attribute 18, 4
  13              		.file	"port.c"
  14              		.text
  15              	.Ltext0:
  16              		.cfi_sections	.debug_frame
  17              		.section	.text.messagebus_lock_acquire,"ax",%progbits
  18              		.align	1
  19              		.p2align 4,,15
  20              		.global	messagebus_lock_acquire
  21              		.syntax unified
  22              		.thumb
  23              		.thumb_func
  24              		.fpu fpv4-sp-d16
  25              		.type	messagebus_lock_acquire, %function
  26              	messagebus_lock_acquire:
  27              	.LFB219:
  28              		.file 1 "../../lib/ChibiOS/../msgbus/examples/chibios/port.c"
  29              		.loc 1 5 0
  30              		.cfi_startproc
  31              		@ args = 0, pretend = 0, frame = 0
  32              		@ frame_needed = 0, uses_anonymous_args = 0
  33              		@ link register save eliminated.
  34              	.LVL0:
  35              		.loc 1 7 0
  36 0000 FFF7FEBF 		b	chMtxLock
  37              	.LVL1:
  38              		.cfi_endproc
  39              	.LFE219:
  40              		.size	messagebus_lock_acquire, .-messagebus_lock_acquire
  41              		.section	.text.messagebus_lock_release,"ax",%progbits
  42              		.align	1
  43              		.p2align 4,,15
  44              		.global	messagebus_lock_release
  45              		.syntax unified
  46              		.thumb
  47              		.thumb_func
  48              		.fpu fpv4-sp-d16
  49              		.type	messagebus_lock_release, %function
  50              	messagebus_lock_release:
  51              	.LFB220:
  52              		.loc 1 11 0
  53              		.cfi_startproc
  54              		@ args = 0, pretend = 0, frame = 0
  55              		@ frame_needed = 0, uses_anonymous_args = 0
  56              		@ link register save eliminated.
  57              	.LVL2:
ARM GAS  /var/folders/km/q6jdms0143g2bddz5bhvdfd00000gn/T//ccdsvKlo.s 			page 2


  58              		.loc 1 13 0
  59 0000 FFF7FEBF 		b	chMtxUnlock
  60              	.LVL3:
  61              		.cfi_endproc
  62              	.LFE220:
  63              		.size	messagebus_lock_release, .-messagebus_lock_release
  64              		.section	.text.messagebus_condvar_broadcast,"ax",%progbits
  65              		.align	1
  66              		.p2align 4,,15
  67              		.global	messagebus_condvar_broadcast
  68              		.syntax unified
  69              		.thumb
  70              		.thumb_func
  71              		.fpu fpv4-sp-d16
  72              		.type	messagebus_condvar_broadcast, %function
  73              	messagebus_condvar_broadcast:
  74              	.LFB221:
  75              		.loc 1 17 0
  76              		.cfi_startproc
  77              		@ args = 0, pretend = 0, frame = 0
  78              		@ frame_needed = 0, uses_anonymous_args = 0
  79              		@ link register save eliminated.
  80              	.LVL4:
  81              		.loc 1 19 0
  82 0000 FFF7FEBF 		b	chCondBroadcast
  83              	.LVL5:
  84              		.cfi_endproc
  85              	.LFE221:
  86              		.size	messagebus_condvar_broadcast, .-messagebus_condvar_broadcast
  87              		.section	.text.messagebus_condvar_wait,"ax",%progbits
  88              		.align	1
  89              		.p2align 4,,15
  90              		.global	messagebus_condvar_wait
  91              		.syntax unified
  92              		.thumb
  93              		.thumb_func
  94              		.fpu fpv4-sp-d16
  95              		.type	messagebus_condvar_wait, %function
  96              	messagebus_condvar_wait:
  97              	.LFB222:
  98              		.loc 1 23 0
  99              		.cfi_startproc
 100              		@ args = 0, pretend = 0, frame = 0
 101              		@ frame_needed = 0, uses_anonymous_args = 0
 102              		@ link register save eliminated.
 103              	.LVL6:
 104              		.loc 1 25 0
 105 0000 FFF7FEBF 		b	chCondWait
 106              	.LVL7:
 107              		.cfi_endproc
 108              	.LFE222:
 109              		.size	messagebus_condvar_wait, .-messagebus_condvar_wait
 110              		.text
 111              	.Letext0:
 112              		.file 2 "/Applications/Eclipse_e-puck2.app/Contents/Eclipse_e-puck2/Tools/gcc-arm-none-eabi-7-2017
 113              		.file 3 "/Applications/Eclipse_e-puck2.app/Contents/Eclipse_e-puck2/Tools/gcc-arm-none-eabi-7-2017
 114              		.file 4 "../../lib/ChibiOS/os/rt/ports/ARMCMx/compilers/GCC/chtypes.h"
ARM GAS  /var/folders/km/q6jdms0143g2bddz5bhvdfd00000gn/T//ccdsvKlo.s 			page 3


 115              		.file 5 "../../lib/ChibiOS/os/rt/include/chsystypes.h"
 116              		.file 6 "../../lib/ChibiOS/os/rt/include/chschd.h"
 117              		.file 7 "../../lib/ChibiOS/os/ext/CMSIS/include/core_cm4.h"
 118              		.file 8 "../../lib/ChibiOS/os/ext/CMSIS/ST/system_stm32f4xx.h"
 119              		.file 9 "../../lib/ChibiOS/os/rt/ports/ARMCMx/chcore.h"
 120              		.file 10 "../../lib/ChibiOS/os/rt/ports/ARMCMx/chcore_v7m.h"
 121              		.file 11 "../../lib/ChibiOS/os/rt/include/chdebug.h"
 122              		.file 12 "../../lib/ChibiOS/os/rt/include/chtm.h"
 123              		.file 13 "../../lib/ChibiOS/os/rt/include/chstats.h"
 124              		.file 14 "../../lib/ChibiOS/os/rt/include/chsem.h"
 125              		.file 15 "../../lib/ChibiOS/os/rt/include/chmtx.h"
 126              		.file 16 "../../lib/ChibiOS/os/rt/include/chregistry.h"
 127              		.file 17 "../../lib/ChibiOS/os/rt/include/chcond.h"
 128              		.file 18 "/Applications/Eclipse_e-puck2.app/Contents/Eclipse_e-puck2/Tools/gcc-arm-none-eabi-7-201