ARM GAS  C:\Users\stoma\AppData\Local\Temp\cc6hp5ea.s 			page 1


   1              		.cpu cortex-m4
   2              		.eabi_attribute 27, 1
   3              		.eabi_attribute 28, 1
   4              		.eabi_attribute 20, 1
   5              		.eabi_attribute 21, 1
   6              		.eabi_attribute 23, 3
   7              		.eabi_attribute 24, 1
   8              		.eabi_attribute 25, 1
   9              		.eabi_attribute 26, 1
  10              		.eabi_attribute 30, 2
  11              		.eabi_attribute 34, 1
  12              		.eabi_attribute 18, 4
  13              		.file	"serial.c"
  14              		.text
  15              	.Ltext0:
  16              		.cfi_sections	.debug_frame
  17              		.section	.text.readt,"ax",%progbits
  18              		.align	1
  19              		.p2align 4,,15
  20              		.syntax unified
  21              		.thumb
  22              		.thumb_func
  23              		.fpu fpv4-sp-d16
  24              		.type	readt, %function
  25              	readt:
  26              	.LFB263:
  27              		.file 1 "../../lib/ChibiOS/os/hal/src/serial.c"
  28              		.loc 1 87 0
  29              		.cfi_startproc
  30              		@ args = 0, pretend = 0, frame = 0
  31              		@ frame_needed = 0, uses_anonymous_args = 0
  32              		@ link register save eliminated.
  33              	.LVL0:
  34              		.loc 1 89 0
  35 0000 0C30     		adds	r0, r0, #12
  36              	.LVL1:
  37 0002 FFF7FEBF 		b	chIQReadTimeout
  38              	.LVL2:
  39              		.cfi_endproc
  40              	.LFE263:
  41              		.size	readt, .-readt
  42 0006 00BF     		.section	.text.read,"ax",%progbits
  43              		.align	1
  44              		.p2align 4,,15
  45              		.syntax unified
  46              		.thumb
  47              		.thumb_func
  48              		.fpu fpv4-sp-d16
  49              		.type	read, %function
  50              	read:
  51              	.LFB257:
  52              		.loc 1 56 0
  53              		.cfi_startproc
  54              		@ args = 0, pretend = 0, frame = 0
  55              		@ frame_needed = 0, uses_anonymous_args = 0
  56              		@ link register save eliminated.
  57              	.LVL3:
ARM GAS  C:\Users\stoma\AppData\Local\Temp\cc6hp5ea.s 			page 2


  58              		.loc 1 58 0
  59 0000 0C30     		adds	r0, r0, #12
  60              	.LVL4:
  61 0002 4FF0FF33 		mov	r3, #-1
  62 0006 FFF7FEBF 		b	chIQReadTimeout
  63              	.LVL5:
  64              		.cfi_endproc
  65              	.LFE257:
  66              		.size	read, .-read
  67 000a 00BF     		.section	.text.writet,"ax",%progbits
  68              		.align	1
  69              		.p2align 4,,15
  70              		.syntax unified
  71              		.thumb
  72              		.thumb_func
  73              		.fpu fpv4-sp-d16
  74              		.type	writet, %function
  75              	writet:
  76              	.LFB262:
  77              		.loc 1 82 0
  78              		.cfi_startproc
  79              		@ args = 0, pretend = 0, frame = 0
  80              		@ frame_needed = 0, uses_anonymous_args = 0
  81              		@ link register save eliminated.
  82              	.LVL6:
  83              		.loc 1 84 0
  84 0000 3030     		adds	r0, r0, #48
  85              	.LVL7:
  86 0002 FFF7FEBF 		b	chOQWriteTimeout
  87              	.LVL8:
  88              		.cfi_endproc
  89              	.LFE262:
  90              		.size	writet, .-writet
  91              		.section	.text.write,"ax",%progbits
  92              		.align	1
  93              		.p2align 4,,15
  94              		.syntax unified
  95              		.thumb
  96              		.thumb_func
  97              		.fpu fpv4-sp-d16
  98              		.type	write, %function
  99              	write:
 100              	.LFB256:
 101              		.loc 1 50 0
 102              		.cfi_startproc
 103              		@ args = 0, pretend = 0, frame = 0
 104              		@ frame_needed = 0, uses_anonymous_args = 0
 105              		@ link register save eliminated.
 106              	.LVL9:
 107              		.loc 1 52 0
 108 0000 3030     		adds	r0, r0, #48
 109              	.LVL10:
 110 0002 4FF0FF33 		mov	r3, #-1
 111 0006 FFF7FEBF 		b	chOQWriteTimeout
 112              	.LVL11:
 113              		.cfi_endproc
 114              	.LFE256:
ARM GAS  C:\Users\stoma\AppData\Local\Temp\cc6hp5ea.s 			page 3


 115              		.size	write, .-write
 116 000a 00BF     		.section	.text.gett,"ax",%progbits
 117              		.align	1
 118              		.p2align 4,,15
 119              		.syntax unified
 120              		.thumb
 121              		.thumb_func
 122              		.fpu fpv4-sp-d16
 123              		.type	gett, %function
 124              	gett:
 125              	.LFB261:
 126              		.loc 1 77 0
 127              		.cfi_startproc
 128              		@ args = 0, pretend = 0, frame = 0
 129              		@ frame_needed = 0, uses_anonymous_args = 0
 130              		@ link register save eliminated.
 131              	.LVL12:
 132              		.loc 1 79 0
 133 0000 0C30     		adds	r0, r0, #12
 134              	.LVL13:
 135 0002 FFF7FEBF 		b	chIQGetTimeout
 136              	.LVL14:
 137              		.cfi_endproc
 138              	.LFE261:
 139              		.size	gett, .-gett
 140              		.section	.text.get,"ax",%progbits
 141              		.align	1
 142              		.p2align 4,,15
 143              		.syntax unified
 144              		.thumb
 145              		.thumb_func
 146              		.fpu fpv4-sp-d16
 147              		.type	get, %function
 148              	get:
 149              	.LFB259:
 150              		.loc 1 67 0
 151              		.cfi_startproc
 152              		@ args = 0, pretend = 0, frame = 0
 153              		@ frame_needed = 0, uses_anonymous_args = 0
 154              		@ link register save eliminated.
 155              	.LVL15:
 156              		.loc 1 69 0
 157 0000 0C30     		adds	r0, r0, #12
 158              	.LVL16:
 159 0002 4FF0FF31 		mov	r1, #-1
 160 0006 FFF7FEBF 		b	chIQGetTimeout
 161              	.LVL17:
 162              		.cfi_endproc
 163              	.LFE259:
 164              		.size	get, .-get
 165 000a 00BF     		.section	.text.putt,"ax",%progbits
 166              		.align	1
 167              		.p2align 4,,15
 168              		.syntax unified
 169              		.thumb
 170              		.thumb_func
 171              		.fpu fpv4-sp-d16
ARM GAS  C:\Users\stoma\AppData\Local\Temp\cc6hp5ea.s 			page 4


 172              		.type	putt, %function
 173              	putt:
 174              	.LFB260:
 175              		.loc 1 72 0
 176              		.cfi_startproc
 177              		@ args = 0, pretend = 0, frame = 0
 178              		@ frame_needed = 0, uses_anonymous_args = 0
 179              		@ link register save eliminated.
 180              	.LVL18:
 181              		.loc 1 74 0
 182 0000 3030     		adds	r0, r0, #48
 183              	.LVL19:
 184 0002 FFF7FEBF 		b	chOQPutTimeout
 185              	.LVL20:
 186              		.cfi_endproc
 187              	.LFE260:
 188              		.size	putt, .-putt
 189              		.section	.text.put,"ax",%progbits
 190              		.align	1
 191              		.p2align 4,,15
 192              		.syntax unified
 193              		.thumb
 194              		.thumb_func
 195              		.fpu fpv4-sp-d16
 196              		.type	put, %function
 197              	put:
 198              	.LFB258:
 199              		.loc 1 62 0
 200              		.cfi_startproc
 201              		@ args = 0, pretend = 0, frame = 0
 202              		@ frame_needed = 0, uses_anonymous_args = 0
 203              		@ link register save eliminated.
 204              	.LVL21:
 205              		.loc 1 64 0
 206 0000 3030     		adds	r0, r0, #48
 207              	.LVL22:
 208 0002 4FF0FF32 		mov	r2, #-1
 209 0006 FFF7FEBF 		b	chOQPutTimeout
 210              	.LVL23:
 211              		.cfi_endproc
 212              	.LFE258:
 213              		.size	put, .-put
 214 000a 00BF     		.section	.text.sdInit,"ax",%progbits
 215              		.align	1
 216              		.p2align 4,,15
 217              		.global	sdInit
 218              		.syntax unified
 219              		.thumb
 220              		.thumb_func
 221              		.fpu fpv4-sp-d16
 222              		.type	sdInit, %function
 223              	sdInit:
 224              	.LFB264:
 225              		.loc 1 108 0
 226              		.cfi_startproc
 227              		@ args = 0, pretend = 0, frame = 0
 228              		@ frame_needed = 0, uses_anonymous_args = 0
ARM GAS  C:\Users\stoma\AppData\Local\Temp\cc6hp5ea.s 			page 5


 229              		@ link register save eliminated.
 230              		.loc 1 110 0
 231 0000 FFF7FEBF 		b	sd_lld_init
 232              	.LVL24:
 233              		.cfi_endproc
 234              	.LFE264:
 235              		.size	sdInit, .-sdInit
 236              		.section	.text.sdObjectInit,"ax",%progbits
 237              		.align	1
 238              		.p2align 4,,15
 239              		.global	sdObjectInit
 240              		.syntax unified
 241              		.thumb
 242              		.thumb_func
 243              		.fpu fpv4-sp-d16
 244              		.type	sdObjectInit, %function
 245              	sdObjectInit:
 246              	.LFB265:
 247              		.loc 1 128 0
 248              		.cfi_startproc
 249              		@ args = 0, pretend = 0, frame = 0
 250              		@ frame_needed = 0, uses_anonymous_args = 0
 251              	.LVL25:
 252 0000 70B5     		push	{r4, r5, r6, lr}
 253              		.cfi_def_cfa_offset 16
 254              		.cfi_offset 4, -16
 255              		.cfi_offset 5, -12
 256              		.cfi_offset 6, -8
 257              		.cfi_offset 14, -4
 258              		.loc 1 130 0
 259 0002 0E4B     		ldr	r3, .L13
 260              		.loc 1 128 0
 261 0004 0446     		mov	r4, r0
 262 0006 82B0     		sub	sp, sp, #8
 263              		.cfi_def_cfa_offset 24
 264              		.loc 1 130 0
 265 0008 40F8043B 		str	r3, [r0], #4
 266              	.LVL26:
 267              		.loc 1 132 0
 268 000c 0126     		movs	r6, #1
 269              		.loc 1 133 0
 270 000e 0094     		str	r4, [sp]
 271              		.loc 1 128 0
 272 0010 1546     		mov	r5, r2
 273              		.loc 1 133 0
 274 0012 0B46     		mov	r3, r1
 275              	.LBB53:
 276              	.LBB54:
 277              	.LBB55:
 278              		.file 2 "../../lib/ChibiOS/os/rt/include/chevents.h"
 279              		.loc 2 172 0
 280 0014 6060     		str	r0, [r4, #4]
 281              	.LVL27:
 282              	.LBE55:
 283              	.LBE54:
 284              	.LBE53:
 285              		.loc 1 133 0
ARM GAS  C:\Users\stoma\AppData\Local\Temp\cc6hp5ea.s 			page 6


 286 0016 04F15401 		add	r1, r4, #84
 287              	.LVL28:
 288 001a 04F10C00 		add	r0, r4, #12
 289              		.loc 1 132 0
 290 001e 2672     		strb	r6, [r4, #8]
 291              		.loc 1 133 0
 292 0020 1022     		movs	r2, #16
 293              	.LVL29:
 294 0022 FFF7FEFF 		bl	chIQObjectInit
 295              	.LVL30:
 296              		.loc 1 134 0
 297 0026 0094     		str	r4, [sp]
 298 0028 2B46     		mov	r3, r5
 299 002a 04F16401 		add	r1, r4, #100
 300 002e 04F13000 		add	r0, r4, #48
 301 0032 1022     		movs	r2, #16
 302 0034 FFF7FEFF 		bl	chOQObjectInit
 303              	.LVL31:
 304              		.loc 1 135 0
 305 0038 02B0     		add	sp, sp, #8
 306              		.cfi_def_cfa_offset 16
 307              		@ sp needed
 308 003a 70BD     		pop	{r4, r5, r6, pc}
 309              	.LVL32:
 310              	.L14:
 311              		.align	2
 312              	.L13:
 313 003c 00000000 		.word	.LANCHOR0
 314              		.cfi_endproc
 315              	.LFE265:
 316              		.size	sdObjectInit, .-sdObjectInit
 317              		.section	.text.sdStart,"ax",%progbits
 318              		.align	1
 319              		.p2align 4,,15
 320              		.global	sdStart
 321              		.syntax unified
 322              		.thumb
 323              		.thumb_func
 324              		.fpu fpv4-sp-d16
 325              		.type	sdStart, %function
 326              	sdStart:
 327              	.LFB266:
 328              		.loc 1 147 0
 329              		.cfi_startproc
 330              		@ args = 0, pretend = 0, frame = 0
 331              		@ frame_needed = 0, uses_anonymous_args = 0
 332              	.LVL33:
 333 0000 38B5     		push	{r3, r4, r5, lr}
 334              		.cfi_def_cfa_offset 16
 335              		.cfi_offset 3, -16
 336              		.cfi_offset 4, -12
 337              		.cfi_offset 5, -8
 338              		.cfi_offset 14, -4
 339              		.loc 1 147 0
 340 0002 0D46     		mov	r5, r1
 341              		.loc 1 149 0
 342 0004 0446     		mov	r4, r0
ARM GAS  C:\Users\stoma\AppData\Local\Temp\cc6hp5ea.s 			page 7


 343 0006 58B3     		cbz	r0, .L20
 344              	.LVL34:
 345              	.L16:
 346              	.LBB69:
 347              	.LBB70:
 348              	.LBB71:
 349              	.LBB72:
 350              	.LBB73:
 351              	.LBB74:
 352              		.file 3 "../../lib/ChibiOS/os/ext/CMSIS/include/core_cmFunc.h"
 353              		.loc 3 546 0
 354 0008 2023     		movs	r3, #32
 355              		.syntax unified
 356              	@ 546 "../../lib/ChibiOS/os/ext/CMSIS/include/core_cmFunc.h" 1
 357 000a 83F31188 		MSR basepri, r3
 358              	@ 0 "" 2
 359              	.LVL35:
 360              		.thumb
 361              		.syntax unified
 362              	.LBE74:
 363              	.LBE73:
 364              	.LBE72:
 365              		.file 4 "../../lib/ChibiOS/os/rt/include/chsys.h"
 366              		.loc 4 349 0
 367 000e FFF7FEFF 		bl	_stats_start_measure_crit_thd
 368              	.LVL36:
 369              		.loc 4 350 0
 370 0012 FFF7FEFF 		bl	_dbg_check_lock
 371              	.LVL37:
 372              	.LBE71:
 373              	.LBE70:
 374              	.LBE69:
 375              		.loc 1 152 0
 376 0016 237A     		ldrb	r3, [r4, #8]	@ zero_extendqisi2
 377 0018 013B     		subs	r3, r3, #1
 378 001a 012B     		cmp	r3, #1
 379 001c 02D9     		bls	.L17
 380              		.loc 1 152 0 is_stmt 0 discriminator 2
 381 001e 1248     		ldr	r0, .L22
 382 0020 FFF7FEFF 		bl	chSysHalt
 383              	.LVL38:
 384              	.L17:
 385              		.loc 1 154 0 is_stmt 1
 386 0024 2946     		mov	r1, r5
 387 0026 2046     		mov	r0, r4
 388 0028 FFF7FEFF 		bl	sd_lld_start
 389              	.LVL39:
 390              		.loc 1 155 0
 391 002c 0223     		movs	r3, #2
 392 002e 2372     		strb	r3, [r4, #8]
 393              	.LBB75:
 394              	.LBB76:
 395              	.LBB77:
 396              		.loc 4 360 0
 397 0030 FFF7FEFF 		bl	_dbg_check_unlock
 398              	.LVL40:
 399              		.loc 4 361 0
ARM GAS  C:\Users\stoma\AppData\Local\Temp\cc6hp5ea.s 			page 8


 400 0034 FFF7FEFF 		bl	_stats_stop_measure_crit_thd
 401              	.LVL41:
 402              		.loc 4 367 0
 403 0038 0C4B     		ldr	r3, .L22+4
 404 003a 1A68     		ldr	r2, [r3]
 405 003c 9A42     		cmp	r2, r3
 406 003e 04D0     		beq	.L18
 407 0040 9969     		ldr	r1, [r3, #24]
 408 0042 9368     		ldr	r3, [r2, #8]
 409 0044 8A68     		ldr	r2, [r1, #8]
 410 0046 9A42     		cmp	r2, r3
 411 0048 03D3     		bcc	.L21
 412              	.L18:
 413              	.LVL42:
 414              	.LBB78:
 415              	.LBB79:
 416              	.LBB80:
 417              		.loc 3 546 0
 418 004a 0023     		movs	r3, #0
 419              		.syntax unified
 420              	@ 546 "../../lib/ChibiOS/os/ext/CMSIS/include/core_cmFunc.h" 1
 421 004c 83F31188 		MSR basepri, r3
 422              	@ 0 "" 2
 423              	.LVL43:
 424              		.thumb
 425              		.syntax unified
 426              	.LBE80:
 427              	.LBE79:
 428              	.LBE78:
 429              	.LBE77:
 430              	.LBE76:
 431              	.LBE75:
 432              		.loc 1 157 0
 433 0050 38BD     		pop	{r3, r4, r5, pc}
 434              	.LVL44:
 435              	.L21:
 436              	.LBB86:
 437              	.LBB85:
 438              	.LBB84:
 439              		.loc 4 367 0
 440 0052 0748     		ldr	r0, .L22+8
 441 0054 FFF7FEFF 		bl	chSysHalt
 442              	.LVL45:
 443              	.LBB83:
 444              	.LBB82:
 445              	.LBB81:
 446              		.loc 3 546 0
 447 0058 0023     		movs	r3, #0
 448              		.syntax unified
 449              	@ 546 "../../lib/ChibiOS/os/ext/CMSIS/include/core_cmFunc.h" 1
 450 005a 83F31188 		MSR basepri, r3
 451              	@ 0 "" 2
 452              	.LVL46:
 453              		.thumb
 454              		.syntax unified
 455              	.LBE81:
 456              	.LBE82:
ARM GAS  C:\Users\stoma\AppData\Local\Temp\cc6hp5ea.s 			page 9


 457              	.LBE83:
 458              	.LBE84:
 459              	.LBE85:
 460              	.LBE86:
 461              		.loc 1 157 0
 462 005e 38BD     		pop	{r3, r4, r5, pc}
 463              	.LVL47:
 464              	.L20:
 465              		.loc 1 149 0 discriminator 2
 466 0060 0148     		ldr	r0, .L22
 467              	.LVL48:
 468 0062 FFF7FEFF 		bl	chSysHalt
 469              	.LVL49:
 470 0066 CFE7     		b	.L16
 471              	.L23:
 472              		.align	2
 473              	.L22:
 474 0068 00000000 		.word	.LANCHOR1
 475 006c 00000000 		.word	ch
 476 0070 00000000 		.word	.LANCHOR2
 477              		.cfi_endproc
 478              	.LFE266:
 479              		.size	sdStart, .-sdStart
 480              		.section	.text.sdStop,"ax",%progbits
 481              		.align	1
 482              		.p2align 4,,15
 483              		.global	sdStop
 484              		.syntax unified
 485              		.thumb
 486              		.thumb_func
 487              		.fpu fpv4-sp-d16
 488              		.type	sdStop, %function
 489              	sdStop:
 490              	.LFB267:
 491              		.loc 1 168 0
 492              		.cfi_startproc
 493              		@ args = 0, pretend = 0, frame = 0
 494              		@ frame_needed = 0, uses_anonymous_args = 0
 495              	.LVL50:
 496 0000 10B5     		push	{r4, lr}
 497              		.cfi_def_cfa_offset 8
 498              		.cfi_offset 4, -8
 499              		.cfi_offset 14, -4
 500              		.loc 1 170 0
 501 0002 0446     		mov	r4, r0
 502 0004 A0B3     		cbz	r0, .L29
 503              	.LVL51:
 504              	.L25:
 505              	.LBB102:
 506              	.LBB103:
 507              	.LBB104:
 508              	.LBB105:
 509              	.LBB106:
 510              	.LBB107:
 511              		.loc 3 546 0
 512 0006 2023     		movs	r3, #32
 513              		.syntax unified
ARM GAS  C:\Users\stoma\AppData\Local\Temp\cc6hp5ea.s 			page 10


 514              	@ 546 "../../lib/ChibiOS/os/ext/CMSIS/include/core_cmFunc.h" 1
 515 0008 83F31188 		MSR basepri, r3
 516              	@ 0 "" 2
 517              	.LVL52:
 518              		.thumb
 519              		.syntax unified
 520              	.LBE107:
 521              	.LBE106:
 522              	.LBE105:
 523              		.loc 4 349 0
 524 000c FFF7FEFF 		bl	_stats_start_measure_crit_thd
 525              	.LVL53:
 526              		.loc 4 350 0
 527 0010 FFF7FEFF 		bl	_dbg_check_lock
 528              	.LVL54:
 529              	.LBE104:
 530              	.LBE103:
 531              	.LBE102:
 532              		.loc 1 173 0
 533 0014 237A     		ldrb	r3, [r4, #8]	@ zero_extendqisi2
 534 0016 013B     		subs	r3, r3, #1
 535 0018 012B     		cmp	r3, #1
 536 001a 02D9     		bls	.L26
 537              		.loc 1 173 0 is_stmt 0 discriminator 2
 538 001c 1648     		ldr	r0, .L31
 539 001e FFF7FEFF 		bl	chSysHalt
 540              	.LVL55:
 541              	.L26:
 542              		.loc 1 175 0 is_stmt 1
 543 0022 2046     		mov	r0, r4
 544 0024 FFF7FEFF 		bl	sd_lld_stop
 545              	.LVL56:
 546              		.loc 1 176 0
 547 0028 0123     		movs	r3, #1
 548 002a 2372     		strb	r3, [r4, #8]
 549              		.loc 1 177 0
 550 002c 04F13000 		add	r0, r4, #48
 551 0030 FFF7FEFF 		bl	chOQResetI
 552              	.LVL57:
 553              		.loc 1 178 0
 554 0034 04F10C00 		add	r0, r4, #12
 555 0038 FFF7FEFF 		bl	chIQResetI
 556              	.LVL58:
 557              	.LBB108:
 558              	.LBB109:
 559              		.file 5 "../../lib/ChibiOS/os/hal/osal/rt/osal.h"
 560              		.loc 5 554 0
 561 003c FFF7FEFF 		bl	chSchRescheduleS
 562              	.LVL59:
 563              	.LBE109:
 564              	.LBE108:
 565              	.LBB110:
 566              	.LBB111:
 567              	.LBB112:
 568              		.loc 4 360 0
 569 0040 FFF7FEFF 		bl	_dbg_check_unlock
 570              	.LVL60:
ARM GAS  C:\Users\stoma\AppData\Local\Temp\cc6hp5ea.s 			page 11


 571              		.loc 4 361 0
 572 0044 FFF7FEFF 		bl	_stats_stop_measure_crit_thd
 573              	.LVL61:
 574              		.loc 4 367 0
 575 0048 0C4B     		ldr	r3, .L31+4
 576 004a 1A68     		ldr	r2, [r3]
 577 004c 9A42     		cmp	r2, r3
 578 004e 04D0     		beq	.L27
 579 0050 9969     		ldr	r1, [r3, #24]
 580 0052 9368     		ldr	r3, [r2, #8]
 581 0054 8A68     		ldr	r2, [r1, #8]
 582 0056 9A42     		cmp	r2, r3
 583 0058 03D3     		bcc	.L30
 584              	.L27:
 585              	.LVL62:
 586              	.LBB113:
 587              	.LBB114:
 588              	.LBB115:
 589              		.loc 3 546 0
 590 005a 0023     		movs	r3, #0
 591              		.syntax unified
 592              	@ 546 "../../lib/ChibiOS/os/ext/CMSIS/include/core_cmFunc.h" 1
 593 005c 83F31188 		MSR basepri, r3
 594              	@ 0 "" 2
 595              	.LVL63:
 596              		.thumb
 597              		.syntax unified
 598              	.LBE115:
 599              	.LBE114:
 600              	.LBE113:
 601              	.LBE112:
 602              	.LBE111:
 603              	.LBE110:
 604              		.loc 1 181 0
 605 0060 10BD     		pop	{r4, pc}
 606              	.LVL64:
 607              	.L30:
 608              	.LBB121:
 609              	.LBB120:
 610              	.LBB119:
 611              		.loc 4 367 0
 612 0062 0748     		ldr	r0, .L31+8
 613 0064 FFF7FEFF 		bl	chSysHalt
 614              	.LVL65:
 615              	.LBB118:
 616              	.LBB117:
 617              	.LBB116:
 618              		.loc 3 546 0
 619 0068 0023     		movs	r3, #0
 620              		.syntax unified
 621              	@ 546 "../../lib/ChibiOS/os/ext/CMSIS/include/core_cmFunc.h" 1
 622 006a 83F31188 		MSR basepri, r3
 623              	@ 0 "" 2
 624              	.LVL66:
 625              		.thumb
 626              		.syntax unified
 627              	.LBE116:
ARM GAS  C:\Users\stoma\AppData\Local\Temp\cc6hp5ea.s 			page 12


 628              	.LBE117:
 629              	.LBE118:
 630              	.LBE119:
 631              	.LBE120:
 632              	.LBE121:
 633              		.loc 1 181 0
 634 006e 10BD     		pop	{r4, pc}
 635              	.LVL67:
 636              	.L29:
 637              		.loc 1 170 0 discriminator 2
 638 0070 0148     		ldr	r0, .L31
 639              	.LVL68:
 640 0072 FFF7FEFF 		bl	chSysHalt
 641              	.LVL69:
 642 0076 C6E7     		b	.L25
 643              	.L32:
 644              		.align	2
 645              	.L31:
 646 0078 00000000 		.word	.LANCHOR3
 647 007c 00000000 		.word	ch
 648 0080 00000000 		.word	.LANCHOR2
 649              		.cfi_endproc
 650              	.LFE267:
 651              		.size	sdStop, .-sdStop
 652              		.section	.text.sdIncomingDataI,"ax",%progbits
 653              		.align	1
 654              		.p2align 4,,15
 655              		.global	sdIncomingDataI
 656              		.syntax unified
 657              		.thumb
 658              		.thumb_func
 659              		.fpu fpv4-sp-d16
 660              		.type	sdIncomingDataI, %function
 661              	sdIncomingDataI:
 662              	.LFB268:
 663              		.loc 1 199 0
 664              		.cfi_startproc
 665              		@ args = 0, pretend = 0, frame = 0
 666              		@ frame_needed = 0, uses_anonymous_args = 0
 667              	.LVL70:
 668 0000 38B5     		push	{r3, r4, r5, lr}
 669              		.cfi_def_cfa_offset 16
 670              		.cfi_offset 3, -16
 671              		.cfi_offset 4, -12
 672              		.cfi_offset 5, -8
 673              		.cfi_offset 14, -4
 674              		.loc 1 199 0
 675 0002 0446     		mov	r4, r0
 676 0004 0D46     		mov	r5, r1
 677              		.loc 1 201 0
 678 0006 FFF7FEFF 		bl	chDbgCheckClassI
 679              	.LVL71:
 680              		.loc 1 202 0
 681 000a E4B1     		cbz	r4, .L38
 682              	.L34:
 683              	.LVL72:
 684              	.LBB122:
ARM GAS  C:\Users\stoma\AppData\Local\Temp\cc6hp5ea.s 			page 13


 685              	.LBB123:
 686              		.file 6 "../../lib/ChibiOS/os/rt/include/chqueues.h"
 687              		.loc 6 305 0
 688 000c FFF7FEFF 		bl	chDbgCheckClassI
 689              	.LVL73:
 690              	.LBE123:
 691              	.LBE122:
 692              		.loc 1 204 0
 693 0010 6369     		ldr	r3, [r4, #20]
 694 0012 3BB1     		cbz	r3, .L39
 695              		.loc 1 206 0
 696 0014 2946     		mov	r1, r5
 697 0016 04F10C00 		add	r0, r4, #12
 698              	.LVL74:
 699 001a FFF7FEFF 		bl	chIQPutI
 700              	.LVL75:
 701 001e 0028     		cmp	r0, #0
 702 0020 0BDB     		blt	.L40
 703              	.L33:
 704              		.loc 1 208 0
 705 0022 38BD     		pop	{r3, r4, r5, pc}
 706              	.LVL76:
 707              	.L39:
 708              	.LBB124:
 709              	.LBB125:
 710              		.loc 5 798 0
 711 0024 0421     		movs	r1, #4
 712 0026 6018     		adds	r0, r4, r1
 713              	.LVL77:
 714 0028 FFF7FEFF 		bl	chEvtBroadcastFlagsI
 715              	.LVL78:
 716              	.LBE125:
 717              	.LBE124:
 718              		.loc 1 206 0
 719 002c 2946     		mov	r1, r5
 720 002e 04F10C00 		add	r0, r4, #12
 721 0032 FFF7FEFF 		bl	chIQPutI
 722              	.LVL79:
 723 0036 0028     		cmp	r0, #0
 724 0038 F3DA     		bge	.L33
 725              	.LVL80:
 726              	.L40:
 727              	.LBB126:
 728              	.LBB127:
 729              		.loc 5 798 0
 730 003a 201D     		adds	r0, r4, #4
 731              	.LVL81:
 732 003c 8021     		movs	r1, #128
 733              	.LBE127:
 734              	.LBE126:
 735              		.loc 1 208 0
 736 003e BDE83840 		pop	{r3, r4, r5, lr}
 737              		.cfi_remember_state
 738              		.cfi_restore 14
 739              		.cfi_restore 5
 740              		.cfi_restore 4
 741              		.cfi_restore 3
ARM GAS  C:\Users\stoma\AppData\Local\Temp\cc6hp5ea.s 			page 14


 742              		.cfi_def_cfa_offset 0
 743              	.LVL82:
 744              	.LBB129:
 745              	.LBB128:
 746              		.loc 5 798 0
 747 0042 FFF7FEBF 		b	chEvtBroadcastFlagsI
 748              	.LVL83:
 749              	.L38:
 750              		.cfi_restore_state
 751              	.LBE128:
 752              	.LBE129:
 753              		.loc 1 202 0 discriminator 2
 754 0046 0248     		ldr	r0, .L41
 755 0048 FFF7FEFF 		bl	chSysHalt
 756              	.LVL84:
 757 004c DEE7     		b	.L34
 758              	.L42:
 759 004e 00BF     		.align	2
 760              	.L41:
 761 0050 00000000 		.word	.LANCHOR4
 762              		.cfi_endproc
 763              	.LFE268:
 764              		.size	sdIncomingDataI, .-sdIncomingDataI
 765              		.section	.text.sdRequestDataI,"ax",%progbits
 766              		.align	1
 767              		.p2align 4,,15
 768              		.global	sdRequestDataI
 769              		.syntax unified
 770              		.thumb
 771              		.thumb_func
 772              		.fpu fpv4-sp-d16
 773              		.type	sdRequestDataI, %function
 774              	sdRequestDataI:
 775              	.LFB269:
 776              		.loc 1 225 0
 777              		.cfi_startproc
 778              		@ args = 0, pretend = 0, frame = 0
 779              		@ frame_needed = 0, uses_anonymous_args = 0
 780              	.LVL85:
 781 0000 38B5     		push	{r3, r4, r5, lr}
 782              		.cfi_def_cfa_offset 16
 783              		.cfi_offset 3, -16
 784              		.cfi_offset 4, -12
 785              		.cfi_offset 5, -8
 786              		.cfi_offset 14, -4
 787              		.loc 1 225 0
 788 0002 0446     		mov	r4, r0
 789              		.loc 1 228 0
 790 0004 FFF7FEFF 		bl	chDbgCheckClassI
 791              	.LVL86:
 792              		.loc 1 229 0
 793 0008 6CB1     		cbz	r4, .L47
 794              	.L44:
 795              		.loc 1 231 0
 796 000a 04F13000 		add	r0, r4, #48
 797 000e FFF7FEFF 		bl	chOQGetI
 798              	.LVL87:
ARM GAS  C:\Users\stoma\AppData\Local\Temp\cc6hp5ea.s 			page 15


 799              		.loc 1 232 0
 800 0012 051E     		subs	r5, r0, #0
 801 0014 01DB     		blt	.L48
 802              		.loc 1 235 0
 803 0016 2846     		mov	r0, r5
 804 0018 38BD     		pop	{r3, r4, r5, pc}
 805              	.LVL88:
 806              	.L48:
 807              	.LBB130:
 808              	.LBB131:
 809              		.loc 5 798 0
 810 001a 201D     		adds	r0, r4, #4
 811              	.LVL89:
 812 001c 0821     		movs	r1, #8
 813 001e FFF7FEFF 		bl	chEvtBroadcastFlagsI
 814              	.LVL90:
 815              	.LBE131:
 816              	.LBE130:
 817              		.loc 1 235 0
 818 0022 2846     		mov	r0, r5
 819 0024 38BD     		pop	{r3, r4, r5, pc}
 820              	.LVL91:
 821              	.L47:
 822              		.loc 1 229 0 discriminator 2
 823 0026 0248     		ldr	r0, .L49
 824 0028 FFF7FEFF 		bl	chSysHalt
 825              	.LVL92:
 826 002c EDE7     		b	.L44
 827              	.L50:
 828 002e 00BF     		.align	2
 829              	.L49:
 830 0030 00000000 		.word	.LANCHOR5
 831              		.cfi_endproc
 832              	.LFE269:
 833              		.size	sdRequestDataI, .-sdRequestDataI
 834              		.section	.rodata.__func__.7153,"a",%progbits
 835              		.align	2
 836              		.set	.LANCHOR2,. + 0
 837              		.type	__func__.7153, %object
 838              		.size	__func__.7153, 12
 839              	__func__.7153:
 840 0000 63685379 		.ascii	"chSysUnlock\000"
 840      73556E6C 
 840      6F636B00 
 841              		.section	.rodata.__func__.8931,"a",%progbits
 842              		.align	2
 843              		.set	.LANCHOR1,. + 0
 844              		.type	__func__.8931, %object
 845              		.size	__func__.8931, 8
 846              	__func__.8931:
 847 0000 73645374 		.ascii	"sdStart\000"
 847      61727400 
 848              		.section	.rodata.__func__.8935,"a",%progbits
 849              		.align	2
 850              		.set	.LANCHOR3,. + 0
 851              		.type	__func__.8935, %object
 852              		.size	__func__.8935, 7
ARM GAS  C:\Users\stoma\AppData\Local\Temp\cc6hp5ea.s 			page 16


 853              	__func__.8935:
 854 0000 73645374 		.ascii	"sdStop\000"
 854      6F7000
 855              		.section	.rodata.__func__.8940,"a",%progbits
 856              		.align	2
 857              		.set	.LANCHOR4,. + 0
 858              		.type	__func__.8940, %object
 859              		.size	__func__.8940, 16
 860              	__func__.8940:
 861 0000 7364496E 		.ascii	"sdIncomingDataI\000"
 861      636F6D69 
 861      6E674461 
 861      74614900 
 862              		.section	.rodata.__func__.8945,"a",%progbits
 863              		.align	2
 864              		.set	.LANCHOR5,. + 0
 865              		.type	__func__.8945, %object
 866              		.size	__func__.8945, 15
 867              	__func__.8945:
 868 0000 73645265 		.ascii	"sdRequestDataI\000"
 868      71756573 
 868      74446174 
 868      614900
 869              		.section	.rodata.vmt,"a",%progbits
 870              		.align	2
 871              		.set	.LANCHOR0,. + 0
 872              		.type	vmt, %object
 873              		.size	vmt, 32
 874              	vmt:
 875 0000 00000000 		.word	write
 876 0004 00000000 		.word	read
 877 0008 00000000 		.word	put
 878 000c 00000000 		.word	get
 879 0010 00000000 		.word	putt
 880 0014 00000000 		.word	gett
 881 0018 00000000 		.word	writet
 882 001c 00000000 		.word	readt
 883              		.text
 884              	.Letext0:
 885              		.file 7 "c:\\users\\stoma\\desktop\\eclipse_e-puck2\\tools\\gcc-arm-none-eabi-7-2017-q4-major-win3
 886              		.file 8 "c:\\users\\stoma\\desktop\\eclipse_e-puck2\\tools\\gcc-arm-none-eabi-7-2017-q4-major-win3
 887              		.file 9 "c:\\users\\stoma\\desktop\\eclipse_e-puck2\\tools\\gcc-arm-none-eabi-7-2017-q4-major-win3
 888              		.file 10 "../../lib/ChibiOS/os/rt/ports/ARMCMx/compilers/GCC/chtypes.h"
 889              		.file 11 "../../lib/ChibiOS/os/rt/include/chsystypes.h"
 890              		.file 12 "../../lib/ChibiOS/os/rt/include/chschd.h"
 891              		.file 13 "../../lib/ChibiOS/os/ext/CMSIS/include/core_cm4.h"
 892              		.file 14 "../../lib/ChibiOS/os/ext/CMSIS/ST/system_stm32f4xx.h"
 893              		.file 15 "../../lib/ChibiOS/os/ext/CMSIS/ST/stm32f407xx.h"
 894              		.file 16 "../../lib/ChibiOS/os/rt/ports/ARMCMx/chcore.h"
 895              		.file 17 "../../lib/ChibiOS/os/rt/ports/ARMCMx/chcore_v7m.h"
 896              		.file 18 "../../lib/ChibiOS/os/rt/include/chdebug.h"
 897              		.file 19 "../../lib/ChibiOS/os/rt/include/chtm.h"
 898              		.file 20 "../../lib/ChibiOS/os/rt/include/chstats.h"
 899              		.file 21 "../../lib/ChibiOS/os/rt/include/chsem.h"
 900              		.file 22 "../../lib/ChibiOS/os/rt/include/chmtx.h"
 901              		.file 23 "../../lib/ChibiOS/os/rt/include/chregistry.h"
 902              		.file 24 "../../lib/ChibiOS/os/hal/ports/STM32/STM32F4xx/stm32_dma.h"
ARM GAS  C:\Users\stoma\AppData\Local\Temp\cc6hp5ea.s 			page 17


 903              		.file 25 "../../lib/ChibiOS/os/hal/ports/STM32/LLD/GPIOv2/pal_lld.h"
 904              		.file 26 "../../lib/ChibiOS/os/hal/include/gpt.h"
 905              		.file 27 "../../lib/ChibiOS/os/hal/ports/STM32/LLD/TIMv1/gpt_lld.h"
 906              		.file 28 "../../lib/ChibiOS/os/hal/ports/STM32/LLD/TIMv1/stm32_tim.h"
 907              		.file 29 "../../lib/ChibiOS/os/hal/include/i2c.h"
 908              		.file 30 "../../lib/ChibiOS/os/hal/ports/STM32/LLD/I2Cv1/i2c_lld.h"
 909              		.file 31 "../../lib/ChibiOS/os/hal/include/serial.h"
 910              		.file 32 "../../lib/ChibiOS/os/hal/ports/STM32/LLD/USARTv1/serial_lld.h"
 911              		.file 33 "../../lib/ChibiOS/os/hal/include/usb.h"
 912              		.file 34 "../../lib/ChibiOS/os/hal/ports/STM32/LLD/OTGv1/usb_lld.h"
 913              		.file 35 "../../lib/ChibiOS/os/hal/ports/STM32/LLD/OTGv1/stm32_otg.h"