ARM GAS  /var/folders/km/q6jdms0143g2bddz5bhvdfd00000gn/T//ccNAkIVm.s 			page 1


   1              		.cpu cortex-m4
   2              		.eabi_attribute 27, 1
   3              		.eabi_attribute 28, 1
   4              		.eabi_attribute 20, 1
   5              		.eabi_attribute 21, 1
   6              		.eabi_attribute 23, 3
   7              		.eabi_attribute 24, 1
   8              		.eabi_attribute 25, 1
   9              		.eabi_attribute 26, 1
  10              		.eabi_attribute 30, 2
  11              		.eabi_attribute 34, 1
  12              		.eabi_attribute 18, 4
  13              		.file	"serial_lld.c"
  14              		.text
  15              	.Ltext0:
  16              		.cfi_sections	.debug_frame
  17              		.section	.text.notify3,"ax",%progbits
  18              		.align	1
  19              		.p2align 4,,15
  20              		.syntax unified
  21              		.thumb
  22              		.thumb_func
  23              		.fpu fpv4-sp-d16
  24              		.type	notify3, %function
  25              	notify3:
  26              	.LFB260:
  27              		.file 1 "../../lib/ChibiOS/os/hal/ports/STM32/LLD/USARTv1/serial_lld.c"
  28              		.loc 1 224 0
  29              		.cfi_startproc
  30              		@ args = 0, pretend = 0, frame = 0
  31              		@ frame_needed = 0, uses_anonymous_args = 0
  32              		@ link register save eliminated.
  33              	.LVL0:
  34              		.loc 1 227 0
  35 0000 024A     		ldr	r2, .L3
  36 0002 D368     		ldr	r3, [r2, #12]
  37 0004 43F08003 		orr	r3, r3, #128
  38 0008 D360     		str	r3, [r2, #12]
  39              		.loc 1 228 0
  40 000a 7047     		bx	lr
  41              	.L4:
  42              		.align	2
  43              	.L3:
  44 000c 00480040 		.word	1073760256
  45              		.cfi_endproc
  46              	.LFE260:
  47              		.size	notify3, .-notify3
  48              		.section	.text.VectorDC,"ax",%progbits
  49              		.align	1
  50              		.p2align 4,,15
  51              		.global	VectorDC
  52              		.syntax unified
  53              		.thumb
  54              		.thumb_func
  55              		.fpu fpv4-sp-d16
  56              		.type	VectorDC, %function
  57              	VectorDC:
ARM GAS  /var/folders/km/q6jdms0143g2bddz5bhvdfd00000gn/T//ccNAkIVm.s 			page 2


  58              	.LFB261:
  59              		.loc 1 306 0
  60              		.cfi_startproc
  61              		@ args = 0, pretend = 0, frame = 0
  62              		@ frame_needed = 0, uses_anonymous_args = 0
  63 0000 2DE9F843 		push	{r3, r4, r5, r6, r7, r8, r9, lr}
  64              		.cfi_def_cfa_offset 32
  65              		.cfi_offset 3, -32
  66              		.cfi_offset 4, -28
  67              		.cfi_offset 5, -24
  68              		.cfi_offset 6, -20
  69              		.cfi_offset 7, -16
  70              		.cfi_offset 8, -12
  71              		.cfi_offset 9, -8
  72              		.cfi_offset 14, -4
  73              	.LBB256:
  74              	.LBB257:
  75              		.loc 1 154 0
  76 0004 5C4F     		ldr	r7, .L60
  77              	.LBE257:
  78              	.LBE256:
  79              		.loc 1 308 0
  80 0006 FFF7FEFF 		bl	_stats_increase_irq
  81              	.LVL1:
  82 000a FFF7FEFF 		bl	_dbg_check_enter_isr
  83              	.LVL2:
  84              	.LBB339:
  85              	.LBB336:
  86              		.loc 1 154 0
  87 000e 7D6F     		ldr	r5, [r7, #116]
  88              	.LVL3:
  89              		.loc 1 155 0
  90 0010 D5F80C90 		ldr	r9, [r5, #12]
  91              	.LVL4:
  92              		.loc 1 156 0
  93 0014 2B68     		ldr	r3, [r5]
  94              		.loc 1 159 0
  95 0016 DA05     		lsls	r2, r3, #23
  96              		.loc 1 156 0
  97 0018 9CB2     		uxth	r4, r3
  98              	.LVL5:
  99              		.loc 1 159 0
 100 001a 6DD4     		bmi	.L54
 101              	.L6:
 102              	.LVL6:
 103              	.LBB258:
 104              	.LBB259:
 105              	.LBB260:
 106              	.LBB261:
 107              	.LBB262:
 108              	.LBB263:
 109              	.LBB264:
 110              		.file 2 "../../lib/ChibiOS/os/ext/CMSIS/include/core_cmFunc.h"
 111              		.loc 2 546 0
 112 001c 2023     		movs	r3, #32
 113              		.syntax unified
 114              	@ 546 "../../lib/ChibiOS/os/ext/CMSIS/include/core_cmFunc.h" 1
ARM GAS  /var/folders/km/q6jdms0143g2bddz5bhvdfd00000gn/T//ccNAkIVm.s 			page 3


 115 001e 83F31188 		MSR basepri, r3
 116              	@ 0 "" 2
 117              	.LVL7:
 118              		.thumb
 119              		.syntax unified
 120              	.LBE264:
 121              	.LBE263:
 122              	.LBE262:
 123              	.LBE261:
 124              		.file 3 "../../lib/ChibiOS/os/rt/include/chsys.h"
 125              		.loc 3 389 0
 126 0022 FFF7FEFF 		bl	_stats_start_measure_crit_isr
 127              	.LVL8:
 128              		.loc 3 390 0
 129 0026 FFF7FEFF 		bl	_dbg_check_lock_from_isr
 130              	.LVL9:
 131              	.LBE260:
 132              	.LBE259:
 133              	.LBE258:
 134              		.loc 1 168 0
 135 002a 14F02F0F 		tst	r4, #47
 136 002e 2DD0     		beq	.L7
 137              	.LBB265:
 138              	.LBB266:
 139              	.LBB267:
 140              	.LBB268:
 141              	.LBB269:
 142              		.file 4 "../../lib/ChibiOS/os/hal/osal/rt/osal.h"
 143              		.loc 4 798 0
 144 0030 524E     		ldr	r6, .L60+4
 145              	.LBE269:
 146              	.LBE268:
 147              	.LBE267:
 148              	.LBE266:
 149              		.loc 1 177 0
 150 0032 A6F10408 		sub	r8, r6, #4
 151 0036 07E0     		b	.L14
 152              	.L8:
 153              		.loc 1 176 0
 154 0038 A006     		lsls	r0, r4, #26
 155              		.loc 1 175 0
 156 003a 6968     		ldr	r1, [r5, #4]
 157              	.LVL10:
 158              		.loc 1 176 0
 159 003c 1DD4     		bmi	.L55
 160              	.L13:
 161              		.loc 1 178 0
 162 003e 2C68     		ldr	r4, [r5]
 163              	.LVL11:
 164 0040 A4B2     		uxth	r4, r4
 165              	.LVL12:
 166              	.LBE265:
 167              		.loc 1 168 0
 168 0042 14F02F0F 		tst	r4, #47
 169 0046 21D0     		beq	.L7
 170              	.LVL13:
 171              	.L14:
ARM GAS  /var/folders/km/q6jdms0143g2bddz5bhvdfd00000gn/T//ccNAkIVm.s 			page 4


 172              	.LBB274:
 173              		.loc 1 173 0
 174 0048 2307     		lsls	r3, r4, #28
 175 004a F5D0     		beq	.L8
 176              	.LVL14:
 177              	.LBB273:
 178              	.LBB272:
 179              		.loc 1 138 0
 180 004c 14F0080F 		tst	r4, #8
 181 0050 0CBF     		ite	eq
 182 0052 0021     		moveq	r1, #0
 183 0054 8021     		movne	r1, #128
 184              	.LVL15:
 185              		.loc 1 139 0
 186 0056 E007     		lsls	r0, r4, #31
 187              		.loc 1 140 0
 188 0058 48BF     		it	mi
 189 005a 41F02001 		orrmi	r1, r1, #32
 190              	.LVL16:
 191              		.loc 1 141 0
 192 005e A207     		lsls	r2, r4, #30
 193              		.loc 1 142 0
 194 0060 48BF     		it	mi
 195 0062 41F04001 		orrmi	r1, r1, #64
 196              	.LVL17:
 197              		.loc 1 143 0
 198 0066 6307     		lsls	r3, r4, #29
 199              		.loc 1 144 0
 200 0068 48BF     		it	mi
 201 006a 41F48071 		orrmi	r1, r1, #256
 202              	.LVL18:
 203              	.LBB271:
 204              	.LBB270:
 205              		.loc 4 798 0
 206 006e 3046     		mov	r0, r6
 207 0070 FFF7FEFF 		bl	chEvtBroadcastFlagsI
 208              	.LVL19:
 209              	.LBE270:
 210              	.LBE271:
 211              	.LBE272:
 212              	.LBE273:
 213              		.loc 1 176 0
 214 0074 A006     		lsls	r0, r4, #26
 215              		.loc 1 175 0
 216 0076 6968     		ldr	r1, [r5, #4]
 217              	.LVL20:
 218              		.loc 1 176 0
 219 0078 E1D5     		bpl	.L13
 220              	.LVL21:
 221              	.L55:
 222              		.loc 1 177 0
 223 007a C9B2     		uxtb	r1, r1
 224 007c 4046     		mov	r0, r8
 225 007e FFF7FEFF 		bl	sdIncomingDataI
 226              	.LVL22:
 227              		.loc 1 178 0
 228 0082 2C68     		ldr	r4, [r5]
ARM GAS  /var/folders/km/q6jdms0143g2bddz5bhvdfd00000gn/T//ccNAkIVm.s 			page 5


 229              	.LVL23:
 230 0084 A4B2     		uxth	r4, r4
 231              	.LVL24:
 232              	.LBE274:
 233              		.loc 1 168 0
 234 0086 14F02F0F 		tst	r4, #47
 235 008a DDD1     		bne	.L14
 236              	.L7:
 237              	.LBB275:
 238              	.LBB276:
 239              	.LBB277:
 240              		.loc 3 408 0
 241 008c FFF7FEFF 		bl	_dbg_check_unlock_from_isr
 242              	.LVL25:
 243              		.loc 3 409 0
 244 0090 FFF7FEFF 		bl	_stats_stop_measure_crit_isr
 245              	.LVL26:
 246              	.LBB278:
 247              	.LBB279:
 248              	.LBB280:
 249              	.LBB281:
 250              		.loc 2 546 0
 251 0094 0023     		movs	r3, #0
 252              		.syntax unified
 253              	@ 546 "../../lib/ChibiOS/os/ext/CMSIS/include/core_cmFunc.h" 1
 254 0096 83F31188 		MSR basepri, r3
 255              	@ 0 "" 2
 256              	.LVL27:
 257              		.thumb
 258              		.syntax unified
 259              	.LBE281:
 260              	.LBE280:
 261              	.LBE279:
 262              	.LBE278:
 263              	.LBE277:
 264              	.LBE276:
 265              	.LBE275:
 266              		.loc 1 183 0
 267 009a 19F0800F 		tst	r9, #128
 268 009e 01D0     		beq	.L15
 269 00a0 2206     		lsls	r2, r4, #24
 270 00a2 40D4     		bmi	.L56
 271              	.L15:
 272              		.loc 1 197 0
 273 00a4 6306     		lsls	r3, r4, #25
 274 00a6 05D4     		bmi	.L57
 275              	.LVL28:
 276              	.LBE336:
 277              	.LBE339:
 278              		.loc 1 312 0
 279 00a8 FFF7FEFF 		bl	_dbg_check_leave_isr
 280              	.LVL29:
 281              		.loc 1 313 0
 282 00ac BDE8F843 		pop	{r3, r4, r5, r6, r7, r8, r9, lr}
 283              		.cfi_remember_state
 284              		.cfi_restore 14
 285              		.cfi_restore 9
ARM GAS  /var/folders/km/q6jdms0143g2bddz5bhvdfd00000gn/T//ccNAkIVm.s 			page 6


 286              		.cfi_restore 8
 287              		.cfi_restore 7
 288              		.cfi_restore 6
 289              		.cfi_restore 5
 290              		.cfi_restore 4
 291              		.cfi_restore 3
 292              		.cfi_def_cfa_offset 0
 293              	.LVL30:
 294              		.loc 1 312 0
 295 00b0 FFF7FEBF 		b	_port_irq_epilogue
 296              	.LVL31:
 297              	.L57:
 298              		.cfi_restore_state
 299              	.LBB340:
 300              	.LBB337:
 301              	.LBB282:
 302              	.LBB283:
 303              	.LBB284:
 304              	.LBB285:
 305              	.LBB286:
 306              	.LBB287:
 307              	.LBB288:
 308              		.loc 2 546 0
 309 00b4 2023     		movs	r3, #32
 310              		.syntax unified
 311              	@ 546 "../../lib/ChibiOS/os/ext/CMSIS/include/core_cmFunc.h" 1
 312 00b6 83F31188 		MSR basepri, r3
 313              	@ 0 "" 2
 314              	.LVL32:
 315              		.thumb
 316              		.syntax unified
 317              	.LBE288:
 318              	.LBE287:
 319              	.LBE286:
 320              	.LBE285:
 321              		.loc 3 389 0
 322 00ba FFF7FEFF 		bl	_stats_start_measure_crit_isr
 323              	.LVL33:
 324              		.loc 3 390 0
 325 00be FFF7FEFF 		bl	_dbg_check_lock_from_isr
 326              	.LVL34:
 327              	.LBE284:
 328              	.LBE283:
 329              	.LBE282:
 330              	.LBB289:
 331              	.LBB290:
 332              		.file 5 "../../lib/ChibiOS/os/rt/include/chqueues.h"
 333              		.loc 5 388 0
 334 00c2 FFF7FEFF 		bl	chDbgCheckClassI
 335              	.LVL35:
 336              		.loc 5 390 0
 337 00c6 D7E91123 		ldrd	r2, r3, [r7, #68]
 338 00ca 9A42     		cmp	r2, r3
 339 00cc 40D0     		beq	.L58
 340              	.LVL36:
 341              	.L19:
 342              	.LBE290:
ARM GAS  /var/folders/km/q6jdms0143g2bddz5bhvdfd00000gn/T//ccNAkIVm.s 			page 7


 343              	.LBE289:
 344              		.loc 1 201 0
 345 00ce 4FF6BF73 		movw	r3, #65471
 346 00d2 09EA0303 		and	r3, r9, r3
 347              		.loc 1 202 0
 348 00d6 6FF04002 		mvn	r2, #64
 349              		.loc 1 201 0
 350 00da EB60     		str	r3, [r5, #12]
 351              		.loc 1 202 0
 352 00dc 2A60     		str	r2, [r5]
 353              	.LBB292:
 354              	.LBB293:
 355              	.LBB294:
 356              		.loc 3 408 0
 357 00de FFF7FEFF 		bl	_dbg_check_unlock_from_isr
 358              	.LVL37:
 359              		.loc 3 409 0
 360 00e2 FFF7FEFF 		bl	_stats_stop_measure_crit_isr
 361              	.LVL38:
 362              	.LBB295:
 363              	.LBB296:
 364              	.LBB297:
 365              	.LBB298:
 366              		.loc 2 546 0
 367 00e6 0023     		movs	r3, #0
 368              		.syntax unified
 369              	@ 546 "../../lib/ChibiOS/os/ext/CMSIS/include/core_cmFunc.h" 1
 370 00e8 83F31188 		MSR basepri, r3
 371              	@ 0 "" 2
 372              	.LVL39:
 373              		.thumb
 374              		.syntax unified
 375              	.LBE298:
 376              	.LBE297:
 377              	.LBE296:
 378              	.LBE295:
 379              	.LBE294:
 380              	.LBE293:
 381              	.LBE292:
 382              	.LBE337:
 383              	.LBE340:
 384              		.loc 1 312 0
 385 00ec FFF7FEFF 		bl	_dbg_check_leave_isr
 386              	.LVL40:
 387              		.loc 1 313 0
 388 00f0 BDE8F843 		pop	{r3, r4, r5, r6, r7, r8, r9, lr}
 389              		.cfi_remember_state
 390              		.cfi_restore 14
 391              		.cfi_restore 9
 392              		.cfi_restore 8
 393              		.cfi_restore 7
 394              		.cfi_restore 6
 395              		.cfi_restore 5
 396              		.cfi_restore 4
 397              		.cfi_restore 3
 398              		.cfi_def_cfa_offset 0
 399              	.LVL41:
ARM GAS  /var/folders/km/q6jdms0143g2bddz5bhvdfd00000gn/T//ccNAkIVm.s 			page 8


 400              		.loc 1 312 0
 401 00f4 FFF7FEBF 		b	_port_irq_epilogue
 402              	.LVL42:
 403              	.L54:
 404              		.cfi_restore_state
 405              	.LBB341:
 406              	.LBB338:
 407              	.LBB299:
 408              	.LBB300:
 409              	.LBB301:
 410              	.LBB302:
 411              	.LBB303:
 412              	.LBB304:
 413              	.LBB305:
 414              		.loc 2 546 0
 415 00f8 2023     		movs	r3, #32
 416              		.syntax unified
 417              	@ 546 "../../lib/ChibiOS/os/ext/CMSIS/include/core_cmFunc.h" 1
 418 00fa 83F31188 		MSR basepri, r3
 419              	@ 0 "" 2
 420              	.LVL43:
 421              		.thumb
 422              		.syntax unified
 423              	.LBE305:
 424              	.LBE304:
 425              	.LBE303:
 426              	.LBE302:
 427              		.loc 3 389 0
 428 00fe FFF7FEFF 		bl	_stats_start_measure_crit_isr
 429              	.LVL44:
 430              		.loc 3 390 0
 431 0102 FFF7FEFF 		bl	_dbg_check_lock_from_isr
 432              	.LVL45:
 433              	.LBE301:
 434              	.LBE300:
 435              	.LBE299:
 436              	.LBB306:
 437              	.LBB307:
 438              		.loc 4 798 0
 439 0106 381D     		adds	r0, r7, #4
 440 0108 4FF40071 		mov	r1, #512
 441 010c FFF7FEFF 		bl	chEvtBroadcastFlagsI
 442              	.LVL46:
 443              	.LBE307:
 444              	.LBE306:
 445              		.loc 1 162 0
 446 0110 6FF48073 		mvn	r3, #256
 447 0114 2B60     		str	r3, [r5]
 448              	.LBB308:
 449              	.LBB309:
 450              	.LBB310:
 451              		.loc 3 408 0
 452 0116 FFF7FEFF 		bl	_dbg_check_unlock_from_isr
 453              	.LVL47:
 454              		.loc 3 409 0
 455 011a FFF7FEFF 		bl	_stats_stop_measure_crit_isr
 456              	.LVL48:
ARM GAS  /var/folders/km/q6jdms0143g2bddz5bhvdfd00000gn/T//ccNAkIVm.s 			page 9


 457              	.LBB311:
 458              	.LBB312:
 459              	.LBB313:
 460              	.LBB314:
 461              		.loc 2 546 0
 462 011e 0023     		movs	r3, #0
 463              		.syntax unified
 464              	@ 546 "../../lib/ChibiOS/os/ext/CMSIS/include/core_cmFunc.h" 1
 465 0120 83F31188 		MSR basepri, r3
 466              	@ 0 "" 2
 467              	.LVL49:
 468              		.thumb
 469              		.syntax unified
 470 0124 7AE7     		b	.L6
 471              	.L56:
 472              	.LVL50:
 473              	.LBE314:
 474              	.LBE313:
 475              	.LBE312:
 476              	.LBE311:
 477              	.LBE310:
 478              	.LBE309:
 479              	.LBE308:
 480              	.LBB315:
 481              	.LBB316:
 482              	.LBB317:
 483              	.LBB318:
 484              	.LBB319:
 485              	.LBB320:
 486              	.LBB321:
 487              	.LBB322:
 488 0126 2023     		movs	r3, #32
 489              		.syntax unified
 490              	@ 546 "../../lib/ChibiOS/os/ext/CMSIS/include/core_cmFunc.h" 1
 491 0128 83F31188 		MSR basepri, r3
 492              	@ 0 "" 2
 493              	.LVL51:
 494              		.thumb
 495              		.syntax unified
 496              	.LBE322:
 497              	.LBE321:
 498              	.LBE320:
 499              	.LBE319:
 500              		.loc 3 389 0
 501 012c FFF7FEFF 		bl	_stats_start_measure_crit_isr
 502              	.LVL52:
 503              		.loc 3 390 0
 504 0130 FFF7FEFF 		bl	_dbg_check_lock_from_isr
 505              	.LVL53:
 506              	.LBE318:
 507              	.LBE317:
 508              	.LBE316:
 509              		.loc 1 186 0
 510 0134 1248     		ldr	r0, .L60+8
 511 0136 FFF7FEFF 		bl	chOQGetI
 512              	.LVL54:
 513              		.loc 1 187 0
ARM GAS  /var/folders/km/q6jdms0143g2bddz5bhvdfd00000gn/T//ccNAkIVm.s 			page 10


 514 013a 0028     		cmp	r0, #0
 515 013c 10DB     		blt	.L59
 516              		.loc 1 192 0
 517 013e 6860     		str	r0, [r5, #4]
 518              	.LVL55:
 519              	.L17:
 520              	.LBB323:
 521              	.LBB324:
 522              	.LBB325:
 523              		.loc 3 408 0
 524 0140 FFF7FEFF 		bl	_dbg_check_unlock_from_isr
 525              	.LVL56:
 526              		.loc 3 409 0
 527 0144 FFF7FEFF 		bl	_stats_stop_measure_crit_isr
 528              	.LVL57:
 529              	.LBB326:
 530              	.LBB327:
 531              	.LBB328:
 532              	.LBB329:
 533              		.loc 2 546 0
 534 0148 0023     		movs	r3, #0
 535              		.syntax unified
 536              	@ 546 "../../lib/ChibiOS/os/ext/CMSIS/include/core_cmFunc.h" 1
 537 014a 83F31188 		MSR basepri, r3
 538              	@ 0 "" 2
 539              	.LVL58:
 540              		.thumb
 541              		.syntax unified
 542 014e A9E7     		b	.L15
 543              	.LVL59:
 544              	.L58:
 545              	.LBE329:
 546              	.LBE328:
 547              	.LBE327:
 548              	.LBE326:
 549              	.LBE325:
 550              	.LBE324:
 551              	.LBE323:
 552              	.LBE315:
 553              	.LBB332:
 554              	.LBB291:
 555              		.loc 5 390 0
 556 0150 BB6B     		ldr	r3, [r7, #56]
 557 0152 002B     		cmp	r3, #0
 558 0154 BBD0     		beq	.L19
 559              	.LVL60:
 560              	.LBE291:
 561              	.LBE332:
 562              	.LBB333:
 563              	.LBB334:
 564              		.loc 4 798 0
 565 0156 1021     		movs	r1, #16
 566 0158 0848     		ldr	r0, .L60+4
 567 015a FFF7FEFF 		bl	chEvtBroadcastFlagsI
 568              	.LVL61:
 569 015e B6E7     		b	.L19
 570              	.LVL62:
ARM GAS  /var/folders/km/q6jdms0143g2bddz5bhvdfd00000gn/T//ccNAkIVm.s 			page 11


 571              	.L59:
 572              	.LBE334:
 573              	.LBE333:
 574              	.LBB335:
 575              	.LBB330:
 576              	.LBB331:
 577 0160 0821     		movs	r1, #8
 578 0162 0648     		ldr	r0, .L60+4
 579              	.LVL63:
 580 0164 FFF7FEFF 		bl	chEvtBroadcastFlagsI
 581              	.LVL64:
 582              	.LBE331:
 583              	.LBE330:
 584              		.loc 1 189 0
 585 0168 4FF63F73 		movw	r3, #65343
 586 016c 09EA0303 		and	r3, r9, r3
 587 0170 43F04003 		orr	r3, r3, #64
 588 0174 EB60     		str	r3, [r5, #12]
 589 0176 E3E7     		b	.L17
 590              	.L61:
 591              		.align	2
 592              	.L60:
 593 0178 00000000 		.word	.LANCHOR0
 594 017c 04000000 		.word	.LANCHOR0+4
 595 0180 30000000 		.word	.LANCHOR0+48
 596              	.LBE335:
 597              	.LBE338:
 598              	.LBE341:
 599              		.cfi_endproc
 600              	.LFE261:
 601              		.size	VectorDC, .-VectorDC
 602              		.section	.text.sd_lld_init,"ax",%progbits
 603              		.align	1
 604              		.p2align 4,,15
 605              		.global	sd_lld_init
 606              		.syntax unified
 607              		.thumb
 608              		.thumb_func
 609              		.fpu fpv4-sp-d16
 610              		.type	sd_lld_init, %function
 611              	sd_lld_init:
 612              	.LFB262:
 613              		.loc 1 382 0
 614              		.cfi_startproc
 615              		@ args = 0, pretend = 0, frame = 0
 616              		@ frame_needed = 0, uses_anonymous_args = 0
 617 0000 10B5     		push	{r4, lr}
 618              		.cfi_def_cfa_offset 8
 619              		.cfi_offset 4, -8
 620              		.cfi_offset 14, -4
 621              		.loc 1 395 0
 622 0002 044C     		ldr	r4, .L64
 623 0004 044A     		ldr	r2, .L64+4
 624 0006 2046     		mov	r0, r4
 625 0008 0021     		movs	r1, #0
 626 000a FFF7FEFF 		bl	sdObjectInit
 627              	.LVL65:
ARM GAS  /var/folders/km/q6jdms0143g2bddz5bhvdfd00000gn/T//ccNAkIVm.s 			page 12


 628              		.loc 1 396 0
 629 000e 034B     		ldr	r3, .L64+8
 630 0010 6367     		str	r3, [r4, #116]
 631              		.loc 1 413 0
 632 0012 10BD     		pop	{r4, pc}
 633              	.L65:
 634              		.align	2
 635              	.L64:
 636 0014 00000000 		.word	.LANCHOR0
 637 0018 00000000 		.word	notify3
 638 001c 00480040 		.word	1073760256
 639              		.cfi_endproc
 640              	.LFE262:
 641              		.size	sd_lld_init, .-sd_lld_init
 642              		.section	.text.sd_lld_start,"ax",%progbits
 643              		.align	1
 644              		.p2align 4,,15
 645              		.global	sd_lld_start
 646              		.syntax unified
 647              		.thumb
 648              		.thumb_func
 649              		.fpu fpv4-sp-d16
 650              		.type	sd_lld_start, %function
 651              	sd_lld_start:
 652              	.LFB263:
 653              		.loc 1 425 0
 654              		.cfi_startproc
 655              		@ args = 0, pretend = 0, frame = 0
 656              		@ frame_needed = 0, uses_anonymous_args = 0
 657              	.LVL66:
 658 0000 38B5     		push	{r3, r4, r5, lr}
 659              		.cfi_def_cfa_offset 16
 660              		.cfi_offset 3, -16
 661              		.cfi_offset 4, -12
 662              		.cfi_offset 5, -8
 663              		.cfi_offset 14, -4
 664              		.loc 1 428 0
 665 0002 1C4C     		ldr	r4, .L75
 666              		.loc 1 430 0
 667 0004 037A     		ldrb	r3, [r0, #8]	@ zero_extendqisi2
 668              		.loc 1 428 0
 669 0006 0029     		cmp	r1, #0
 670 0008 18BF     		it	ne
 671 000a 0C46     		movne	r4, r1
 672              	.LVL67:
 673              		.loc 1 430 0
 674 000c 012B     		cmp	r3, #1
 675              		.loc 1 425 0
 676 000e 0546     		mov	r5, r0
 677              		.loc 1 430 0
 678 0010 23D0     		beq	.L74
 679              	.LVL68:
 680              	.L68:
 681 0012 6B6F     		ldr	r3, [r5, #116]
 682              	.LVL69:
 683              	.LBB342:
 684              	.LBB343:
ARM GAS  /var/folders/km/q6jdms0143g2bddz5bhvdfd00000gn/T//ccNAkIVm.s 			page 13


 685              		.loc 1 96 0
 686 0014 1849     		ldr	r1, .L75+4
 687 0016 2068     		ldr	r0, [r4]
 688 0018 8B42     		cmp	r3, r1
 689 001a 19D0     		beq	.L69
 690 001c 174A     		ldr	r2, .L75+8
 691 001e 9342     		cmp	r3, r2
 692 0020 16D0     		beq	.L69
 693              		.loc 1 102 0
 694 0022 174A     		ldr	r2, .L75+12
 695 0024 B2FBF0F2 		udiv	r2, r2, r0
 696 0028 9A60     		str	r2, [r3, #8]
 697              	.L71:
 698              		.loc 1 108 0
 699 002a A288     		ldrh	r2, [r4, #4]
 700              		.loc 1 105 0
 701 002c E088     		ldrh	r0, [r4, #6]
 702              		.loc 1 106 0
 703 002e 2189     		ldrh	r1, [r4, #8]
 704              		.loc 1 108 0
 705 0030 42F40452 		orr	r2, r2, #8448
 706 0034 42F02C02 		orr	r2, r2, #44
 707              		.loc 1 105 0
 708 0038 40F04000 		orr	r0, r0, #64
 709              		.loc 1 106 0
 710 003c 41F00101 		orr	r1, r1, #1
 711              		.loc 1 110 0
 712 0040 0024     		movs	r4, #0
 713              	.LVL70:
 714              		.loc 1 105 0
 715 0042 1861     		str	r0, [r3, #16]
 716              		.loc 1 106 0
 717 0044 5961     		str	r1, [r3, #20]
 718              		.loc 1 107 0
 719 0046 DA60     		str	r2, [r3, #12]
 720              		.loc 1 110 0
 721 0048 1C60     		str	r4, [r3]
 722              		.loc 1 111 0
 723 004a 1A68     		ldr	r2, [r3]
 724              		.loc 1 112 0
 725 004c 5B68     		ldr	r3, [r3, #4]
 726              	.LVL71:
 727              	.LBE343:
 728              	.LBE342:
 729              		.loc 1 469 0
 730 004e 38BD     		pop	{r3, r4, r5, pc}
 731              	.LVL72:
 732              	.L69:
 733              	.LBB345:
 734              	.LBB344:
 735              		.loc 1 100 0
 736 0050 0C4A     		ldr	r2, .L75+16
 737 0052 B2FBF0F2 		udiv	r2, r2, r0
 738 0056 9A60     		str	r2, [r3, #8]
 739 0058 E7E7     		b	.L71
 740              	.LVL73:
 741              	.L74:
ARM GAS  /var/folders/km/q6jdms0143g2bddz5bhvdfd00000gn/T//ccNAkIVm.s 			page 14


 742              	.LBE344:
 743              	.LBE345:
 744              		.loc 1 444 0
 745 005a 0B4B     		ldr	r3, .L75+20
 746 005c 9842     		cmp	r0, r3
 747 005e D8D1     		bne	.L68
 748              		.loc 1 445 0
 749 0060 0A4A     		ldr	r2, .L75+24
 750 0062 136C     		ldr	r3, [r2, #64]
 751 0064 43F48023 		orr	r3, r3, #262144
 752 0068 1364     		str	r3, [r2, #64]
 753              		.loc 1 446 0
 754 006a 0C21     		movs	r1, #12
 755 006c 2720     		movs	r0, #39
 756              	.LVL74:
 757 006e FFF7FEFF 		bl	nvicEnableVector
 758              	.LVL75:
 759 0072 CEE7     		b	.L68
 760              	.L76:
 761              		.align	2
 762              	.L75:
 763 0074 00000000 		.word	.LANCHOR1
 764 0078 00100140 		.word	1073811456
 765 007c 00140140 		.word	1073812480
 766 0080 80DE8002 		.word	42000000
 767 0084 00BD0105 		.word	84000000
 768 0088 00000000 		.word	.LANCHOR0
 769 008c 00380240 		.word	1073887232
 770              		.cfi_endproc
 771              	.LFE263:
 772              		.size	sd_lld_start, .-sd_lld_start
 773              		.section	.text.sd_lld_stop,"ax",%progbits
 774              		.align	1
 775              		.p2align 4,,15
 776              		.global	sd_lld_stop
 777              		.syntax unified
 778              		.thumb
 779              		.thumb_func
 780              		.fpu fpv4-sp-d16
 781              		.type	sd_lld_stop, %function
 782              	sd_lld_stop:
 783              	.LFB264:
 784              		.loc 1 480 0
 785              		.cfi_startproc
 786              		@ args = 0, pretend = 0, frame = 0
 787              		@ frame_needed = 0, uses_anonymous_args = 0
 788              		@ link register save eliminated.
 789              	.LVL76:
 790              		.loc 1 482 0
 791 0000 037A     		ldrb	r3, [r0, #8]	@ zero_extendqisi2
 792 0002 022B     		cmp	r3, #2
 793 0004 00D0     		beq	.L81
 794              	.L77:
 795              		.loc 1 527 0
 796 0006 7047     		bx	lr
 797              	.L81:
 798              		.loc 1 499 0
ARM GAS  /var/folders/km/q6jdms0143g2bddz5bhvdfd00000gn/T//ccNAkIVm.s 			page 15


 799 0008 0749     		ldr	r1, .L82
 800              		.loc 1 483 0
 801 000a 436F     		ldr	r3, [r0, #116]
 802              	.LVL77:
 803              	.LBB346:
 804              	.LBB347:
 805              		.loc 1 123 0
 806 000c 0022     		movs	r2, #0
 807              	.LBE347:
 808              	.LBE346:
 809              		.loc 1 499 0
 810 000e 8842     		cmp	r0, r1
 811              	.LBB349:
 812              	.LBB348:
 813              		.loc 1 123 0
 814 0010 DA60     		str	r2, [r3, #12]
 815              		.loc 1 124 0
 816 0012 1A61     		str	r2, [r3, #16]
 817              		.loc 1 125 0
 818 0014 5A61     		str	r2, [r3, #20]
 819              	.LVL78:
 820              	.LBE348:
 821              	.LBE349:
 822              		.loc 1 499 0
 823 0016 F6D1     		bne	.L77
 824              		.loc 1 500 0
 825 0018 044A     		ldr	r2, .L82+4
 826 001a 136C     		ldr	r3, [r2, #64]
 827 001c 23F48023 		bic	r3, r3, #262144
 828 0020 1364     		str	r3, [r2, #64]
 829              		.loc 1 501 0
 830 0022 2720     		movs	r0, #39
 831              	.LVL79:
 832 0024 FFF7FEBF 		b	nvicDisableVector
 833              	.LVL80:
 834              	.L83:
 835              		.align	2
 836              	.L82:
 837 0028 00000000 		.word	.LANCHOR0
 838 002c 00380240 		.word	1073887232
 839              		.cfi_endproc
 840              	.LFE264:
 841              		.size	sd_lld_stop, .-sd_lld_stop
 842              		.global	SD3
 843              		.section	.bss.SD3,"aw",%nobits
 844              		.align	2
 845              		.set	.LANCHOR0,. + 0
 846              		.type	SD3, %object
 847              		.size	SD3, 120
 848              	SD3:
 849 0000 00000000 		.space	120
 849      00000000 
 849      00000000 
 849      00000000 
 849      00000000 
 850              		.section	.rodata.default_config,"a",%progbits
 851              		.align	2
ARM GAS  /var/folders/km/q6jdms0143g2bddz5bhvdfd00000gn/T//ccNAkIVm.s 			page 16


 852              		.set	.LANCHOR1,. + 0
 853              		.type	default_config, %object
 854              		.size	default_config, 12
 855              	default_config:
 856 0000 00C20100 		.word	115200
 857 0004 0000     		.short	0
 858 0006 0040     		.short	16384
 859 0008 0000     		.short	0
 860 000a 0000     		.space	2
 861              		.text
 862              	.Letext0:
 863              		.file 6 "/Applications/Eclipse_e-puck2.app/Contents/Eclipse_e-puck2/Tools/gcc-arm-none-eabi-7-2017
 864              		.file 7 "/Applications/Eclipse_e-puck2.app/Contents/Eclipse_e-puck2/Tools/gcc-arm-none-eabi-7-2017
 865              		.file 8 "/Applications/Eclipse_e-puck2.app/Contents/Eclipse_e-puck2/Tools/gcc-arm-none-eabi-7-2017
 866              		.file 9 "../../lib/ChibiOS/os/rt/ports/ARMCMx/compilers/GCC/chtypes.h"
 867              		.file 10 "../../lib/ChibiOS/os/rt/include/chsystypes.h"
 868              		.file 11 "../../lib/ChibiOS/os/rt/include/chschd.h"
 869              		.file 12 "../../lib/ChibiOS/os/ext/CMSIS/include/core_cm4.h"
 870              		.file 13 "../../lib/ChibiOS/os/ext/CMSIS/ST/system_stm32f4xx.h"
 871              		.file 14 "../../lib/ChibiOS/os/ext/CMSIS/ST/stm32f407xx.h"
 872              		.file 15 "../../lib/ChibiOS/os/rt/ports/ARMCMx/chcore.h"
 873              		.file 16 "../../lib/ChibiOS/os/rt/ports/ARMCMx/chcore_v7m.h"
 874              		.file 17 "../../lib/ChibiOS/os/rt/include/chdebug.h"
 875              		.file 18 "../../lib/ChibiOS/os/rt/include/chtm.h"
 876              		.file 19 "../../lib/ChibiOS/os/rt/include/chstats.h"
 877              		.file 20 "../../lib/ChibiOS/os/rt/include/chsem.h"
 878              		.file 21 "../../lib/ChibiOS/os/rt/include/chmtx.h"
 879              		.file 22 "../../lib/ChibiOS/os/rt/include/chregistry.h"
 880              		.file 23 "../../lib/ChibiOS/os/rt/include/chevents.h"
 881              		.file 24 "../../lib/ChibiOS/os/hal/ports/STM32/STM32F4xx/stm32_dma.h"
 882              		.file 25 "../../lib/ChibiOS/os/hal/ports/STM32/LLD/GPIOv2/pal_lld.h"
 883              		.file 26 "../../lib/ChibiOS/os/hal/include/gpt.h"
 884              		.file 27 "../../lib/ChibiOS/os/hal/ports/STM32/LLD/TIMv1/gpt_lld.h"
 885              		.file 28 "../../lib/ChibiOS/os/hal/ports/STM32/LLD/TIMv1/stm32_tim.h"
 886              		.file 29 "../../lib/ChibiOS/os/hal/include/i2c.h"
 887              		.file 30 "../../lib/ChibiOS/os/hal/ports/STM32/LLD/I2Cv1/i2c_lld.h"
 888              		.file 31 "../../lib/ChibiOS/os/hal/include/serial.h"
 889              		.file 32 "../../lib/ChibiOS/os/hal/ports/STM32/LLD/USARTv1/serial_lld.h"
 890              		.file 33 "../../lib/ChibiOS/os/hal/include/usb.h"
 891              		.file 34 "../../lib/ChibiOS/os/hal/ports/STM32/LLD/OTGv1/usb_lld.h"
 892              		.file 35 "../../lib/ChibiOS/os/hal/ports/STM32/LLD/OTGv1/stm32_otg.h"
 893              		.file 36 "../../lib/ChibiOS/os/hal/ports/common/ARMCMx/nvic.h"