ARM GAS  /var/folders/km/q6jdms0143g2bddz5bhvdfd00000gn/T//cciAUmsz.s 			page 1


   1              		.cpu cortex-m4
   2              		.eabi_attribute 27, 1
   3              		.eabi_attribute 28, 1
   4              		.eabi_attribute 20, 1
   5              		.eabi_attribute 21, 1
   6              		.eabi_attribute 23, 3
   7              		.eabi_attribute 24, 1
   8              		.eabi_attribute 25, 1
   9              		.eabi_attribute 26, 1
  10              		.eabi_attribute 30, 2
  11              		.eabi_attribute 34, 1
  12              		.eabi_attribute 18, 4
  13              		.file	"serial_usb.c"
  14              		.text
  15              	.Ltext0:
  16              		.cfi_sections	.debug_frame
  17              		.section	.text.inotify,"ax",%progbits
  18              		.align	1
  19              		.p2align 4,,15
  20              		.syntax unified
  21              		.thumb
  22              		.thumb_func
  23              		.fpu fpv4-sp-d16
  24              		.type	inotify, %function
  25              	inotify:
  26              	.LFB264:
  27              		.file 1 "../../lib/ChibiOS/os/hal/src/serial_usb.c"
  28              		.loc 1 109 0
  29              		.cfi_startproc
  30              		@ args = 0, pretend = 0, frame = 0
  31              		@ frame_needed = 0, uses_anonymous_args = 0
  32              	.LVL0:
  33 0000 70B5     		push	{r4, r5, r6, lr}
  34              		.cfi_def_cfa_offset 16
  35              		.cfi_offset 4, -16
  36              		.cfi_offset 5, -12
  37              		.cfi_offset 6, -8
  38              		.cfi_offset 14, -4
  39              		.loc 1 111 0
  40 0002 046A     		ldr	r4, [r0, #32]
  41              	.LVL1:
  42              		.loc 1 115 0
  43 0004 D4F85422 		ldr	r2, [r4, #596]
  44 0008 1368     		ldr	r3, [r2]
  45 000a 1978     		ldrb	r1, [r3]	@ zero_extendqisi2
  46 000c 0429     		cmp	r1, #4
  47 000e 00D0     		beq	.L8
  48              	.LVL2:
  49              	.L1:
  50              		.loc 1 137 0
  51 0010 70BD     		pop	{r4, r5, r6, pc}
  52              	.LVL3:
  53              	.L8:
  54              		.loc 1 115 0 discriminator 1
  55 0012 217A     		ldrb	r1, [r4, #8]	@ zero_extendqisi2
  56 0014 0229     		cmp	r1, #2
  57 0016 FBD1     		bne	.L1
ARM GAS  /var/folders/km/q6jdms0143g2bddz5bhvdfd00000gn/T//cciAUmsz.s 			page 2


  58              		.loc 1 123 0
  59 0018 5179     		ldrb	r1, [r2, #5]	@ zero_extendqisi2
  60              	.LVL4:
  61              		.loc 1 124 0
  62 001a 5889     		ldrh	r0, [r3, #10]
  63              	.LVL5:
  64 001c 0122     		movs	r2, #1
  65 001e 8A40     		lsls	r2, r2, r1
  66 0020 0242     		tst	r2, r0
  67 0022 F5D1     		bne	.L1
  68              		.loc 1 123 0
  69 0024 03EB8103 		add	r3, r3, r1, lsl #2
  70              	.LVL6:
  71 0028 DB68     		ldr	r3, [r3, #12]
  72 002a 5E8A     		ldrh	r6, [r3, #18]
  73              	.LVL7:
  74              	.LBB204:
  75              	.LBB205:
  76              		.file 2 "../../lib/ChibiOS/os/rt/include/chqueues.h"
  77              		.loc 2 288 0
  78 002c FFF7FEFF 		bl	chDbgCheckClassI
  79              	.LVL8:
  80              		.loc 2 290 0
  81 0030 D4E90623 		ldrd	r2, r3, [r4, #24]
  82 0034 6569     		ldr	r5, [r4, #20]
  83 0036 9B1A     		subs	r3, r3, r2
  84 0038 5D1B     		subs	r5, r3, r5
  85              	.LVL9:
  86              	.LBE205:
  87              	.LBE204:
  88              		.loc 1 125 0
  89 003a AE42     		cmp	r6, r5
  90 003c E8D8     		bhi	.L1
  91              	.LBB206:
  92              	.LBB207:
  93              	.LBB208:
  94              		.file 3 "../../lib/ChibiOS/os/rt/include/chsys.h"
  95              		.loc 3 360 0
  96 003e FFF7FEFF 		bl	_dbg_check_unlock
  97              	.LVL10:
  98              		.loc 3 361 0
  99 0042 FFF7FEFF 		bl	_stats_stop_measure_crit_thd
 100              	.LVL11:
 101              		.loc 3 367 0
 102 0046 154B     		ldr	r3, .L9
 103 0048 1A68     		ldr	r2, [r3]
 104 004a 9A42     		cmp	r2, r3
 105 004c 07D0     		beq	.L5
 106 004e 9969     		ldr	r1, [r3, #24]
 107 0050 9368     		ldr	r3, [r2, #8]
 108 0052 8A68     		ldr	r2, [r1, #8]
 109 0054 9A42     		cmp	r2, r3
 110 0056 02D2     		bcs	.L5
 111 0058 1148     		ldr	r0, .L9+4
 112 005a FFF7FEFF 		bl	chSysHalt
 113              	.LVL12:
 114              	.L5:
ARM GAS  /var/folders/km/q6jdms0143g2bddz5bhvdfd00000gn/T//cciAUmsz.s 			page 3


 115              	.LBB209:
 116              	.LBB210:
 117              	.LBB211:
 118              		.file 4 "../../lib/ChibiOS/os/ext/CMSIS/include/core_cmFunc.h"
 119              		.loc 4 546 0
 120 005e 0023     		movs	r3, #0
 121              		.syntax unified
 122              	@ 546 "../../lib/ChibiOS/os/ext/CMSIS/include/core_cmFunc.h" 1
 123 0060 83F31188 		MSR basepri, r3
 124              	@ 0 "" 2
 125              	.LVL13:
 126              		.thumb
 127              		.syntax unified
 128              	.LBE211:
 129              	.LBE210:
 130              	.LBE209:
 131              	.LBE208:
 132              	.LBE207:
 133              	.LBE206:
 134              		.loc 1 129 0
 135 0064 D4F85422 		ldr	r2, [r4, #596]
 136              		.loc 1 128 0
 137 0068 B5FBF6F3 		udiv	r3, r5, r6
 138              		.loc 1 129 0
 139 006c 5179     		ldrb	r1, [r2, #5]	@ zero_extendqisi2
 140 006e 1068     		ldr	r0, [r2]
 141 0070 06FB03F3 		mul	r3, r6, r3
 142              	.LVL14:
 143 0074 04F10C02 		add	r2, r4, #12
 144 0078 FFF7FEFF 		bl	usbPrepareQueuedReceive
 145              	.LVL15:
 146              	.LBB212:
 147              	.LBB213:
 148              	.LBB214:
 149              	.LBB215:
 150              	.LBB216:
 151              	.LBB217:
 152              		.loc 4 546 0
 153 007c 2023     		movs	r3, #32
 154              		.syntax unified
 155              	@ 546 "../../lib/ChibiOS/os/ext/CMSIS/include/core_cmFunc.h" 1
 156 007e 83F31188 		MSR basepri, r3
 157              	@ 0 "" 2
 158              	.LVL16:
 159              		.thumb
 160              		.syntax unified
 161              	.LBE217:
 162              	.LBE216:
 163              	.LBE215:
 164              		.loc 3 349 0
 165 0082 FFF7FEFF 		bl	_stats_start_measure_crit_thd
 166              	.LVL17:
 167              		.loc 3 350 0
 168 0086 FFF7FEFF 		bl	_dbg_check_lock
 169              	.LVL18:
 170              	.LBE214:
 171              	.LBE213:
ARM GAS  /var/folders/km/q6jdms0143g2bddz5bhvdfd00000gn/T//cciAUmsz.s 			page 4


 172              	.LBE212:
 173              		.loc 1 134 0
 174 008a D4F85432 		ldr	r3, [r4, #596]
 175              		.loc 1 137 0
 176 008e BDE87040 		pop	{r4, r5, r6, lr}
 177              		.cfi_restore 14
 178              		.cfi_restore 6
 179              		.cfi_restore 5
 180              		.cfi_restore 4
 181              		.cfi_def_cfa_offset 0
 182              	.LVL19:
 183              		.loc 1 134 0
 184 0092 5979     		ldrb	r1, [r3, #5]	@ zero_extendqisi2
 185 0094 1868     		ldr	r0, [r3]
 186 0096 FFF7FEBF 		b	usbStartReceiveI
 187              	.LVL20:
 188              	.L10:
 189 009a 00BF     		.align	2
 190              	.L9:
 191 009c 00000000 		.word	ch
 192 00a0 00000000 		.word	.LANCHOR0
 193              		.cfi_endproc
 194              	.LFE264:
 195              		.size	inotify, .-inotify
 196              		.section	.text.readt,"ax",%progbits
 197              		.align	1
 198              		.p2align 4,,15
 199              		.syntax unified
 200              		.thumb
 201              		.thumb_func
 202              		.fpu fpv4-sp-d16
 203              		.type	readt, %function
 204              	readt:
 205              	.LFB263:
 206              		.loc 1 94 0
 207              		.cfi_startproc
 208              		@ args = 0, pretend = 0, frame = 0
 209              		@ frame_needed = 0, uses_anonymous_args = 0
 210              		@ link register save eliminated.
 211              	.LVL21:
 212              		.loc 1 96 0
 213 0000 0C30     		adds	r0, r0, #12
 214              	.LVL22:
 215 0002 FFF7FEBF 		b	chIQReadTimeout
 216              	.LVL23:
 217              		.cfi_endproc
 218              	.LFE263:
 219              		.size	readt, .-readt
 220 0006 00BF     		.section	.text.read,"ax",%progbits
 221              		.align	1
 222              		.p2align 4,,15
 223              		.syntax unified
 224              		.thumb
 225              		.thumb_func
 226              		.fpu fpv4-sp-d16
 227              		.type	read, %function
 228              	read:
ARM GAS  /var/folders/km/q6jdms0143g2bddz5bhvdfd00000gn/T//cciAUmsz.s 			page 5


 229              	.LFB257:
 230              		.loc 1 63 0
 231              		.cfi_startproc
 232              		@ args = 0, pretend = 0, frame = 0
 233              		@ frame_needed = 0, uses_anonymous_args = 0
 234              		@ link register save eliminated.
 235              	.LVL24:
 236              		.loc 1 65 0
 237 0000 0C30     		adds	r0, r0, #12
 238              	.LVL25:
 239 0002 4FF0FF33 		mov	r3, #-1
 240 0006 FFF7FEBF 		b	chIQReadTimeout
 241              	.LVL26:
 242              		.cfi_endproc
 243              	.LFE257:
 244              		.size	read, .-read
 245 000a 00BF     		.section	.text.writet,"ax",%progbits
 246              		.align	1
 247              		.p2align 4,,15
 248              		.syntax unified
 249              		.thumb
 250              		.thumb_func
 251              		.fpu fpv4-sp-d16
 252              		.type	writet, %function
 253              	writet:
 254              	.LFB262:
 255              		.loc 1 89 0
 256              		.cfi_startproc
 257              		@ args = 0, pretend = 0, frame = 0
 258              		@ frame_needed = 0, uses_anonymous_args = 0
 259              		@ link register save eliminated.
 260              	.LVL27:
 261              		.loc 1 91 0
 262 0000 3030     		adds	r0, r0, #48
 263              	.LVL28:
 264 0002 FFF7FEBF 		b	chOQWriteTimeout
 265              	.LVL29:
 266              		.cfi_endproc
 267              	.LFE262:
 268              		.size	writet, .-writet
 269 0006 00BF     		.section	.text.write,"ax",%progbits
 270              		.align	1
 271              		.p2align 4,,15
 272              		.syntax unified
 273              		.thumb
 274              		.thumb_func
 275              		.fpu fpv4-sp-d16
 276              		.type	write, %function
 277              	write:
 278              	.LFB256:
 279              		.loc 1 57 0
 280              		.cfi_startproc
 281              		@ args = 0, pretend = 0, frame = 0
 282              		@ frame_needed = 0, uses_anonymous_args = 0
 283              		@ link register save eliminated.
 284              	.LVL30:
 285              		.loc 1 59 0
ARM GAS  /var/folders/km/q6jdms0143g2bddz5bhvdfd00000gn/T//cciAUmsz.s 			page 6


 286 0000 3030     		adds	r0, r0, #48
 287              	.LVL31:
 288 0002 4FF0FF33 		mov	r3, #-1
 289 0006 FFF7FEBF 		b	chOQWriteTimeout
 290              	.LVL32:
 291              		.cfi_endproc
 292              	.LFE256:
 293              		.size	write, .-write
 294 000a 00BF     		.section	.text.gett,"ax",%progbits
 295              		.align	1
 296              		.p2align 4,,15
 297              		.syntax unified
 298              		.thumb
 299              		.thumb_func
 300              		.fpu fpv4-sp-d16
 301              		.type	gett, %function
 302              	gett:
 303              	.LFB261:
 304              		.loc 1 84 0
 305              		.cfi_startproc
 306              		@ args = 0, pretend = 0, frame = 0
 307              		@ frame_needed = 0, uses_anonymous_args = 0
 308              		@ link register save eliminated.
 309              	.LVL33:
 310              		.loc 1 86 0
 311 0000 0C30     		adds	r0, r0, #12
 312              	.LVL34:
 313 0002 FFF7FEBF 		b	chIQGetTimeout
 314              	.LVL35:
 315              		.cfi_endproc
 316              	.LFE261:
 317              		.size	gett, .-gett
 318 0006 00BF     		.section	.text.get,"ax",%progbits
 319              		.align	1
 320              		.p2align 4,,15
 321              		.syntax unified
 322              		.thumb
 323              		.thumb_func
 324              		.fpu fpv4-sp-d16
 325              		.type	get, %function
 326              	get:
 327              	.LFB259:
 328              		.loc 1 74 0
 329              		.cfi_startproc
 330              		@ args = 0, pretend = 0, frame = 0
 331              		@ frame_needed = 0, uses_anonymous_args = 0
 332              		@ link register save eliminated.
 333              	.LVL36:
 334              		.loc 1 76 0
 335 0000 0C30     		adds	r0, r0, #12
 336              	.LVL37:
 337 0002 4FF0FF31 		mov	r1, #-1
 338 0006 FFF7FEBF 		b	chIQGetTimeout
 339              	.LVL38:
 340              		.cfi_endproc
 341              	.LFE259:
 342              		.size	get, .-get
ARM GAS  /var/folders/km/q6jdms0143g2bddz5bhvdfd00000gn/T//cciAUmsz.s 			page 7


 343 000a 00BF     		.section	.text.putt,"ax",%progbits
 344              		.align	1
 345              		.p2align 4,,15
 346              		.syntax unified
 347              		.thumb
 348              		.thumb_func
 349              		.fpu fpv4-sp-d16
 350              		.type	putt, %function
 351              	putt:
 352              	.LFB260:
 353              		.loc 1 79 0
 354              		.cfi_startproc
 355              		@ args = 0, pretend = 0, frame = 0
 356              		@ frame_needed = 0, uses_anonymous_args = 0
 357              		@ link register save eliminated.
 358              	.LVL39:
 359              		.loc 1 81 0
 360 0000 3030     		adds	r0, r0, #48
 361              	.LVL40:
 362 0002 FFF7FEBF 		b	chOQPutTimeout
 363              	.LVL41:
 364              		.cfi_endproc
 365              	.LFE260:
 366              		.size	putt, .-putt
 367 0006 00BF     		.section	.text.put,"ax",%progbits
 368              		.align	1
 369              		.p2align 4,,15
 370              		.syntax unified
 371              		.thumb
 372              		.thumb_func
 373              		.fpu fpv4-sp-d16
 374              		.type	put, %function
 375              	put:
 376              	.LFB258:
 377              		.loc 1 69 0
 378              		.cfi_startproc
 379              		@ args = 0, pretend = 0, frame = 0
 380              		@ frame_needed = 0, uses_anonymous_args = 0
 381              		@ link register save eliminated.
 382              	.LVL42:
 383              		.loc 1 71 0
 384 0000 3030     		adds	r0, r0, #48
 385              	.LVL43:
 386 0002 4FF0FF32 		mov	r2, #-1
 387 0006 FFF7FEBF 		b	chOQPutTimeout
 388              	.LVL44:
 389              		.cfi_endproc
 390              	.LFE258:
 391              		.size	put, .-put
 392 000a 00BF     		.section	.text.onotify,"ax",%progbits
 393              		.align	1
 394              		.p2align 4,,15
 395              		.syntax unified
 396              		.thumb
 397              		.thumb_func
 398              		.fpu fpv4-sp-d16
 399              		.type	onotify, %function
ARM GAS  /var/folders/km/q6jdms0143g2bddz5bhvdfd00000gn/T//cciAUmsz.s 			page 8


 400              	onotify:
 401              	.LFB265:
 402              		.loc 1 144 0
 403              		.cfi_startproc
 404              		@ args = 0, pretend = 0, frame = 0
 405              		@ frame_needed = 0, uses_anonymous_args = 0
 406              	.LVL45:
 407 0000 38B5     		push	{r3, r4, r5, lr}
 408              		.cfi_def_cfa_offset 16
 409              		.cfi_offset 3, -16
 410              		.cfi_offset 4, -12
 411              		.cfi_offset 5, -8
 412              		.cfi_offset 14, -4
 413              		.loc 1 146 0
 414 0002 046A     		ldr	r4, [r0, #32]
 415              	.LVL46:
 416              		.loc 1 150 0
 417 0004 D4F85422 		ldr	r2, [r4, #596]
 418 0008 1368     		ldr	r3, [r2]
 419 000a 1978     		ldrb	r1, [r3]	@ zero_extendqisi2
 420 000c 0429     		cmp	r1, #4
 421 000e 00D0     		beq	.L28
 422              	.LVL47:
 423              	.L19:
 424              		.loc 1 169 0
 425 0010 38BD     		pop	{r3, r4, r5, pc}
 426              	.LVL48:
 427              	.L28:
 428              		.loc 1 150 0 discriminator 1
 429 0012 217A     		ldrb	r1, [r4, #8]	@ zero_extendqisi2
 430 0014 0229     		cmp	r1, #2
 431 0016 FBD1     		bne	.L19
 432              		.loc 1 157 0
 433 0018 1179     		ldrb	r1, [r2, #4]	@ zero_extendqisi2
 434 001a 1A89     		ldrh	r2, [r3, #8]
 435 001c 0123     		movs	r3, #1
 436 001e 8B40     		lsls	r3, r3, r1
 437 0020 1342     		tst	r3, r2
 438 0022 F5D1     		bne	.L19
 439              	.LVL49:
 440              	.LBB233:
 441              	.LBB234:
 442              		.loc 2 355 0
 443 0024 FFF7FEFF 		bl	chDbgCheckClassI
 444              	.LVL50:
 445              		.loc 2 357 0
 446 0028 D4E90F23 		ldrd	r2, r3, [r4, #60]
 447 002c A56B     		ldr	r5, [r4, #56]
 448 002e 9B1A     		subs	r3, r3, r2
 449              	.LBE234:
 450              	.LBE233:
 451              		.loc 1 158 0
 452 0030 5D1B     		subs	r5, r3, r5
 453 0032 EDD0     		beq	.L19
 454              	.LBB235:
 455              	.LBB236:
 456              	.LBB237:
ARM GAS  /var/folders/km/q6jdms0143g2bddz5bhvdfd00000gn/T//cciAUmsz.s 			page 9


 457              		.loc 3 360 0
 458 0034 FFF7FEFF 		bl	_dbg_check_unlock
 459              	.LVL51:
 460              		.loc 3 361 0
 461 0038 FFF7FEFF 		bl	_stats_stop_measure_crit_thd
 462              	.LVL52:
 463              		.loc 3 367 0
 464 003c 134B     		ldr	r3, .L29
 465 003e 1A68     		ldr	r2, [r3]
 466 0040 9A42     		cmp	r2, r3
 467 0042 07D0     		beq	.L23
 468 0044 9969     		ldr	r1, [r3, #24]
 469 0046 9368     		ldr	r3, [r2, #8]
 470 0048 8A68     		ldr	r2, [r1, #8]
 471 004a 9A42     		cmp	r2, r3
 472 004c 02D2     		bcs	.L23
 473 004e 1048     		ldr	r0, .L29+4
 474 0050 FFF7FEFF 		bl	chSysHalt
 475              	.LVL53:
 476              	.L23:
 477              	.LBB238:
 478              	.LBB239:
 479              	.LBB240:
 480              		.loc 4 546 0
 481 0054 0023     		movs	r3, #0
 482              		.syntax unified
 483              	@ 546 "../../lib/ChibiOS/os/ext/CMSIS/include/core_cmFunc.h" 1
 484 0056 83F31188 		MSR basepri, r3
 485              	@ 0 "" 2
 486              	.LVL54:
 487              		.thumb
 488              		.syntax unified
 489              	.LBE240:
 490              	.LBE239:
 491              	.LBE238:
 492              	.LBE237:
 493              	.LBE236:
 494              	.LBE235:
 495              		.loc 1 161 0
 496 005a D4F85422 		ldr	r2, [r4, #596]
 497 005e 2B46     		mov	r3, r5
 498 0060 1179     		ldrb	r1, [r2, #4]	@ zero_extendqisi2
 499 0062 1068     		ldr	r0, [r2]
 500 0064 04F13002 		add	r2, r4, #48
 501 0068 FFF7FEFF 		bl	usbPrepareQueuedTransmit
 502              	.LVL55:
 503              	.LBB241:
 504              	.LBB242:
 505              	.LBB243:
 506              	.LBB244:
 507              	.LBB245:
 508              	.LBB246:
 509              		.loc 4 546 0
 510 006c 2023     		movs	r3, #32
 511              		.syntax unified
 512              	@ 546 "../../lib/ChibiOS/os/ext/CMSIS/include/core_cmFunc.h" 1
 513 006e 83F31188 		MSR basepri, r3
ARM GAS  /var/folders/km/q6jdms0143g2bddz5bhvdfd00000gn/T//cciAUmsz.s 			page 10


 514              	@ 0 "" 2
 515              	.LVL56:
 516              		.thumb
 517              		.syntax unified
 518              	.LBE246:
 519              	.LBE245:
 520              	.LBE244:
 521              		.loc 3 349 0
 522 0072 FFF7FEFF 		bl	_stats_start_measure_crit_thd
 523              	.LVL57:
 524              		.loc 3 350 0
 525 0076 FFF7FEFF 		bl	_dbg_check_lock
 526              	.LVL58:
 527              	.LBE243:
 528              	.LBE242:
 529              	.LBE241:
 530              		.loc 1 166 0
 531 007a D4F85432 		ldr	r3, [r4, #596]
 532 007e 1979     		ldrb	r1, [r3, #4]	@ zero_extendqisi2
 533 0080 1868     		ldr	r0, [r3]
 534              		.loc 1 169 0
 535 0082 BDE83840 		pop	{r3, r4, r5, lr}
 536              		.cfi_restore 14
 537              		.cfi_restore 5
 538              		.cfi_restore 4
 539              		.cfi_restore 3
 540              		.cfi_def_cfa_offset 0
 541              	.LVL59:
 542              		.loc 1 166 0
 543 0086 FFF7FEBF 		b	usbStartTransmitI
 544              	.LVL60:
 545              	.L30:
 546 008a 00BF     		.align	2
 547              	.L29:
 548 008c 00000000 		.word	ch
 549 0090 00000000 		.word	.LANCHOR0
 550              		.cfi_endproc
 551              	.LFE265:
 552              		.size	onotify, .-onotify
 553              		.section	.text.sduInit,"ax",%progbits
 554              		.align	1
 555              		.p2align 4,,15
 556              		.global	sduInit
 557              		.syntax unified
 558              		.thumb
 559              		.thumb_func
 560              		.fpu fpv4-sp-d16
 561              		.type	sduInit, %function
 562              	sduInit:
 563              	.LFB266:
 564              		.loc 1 182 0
 565              		.cfi_startproc
 566              		@ args = 0, pretend = 0, frame = 0
 567              		@ frame_needed = 0, uses_anonymous_args = 0
 568              		@ link register save eliminated.
 569              		.loc 1 183 0
 570 0000 7047     		bx	lr
ARM GAS  /var/folders/km/q6jdms0143g2bddz5bhvdfd00000gn/T//cciAUmsz.s 			page 11


 571              		.cfi_endproc
 572              	.LFE266:
 573              		.size	sduInit, .-sduInit
 574 0002 00BF     		.section	.text.sduObjectInit,"ax",%progbits
 575              		.align	1
 576              		.p2align 4,,15
 577              		.global	sduObjectInit
 578              		.syntax unified
 579              		.thumb
 580              		.thumb_func
 581              		.fpu fpv4-sp-d16
 582              		.type	sduObjectInit, %function
 583              	sduObjectInit:
 584              	.LFB267:
 585              		.loc 1 194 0
 586              		.cfi_startproc
 587              		@ args = 0, pretend = 0, frame = 0
 588              		@ frame_needed = 0, uses_anonymous_args = 0
 589              	.LVL61:
 590 0000 10B5     		push	{r4, lr}
 591              		.cfi_def_cfa_offset 8
 592              		.cfi_offset 4, -8
 593              		.cfi_offset 14, -4
 594              		.loc 1 196 0
 595 0002 0346     		mov	r3, r0
 596 0004 0E4A     		ldr	r2, .L34
 597 0006 43F8042B 		str	r2, [r3], #4
 598              	.LVL62:
 599              		.loc 1 194 0
 600 000a 82B0     		sub	sp, sp, #8
 601              		.cfi_def_cfa_offset 16
 602              		.loc 1 198 0
 603 000c 0122     		movs	r2, #1
 604              		.loc 1 194 0
 605 000e 0446     		mov	r4, r0
 606              		.loc 1 199 0
 607 0010 0090     		str	r0, [sp]
 608 0012 00F15401 		add	r1, r0, #84
 609              	.LBB247:
 610              	.LBB248:
 611              	.LBB249:
 612              		.file 5 "../../lib/ChibiOS/os/rt/include/chevents.h"
 613              		.loc 5 172 0
 614 0016 4360     		str	r3, [r0, #4]
 615              	.LVL63:
 616              	.LBE249:
 617              	.LBE248:
 618              	.LBE247:
 619              		.loc 1 198 0
 620 0018 0272     		strb	r2, [r0, #8]
 621              		.loc 1 199 0
 622 001a 0A4B     		ldr	r3, .L34+4
 623 001c 0C30     		adds	r0, r0, #12
 624              	.LVL64:
 625 001e 4FF48072 		mov	r2, #256
 626 0022 FFF7FEFF 		bl	chIQObjectInit
 627              	.LVL65:
ARM GAS  /var/folders/km/q6jdms0143g2bddz5bhvdfd00000gn/T//cciAUmsz.s 			page 12


 628              		.loc 1 200 0
 629 0026 0094     		str	r4, [sp]
 630 0028 04F5AA71 		add	r1, r4, #340
 631 002c 04F13000 		add	r0, r4, #48
 632 0030 054B     		ldr	r3, .L34+8
 633 0032 4FF48072 		mov	r2, #256
 634 0036 FFF7FEFF 		bl	chOQObjectInit
 635              	.LVL66:
 636              		.loc 1 201 0
 637 003a 02B0     		add	sp, sp, #8
 638              		.cfi_def_cfa_offset 8
 639              		@ sp needed
 640 003c 10BD     		pop	{r4, pc}
 641              	.LVL67:
 642              	.L35:
 643 003e 00BF     		.align	2
 644              	.L34:
 645 0040 00000000 		.word	.LANCHOR1
 646 0044 00000000 		.word	inotify
 647 0048 00000000 		.word	onotify
 648              		.cfi_endproc
 649              	.LFE267:
 650              		.size	sduObjectInit, .-sduObjectInit
 651              		.section	.text.sduStart,"ax",%progbits
 652              		.align	1
 653              		.p2align 4,,15
 654              		.global	sduStart
 655              		.syntax unified
 656              		.thumb
 657              		.thumb_func
 658              		.fpu fpv4-sp-d16
 659              		.type	sduStart, %function
 660              	sduStart:
 661              	.LFB268:
 662              		.loc 1 211 0
 663              		.cfi_startproc
 664              		@ args = 0, pretend = 0, frame = 0
 665              		@ frame_needed = 0, uses_anonymous_args = 0
 666              	.LVL68:
 667 0000 70B5     		push	{r4, r5, r6, lr}
 668              		.cfi_def_cfa_offset 16
 669              		.cfi_offset 4, -16
 670              		.cfi_offset 5, -12
 671              		.cfi_offset 6, -8
 672              		.cfi_offset 14, -4
 673              		.loc 1 211 0
 674 0002 0D46     		mov	r5, r1
 675              		.loc 1 214 0
 676 0004 0446     		mov	r4, r0
 677              		.loc 1 212 0
 678 0006 0E68     		ldr	r6, [r1]
 679              	.LVL69:
 680              		.loc 1 214 0
 681 0008 0028     		cmp	r0, #0
 682 000a 36D0     		beq	.L45
 683              	.LVL70:
 684              	.L37:
ARM GAS  /var/folders/km/q6jdms0143g2bddz5bhvdfd00000gn/T//cciAUmsz.s 			page 13


 685              	.LBB263:
 686              	.LBB264:
 687              	.LBB265:
 688              	.LBB266:
 689              	.LBB267:
 690              	.LBB268:
 691              		.loc 4 546 0
 692 000c 2023     		movs	r3, #32
 693              		.syntax unified
 694              	@ 546 "../../lib/ChibiOS/os/ext/CMSIS/include/core_cmFunc.h" 1
 695 000e 83F31188 		MSR basepri, r3
 696              	@ 0 "" 2
 697              	.LVL71:
 698              		.thumb
 699              		.syntax unified
 700              	.LBE268:
 701              	.LBE267:
 702              	.LBE266:
 703              		.loc 3 349 0
 704 0012 FFF7FEFF 		bl	_stats_start_measure_crit_thd
 705              	.LVL72:
 706              		.loc 3 350 0
 707 0016 FFF7FEFF 		bl	_dbg_check_lock
 708              	.LVL73:
 709              	.LBE265:
 710              	.LBE264:
 711              	.LBE263:
 712              		.loc 1 217 0
 713 001a 237A     		ldrb	r3, [r4, #8]	@ zero_extendqisi2
 714 001c 013B     		subs	r3, r3, #1
 715 001e 012B     		cmp	r3, #1
 716 0020 02D9     		bls	.L38
 717              		.loc 1 217 0 is_stmt 0 discriminator 2
 718 0022 1848     		ldr	r0, .L47
 719 0024 FFF7FEFF 		bl	chSysHalt
 720              	.LVL74:
 721              	.L38:
 722              		.loc 1 219 0 is_stmt 1
 723 0028 2B79     		ldrb	r3, [r5, #4]	@ zero_extendqisi2
 724 002a 06EB8303 		add	r3, r6, r3, lsl #2
 725 002e 9C61     		str	r4, [r3, #24]
 726              		.loc 1 220 0
 727 0030 6B79     		ldrb	r3, [r5, #5]	@ zero_extendqisi2
 728 0032 0933     		adds	r3, r3, #9
 729 0034 46F82340 		str	r4, [r6, r3, lsl #2]
 730              		.loc 1 221 0
 731 0038 AB79     		ldrb	r3, [r5, #6]	@ zero_extendqisi2
 732 003a 13B1     		cbz	r3, .L39
 733              		.loc 1 222 0
 734 003c 06EB8306 		add	r6, r6, r3, lsl #2
 735              	.LVL75:
 736 0040 B461     		str	r4, [r6, #24]
 737              	.L39:
 738              		.loc 1 225 0
 739 0042 0223     		movs	r3, #2
 740 0044 2372     		strb	r3, [r4, #8]
 741              		.loc 1 224 0
ARM GAS  /var/folders/km/q6jdms0143g2bddz5bhvdfd00000gn/T//cciAUmsz.s 			page 14


 742 0046 C4F85452 		str	r5, [r4, #596]
 743              	.LBB269:
 744              	.LBB270:
 745              	.LBB271:
 746              		.loc 3 360 0
 747 004a FFF7FEFF 		bl	_dbg_check_unlock
 748              	.LVL76:
 749              		.loc 3 361 0
 750 004e FFF7FEFF 		bl	_stats_stop_measure_crit_thd
 751              	.LVL77:
 752              		.loc 3 367 0
 753 0052 0D4B     		ldr	r3, .L47+4
 754 0054 1A68     		ldr	r2, [r3]
 755 0056 9A42     		cmp	r2, r3
 756 0058 04D0     		beq	.L40
 757 005a 9969     		ldr	r1, [r3, #24]
 758 005c 9368     		ldr	r3, [r2, #8]
 759 005e 8A68     		ldr	r2, [r1, #8]
 760 0060 9A42     		cmp	r2, r3
 761 0062 03D3     		bcc	.L46
 762              	.L40:
 763              	.LVL78:
 764              	.LBB272:
 765              	.LBB273:
 766              	.LBB274:
 767              		.loc 4 546 0
 768 0064 0023     		movs	r3, #0
 769              		.syntax unified
 770              	@ 546 "../../lib/ChibiOS/os/ext/CMSIS/include/core_cmFunc.h" 1
 771 0066 83F31188 		MSR basepri, r3
 772              	@ 0 "" 2
 773              	.LVL79:
 774              		.thumb
 775              		.syntax unified
 776              	.LBE274:
 777              	.LBE273:
 778              	.LBE272:
 779              	.LBE271:
 780              	.LBE270:
 781              	.LBE269:
 782              		.loc 1 227 0
 783 006a 70BD     		pop	{r4, r5, r6, pc}
 784              	.LVL80:
 785              	.L46:
 786              	.LBB280:
 787              	.LBB279:
 788              	.LBB278:
 789              		.loc 3 367 0
 790 006c 0748     		ldr	r0, .L47+8
 791 006e FFF7FEFF 		bl	chSysHalt
 792              	.LVL81:
 793              	.LBB277:
 794              	.LBB276:
 795              	.LBB275:
 796              		.loc 4 546 0
 797 0072 0023     		movs	r3, #0
 798              		.syntax unified
ARM GAS  /var/folders/km/q6jdms0143g2bddz5bhvdfd00000gn/T//cciAUmsz.s 			page 15


 799              	@ 546 "../../lib/ChibiOS/os/ext/CMSIS/include/core_cmFunc.h" 1
 800 0074 83F31188 		MSR basepri, r3
 801              	@ 0 "" 2
 802              	.LVL82:
 803              		.thumb
 804              		.syntax unified
 805              	.LBE275:
 806              	.LBE276:
 807              	.LBE277:
 808              	.LBE278:
 809              	.LBE279:
 810              	.LBE280:
 811              		.loc 1 227 0
 812 0078 70BD     		pop	{r4, r5, r6, pc}
 813              	.LVL83:
 814              	.L45:
 815              		.loc 1 214 0 discriminator 2
 816 007a 0248     		ldr	r0, .L47
 817              	.LVL84:
 818 007c FFF7FEFF 		bl	chSysHalt
 819              	.LVL85:
 820 0080 C4E7     		b	.L37
 821              	.L48:
 822 0082 00BF     		.align	2
 823              	.L47:
 824 0084 00000000 		.word	.LANCHOR2
 825 0088 00000000 		.word	ch
 826 008c 00000000 		.word	.LANCHOR0
 827              		.cfi_endproc
 828              	.LFE268:
 829              		.size	sduStart, .-sduStart
 830              		.section	.text.sduStop,"ax",%progbits
 831              		.align	1
 832              		.p2align 4,,15
 833              		.global	sduStop
 834              		.syntax unified
 835              		.thumb
 836              		.thumb_func
 837              		.fpu fpv4-sp-d16
 838              		.type	sduStop, %function
 839              	sduStop:
 840              	.LFB269:
 841              		.loc 1 238 0
 842              		.cfi_startproc
 843              		@ args = 0, pretend = 0, frame = 0
 844              		@ frame_needed = 0, uses_anonymous_args = 0
 845              	.LVL86:
 846              		.loc 1 239 0
 847 0000 D0F85422 		ldr	r2, [r0, #596]
 848              		.loc 1 238 0
 849 0004 38B5     		push	{r3, r4, r5, lr}
 850              		.cfi_def_cfa_offset 16
 851              		.cfi_offset 3, -16
 852              		.cfi_offset 4, -12
 853              		.cfi_offset 5, -8
 854              		.cfi_offset 14, -4
 855              		.loc 1 238 0
ARM GAS  /var/folders/km/q6jdms0143g2bddz5bhvdfd00000gn/T//cciAUmsz.s 			page 16


 856 0006 0446     		mov	r4, r0
 857              	.LBB298:
 858              	.LBB299:
 859              	.LBB300:
 860              	.LBB301:
 861              	.LBB302:
 862              	.LBB303:
 863              		.loc 4 546 0
 864 0008 2023     		movs	r3, #32
 865              	.LBE303:
 866              	.LBE302:
 867              	.LBE301:
 868              	.LBE300:
 869              	.LBE299:
 870              	.LBE298:
 871              		.loc 1 239 0
 872 000a 1568     		ldr	r5, [r2]
 873              	.LVL87:
 874              	.LBB309:
 875              	.LBB308:
 876              	.LBB307:
 877              	.LBB306:
 878              	.LBB305:
 879              	.LBB304:
 880              		.loc 4 546 0
 881              		.syntax unified
 882              	@ 546 "../../lib/ChibiOS/os/ext/CMSIS/include/core_cmFunc.h" 1
 883 000c 83F31188 		MSR basepri, r3
 884              	@ 0 "" 2
 885              	.LVL88:
 886              		.thumb
 887              		.syntax unified
 888              	.LBE304:
 889              	.LBE305:
 890              	.LBE306:
 891              		.loc 3 349 0
 892 0010 FFF7FEFF 		bl	_stats_start_measure_crit_thd
 893              	.LVL89:
 894              		.loc 3 350 0
 895 0014 FFF7FEFF 		bl	_dbg_check_lock
 896              	.LVL90:
 897              	.LBE307:
 898              	.LBE308:
 899              	.LBE309:
 900              		.loc 1 244 0
 901 0018 237A     		ldrb	r3, [r4, #8]	@ zero_extendqisi2
 902 001a 013B     		subs	r3, r3, #1
 903 001c 012B     		cmp	r3, #1
 904 001e 02D9     		bls	.L50
 905              		.loc 1 244 0 is_stmt 0 discriminator 2
 906 0020 1E48     		ldr	r0, .L58
 907 0022 FFF7FEFF 		bl	chSysHalt
 908              	.LVL91:
 909              	.L50:
 910              		.loc 1 248 0 is_stmt 1
 911 0026 D4F85422 		ldr	r2, [r4, #596]
 912 002a 1379     		ldrb	r3, [r2, #4]	@ zero_extendqisi2
ARM GAS  /var/folders/km/q6jdms0143g2bddz5bhvdfd00000gn/T//cciAUmsz.s 			page 17


 913 002c 0533     		adds	r3, r3, #5
 914 002e 05EB8303 		add	r3, r5, r3, lsl #2
 915 0032 0021     		movs	r1, #0
 916 0034 5960     		str	r1, [r3, #4]
 917              		.loc 1 249 0
 918 0036 5379     		ldrb	r3, [r2, #5]	@ zero_extendqisi2
 919 0038 0933     		adds	r3, r3, #9
 920 003a 45F82310 		str	r1, [r5, r3, lsl #2]
 921              		.loc 1 250 0
 922 003e 9379     		ldrb	r3, [r2, #6]	@ zero_extendqisi2
 923 0040 1BB1     		cbz	r3, .L51
 924              		.loc 1 251 0
 925 0042 0533     		adds	r3, r3, #5
 926 0044 05EB8305 		add	r5, r5, r3, lsl #2
 927              	.LVL92:
 928 0048 6960     		str	r1, [r5, #4]
 929              	.L51:
 930              		.loc 1 253 0
 931 004a 0123     		movs	r3, #1
 932 004c 2372     		strb	r3, [r4, #8]
 933              	.LVL93:
 934              	.LBB310:
 935              	.LBB311:
 936              		.file 6 "../../lib/ChibiOS/os/hal/osal/rt/osal.h"
 937              		.loc 6 798 0
 938 004e 0221     		movs	r1, #2
 939 0050 201D     		adds	r0, r4, #4
 940              	.LVL94:
 941 0052 FFF7FEFF 		bl	chEvtBroadcastFlagsI
 942              	.LVL95:
 943              	.LBE311:
 944              	.LBE310:
 945              		.loc 1 257 0
 946 0056 04F10C00 		add	r0, r4, #12
 947 005a FFF7FEFF 		bl	chIQResetI
 948              	.LVL96:
 949              		.loc 1 258 0
 950 005e 04F13000 		add	r0, r4, #48
 951 0062 FFF7FEFF 		bl	chIQResetI
 952              	.LVL97:
 953              	.LBB312:
 954              	.LBB313:
 955              		.loc 6 554 0
 956 0066 FFF7FEFF 		bl	chSchRescheduleS
 957              	.LVL98:
 958              	.LBE313:
 959              	.LBE312:
 960              	.LBB314:
 961              	.LBB315:
 962              	.LBB316:
 963              		.loc 3 360 0
 964 006a FFF7FEFF 		bl	_dbg_check_unlock
 965              	.LVL99:
 966              		.loc 3 361 0
 967 006e FFF7FEFF 		bl	_stats_stop_measure_crit_thd
 968              	.LVL100:
 969              		.loc 3 367 0
ARM GAS  /var/folders/km/q6jdms0143g2bddz5bhvdfd00000gn/T//cciAUmsz.s 			page 18


 970 0072 0B4B     		ldr	r3, .L58+4
 971 0074 1A68     		ldr	r2, [r3]
 972 0076 9A42     		cmp	r2, r3
 973 0078 04D0     		beq	.L52
 974 007a 9969     		ldr	r1, [r3, #24]
 975 007c 9368     		ldr	r3, [r2, #8]
 976 007e 8A68     		ldr	r2, [r1, #8]
 977 0080 9A42     		cmp	r2, r3
 978 0082 03D3     		bcc	.L57
 979              	.L52:
 980              	.LVL101:
 981              	.LBB317:
 982              	.LBB318:
 983              	.LBB319:
 984              		.loc 4 546 0
 985 0084 0023     		movs	r3, #0
 986              		.syntax unified
 987              	@ 546 "../../lib/ChibiOS/os/ext/CMSIS/include/core_cmFunc.h" 1
 988 0086 83F31188 		MSR basepri, r3
 989              	@ 0 "" 2
 990              	.LVL102:
 991              		.thumb
 992              		.syntax unified
 993              	.LBE319:
 994              	.LBE318:
 995              	.LBE317:
 996              	.LBE316:
 997              	.LBE315:
 998              	.LBE314:
 999              		.loc 1 261 0
 1000 008a 38BD     		pop	{r3, r4, r5, pc}
 1001              	.LVL103:
 1002              	.L57:
 1003              	.LBB325:
 1004              	.LBB324:
 1005              	.LBB323:
 1006              		.loc 3 367 0
 1007 008c 0548     		ldr	r0, .L58+8
 1008 008e FFF7FEFF 		bl	chSysHalt
 1009              	.LVL104:
 1010              	.LBB322:
 1011              	.LBB321:
 1012              	.LBB320:
 1013              		.loc 4 546 0
 1014 0092 0023     		movs	r3, #0
 1015              		.syntax unified
 1016              	@ 546 "../../lib/ChibiOS/os/ext/CMSIS/include/core_cmFunc.h" 1
 1017 0094 83F31188 		MSR basepri, r3
 1018              	@ 0 "" 2
 1019              	.LVL105:
 1020              		.thumb
 1021              		.syntax unified
 1022              	.LBE320:
 1023              	.LBE321:
 1024              	.LBE322:
 1025              	.LBE323:
 1026              	.LBE324:
ARM GAS  /var/folders/km/q6jdms0143g2bddz5bhvdfd00000gn/T//cciAUmsz.s 			page 19


 1027              	.LBE325:
 1028              		.loc 1 261 0
 1029 0098 38BD     		pop	{r3, r4, r5, pc}
 1030              	.LVL106:
 1031              	.L59:
 1032 009a 00BF     		.align	2
 1033              	.L58:
 1034 009c 00000000 		.word	.LANCHOR3
 1035 00a0 00000000 		.word	ch
 1036 00a4 00000000 		.word	.LANCHOR0
 1037              		.cfi_endproc
 1038              	.LFE269:
 1039              		.size	sduStop, .-sduStop
 1040              		.section	.text.sduConfigureHookI,"ax",%progbits
 1041              		.align	1
 1042              		.p2align 4,,15
 1043              		.global	sduConfigureHookI
 1044              		.syntax unified
 1045              		.thumb
 1046              		.thumb_func
 1047              		.fpu fpv4-sp-d16
 1048              		.type	sduConfigureHookI, %function
 1049              	sduConfigureHookI:
 1050              	.LFB270:
 1051              		.loc 1 270 0
 1052              		.cfi_startproc
 1053              		@ args = 0, pretend = 0, frame = 0
 1054              		@ frame_needed = 0, uses_anonymous_args = 0
 1055              	.LVL107:
 1056 0000 70B5     		push	{r4, r5, r6, lr}
 1057              		.cfi_def_cfa_offset 16
 1058              		.cfi_offset 4, -16
 1059              		.cfi_offset 5, -12
 1060              		.cfi_offset 6, -8
 1061              		.cfi_offset 14, -4
 1062              		.loc 1 271 0
 1063 0002 D0F85432 		ldr	r3, [r0, #596]
 1064              		.loc 1 273 0
 1065 0006 00F10C06 		add	r6, r0, #12
 1066              		.loc 1 270 0
 1067 000a 0446     		mov	r4, r0
 1068              		.loc 1 273 0
 1069 000c 3046     		mov	r0, r6
 1070              	.LVL108:
 1071              		.loc 1 271 0
 1072 000e 1D68     		ldr	r5, [r3]
 1073              	.LVL109:
 1074              		.loc 1 273 0
 1075 0010 FFF7FEFF 		bl	chIQResetI
 1076              	.LVL110:
 1077              		.loc 1 274 0
 1078 0014 04F13000 		add	r0, r4, #48
 1079 0018 FFF7FEFF 		bl	chOQResetI
 1080              	.LVL111:
 1081              	.LBB326:
 1082              	.LBB327:
 1083              		.loc 6 798 0
ARM GAS  /var/folders/km/q6jdms0143g2bddz5bhvdfd00000gn/T//cciAUmsz.s 			page 20


 1084 001c 201D     		adds	r0, r4, #4
 1085              	.LVL112:
 1086 001e 0121     		movs	r1, #1
 1087 0020 FFF7FEFF 		bl	chEvtBroadcastFlagsI
 1088              	.LVL113:
 1089              	.LBE327:
 1090              	.LBE326:
 1091              		.loc 1 278 0
 1092 0024 D4F85432 		ldr	r3, [r4, #596]
 1093 0028 5979     		ldrb	r1, [r3, #5]	@ zero_extendqisi2
 1094              		.loc 1 279 0
 1095 002a 05EB8103 		add	r3, r5, r1, lsl #2
 1096              		.loc 1 278 0
 1097 002e 2846     		mov	r0, r5
 1098              		.loc 1 279 0
 1099 0030 DB68     		ldr	r3, [r3, #12]
 1100              		.loc 1 278 0
 1101 0032 3246     		mov	r2, r6
 1102 0034 5B8A     		ldrh	r3, [r3, #18]
 1103 0036 FFF7FEFF 		bl	usbPrepareQueuedReceive
 1104              	.LVL114:
 1105              		.loc 1 280 0
 1106 003a D4F85432 		ldr	r3, [r4, #596]
 1107 003e 2846     		mov	r0, r5
 1108 0040 5979     		ldrb	r1, [r3, #5]	@ zero_extendqisi2
 1109              		.loc 1 281 0
 1110 0042 BDE87040 		pop	{r4, r5, r6, lr}
 1111              		.cfi_restore 14
 1112              		.cfi_restore 6
 1113              		.cfi_restore 5
 1114              		.cfi_restore 4
 1115              		.cfi_def_cfa_offset 0
 1116              	.LVL115:
 1117              		.loc 1 280 0
 1118 0046 FFF7FEBF 		b	usbStartReceiveI
 1119              	.LVL116:
 1120              		.cfi_endproc
 1121              	.LFE270:
 1122              		.size	sduConfigureHookI, .-sduConfigureHookI
 1123 004a 00BF     		.section	.text.sduRequestsHook,"ax",%progbits
 1124              		.align	1
 1125              		.p2align 4,,15
 1126              		.global	sduRequestsHook
 1127              		.syntax unified
 1128              		.thumb
 1129              		.thumb_func
 1130              		.fpu fpv4-sp-d16
 1131              		.type	sduRequestsHook, %function
 1132              	sduRequestsHook:
 1133              	.LFB271:
 1134              		.loc 1 298 0
 1135              		.cfi_startproc
 1136              		@ args = 0, pretend = 0, frame = 0
 1137              		@ frame_needed = 0, uses_anonymous_args = 0
 1138              		@ link register save eliminated.
 1139              	.LVL117:
 1140              		.loc 1 300 0
ARM GAS  /var/folders/km/q6jdms0143g2bddz5bhvdfd00000gn/T//cciAUmsz.s 			page 21


 1141 0000 90F84430 		ldrb	r3, [r0, #68]	@ zero_extendqisi2
 1142 0004 03F06003 		and	r3, r3, #96
 1143 0008 202B     		cmp	r3, #32
 1144 000a 01D0     		beq	.L68
 1145              	.L67:
 1146              		.loc 1 313 0
 1147 000c 0020     		movs	r0, #0
 1148              	.LVL118:
 1149              		.loc 1 317 0
 1150 000e 7047     		bx	lr
 1151              	.LVL119:
 1152              	.L68:
 1153              		.loc 1 301 0
 1154 0010 90F84530 		ldrb	r3, [r0, #69]	@ zero_extendqisi2
 1155 0014 202B     		cmp	r3, #32
 1156 0016 F9D3     		bcc	.L67
 1157 0018 212B     		cmp	r3, #33
 1158 001a 07D8     		bhi	.L69
 1159              		.loc 1 303 0
 1160 001c 074B     		ldr	r3, .L70
 1161 001e 8363     		str	r3, [r0, #56]
 1162 0020 0722     		movs	r2, #7
 1163 0022 0023     		movs	r3, #0
 1164 0024 C0E90F23 		strd	r2, r3, [r0, #60]
 1165              		.loc 1 304 0
 1166 0028 0120     		movs	r0, #1
 1167              	.LVL120:
 1168 002a 7047     		bx	lr
 1169              	.LVL121:
 1170              	.L69:
 1171              		.loc 1 301 0
 1172 002c 222B     		cmp	r3, #34
 1173 002e EDD1     		bne	.L67
 1174              		.loc 1 310 0
 1175 0030 0023     		movs	r3, #0
 1176 0032 C0E90E33 		strd	r3, r3, [r0, #56]
 1177 0036 0364     		str	r3, [r0, #64]
 1178              		.loc 1 311 0
 1179 0038 0120     		movs	r0, #1
 1180              	.LVL122:
 1181 003a 7047     		bx	lr
 1182              	.L71:
 1183              		.align	2
 1184              	.L70:
 1185 003c 00000000 		.word	.LANCHOR4
 1186              		.cfi_endproc
 1187              	.LFE271:
 1188              		.size	sduRequestsHook, .-sduRequestsHook
 1189              		.section	.text.sduDataTransmitted,"ax",%progbits
 1190              		.align	1
 1191              		.p2align 4,,15
 1192              		.global	sduDataTransmitted
 1193              		.syntax unified
 1194              		.thumb
 1195              		.thumb_func
 1196              		.fpu fpv4-sp-d16
 1197              		.type	sduDataTransmitted, %function
ARM GAS  /var/folders/km/q6jdms0143g2bddz5bhvdfd00000gn/T//cciAUmsz.s 			page 22


 1198              	sduDataTransmitted:
 1199              	.LFB272:
 1200              		.loc 1 327 0
 1201              		.cfi_startproc
 1202              		@ args = 0, pretend = 0, frame = 0
 1203              		@ frame_needed = 0, uses_anonymous_args = 0
 1204              	.LVL123:
 1205              		.loc 1 329 0
 1206 0000 00EB8103 		add	r3, r0, r1, lsl #2
 1207              		.loc 1 327 0
 1208 0004 2DE9F041 		push	{r4, r5, r6, r7, r8, lr}
 1209              		.cfi_def_cfa_offset 24
 1210              		.cfi_offset 4, -24
 1211              		.cfi_offset 5, -20
 1212              		.cfi_offset 6, -16
 1213              		.cfi_offset 7, -12
 1214              		.cfi_offset 8, -8
 1215              		.cfi_offset 14, -4
 1216              		.loc 1 329 0
 1217 0008 9C69     		ldr	r4, [r3, #24]
 1218              	.LVL124:
 1219              		.loc 1 331 0
 1220 000a 002C     		cmp	r4, #0
 1221 000c 3DD0     		beq	.L72
 1222              	.LVL125:
 1223 000e 0F46     		mov	r7, r1
 1224 0010 0646     		mov	r6, r0
 1225              	.LBB328:
 1226              	.LBB329:
 1227              	.LBB330:
 1228              	.LBB331:
 1229              	.LBB332:
 1230              	.LBB333:
 1231              	.LBB334:
 1232              		.loc 4 546 0
 1233 0012 4FF02008 		mov	r8, #32
 1234              		.syntax unified
 1235              	@ 546 "../../lib/ChibiOS/os/ext/CMSIS/include/core_cmFunc.h" 1
 1236 0016 88F31188 		MSR basepri, r8
 1237              	@ 0 "" 2
 1238              	.LVL126:
 1239              		.thumb
 1240              		.syntax unified
 1241              	.LBE334:
 1242              	.LBE333:
 1243              	.LBE332:
 1244              	.LBE331:
 1245              		.loc 3 389 0
 1246 001a FFF7FEFF 		bl	_stats_start_measure_crit_isr
 1247              	.LVL127:
 1248              		.loc 3 390 0
 1249 001e FFF7FEFF 		bl	_dbg_check_lock_from_isr
 1250              	.LVL128:
 1251              	.LBE330:
 1252              	.LBE329:
 1253              	.LBE328:
 1254              	.LBB335:
ARM GAS  /var/folders/km/q6jdms0143g2bddz5bhvdfd00000gn/T//cciAUmsz.s 			page 23


 1255              	.LBB336:
 1256              		.loc 6 798 0
 1257 0022 201D     		adds	r0, r4, #4
 1258              	.LVL129:
 1259 0024 0821     		movs	r1, #8
 1260 0026 FFF7FEFF 		bl	chEvtBroadcastFlagsI
 1261              	.LVL130:
 1262              	.LBE336:
 1263              	.LBE335:
 1264              	.LBB337:
 1265              	.LBB338:
 1266              		.loc 2 355 0
 1267 002a FFF7FEFF 		bl	chDbgCheckClassI
 1268              	.LVL131:
 1269              		.loc 2 357 0
 1270 002e D4E90F23 		ldrd	r2, r3, [r4, #60]
 1271 0032 A56B     		ldr	r5, [r4, #56]
 1272 0034 9B1A     		subs	r3, r3, r2
 1273              	.LBE338:
 1274              	.LBE337:
 1275              		.loc 1 339 0
 1276 0036 5D1B     		subs	r5, r3, r5
 1277 0038 29D1     		bne	.L84
 1278              		.loc 1 349 0
 1279 003a 06EB8703 		add	r3, r6, r7, lsl #2
 1280 003e DB68     		ldr	r3, [r3, #12]
 1281 0040 5A69     		ldr	r2, [r3, #20]
 1282 0042 5568     		ldr	r5, [r2, #4]
 1283 0044 D5B1     		cbz	r5, .L75
 1284              		.loc 1 351 0 discriminator 1
 1285 0046 1B8A     		ldrh	r3, [r3, #16]
 1286 0048 013B     		subs	r3, r3, #1
 1287              		.loc 1 349 0 discriminator 1
 1288 004a 1D40     		ands	r5, r3, r5
 1289 004c 16D1     		bne	.L75
 1290              	.LBB339:
 1291              	.LBB340:
 1292              	.LBB341:
 1293              		.loc 3 408 0
 1294 004e FFF7FEFF 		bl	_dbg_check_unlock_from_isr
 1295              	.LVL132:
 1296              		.loc 3 409 0
 1297 0052 FFF7FEFF 		bl	_stats_stop_measure_crit_isr
 1298              	.LVL133:
 1299              	.LBB342:
 1300              	.LBB343:
 1301              	.LBB344:
 1302              	.LBB345:
 1303              		.loc 4 546 0
 1304              		.syntax unified
 1305              	@ 546 "../../lib/ChibiOS/os/ext/CMSIS/include/core_cmFunc.h" 1
 1306 0056 85F31188 		MSR basepri, r5
 1307              	@ 0 "" 2
 1308              	.LVL134:
 1309              		.thumb
 1310              		.syntax unified
 1311              	.L83:
ARM GAS  /var/folders/km/q6jdms0143g2bddz5bhvdfd00000gn/T//cciAUmsz.s 			page 24


 1312              	.LBE345:
 1313              	.LBE344:
 1314              	.LBE343:
 1315              	.LBE342:
 1316              	.LBE341:
 1317              	.LBE340:
 1318              	.LBE339:
 1319              		.loc 1 358 0
 1320 005a 2B46     		mov	r3, r5
 1321 005c 04F13002 		add	r2, r4, #48
 1322 0060 3946     		mov	r1, r7
 1323 0062 3046     		mov	r0, r6
 1324 0064 FFF7FEFF 		bl	usbPrepareQueuedTransmit
 1325              	.LVL135:
 1326              	.LBB346:
 1327              	.LBB347:
 1328              	.LBB348:
 1329              	.LBB349:
 1330              	.LBB350:
 1331              	.LBB351:
 1332              	.LBB352:
 1333              		.loc 4 546 0
 1334              		.syntax unified
 1335              	@ 546 "../../lib/ChibiOS/os/ext/CMSIS/include/core_cmFunc.h" 1
 1336 0068 88F31188 		MSR basepri, r8
 1337              	@ 0 "" 2
 1338              	.LVL136:
 1339              		.thumb
 1340              		.syntax unified
 1341              	.LBE352:
 1342              	.LBE351:
 1343              	.LBE350:
 1344              	.LBE349:
 1345              		.loc 3 389 0
 1346 006c FFF7FEFF 		bl	_stats_start_measure_crit_isr
 1347              	.LVL137:
 1348              		.loc 3 390 0
 1349 0070 FFF7FEFF 		bl	_dbg_check_lock_from_isr
 1350              	.LVL138:
 1351              	.LBE348:
 1352              	.LBE347:
 1353              	.LBE346:
 1354              		.loc 1 361 0
 1355 0074 3946     		mov	r1, r7
 1356 0076 3046     		mov	r0, r6
 1357 0078 FFF7FEFF 		bl	usbStartTransmitI
 1358              	.LVL139:
 1359              	.L75:
 1360              	.LBB353:
 1361              	.LBB354:
 1362              	.LBB355:
 1363              		.loc 3 408 0
 1364 007c FFF7FEFF 		bl	_dbg_check_unlock_from_isr
 1365              	.LVL140:
 1366              		.loc 3 409 0
 1367 0080 FFF7FEFF 		bl	_stats_stop_measure_crit_isr
 1368              	.LVL141:
ARM GAS  /var/folders/km/q6jdms0143g2bddz5bhvdfd00000gn/T//cciAUmsz.s 			page 25


 1369              	.LBB356:
 1370              	.LBB357:
 1371              	.LBB358:
 1372              	.LBB359:
 1373              		.loc 4 546 0
 1374 0084 0023     		movs	r3, #0
 1375              		.syntax unified
 1376              	@ 546 "../../lib/ChibiOS/os/ext/CMSIS/include/core_cmFunc.h" 1
 1377 0086 83F31188 		MSR basepri, r3
 1378              	@ 0 "" 2
 1379              	.LVL142:
 1380              		.thumb
 1381              		.syntax unified
 1382              	.L72:
 1383              	.LBE359:
 1384              	.LBE358:
 1385              	.LBE357:
 1386              	.LBE356:
 1387              	.LBE355:
 1388              	.LBE354:
 1389              	.LBE353:
 1390              		.loc 1 366 0
 1391 008a BDE8F081 		pop	{r4, r5, r6, r7, r8, pc}
 1392              	.LVL143:
 1393              	.L84:
 1394              	.LBB360:
 1395              	.LBB361:
 1396              	.LBB362:
 1397              		.loc 3 408 0
 1398 008e FFF7FEFF 		bl	_dbg_check_unlock_from_isr
 1399              	.LVL144:
 1400              		.loc 3 409 0
 1401 0092 FFF7FEFF 		bl	_stats_stop_measure_crit_isr
 1402              	.LVL145:
 1403              	.LBB363:
 1404              	.LBB364:
 1405              	.LBB365:
 1406              	.LBB366:
 1407              		.loc 4 546 0
 1408 0096 0023     		movs	r3, #0
 1409              		.syntax unified
 1410              	@ 546 "../../lib/ChibiOS/os/ext/CMSIS/include/core_cmFunc.h" 1
 1411 0098 83F31188 		MSR basepri, r3
 1412              	@ 0 "" 2
 1413              	.LVL146:
 1414              		.thumb
 1415              		.syntax unified
 1416 009c DDE7     		b	.L83
 1417              	.LBE366:
 1418              	.LBE365:
 1419              	.LBE364:
 1420              	.LBE363:
 1421              	.LBE362:
 1422              	.LBE361:
 1423              	.LBE360:
 1424              		.cfi_endproc
 1425              	.LFE272:
ARM GAS  /var/folders/km/q6jdms0143g2bddz5bhvdfd00000gn/T//cciAUmsz.s 			page 26


 1426              		.size	sduDataTransmitted, .-sduDataTransmitted
 1427 009e 00BF     		.section	.text.sduDataReceived,"ax",%progbits
 1428              		.align	1
 1429              		.p2align 4,,15
 1430              		.global	sduDataReceived
 1431              		.syntax unified
 1432              		.thumb
 1433              		.thumb_func
 1434              		.fpu fpv4-sp-d16
 1435              		.type	sduDataReceived, %function
 1436              	sduDataReceived:
 1437              	.LFB273:
 1438              		.loc 1 376 0
 1439              		.cfi_startproc
 1440              		@ args = 0, pretend = 0, frame = 0
 1441              		@ frame_needed = 0, uses_anonymous_args = 0
 1442              	.LVL147:
 1443 0000 2DE9F843 		push	{r3, r4, r5, r6, r7, r8, r9, lr}
 1444              		.cfi_def_cfa_offset 32
 1445              		.cfi_offset 3, -32
 1446              		.cfi_offset 4, -28
 1447              		.cfi_offset 5, -24
 1448              		.cfi_offset 6, -20
 1449              		.cfi_offset 7, -16
 1450              		.cfi_offset 8, -12
 1451              		.cfi_offset 9, -8
 1452              		.cfi_offset 14, -4
 1453              		.loc 1 378 0
 1454 0004 01F10903 		add	r3, r1, #9
 1455 0008 50F82340 		ldr	r4, [r0, r3, lsl #2]
 1456              	.LVL148:
 1457              		.loc 1 380 0
 1458 000c 14B3     		cbz	r4, .L85
 1459              	.LVL149:
 1460 000e 0746     		mov	r7, r0
 1461 0010 0E46     		mov	r6, r1
 1462              	.LBB367:
 1463              	.LBB368:
 1464              	.LBB369:
 1465              	.LBB370:
 1466              	.LBB371:
 1467              	.LBB372:
 1468              	.LBB373:
 1469              		.loc 4 546 0
 1470 0012 4FF02008 		mov	r8, #32
 1471              		.syntax unified
 1472              	@ 546 "../../lib/ChibiOS/os/ext/CMSIS/include/core_cmFunc.h" 1
 1473 0016 88F31188 		MSR basepri, r8
 1474              	@ 0 "" 2
 1475              	.LVL150:
 1476              		.thumb
 1477              		.syntax unified
 1478              	.LBE373:
 1479              	.LBE372:
 1480              	.LBE371:
 1481              	.LBE370:
 1482              		.loc 3 389 0
ARM GAS  /var/folders/km/q6jdms0143g2bddz5bhvdfd00000gn/T//cciAUmsz.s 			page 27


 1483 001a FFF7FEFF 		bl	_stats_start_measure_crit_isr
 1484              	.LVL151:
 1485              		.loc 3 390 0
 1486 001e FFF7FEFF 		bl	_dbg_check_lock_from_isr
 1487              	.LVL152:
 1488              	.LBE369:
 1489              	.LBE368:
 1490              	.LBE367:
 1491              	.LBB374:
 1492              	.LBB375:
 1493              		.loc 6 798 0
 1494 0022 201D     		adds	r0, r4, #4
 1495              	.LVL153:
 1496 0024 0421     		movs	r1, #4
 1497 0026 FFF7FEFF 		bl	chEvtBroadcastFlagsI
 1498              	.LVL154:
 1499              	.LBE375:
 1500              	.LBE374:
 1501              		.loc 1 389 0
 1502 002a 07EB8603 		add	r3, r7, r6, lsl #2
 1503 002e DB68     		ldr	r3, [r3, #12]
 1504 0030 B3F81290 		ldrh	r9, [r3, #18]
 1505              	.LVL155:
 1506              	.LBB376:
 1507              	.LBB377:
 1508              		.loc 2 288 0
 1509 0034 FFF7FEFF 		bl	chDbgCheckClassI
 1510              	.LVL156:
 1511              		.loc 2 290 0
 1512 0038 D4E90632 		ldrd	r3, r2, [r4, #24]
 1513 003c 6569     		ldr	r5, [r4, #20]
 1514 003e D21A     		subs	r2, r2, r3
 1515 0040 551B     		subs	r5, r2, r5
 1516              	.LVL157:
 1517              	.LBE377:
 1518              	.LBE376:
 1519              		.loc 1 390 0
 1520 0042 A945     		cmp	r9, r5
 1521 0044 08D9     		bls	.L92
 1522              	.L87:
 1523              	.LBB378:
 1524              	.LBB379:
 1525              	.LBB380:
 1526              		.loc 3 408 0
 1527 0046 FFF7FEFF 		bl	_dbg_check_unlock_from_isr
 1528              	.LVL158:
 1529              		.loc 3 409 0
 1530 004a FFF7FEFF 		bl	_stats_stop_measure_crit_isr
 1531              	.LVL159:
 1532              	.LBB381:
 1533              	.LBB382:
 1534              	.LBB383:
 1535              	.LBB384:
 1536              		.loc 4 546 0
 1537 004e 0023     		movs	r3, #0
 1538              		.syntax unified
 1539              	@ 546 "../../lib/ChibiOS/os/ext/CMSIS/include/core_cmFunc.h" 1
ARM GAS  /var/folders/km/q6jdms0143g2bddz5bhvdfd00000gn/T//cciAUmsz.s 			page 28


 1540 0050 83F31188 		MSR basepri, r3
 1541              	@ 0 "" 2
 1542              	.LVL160:
 1543              		.thumb
 1544              		.syntax unified
 1545              	.L85:
 1546              	.LBE384:
 1547              	.LBE383:
 1548              	.LBE382:
 1549              	.LBE381:
 1550              	.LBE380:
 1551              	.LBE379:
 1552              	.LBE378:
 1553              		.loc 1 402 0
 1554 0054 BDE8F883 		pop	{r3, r4, r5, r6, r7, r8, r9, pc}
 1555              	.LVL161:
 1556              	.L92:
 1557              	.LBB385:
 1558              	.LBB386:
 1559              	.LBB387:
 1560              		.loc 3 408 0
 1561 0058 FFF7FEFF 		bl	_dbg_check_unlock_from_isr
 1562              	.LVL162:
 1563              		.loc 3 409 0
 1564 005c FFF7FEFF 		bl	_stats_stop_measure_crit_isr
 1565              	.LVL163:
 1566              	.LBB388:
 1567              	.LBB389:
 1568              	.LBB390:
 1569              	.LBB391:
 1570              		.loc 4 546 0
 1571 0060 0023     		movs	r3, #0
 1572              		.syntax unified
 1573              	@ 546 "../../lib/ChibiOS/os/ext/CMSIS/include/core_cmFunc.h" 1
 1574 0062 83F31188 		MSR basepri, r3
 1575              	@ 0 "" 2
 1576              	.LVL164:
 1577              		.thumb
 1578              		.syntax unified
 1579              	.LBE391:
 1580              	.LBE390:
 1581              	.LBE389:
 1582              	.LBE388:
 1583              	.LBE387:
 1584              	.LBE386:
 1585              	.LBE385:
 1586              		.loc 1 395 0
 1587 0066 B5FBF9F5 		udiv	r5, r5, r9
 1588              	.LVL165:
 1589              		.loc 1 396 0
 1590 006a 04F10C02 		add	r2, r4, #12
 1591 006e 09FB05F3 		mul	r3, r9, r5
 1592              	.LVL166:
 1593 0072 3146     		mov	r1, r6
 1594 0074 3846     		mov	r0, r7
 1595 0076 FFF7FEFF 		bl	usbPrepareQueuedReceive
 1596              	.LVL167:
ARM GAS  /var/folders/km/q6jdms0143g2bddz5bhvdfd00000gn/T//cciAUmsz.s 			page 29


 1597              	.LBB392:
 1598              	.LBB393:
 1599              	.LBB394:
 1600              	.LBB395:
 1601              	.LBB396:
 1602              	.LBB397:
 1603              	.LBB398:
 1604              		.loc 4 546 0
 1605              		.syntax unified
 1606              	@ 546 "../../lib/ChibiOS/os/ext/CMSIS/include/core_cmFunc.h" 1
 1607 007a 88F31188 		MSR basepri, r8
 1608              	@ 0 "" 2
 1609              	.LVL168:
 1610              		.thumb
 1611              		.syntax unified
 1612              	.LBE398:
 1613              	.LBE397:
 1614              	.LBE396:
 1615              	.LBE395:
 1616              		.loc 3 389 0
 1617 007e FFF7FEFF 		bl	_stats_start_measure_crit_isr
 1618              	.LVL169:
 1619              		.loc 3 390 0
 1620 0082 FFF7FEFF 		bl	_dbg_check_lock_from_isr
 1621              	.LVL170:
 1622              	.LBE394:
 1623              	.LBE393:
 1624              	.LBE392:
 1625              		.loc 1 399 0
 1626 0086 3146     		mov	r1, r6
 1627 0088 3846     		mov	r0, r7
 1628 008a FFF7FEFF 		bl	usbStartReceiveI
 1629              	.LVL171:
 1630 008e DAE7     		b	.L87
 1631              		.cfi_endproc
 1632              	.LFE273:
 1633              		.size	sduDataReceived, .-sduDataReceived
 1634              		.section	.text.sduInterruptTransmitted,"ax",%progbits
 1635              		.align	1
 1636              		.p2align 4,,15
 1637              		.global	sduInterruptTransmitted
 1638              		.syntax unified
 1639              		.thumb
 1640              		.thumb_func
 1641              		.fpu fpv4-sp-d16
 1642              		.type	sduInterruptTransmitted, %function
 1643              	sduInterruptTransmitted:
 1644              	.LFB274:
 1645              		.loc 1 412 0
 1646              		.cfi_startproc
 1647              		@ args = 0, pretend = 0, frame = 0
 1648              		@ frame_needed = 0, uses_anonymous_args = 0
 1649              		@ link register save eliminated.
 1650              	.LVL172:
 1651              		.loc 1 416 0
 1652 0000 7047     		bx	lr
 1653              		.cfi_endproc
ARM GAS  /var/folders/km/q6jdms0143g2bddz5bhvdfd00000gn/T//cciAUmsz.s 			page 30


 1654              	.LFE274:
 1655              		.size	sduInterruptTransmitted, .-sduInterruptTransmitted
 1656 0002 00BF     		.section	.data.linecoding,"aw",%progbits
 1657              		.align	2
 1658              		.set	.LANCHOR4,. + 0
 1659              		.type	linecoding, %object
 1660              		.size	linecoding, 7
 1661              	linecoding:
 1662 0000 00       		.byte	0
 1663 0001 96       		.byte	-106
 1664 0002 00       		.byte	0
 1665 0003 00       		.byte	0
 1666 0004 00       		.byte	0
 1667 0005 00       		.byte	0
 1668 0006 08       		.byte	8
 1669              		.section	.rodata.__func__.7153,"a",%progbits
 1670              		.align	2
 1671              		.set	.LANCHOR0,. + 0
 1672              		.type	__func__.7153, %object
 1673              		.size	__func__.7153, 12
 1674              	__func__.7153:
 1675 0000 63685379 		.ascii	"chSysUnlock\000"
 1675      73556E6C 
 1675      6F636B00 
 1676              		.section	.rodata.__func__.8942,"a",%progbits
 1677              		.align	2
 1678              		.set	.LANCHOR2,. + 0
 1679              		.type	__func__.8942, %object
 1680              		.size	__func__.8942, 9
 1681              	__func__.8942:
 1682 0000 73647553 		.ascii	"sduStart\000"
 1682      74617274 
 1682      00
 1683              		.section	.rodata.__func__.8947,"a",%progbits
 1684              		.align	2
 1685              		.set	.LANCHOR3,. + 0
 1686              		.type	__func__.8947, %object
 1687              		.size	__func__.8947, 8
 1688              	__func__.8947:
 1689 0000 73647553 		.ascii	"sduStop\000"
 1689      746F7000 
 1690              		.section	.rodata.vmt,"a",%progbits
 1691              		.align	2
 1692              		.set	.LANCHOR1,. + 0
 1693              		.type	vmt, %object
 1694              		.size	vmt, 32
 1695              	vmt:
 1696 0000 00000000 		.word	write
 1697 0004 00000000 		.word	read
 1698 0008 00000000 		.word	put
 1699 000c 00000000 		.word	get
 1700 0010 00000000 		.word	putt
 1701 0014 00000000 		.word	gett
 1702 0018 00000000 		.word	writet
 1703 001c 00000000 		.word	readt
 1704              		.text
 1705              	.Letext0:
ARM GAS  /var/folders/km/q6jdms0143g2bddz5bhvdfd00000gn/T//cciAUmsz.s 			page 31


 1706              		.file 7 "/Applications/Eclipse_e-puck2.app/Contents/Eclipse_e-puck2/Tools/gcc-arm-none-eabi-7-2017
 1707              		.file 8 "/Applications/Eclipse_e-puck2.app/Contents/Eclipse_e-puck2/Tools/gcc-arm-none-eabi-7-2017
 1708              		.file 9 "/Applications/Eclipse_e-puck2.app/Contents/Eclipse_e-puck2/Tools/gcc-arm-none-eabi-7-2017
 1709              		.file 10 "../../lib/ChibiOS/os/rt/ports/ARMCMx/compilers/GCC/chtypes.h"
 1710              		.file 11 "../../lib/ChibiOS/os/rt/include/chsystypes.h"
 1711              		.file 12 "../../lib/ChibiOS/os/rt/include/chschd.h"
 1712              		.file 13 "../../lib/ChibiOS/os/ext/CMSIS/include/core_cm4.h"
 1713              		.file 14 "../../lib/ChibiOS/os/ext/CMSIS/ST/system_stm32f4xx.h"
 1714              		.file 15 "../../lib/ChibiOS/os/ext/CMSIS/ST/stm32f407xx.h"
 1715              		.file 16 "../../lib/ChibiOS/os/rt/ports/ARMCMx/chcore.h"
 1716              		.file 17 "../../lib/ChibiOS/os/rt/ports/ARMCMx/chcore_v7m.h"
 1717              		.file 18 "../../lib/ChibiOS/os/rt/include/chdebug.h"
 1718              		.file 19 "../../lib/ChibiOS/os/rt/include/chtm.h"
 1719              		.file 20 "../../lib/ChibiOS/os/rt/include/chstats.h"
 1720              		.file 21 "../../lib/ChibiOS/os/rt/include/chsem.h"
 1721              		.file 22 "../../lib/ChibiOS/os/rt/include/chmtx.h"
 1722              		.file 23 "../../lib/ChibiOS/os/rt/include/chregistry.h"
 1723              		.file 24 "../../lib/ChibiOS/os/hal/ports/STM32/STM32F4xx/stm32_dma.h"
 1724              		.file 25 "../../lib/ChibiOS/os/hal/ports/STM32/LLD/GPIOv2/pal_lld.h"
 1725              		.file 26 "../../lib/ChibiOS/os/hal/include/gpt.h"
 1726              		.file 27 "../../lib/ChibiOS/os/hal/ports/STM32/LLD/TIMv1/gpt_lld.h"
 1727              		.file 28 "../../lib/ChibiOS/os/hal/ports/STM32/LLD/TIMv1/stm32_tim.h"
 1728              		.file 29 "../../lib/ChibiOS/os/hal/include/i2c.h"
 1729              		.file 30 "../../lib/ChibiOS/os/hal/ports/STM32/LLD/I2Cv1/i2c_lld.h"
 1730              		.file 31 "../../lib/ChibiOS/os/hal/include/serial.h"
 1731              		.file 32 "../../lib/ChibiOS/os/hal/ports/STM32/LLD/USARTv1/serial_lld.h"
 1732              		.file 33 "../../lib/ChibiOS/os/hal/include/usb.h"
 1733              		.file 34 "../../lib/ChibiOS/os/hal/ports/STM32/LLD/OTGv1/usb_lld.h"
 1734              		.file 35 "../../lib/ChibiOS/os/hal/ports/STM32/LLD/OTGv1/stm32_otg.h"
 1735              		.file 36 "../../lib/ChibiOS/os/hal/include/serial_usb.h"