ARM GAS  /var/folders/km/q6jdms0143g2bddz5bhvdfd00000gn/T//ccmgBZX5.s 			page 1


   1              		.cpu cortex-m4
   2              		.eabi_attribute 27, 1
   3              		.eabi_attribute 28, 1
   4              		.eabi_attribute 20, 1
   5              		.eabi_attribute 21, 1
   6              		.eabi_attribute 23, 3
   7              		.eabi_attribute 24, 1
   8              		.eabi_attribute 25, 1
   9              		.eabi_attribute 26, 1
  10              		.eabi_attribute 30, 2
  11              		.eabi_attribute 34, 1
  12              		.eabi_attribute 18, 4
  13              		.file	"st.c"
  14              		.text
  15              	.Ltext0:
  16              		.cfi_sections	.debug_frame
  17              		.section	.text.stInit,"ax",%progbits
  18              		.align	1
  19              		.p2align 4,,15
  20              		.global	stInit
  21              		.syntax unified
  22              		.thumb
  23              		.thumb_func
  24              		.fpu fpv4-sp-d16
  25              		.type	stInit, %function
  26              	stInit:
  27              	.LFB256:
  28              		.file 1 "../../lib/ChibiOS/os/hal/src/st.c"
  29              		.loc 1 60 0
  30              		.cfi_startproc
  31              		@ args = 0, pretend = 0, frame = 0
  32              		@ frame_needed = 0, uses_anonymous_args = 0
  33              		@ link register save eliminated.
  34              		.loc 1 62 0
  35 0000 FFF7FEBF 		b	st_lld_init
  36              	.LVL0:
  37              		.cfi_endproc
  38              	.LFE256:
  39              		.size	stInit, .-stInit
  40              		.section	.text.stStartAlarm,"ax",%progbits
  41              		.align	1
  42              		.p2align 4,,15
  43              		.global	stStartAlarm
  44              		.syntax unified
  45              		.thumb
  46              		.thumb_func
  47              		.fpu fpv4-sp-d16
  48              		.type	stStartAlarm, %function
  49              	stStartAlarm:
  50              	.LFB257:
  51              		.loc 1 77 0
  52              		.cfi_startproc
  53              		@ args = 0, pretend = 0, frame = 0
  54              		@ frame_needed = 0, uses_anonymous_args = 0
  55              	.LVL1:
  56              	.LBB16:
  57              	.LBB17:
ARM GAS  /var/folders/km/q6jdms0143g2bddz5bhvdfd00000gn/T//ccmgBZX5.s 			page 2


  58              		.file 2 "../../lib/ChibiOS/os/hal/ports/STM32/LLD/TIMv1/st_lld.h"
  59              		.loc 2 193 0
  60 0000 4FF08043 		mov	r3, #1073741824
  61              	.LBE17:
  62              	.LBE16:
  63              		.loc 1 77 0
  64 0004 10B5     		push	{r4, lr}
  65              		.cfi_def_cfa_offset 8
  66              		.cfi_offset 4, -8
  67              		.cfi_offset 14, -4
  68              	.LBB19:
  69              	.LBB18:
  70              		.loc 2 193 0
  71 0006 DB68     		ldr	r3, [r3, #12]
  72              	.LBE18:
  73              	.LBE19:
  74              		.loc 1 79 0
  75 0008 9B07     		lsls	r3, r3, #30
  76              		.loc 1 77 0
  77 000a 0446     		mov	r4, r0
  78              		.loc 1 79 0
  79 000c 02D5     		bpl	.L4
  80              		.loc 1 79 0 is_stmt 0 discriminator 2
  81 000e 0548     		ldr	r0, .L9
  82              	.LVL2:
  83 0010 FFF7FEFF 		bl	chSysHalt
  84              	.LVL3:
  85              	.L4:
  86              	.LBB20:
  87              	.LBB21:
  88              		.loc 2 143 0 is_stmt 1
  89 0014 4FF08043 		mov	r3, #1073741824
  90              		.loc 2 144 0
  91 0018 0021     		movs	r1, #0
  92              		.loc 2 145 0
  93 001a 0222     		movs	r2, #2
  94              		.loc 2 143 0
  95 001c 5C63     		str	r4, [r3, #52]
  96              		.loc 2 144 0
  97 001e 1961     		str	r1, [r3, #16]
  98              		.loc 2 145 0
  99 0020 DA60     		str	r2, [r3, #12]
 100              	.LVL4:
 101              	.LBE21:
 102              	.LBE20:
 103              		.loc 1 82 0
 104 0022 10BD     		pop	{r4, pc}
 105              	.LVL5:
 106              	.L10:
 107              		.align	2
 108              	.L9:
 109 0024 00000000 		.word	.LANCHOR0
 110              		.cfi_endproc
 111              	.LFE257:
 112              		.size	stStartAlarm, .-stStartAlarm
 113              		.section	.text.stStopAlarm,"ax",%progbits
 114              		.align	1
ARM GAS  /var/folders/km/q6jdms0143g2bddz5bhvdfd00000gn/T//ccmgBZX5.s 			page 3


 115              		.p2align 4,,15
 116              		.global	stStopAlarm
 117              		.syntax unified
 118              		.thumb
 119              		.thumb_func
 120              		.fpu fpv4-sp-d16
 121              		.type	stStopAlarm, %function
 122              	stStopAlarm:
 123              	.LFB258:
 124              		.loc 1 91 0
 125              		.cfi_startproc
 126              		@ args = 0, pretend = 0, frame = 0
 127              		@ frame_needed = 0, uses_anonymous_args = 0
 128              		@ link register save eliminated.
 129              	.LBB22:
 130              	.LBB23:
 131              		.loc 2 155 0
 132 0000 4FF08043 		mov	r3, #1073741824
 133 0004 0022     		movs	r2, #0
 134 0006 DA60     		str	r2, [r3, #12]
 135              	.LBE23:
 136              	.LBE22:
 137              		.loc 1 94 0
 138 0008 7047     		bx	lr
 139              		.cfi_endproc
 140              	.LFE258:
 141              		.size	stStopAlarm, .-stStopAlarm
 142 000a 00BF     		.section	.text.stSetAlarm,"ax",%progbits
 143              		.align	1
 144              		.p2align 4,,15
 145              		.global	stSetAlarm
 146              		.syntax unified
 147              		.thumb
 148              		.thumb_func
 149              		.fpu fpv4-sp-d16
 150              		.type	stSetAlarm, %function
 151              	stSetAlarm:
 152              	.LFB259:
 153              		.loc 1 105 0
 154              		.cfi_startproc
 155              		@ args = 0, pretend = 0, frame = 0
 156              		@ frame_needed = 0, uses_anonymous_args = 0
 157              	.LVL6:
 158              	.LBB24:
 159              	.LBB25:
 160              		.loc 2 193 0
 161 0000 4FF08043 		mov	r3, #1073741824
 162              	.LBE25:
 163              	.LBE24:
 164              		.loc 1 105 0
 165 0004 10B5     		push	{r4, lr}
 166              		.cfi_def_cfa_offset 8
 167              		.cfi_offset 4, -8
 168              		.cfi_offset 14, -4
 169              	.LBB27:
 170              	.LBB26:
 171              		.loc 2 193 0
ARM GAS  /var/folders/km/q6jdms0143g2bddz5bhvdfd00000gn/T//ccmgBZX5.s 			page 4


 172 0006 DB68     		ldr	r3, [r3, #12]
 173              	.LBE26:
 174              	.LBE27:
 175              		.loc 1 107 0
 176 0008 9B07     		lsls	r3, r3, #30
 177              		.loc 1 105 0
 178 000a 0446     		mov	r4, r0
 179              		.loc 1 107 0
 180 000c 02D4     		bmi	.L13
 181              		.loc 1 107 0 is_stmt 0 discriminator 2
 182 000e 0348     		ldr	r0, .L15
 183              	.LVL7:
 184 0010 FFF7FEFF 		bl	chSysHalt
 185              	.LVL8:
 186              	.L13:
 187              	.LBB28:
 188              	.LBB29:
 189              		.loc 2 167 0 is_stmt 1
 190 0014 4FF08043 		mov	r3, #1073741824
 191 0018 5C63     		str	r4, [r3, #52]
 192              	.LVL9:
 193              	.LBE29:
 194              	.LBE28:
 195              		.loc 1 110 0
 196 001a 10BD     		pop	{r4, pc}
 197              	.LVL10:
 198              	.L16:
 199              		.align	2
 200              	.L15:
 201 001c 00000000 		.word	.LANCHOR1
 202              		.cfi_endproc
 203              	.LFE259:
 204              		.size	stSetAlarm, .-stSetAlarm
 205              		.section	.text.stGetAlarm,"ax",%progbits
 206              		.align	1
 207              		.p2align 4,,15
 208              		.global	stGetAlarm
 209              		.syntax unified
 210              		.thumb
 211              		.thumb_func
 212              		.fpu fpv4-sp-d16
 213              		.type	stGetAlarm, %function
 214              	stGetAlarm:
 215              	.LFB260:
 216              		.loc 1 121 0
 217              		.cfi_startproc
 218              		@ args = 0, pretend = 0, frame = 0
 219              		@ frame_needed = 0, uses_anonymous_args = 0
 220 0000 08B5     		push	{r3, lr}
 221              		.cfi_def_cfa_offset 8
 222              		.cfi_offset 3, -8
 223              		.cfi_offset 14, -4
 224              	.LBB30:
 225              	.LBB31:
 226              		.loc 2 193 0
 227 0002 4FF08043 		mov	r3, #1073741824
 228 0006 DB68     		ldr	r3, [r3, #12]
ARM GAS  /var/folders/km/q6jdms0143g2bddz5bhvdfd00000gn/T//ccmgBZX5.s 			page 5


 229              	.LBE31:
 230              	.LBE30:
 231              		.loc 1 123 0
 232 0008 9B07     		lsls	r3, r3, #30
 233 000a 02D4     		bmi	.L18
 234              		.loc 1 123 0 is_stmt 0 discriminator 2
 235 000c 0348     		ldr	r0, .L20
 236 000e FFF7FEFF 		bl	chSysHalt
 237              	.LVL11:
 238              	.L18:
 239              	.LBB32:
 240              	.LBB33:
 241              		.loc 2 179 0 is_stmt 1
 242 0012 4FF08043 		mov	r3, #1073741824
 243 0016 586B     		ldr	r0, [r3, #52]
 244              	.LBE33:
 245              	.LBE32:
 246              		.loc 1 126 0
 247 0018 08BD     		pop	{r3, pc}
 248              	.L21:
 249 001a 00BF     		.align	2
 250              	.L20:
 251 001c 00000000 		.word	.LANCHOR2
 252              		.cfi_endproc
 253              	.LFE260:
 254              		.size	stGetAlarm, .-stGetAlarm
 255              		.section	.rodata.__func__.8886,"a",%progbits
 256              		.align	2
 257              		.set	.LANCHOR0,. + 0
 258              		.type	__func__.8886, %object
 259              		.size	__func__.8886, 13
 260              	__func__.8886:
 261 0000 73745374 		.ascii	"stStartAlarm\000"
 261      61727441 
 261      6C61726D 
 261      00
 262              		.section	.rodata.__func__.8893,"a",%progbits
 263              		.align	2
 264              		.set	.LANCHOR1,. + 0
 265              		.type	__func__.8893, %object
 266              		.size	__func__.8893, 11
 267              	__func__.8893:
 268 0000 73745365 		.ascii	"stSetAlarm\000"
 268      74416C61 
 268      726D00
 269              		.section	.rodata.__func__.8897,"a",%progbits
 270              		.align	2
 271              		.set	.LANCHOR2,. + 0
 272              		.type	__func__.8897, %object
 273              		.size	__func__.8897, 11
 274              	__func__.8897:
 275 0000 73744765 		.ascii	"stGetAlarm\000"
 275      74416C61 
 275      726D00
 276              		.text
 277              	.Letext0:
 278              		.file 3 "/Applications/Eclipse_e-puck2.app/Contents/Eclipse_e-puck2/Tools/gcc-arm-none-eabi-7-2017
ARM GAS  /var/folders/km/q6jdms0143g2bddz5bhvdfd00000gn/T//ccmgBZX5.s 			page 6


 279              		.file 4 "/Applications/Eclipse_e-puck2.app/Contents/Eclipse_e-puck2/Tools/gcc-arm-none-eabi-7-2017
 280              		.file 5 "/Applications/Eclipse_e-puck2.app/Contents/Eclipse_e-puck2/Tools/gcc-arm-none-eabi-7-2017
 281              		.file 6 "../../lib/ChibiOS/os/rt/ports/ARMCMx/compilers/GCC/chtypes.h"
 282              		.file 7 "../../lib/ChibiOS/os/rt/include/chsystypes.h"
 283              		.file 8 "../../lib/ChibiOS/os/rt/include/chschd.h"
 284              		.file 9 "../../lib/ChibiOS/os/ext/CMSIS/include/core_cm4.h"
 285              		.file 10 "../../lib/ChibiOS/os/ext/CMSIS/ST/system_stm32f4xx.h"
 286              		.file 11 "../../lib/ChibiOS/os/ext/CMSIS/ST/stm32f407xx.h"
 287              		.file 12 "../../lib/ChibiOS/os/rt/ports/ARMCMx/chcore.h"
 288              		.file 13 "../../lib/ChibiOS/os/rt/ports/ARMCMx/chcore_v7m.h"
 289              		.file 14 "../../lib/ChibiOS/os/rt/include/chdebug.h"
 290              		.file 15 "../../lib/ChibiOS/os/rt/include/chtm.h"
 291              		.file 16 "../../lib/ChibiOS/os/rt/include/chstats.h"
 292              		.file 17 "../../lib/ChibiOS/os/rt/include/chsem.h"
 293              		.file 18 "../../lib/ChibiOS/os/rt/include/chmtx.h"
 294              		.file 19 "../../lib/ChibiOS/os/rt/include/chregistry.h"
 295              		.file 20 "../../lib/ChibiOS/os/rt/include/chevents.h"
 296              		.file 21 "../../lib/ChibiOS/os/rt/include/chqueues.h"
 297              		.file 22 "../../lib/ChibiOS/os/hal/ports/STM32/STM32F4xx/stm32_dma.h"
 298              		.file 23 "../../lib/ChibiOS/os/hal/ports/STM32/LLD/GPIOv2/pal_lld.h"
 299              		.file 24 "../../lib/ChibiOS/os/hal/include/gpt.h"
 300              		.file 25 "../../lib/ChibiOS/os/hal/ports/STM32/LLD/TIMv1/gpt_lld.h"
 301              		.file 26 "../../lib/ChibiOS/os/hal/ports/STM32/LLD/TIMv1/stm32_tim.h"
 302              		.file 27 "../../lib/ChibiOS/os/hal/include/i2c.h"
 303              		.file 28 "../../lib/ChibiOS/os/hal/ports/STM32/LLD/I2Cv1/i2c_lld.h"
 304              		.file 29 "../../lib/ChibiOS/os/hal/include/serial.h"
 305              		.file 30 "../../lib/ChibiOS/os/hal/ports/STM32/LLD/USARTv1/serial_lld.h"
 306              		.file 31 "../../lib/ChibiOS/os/hal/include/usb.h"
 307              		.file 32 "../../lib/ChibiOS/os/hal/ports/STM32/LLD/OTGv1/usb_lld.h"
 308              		.file 33 "../../lib/ChibiOS/os/hal/ports/STM32/LLD/OTGv1/stm32_otg.h"
 309              		.file 34 "../../lib/ChibiOS/os/rt/include/chsys.h"