ARM GAS  /var/folders/km/q6jdms0143g2bddz5bhvdfd00000gn/T//ccukKLLL.s 			page 1


   1              		.cpu cortex-m4
   2              		.eabi_attribute 27, 1
   3              		.eabi_attribute 28, 1
   4              		.eabi_attribute 20, 1
   5              		.eabi_attribute 21, 1
   6              		.eabi_attribute 23, 3
   7              		.eabi_attribute 24, 1
   8              		.eabi_attribute 25, 1
   9              		.eabi_attribute 26, 1
  10              		.eabi_attribute 30, 2
  11              		.eabi_attribute 34, 1
  12              		.eabi_attribute 18, 4
  13              		.file	"usb.c"
  14              		.text
  15              	.Ltext0:
  16              		.cfi_sections	.debug_frame
  17              		.section	.text.usbInit,"ax",%progbits
  18              		.align	1
  19              		.p2align 4,,15
  20              		.global	usbInit
  21              		.syntax unified
  22              		.thumb
  23              		.thumb_func
  24              		.fpu fpv4-sp-d16
  25              		.type	usbInit, %function
  26              	usbInit:
  27              	.LFB259:
  28              		.file 1 "../../lib/ChibiOS/os/hal/src/usb.c"
  29              		.loc 1 254 0
  30              		.cfi_startproc
  31              		@ args = 0, pretend = 0, frame = 0
  32              		@ frame_needed = 0, uses_anonymous_args = 0
  33              		@ link register save eliminated.
  34              		.loc 1 256 0
  35 0000 FFF7FEBF 		b	usb_lld_init
  36              	.LVL0:
  37              		.cfi_endproc
  38              	.LFE259:
  39              		.size	usbInit, .-usbInit
  40              		.section	.text.usbObjectInit,"ax",%progbits
  41              		.align	1
  42              		.p2align 4,,15
  43              		.global	usbObjectInit
  44              		.syntax unified
  45              		.thumb
  46              		.thumb_func
  47              		.fpu fpv4-sp-d16
  48              		.type	usbObjectInit, %function
  49              	usbObjectInit:
  50              	.LFB260:
  51              		.loc 1 266 0
  52              		.cfi_startproc
  53              		@ args = 0, pretend = 0, frame = 0
  54              		@ frame_needed = 0, uses_anonymous_args = 0
  55              		@ link register save eliminated.
  56              	.LVL1:
  57              		.loc 1 272 0
ARM GAS  /var/folders/km/q6jdms0143g2bddz5bhvdfd00000gn/T//ccukKLLL.s 			page 2


  58 0000 0023     		movs	r3, #0
  59              		.loc 1 269 0
  60 0002 0122     		movs	r2, #1
  61 0004 0270     		strb	r2, [r0]
  62              	.LVL2:
  63              		.loc 1 272 0
  64 0006 C361     		str	r3, [r0, #28]
  65              		.loc 1 273 0
  66 0008 8362     		str	r3, [r0, #40]
  67              	.LVL3:
  68              		.loc 1 272 0
  69 000a 0362     		str	r3, [r0, #32]
  70              		.loc 1 273 0
  71 000c C362     		str	r3, [r0, #44]
  72              	.LVL4:
  73              		.loc 1 272 0
  74 000e 4362     		str	r3, [r0, #36]
  75              		.loc 1 273 0
  76 0010 0363     		str	r3, [r0, #48]
  77              	.LVL5:
  78              		.loc 1 270 0
  79 0012 C0E90133 		strd	r3, r3, [r0, #4]
  80              		.loc 1 277 0
  81 0016 7047     		bx	lr
  82              		.cfi_endproc
  83              	.LFE260:
  84              		.size	usbObjectInit, .-usbObjectInit
  85              		.section	.text.usbStart,"ax",%progbits
  86              		.align	1
  87              		.p2align 4,,15
  88              		.global	usbStart
  89              		.syntax unified
  90              		.thumb
  91              		.thumb_func
  92              		.fpu fpv4-sp-d16
  93              		.type	usbStart, %function
  94              	usbStart:
  95              	.LFB261:
  96              		.loc 1 287 0
  97              		.cfi_startproc
  98              		@ args = 0, pretend = 0, frame = 0
  99              		@ frame_needed = 0, uses_anonymous_args = 0
 100              	.LVL6:
 101 0000 38B5     		push	{r3, r4, r5, lr}
 102              		.cfi_def_cfa_offset 16
 103              		.cfi_offset 3, -16
 104              		.cfi_offset 4, -12
 105              		.cfi_offset 5, -8
 106              		.cfi_offset 14, -4
 107              		.loc 1 287 0
 108 0002 0D46     		mov	r5, r1
 109              		.loc 1 290 0
 110 0004 0446     		mov	r4, r0
 111 0006 88B3     		cbz	r0, .L5
 112              		.loc 1 290 0 is_stmt 0 discriminator 3
 113 0008 81B3     		cbz	r1, .L5
 114              	.LVL7:
ARM GAS  /var/folders/km/q6jdms0143g2bddz5bhvdfd00000gn/T//ccukKLLL.s 			page 3


 115              	.L6:
 116              	.LBB212:
 117              	.LBB213:
 118              	.LBB214:
 119              	.LBB215:
 120              	.LBB216:
 121              	.LBB217:
 122              		.file 2 "../../lib/ChibiOS/os/ext/CMSIS/include/core_cmFunc.h"
 123              		.loc 2 546 0 is_stmt 1
 124 000a 2023     		movs	r3, #32
 125              		.syntax unified
 126              	@ 546 "../../lib/ChibiOS/os/ext/CMSIS/include/core_cmFunc.h" 1
 127 000c 83F31188 		MSR basepri, r3
 128              	@ 0 "" 2
 129              	.LVL8:
 130              		.thumb
 131              		.syntax unified
 132              	.LBE217:
 133              	.LBE216:
 134              	.LBE215:
 135              		.file 3 "../../lib/ChibiOS/os/rt/include/chsys.h"
 136              		.loc 3 349 0
 137 0010 FFF7FEFF 		bl	_stats_start_measure_crit_thd
 138              	.LVL9:
 139              		.loc 3 350 0
 140 0014 FFF7FEFF 		bl	_dbg_check_lock
 141              	.LVL10:
 142              	.LBE214:
 143              	.LBE213:
 144              	.LBE212:
 145              		.loc 1 293 0
 146 0018 2378     		ldrb	r3, [r4]	@ zero_extendqisi2
 147 001a 013B     		subs	r3, r3, #1
 148 001c 012B     		cmp	r3, #1
 149 001e 02D9     		bls	.L7
 150              		.loc 1 293 0 is_stmt 0 discriminator 2
 151 0020 1448     		ldr	r0, .L14
 152 0022 FFF7FEFF 		bl	chSysHalt
 153              	.LVL11:
 154              	.L7:
 155              		.loc 1 297 0 is_stmt 1
 156 0026 0023     		movs	r3, #0
 157              		.loc 1 299 0
 158 0028 2046     		mov	r0, r4
 159              		.loc 1 297 0
 160 002a C4E90333 		strd	r3, r3, [r4, #12]
 161 002e C4E90533 		strd	r3, r3, [r4, #20]
 162              		.loc 1 295 0
 163 0032 6560     		str	r5, [r4, #4]
 164              	.LVL12:
 165              		.loc 1 299 0
 166 0034 FFF7FEFF 		bl	usb_lld_start
 167              	.LVL13:
 168              		.loc 1 300 0
 169 0038 0223     		movs	r3, #2
 170 003a 2370     		strb	r3, [r4]
 171              	.LBB218:
ARM GAS  /var/folders/km/q6jdms0143g2bddz5bhvdfd00000gn/T//ccukKLLL.s 			page 4


 172              	.LBB219:
 173              	.LBB220:
 174              		.loc 3 360 0
 175 003c FFF7FEFF 		bl	_dbg_check_unlock
 176              	.LVL14:
 177              		.loc 3 361 0
 178 0040 FFF7FEFF 		bl	_stats_stop_measure_crit_thd
 179              	.LVL15:
 180              		.loc 3 367 0
 181 0044 0C4B     		ldr	r3, .L14+4
 182 0046 1A68     		ldr	r2, [r3]
 183 0048 9A42     		cmp	r2, r3
 184 004a 04D0     		beq	.L8
 185 004c 9969     		ldr	r1, [r3, #24]
 186 004e 9368     		ldr	r3, [r2, #8]
 187 0050 8A68     		ldr	r2, [r1, #8]
 188 0052 9A42     		cmp	r2, r3
 189 0054 03D3     		bcc	.L13
 190              	.L8:
 191              	.LVL16:
 192              	.LBB221:
 193              	.LBB222:
 194              	.LBB223:
 195              		.loc 2 546 0
 196 0056 0023     		movs	r3, #0
 197              		.syntax unified
 198              	@ 546 "../../lib/ChibiOS/os/ext/CMSIS/include/core_cmFunc.h" 1
 199 0058 83F31188 		MSR basepri, r3
 200              	@ 0 "" 2
 201              	.LVL17:
 202              		.thumb
 203              		.syntax unified
 204              	.LBE223:
 205              	.LBE222:
 206              	.LBE221:
 207              	.LBE220:
 208              	.LBE219:
 209              	.LBE218:
 210              		.loc 1 302 0
 211 005c 38BD     		pop	{r3, r4, r5, pc}
 212              	.LVL18:
 213              	.L13:
 214              	.LBB229:
 215              	.LBB228:
 216              	.LBB227:
 217              		.loc 3 367 0
 218 005e 0748     		ldr	r0, .L14+8
 219 0060 FFF7FEFF 		bl	chSysHalt
 220              	.LVL19:
 221              	.LBB226:
 222              	.LBB225:
 223              	.LBB224:
 224              		.loc 2 546 0
 225 0064 0023     		movs	r3, #0
 226              		.syntax unified
 227              	@ 546 "../../lib/ChibiOS/os/ext/CMSIS/include/core_cmFunc.h" 1
 228 0066 83F31188 		MSR basepri, r3
ARM GAS  /var/folders/km/q6jdms0143g2bddz5bhvdfd00000gn/T//ccukKLLL.s 			page 5


 229              	@ 0 "" 2
 230              	.LVL20:
 231              		.thumb
 232              		.syntax unified
 233              	.LBE224:
 234              	.LBE225:
 235              	.LBE226:
 236              	.LBE227:
 237              	.LBE228:
 238              	.LBE229:
 239              		.loc 1 302 0
 240 006a 38BD     		pop	{r3, r4, r5, pc}
 241              	.LVL21:
 242              	.L5:
 243              		.loc 1 290 0 discriminator 4
 244 006c 0148     		ldr	r0, .L14
 245              	.LVL22:
 246 006e FFF7FEFF 		bl	chSysHalt
 247              	.LVL23:
 248 0072 CAE7     		b	.L6
 249              	.L15:
 250              		.align	2
 251              	.L14:
 252 0074 00000000 		.word	.LANCHOR0
 253 0078 00000000 		.word	ch
 254 007c 00000000 		.word	.LANCHOR1
 255              		.cfi_endproc
 256              	.LFE261:
 257              		.size	usbStart, .-usbStart
 258              		.section	.text.usbStop,"ax",%progbits
 259              		.align	1
 260              		.p2align 4,,15
 261              		.global	usbStop
 262              		.syntax unified
 263              		.thumb
 264              		.thumb_func
 265              		.fpu fpv4-sp-d16
 266              		.type	usbStop, %function
 267              	usbStop:
 268              	.LFB262:
 269              		.loc 1 311 0
 270              		.cfi_startproc
 271              		@ args = 0, pretend = 0, frame = 0
 272              		@ frame_needed = 0, uses_anonymous_args = 0
 273              	.LVL24:
 274 0000 10B5     		push	{r4, lr}
 275              		.cfi_def_cfa_offset 8
 276              		.cfi_offset 4, -8
 277              		.cfi_offset 14, -4
 278              		.loc 1 313 0
 279 0002 0446     		mov	r4, r0
 280 0004 50B3     		cbz	r0, .L21
 281              	.LVL25:
 282              	.L17:
 283              	.LBB243:
 284              	.LBB244:
 285              	.LBB245:
ARM GAS  /var/folders/km/q6jdms0143g2bddz5bhvdfd00000gn/T//ccukKLLL.s 			page 6


 286              	.LBB246:
 287              	.LBB247:
 288              	.LBB248:
 289              		.loc 2 546 0
 290 0006 2023     		movs	r3, #32
 291              		.syntax unified
 292              	@ 546 "../../lib/ChibiOS/os/ext/CMSIS/include/core_cmFunc.h" 1
 293 0008 83F31188 		MSR basepri, r3
 294              	@ 0 "" 2
 295              	.LVL26:
 296              		.thumb
 297              		.syntax unified
 298              	.LBE248:
 299              	.LBE247:
 300              	.LBE246:
 301              		.loc 3 349 0
 302 000c FFF7FEFF 		bl	_stats_start_measure_crit_thd
 303              	.LVL27:
 304              		.loc 3 350 0
 305 0010 FFF7FEFF 		bl	_dbg_check_lock
 306              	.LVL28:
 307              	.LBE245:
 308              	.LBE244:
 309              	.LBE243:
 310              		.loc 1 316 0
 311 0014 2378     		ldrb	r3, [r4]	@ zero_extendqisi2
 312 0016 013B     		subs	r3, r3, #1
 313 0018 032B     		cmp	r3, #3
 314 001a 02D9     		bls	.L18
 315              		.loc 1 316 0 is_stmt 0 discriminator 2
 316 001c 1148     		ldr	r0, .L23
 317 001e FFF7FEFF 		bl	chSysHalt
 318              	.LVL29:
 319              	.L18:
 320              		.loc 1 319 0 is_stmt 1
 321 0022 2046     		mov	r0, r4
 322 0024 FFF7FEFF 		bl	usb_lld_stop
 323              	.LVL30:
 324              		.loc 1 320 0
 325 0028 0123     		movs	r3, #1
 326 002a 2370     		strb	r3, [r4]
 327              	.LBB249:
 328              	.LBB250:
 329              	.LBB251:
 330              		.loc 3 360 0
 331 002c FFF7FEFF 		bl	_dbg_check_unlock
 332              	.LVL31:
 333              		.loc 3 361 0
 334 0030 FFF7FEFF 		bl	_stats_stop_measure_crit_thd
 335              	.LVL32:
 336              		.loc 3 367 0
 337 0034 0C4B     		ldr	r3, .L23+4
 338 0036 1A68     		ldr	r2, [r3]
 339 0038 9A42     		cmp	r2, r3
 340 003a 04D0     		beq	.L19
 341 003c 9969     		ldr	r1, [r3, #24]
 342 003e 9368     		ldr	r3, [r2, #8]
ARM GAS  /var/folders/km/q6jdms0143g2bddz5bhvdfd00000gn/T//ccukKLLL.s 			page 7


 343 0040 8A68     		ldr	r2, [r1, #8]
 344 0042 9A42     		cmp	r2, r3
 345 0044 03D3     		bcc	.L22
 346              	.L19:
 347              	.LVL33:
 348              	.LBB252:
 349              	.LBB253:
 350              	.LBB254:
 351              		.loc 2 546 0
 352 0046 0023     		movs	r3, #0
 353              		.syntax unified
 354              	@ 546 "../../lib/ChibiOS/os/ext/CMSIS/include/core_cmFunc.h" 1
 355 0048 83F31188 		MSR basepri, r3
 356              	@ 0 "" 2
 357              	.LVL34:
 358              		.thumb
 359              		.syntax unified
 360              	.LBE254:
 361              	.LBE253:
 362              	.LBE252:
 363              	.LBE251:
 364              	.LBE250:
 365              	.LBE249:
 366              		.loc 1 322 0
 367 004c 10BD     		pop	{r4, pc}
 368              	.LVL35:
 369              	.L22:
 370              	.LBB260:
 371              	.LBB259:
 372              	.LBB258:
 373              		.loc 3 367 0
 374 004e 0748     		ldr	r0, .L23+8
 375 0050 FFF7FEFF 		bl	chSysHalt
 376              	.LVL36:
 377              	.LBB257:
 378              	.LBB256:
 379              	.LBB255:
 380              		.loc 2 546 0
 381 0054 0023     		movs	r3, #0
 382              		.syntax unified
 383              	@ 546 "../../lib/ChibiOS/os/ext/CMSIS/include/core_cmFunc.h" 1
 384 0056 83F31188 		MSR basepri, r3
 385              	@ 0 "" 2
 386              	.LVL37:
 387              		.thumb
 388              		.syntax unified
 389              	.LBE255:
 390              	.LBE256:
 391              	.LBE257:
 392              	.LBE258:
 393              	.LBE259:
 394              	.LBE260:
 395              		.loc 1 322 0
 396 005a 10BD     		pop	{r4, pc}
 397              	.LVL38:
 398              	.L21:
 399              		.loc 1 313 0 discriminator 2
ARM GAS  /var/folders/km/q6jdms0143g2bddz5bhvdfd00000gn/T//ccukKLLL.s 			page 8


 400 005c 0148     		ldr	r0, .L23
 401              	.LVL39:
 402 005e FFF7FEFF 		bl	chSysHalt
 403              	.LVL40:
 404 0062 D0E7     		b	.L17
 405              	.L24:
 406              		.align	2
 407              	.L23:
 408 0064 00000000 		.word	.LANCHOR2
 409 0068 00000000 		.word	ch
 410 006c 00000000 		.word	.LANCHOR1
 411              		.cfi_endproc
 412              	.LFE262:
 413              		.size	usbStop, .-usbStop
 414              		.section	.text.usbInitEndpointI,"ax",%progbits
 415              		.align	1
 416              		.p2align 4,,15
 417              		.global	usbInitEndpointI
 418              		.syntax unified
 419              		.thumb
 420              		.thumb_func
 421              		.fpu fpv4-sp-d16
 422              		.type	usbInitEndpointI, %function
 423              	usbInitEndpointI:
 424              	.LFB263:
 425              		.loc 1 338 0
 426              		.cfi_startproc
 427              		@ args = 0, pretend = 0, frame = 0
 428              		@ frame_needed = 0, uses_anonymous_args = 0
 429              	.LVL41:
 430 0000 F8B5     		push	{r3, r4, r5, r6, r7, lr}
 431              		.cfi_def_cfa_offset 24
 432              		.cfi_offset 3, -24
 433              		.cfi_offset 4, -20
 434              		.cfi_offset 5, -16
 435              		.cfi_offset 6, -12
 436              		.cfi_offset 7, -8
 437              		.cfi_offset 14, -4
 438              		.loc 1 338 0
 439 0002 0446     		mov	r4, r0
 440 0004 0E46     		mov	r6, r1
 441 0006 1546     		mov	r5, r2
 442              		.loc 1 340 0
 443 0008 FFF7FEFF 		bl	chDbgCheckClassI
 444              	.LVL42:
 445              		.loc 1 341 0
 446 000c 24B3     		cbz	r4, .L26
 447              		.loc 1 341 0 is_stmt 0 discriminator 3
 448 000e 1DB3     		cbz	r5, .L26
 449              	.L27:
 450              		.loc 1 342 0 is_stmt 1 discriminator 1
 451 0010 2378     		ldrb	r3, [r4]	@ zero_extendqisi2
 452 0012 042B     		cmp	r3, #4
 453 0014 02D0     		beq	.L28
 454              		.loc 1 342 0 is_stmt 0 discriminator 2
 455 0016 1248     		ldr	r0, .L48
 456 0018 FFF7FEFF 		bl	chSysHalt
ARM GAS  /var/folders/km/q6jdms0143g2bddz5bhvdfd00000gn/T//ccukKLLL.s 			page 9


 457              	.LVL43:
 458              	.L28:
 459 001c 04EB8607 		add	r7, r4, r6, lsl #2
 460              		.loc 1 344 0 is_stmt 1 discriminator 1
 461 0020 FB68     		ldr	r3, [r7, #12]
 462 0022 13B1     		cbz	r3, .L29
 463              		.loc 1 344 0 is_stmt 0 discriminator 2
 464 0024 0E48     		ldr	r0, .L48
 465 0026 FFF7FEFF 		bl	chSysHalt
 466              	.LVL44:
 467              	.L29:
 468              		.loc 1 347 0 is_stmt 1
 469 002a 6B69     		ldr	r3, [r5, #20]
 470 002c 2BB1     		cbz	r3, .L30
 471              		.loc 1 348 0
 472 002e 0022     		movs	r2, #0
 473 0030 1A60     		str	r2, [r3]	@ unaligned
 474 0032 5A60     		str	r2, [r3, #4]	@ unaligned
 475 0034 9A60     		str	r2, [r3, #8]	@ unaligned
 476 0036 DA60     		str	r2, [r3, #12]	@ unaligned
 477 0038 1A61     		str	r2, [r3, #16]	@ unaligned
 478              	.L30:
 479              		.loc 1 350 0
 480 003a AB69     		ldr	r3, [r5, #24]
 481 003c 2BB1     		cbz	r3, .L31
 482              		.loc 1 351 0
 483 003e 0022     		movs	r2, #0
 484 0040 1A60     		str	r2, [r3]	@ unaligned
 485 0042 5A60     		str	r2, [r3, #4]	@ unaligned
 486 0044 9A60     		str	r2, [r3, #8]	@ unaligned
 487 0046 DA60     		str	r2, [r3, #12]	@ unaligned
 488 0048 1A61     		str	r2, [r3, #16]	@ unaligned
 489              	.L31:
 490              		.loc 1 354 0
 491 004a FD60     		str	r5, [r7, #12]
 492              		.loc 1 357 0
 493 004c 3146     		mov	r1, r6
 494 004e 2046     		mov	r0, r4
 495              		.loc 1 358 0
 496 0050 BDE8F840 		pop	{r3, r4, r5, r6, r7, lr}
 497              		.cfi_remember_state
 498              		.cfi_restore 14
 499              		.cfi_restore 7
 500              		.cfi_restore 6
 501              		.cfi_restore 5
 502              		.cfi_restore 4
 503              		.cfi_restore 3
 504              		.cfi_def_cfa_offset 0
 505              	.LVL45:
 506              		.loc 1 357 0
 507 0054 FFF7FEBF 		b	usb_lld_init_endpoint
 508              	.LVL46:
 509              	.L26:
 510              		.cfi_restore_state
 511              		.loc 1 341 0 discriminator 4
 512 0058 0148     		ldr	r0, .L48
 513 005a FFF7FEFF 		bl	chSysHalt
ARM GAS  /var/folders/km/q6jdms0143g2bddz5bhvdfd00000gn/T//ccukKLLL.s 			page 10


 514              	.LVL47:
 515 005e D7E7     		b	.L27
 516              	.L49:
 517              		.align	2
 518              	.L48:
 519 0060 00000000 		.word	.LANCHOR3
 520              		.cfi_endproc
 521              	.LFE263:
 522              		.size	usbInitEndpointI, .-usbInitEndpointI
 523              		.section	.text.usbDisableEndpointsI,"ax",%progbits
 524              		.align	1
 525              		.p2align 4,,15
 526              		.global	usbDisableEndpointsI
 527              		.syntax unified
 528              		.thumb
 529              		.thumb_func
 530              		.fpu fpv4-sp-d16
 531              		.type	usbDisableEndpointsI, %function
 532              	usbDisableEndpointsI:
 533              	.LFB264:
 534              		.loc 1 371 0
 535              		.cfi_startproc
 536              		@ args = 0, pretend = 0, frame = 0
 537              		@ frame_needed = 0, uses_anonymous_args = 0
 538              	.LVL48:
 539 0000 10B5     		push	{r4, lr}
 540              		.cfi_def_cfa_offset 8
 541              		.cfi_offset 4, -8
 542              		.cfi_offset 14, -4
 543              		.loc 1 371 0
 544 0002 0446     		mov	r4, r0
 545              		.loc 1 374 0
 546 0004 FFF7FEFF 		bl	chDbgCheckClassI
 547              	.LVL49:
 548              		.loc 1 375 0
 549 0008 B4B1     		cbz	r4, .L57
 550              	.L51:
 551              		.loc 1 376 0 discriminator 1
 552 000a 2378     		ldrb	r3, [r4]	@ zero_extendqisi2
 553 000c 032B     		cmp	r3, #3
 554 000e 02D0     		beq	.L52
 555              		.loc 1 376 0 is_stmt 0 discriminator 2
 556 0010 0B48     		ldr	r0, .L58
 557 0012 FFF7FEFF 		bl	chSysHalt
 558              	.LVL50:
 559              	.L52:
 560              		.loc 1 378 0 is_stmt 1
 561 0016 2189     		ldrh	r1, [r4, #8]
 562              		.loc 1 379 0
 563 0018 6289     		ldrh	r2, [r4, #10]
 564              		.loc 1 381 0
 565 001a 0023     		movs	r3, #0
 566              		.loc 1 378 0
 567 001c 21F00101 		bic	r1, r1, #1
 568              		.loc 1 379 0
 569 0020 22F00102 		bic	r2, r2, #1
 570              		.loc 1 378 0
ARM GAS  /var/folders/km/q6jdms0143g2bddz5bhvdfd00000gn/T//ccukKLLL.s 			page 11


 571 0024 2181     		strh	r1, [r4, #8]	@ movhi
 572              		.loc 1 379 0
 573 0026 6281     		strh	r2, [r4, #10]	@ movhi
 574              	.LVL51:
 575              		.loc 1 381 0
 576 0028 C4E90433 		strd	r3, r3, [r4, #16]
 577              	.LVL52:
 578 002c A361     		str	r3, [r4, #24]
 579              	.LVL53:
 580              		.loc 1 385 0
 581 002e 2046     		mov	r0, r4
 582              		.loc 1 386 0
 583 0030 BDE81040 		pop	{r4, lr}
 584              		.cfi_remember_state
 585              		.cfi_restore 14
 586              		.cfi_restore 4
 587              		.cfi_def_cfa_offset 0
 588              	.LVL54:
 589              		.loc 1 385 0
 590 0034 FFF7FEBF 		b	usb_lld_disable_endpoints
 591              	.LVL55:
 592              	.L57:
 593              		.cfi_restore_state
 594              		.loc 1 375 0 discriminator 2
 595 0038 0148     		ldr	r0, .L58
 596 003a FFF7FEFF 		bl	chSysHalt
 597              	.LVL56:
 598 003e E4E7     		b	.L51
 599              	.L59:
 600              		.align	2
 601              	.L58:
 602 0040 00000000 		.word	.LANCHOR4
 603              		.cfi_endproc
 604              	.LFE264:
 605              		.size	usbDisableEndpointsI, .-usbDisableEndpointsI
 606              		.section	.text.usbPrepareReceive,"ax",%progbits
 607              		.align	1
 608              		.p2align 4,,15
 609              		.global	usbPrepareReceive
 610              		.syntax unified
 611              		.thumb
 612              		.thumb_func
 613              		.fpu fpv4-sp-d16
 614              		.type	usbPrepareReceive, %function
 615              	usbPrepareReceive:
 616              	.LFB265:
 617              		.loc 1 400 0
 618              		.cfi_startproc
 619              		@ args = 0, pretend = 0, frame = 0
 620              		@ frame_needed = 0, uses_anonymous_args = 0
 621              		@ link register save eliminated.
 622              	.LVL57:
 623 0000 30B4     		push	{r4, r5}
 624              		.cfi_def_cfa_offset 8
 625              		.cfi_offset 4, -8
 626              		.cfi_offset 5, -4
 627              		.loc 1 401 0
ARM GAS  /var/folders/km/q6jdms0143g2bddz5bhvdfd00000gn/T//ccukKLLL.s 			page 12


 628 0002 00EB8104 		add	r4, r0, r1, lsl #2
 629              		.loc 1 403 0
 630 0006 0025     		movs	r5, #0
 631              		.loc 1 401 0
 632 0008 E468     		ldr	r4, [r4, #12]
 633 000a A469     		ldr	r4, [r4, #24]
 634              	.LVL58:
 635              		.loc 1 404 0
 636 000c E260     		str	r2, [r4, #12]
 637              		.loc 1 405 0
 638 000e 6360     		str	r3, [r4, #4]
 639              		.loc 1 403 0
 640 0010 2570     		strb	r5, [r4]
 641              		.loc 1 406 0
 642 0012 A560     		str	r5, [r4, #8]
 643              		.loc 1 409 0
 644 0014 30BC     		pop	{r4, r5}
 645              		.cfi_restore 5
 646              		.cfi_restore 4
 647              		.cfi_def_cfa_offset 0
 648              	.LVL59:
 649              		.loc 1 408 0
 650 0016 FFF7FEBF 		b	usb_lld_prepare_receive
 651              	.LVL60:
 652              		.cfi_endproc
 653              	.LFE265:
 654              		.size	usbPrepareReceive, .-usbPrepareReceive
 655 001a 00BF     		.section	.text.usbPrepareTransmit,"ax",%progbits
 656              		.align	1
 657              		.p2align 4,,15
 658              		.global	usbPrepareTransmit
 659              		.syntax unified
 660              		.thumb
 661              		.thumb_func
 662              		.fpu fpv4-sp-d16
 663              		.type	usbPrepareTransmit, %function
 664              	usbPrepareTransmit:
 665              	.LFB266:
 666              		.loc 1 426 0
 667              		.cfi_startproc
 668              		@ args = 0, pretend = 0, frame = 0
 669              		@ frame_needed = 0, uses_anonymous_args = 0
 670              		@ link register save eliminated.
 671              	.LVL61:
 672 0000 30B4     		push	{r4, r5}
 673              		.cfi_def_cfa_offset 8
 674              		.cfi_offset 4, -8
 675              		.cfi_offset 5, -4
 676              		.loc 1 427 0
 677 0002 00EB8104 		add	r4, r0, r1, lsl #2
 678              		.loc 1 429 0
 679 0006 0025     		movs	r5, #0
 680              		.loc 1 427 0
 681 0008 E468     		ldr	r4, [r4, #12]
 682 000a 6469     		ldr	r4, [r4, #20]
 683              	.LVL62:
 684              		.loc 1 430 0
ARM GAS  /var/folders/km/q6jdms0143g2bddz5bhvdfd00000gn/T//ccukKLLL.s 			page 13


 685 000c E260     		str	r2, [r4, #12]
 686              		.loc 1 431 0
 687 000e 6360     		str	r3, [r4, #4]
 688              		.loc 1 429 0
 689 0010 2570     		strb	r5, [r4]
 690              		.loc 1 432 0
 691 0012 A560     		str	r5, [r4, #8]
 692              		.loc 1 435 0
 693 0014 30BC     		pop	{r4, r5}
 694              		.cfi_restore 5
 695              		.cfi_restore 4
 696              		.cfi_def_cfa_offset 0
 697              	.LVL63:
 698              		.loc 1 434 0
 699 0016 FFF7FEBF 		b	usb_lld_prepare_transmit
 700              	.LVL64:
 701              		.cfi_endproc
 702              	.LFE266:
 703              		.size	usbPrepareTransmit, .-usbPrepareTransmit
 704 001a 00BF     		.section	.text.usbPrepareQueuedReceive,"ax",%progbits
 705              		.align	1
 706              		.p2align 4,,15
 707              		.global	usbPrepareQueuedReceive
 708              		.syntax unified
 709              		.thumb
 710              		.thumb_func
 711              		.fpu fpv4-sp-d16
 712              		.type	usbPrepareQueuedReceive, %function
 713              	usbPrepareQueuedReceive:
 714              	.LFB267:
 715              		.loc 1 455 0
 716              		.cfi_startproc
 717              		@ args = 0, pretend = 0, frame = 0
 718              		@ frame_needed = 0, uses_anonymous_args = 0
 719              		@ link register save eliminated.
 720              	.LVL65:
 721 0000 30B4     		push	{r4, r5}
 722              		.cfi_def_cfa_offset 8
 723              		.cfi_offset 4, -8
 724              		.cfi_offset 5, -4
 725              		.loc 1 456 0
 726 0002 00EB8104 		add	r4, r0, r1, lsl #2
 727              		.loc 1 458 0
 728 0006 0125     		movs	r5, #1
 729              		.loc 1 456 0
 730 0008 E468     		ldr	r4, [r4, #12]
 731 000a A469     		ldr	r4, [r4, #24]
 732              	.LVL66:
 733              		.loc 1 459 0
 734 000c E260     		str	r2, [r4, #12]
 735              		.loc 1 461 0
 736 000e 0022     		movs	r2, #0
 737              	.LVL67:
 738              		.loc 1 460 0
 739 0010 6360     		str	r3, [r4, #4]
 740              		.loc 1 458 0
 741 0012 2570     		strb	r5, [r4]
ARM GAS  /var/folders/km/q6jdms0143g2bddz5bhvdfd00000gn/T//ccukKLLL.s 			page 14


 742              		.loc 1 461 0
 743 0014 A260     		str	r2, [r4, #8]
 744              		.loc 1 464 0
 745 0016 30BC     		pop	{r4, r5}
 746              		.cfi_restore 5
 747              		.cfi_restore 4
 748              		.cfi_def_cfa_offset 0
 749              	.LVL68:
 750              		.loc 1 463 0
 751 0018 FFF7FEBF 		b	usb_lld_prepare_receive
 752              	.LVL69:
 753              		.cfi_endproc
 754              	.LFE267:
 755              		.size	usbPrepareQueuedReceive, .-usbPrepareQueuedReceive
 756              		.section	.text.usbPrepareQueuedTransmit,"ax",%progbits
 757              		.align	1
 758              		.p2align 4,,15
 759              		.global	usbPrepareQueuedTransmit
 760              		.syntax unified
 761              		.thumb
 762              		.thumb_func
 763              		.fpu fpv4-sp-d16
 764              		.type	usbPrepareQueuedTransmit, %function
 765              	usbPrepareQueuedTransmit:
 766              	.LFB268:
 767              		.loc 1 481 0
 768              		.cfi_startproc
 769              		@ args = 0, pretend = 0, frame = 0
 770              		@ frame_needed = 0, uses_anonymous_args = 0
 771              		@ link register save eliminated.
 772              	.LVL70:
 773 0000 30B4     		push	{r4, r5}
 774              		.cfi_def_cfa_offset 8
 775              		.cfi_offset 4, -8
 776              		.cfi_offset 5, -4
 777              		.loc 1 482 0
 778 0002 00EB8104 		add	r4, r0, r1, lsl #2
 779              		.loc 1 484 0
 780 0006 0125     		movs	r5, #1
 781              		.loc 1 482 0
 782 0008 E468     		ldr	r4, [r4, #12]
 783 000a 6469     		ldr	r4, [r4, #20]
 784              	.LVL71:
 785              		.loc 1 485 0
 786 000c E260     		str	r2, [r4, #12]
 787              		.loc 1 487 0
 788 000e 0022     		movs	r2, #0
 789              	.LVL72:
 790              		.loc 1 486 0
 791 0010 6360     		str	r3, [r4, #4]
 792              		.loc 1 484 0
 793 0012 2570     		strb	r5, [r4]
 794              		.loc 1 487 0
 795 0014 A260     		str	r2, [r4, #8]
 796              		.loc 1 490 0
 797 0016 30BC     		pop	{r4, r5}
 798              		.cfi_restore 5
ARM GAS  /var/folders/km/q6jdms0143g2bddz5bhvdfd00000gn/T//ccukKLLL.s 			page 15


 799              		.cfi_restore 4
 800              		.cfi_def_cfa_offset 0
 801              	.LVL73:
 802              		.loc 1 489 0
 803 0018 FFF7FEBF 		b	usb_lld_prepare_transmit
 804              	.LVL74:
 805              		.cfi_endproc
 806              	.LFE268:
 807              		.size	usbPrepareQueuedTransmit, .-usbPrepareQueuedTransmit
 808              		.section	.text.usbStartReceiveI,"ax",%progbits
 809              		.align	1
 810              		.p2align 4,,15
 811              		.global	usbStartReceiveI
 812              		.syntax unified
 813              		.thumb
 814              		.thumb_func
 815              		.fpu fpv4-sp-d16
 816              		.type	usbStartReceiveI, %function
 817              	usbStartReceiveI:
 818              	.LFB269:
 819              		.loc 1 506 0
 820              		.cfi_startproc
 821              		@ args = 0, pretend = 0, frame = 0
 822              		@ frame_needed = 0, uses_anonymous_args = 0
 823              	.LVL75:
 824 0000 70B5     		push	{r4, r5, r6, lr}
 825              		.cfi_def_cfa_offset 16
 826              		.cfi_offset 4, -16
 827              		.cfi_offset 5, -12
 828              		.cfi_offset 6, -8
 829              		.cfi_offset 14, -4
 830              		.loc 1 506 0
 831 0002 0446     		mov	r4, r0
 832 0004 0D46     		mov	r5, r1
 833              		.loc 1 508 0
 834 0006 FFF7FEFF 		bl	chDbgCheckClassI
 835              	.LVL76:
 836              		.loc 1 509 0
 837 000a 84B1     		cbz	r4, .L73
 838              	.L69:
 839              		.loc 1 511 0
 840 000c 0120     		movs	r0, #1
 841 000e 00FA05F3 		lsl	r3, r0, r5
 842 0012 6289     		ldrh	r2, [r4, #10]
 843 0014 9BB2     		uxth	r3, r3
 844 0016 12EA0306 		ands	r6, r2, r3
 845 001a 00D0     		beq	.L74
 846              		.loc 1 518 0
 847 001c 70BD     		pop	{r4, r5, r6, pc}
 848              	.LVL77:
 849              	.L74:
 850              		.loc 1 515 0
 851 001e 1343     		orrs	r3, r3, r2
 852              		.loc 1 516 0
 853 0020 2046     		mov	r0, r4
 854              		.loc 1 515 0
 855 0022 6381     		strh	r3, [r4, #10]	@ movhi
ARM GAS  /var/folders/km/q6jdms0143g2bddz5bhvdfd00000gn/T//ccukKLLL.s 			page 16


 856              		.loc 1 516 0
 857 0024 2946     		mov	r1, r5
 858 0026 FFF7FEFF 		bl	usb_lld_start_out
 859              	.LVL78:
 860              		.loc 1 517 0
 861 002a 3046     		mov	r0, r6
 862              		.loc 1 518 0
 863 002c 70BD     		pop	{r4, r5, r6, pc}
 864              	.LVL79:
 865              	.L73:
 866              		.loc 1 509 0 discriminator 2
 867 002e 0248     		ldr	r0, .L75
 868 0030 FFF7FEFF 		bl	chSysHalt
 869              	.LVL80:
 870 0034 EAE7     		b	.L69
 871              	.L76:
 872 0036 00BF     		.align	2
 873              	.L75:
 874 0038 00000000 		.word	.LANCHOR5
 875              		.cfi_endproc
 876              	.LFE269:
 877              		.size	usbStartReceiveI, .-usbStartReceiveI
 878              		.section	.text.usbStartTransmitI,"ax",%progbits
 879              		.align	1
 880              		.p2align 4,,15
 881              		.global	usbStartTransmitI
 882              		.syntax unified
 883              		.thumb
 884              		.thumb_func
 885              		.fpu fpv4-sp-d16
 886              		.type	usbStartTransmitI, %function
 887              	usbStartTransmitI:
 888              	.LFB270:
 889              		.loc 1 534 0
 890              		.cfi_startproc
 891              		@ args = 0, pretend = 0, frame = 0
 892              		@ frame_needed = 0, uses_anonymous_args = 0
 893              	.LVL81:
 894 0000 70B5     		push	{r4, r5, r6, lr}
 895              		.cfi_def_cfa_offset 16
 896              		.cfi_offset 4, -16
 897              		.cfi_offset 5, -12
 898              		.cfi_offset 6, -8
 899              		.cfi_offset 14, -4
 900              		.loc 1 534 0
 901 0002 0446     		mov	r4, r0
 902 0004 0D46     		mov	r5, r1
 903              		.loc 1 536 0
 904 0006 FFF7FEFF 		bl	chDbgCheckClassI
 905              	.LVL82:
 906              		.loc 1 537 0
 907 000a 84B1     		cbz	r4, .L82
 908              	.L78:
 909              		.loc 1 539 0
 910 000c 0120     		movs	r0, #1
 911 000e 00FA05F3 		lsl	r3, r0, r5
 912 0012 2289     		ldrh	r2, [r4, #8]
ARM GAS  /var/folders/km/q6jdms0143g2bddz5bhvdfd00000gn/T//ccukKLLL.s 			page 17


 913 0014 9BB2     		uxth	r3, r3
 914 0016 12EA0306 		ands	r6, r2, r3
 915 001a 00D0     		beq	.L83
 916              		.loc 1 546 0
 917 001c 70BD     		pop	{r4, r5, r6, pc}
 918              	.LVL83:
 919              	.L83:
 920              		.loc 1 543 0
 921 001e 1343     		orrs	r3, r3, r2
 922              		.loc 1 544 0
 923 0020 2046     		mov	r0, r4
 924              		.loc 1 543 0
 925 0022 2381     		strh	r3, [r4, #8]	@ movhi
 926              		.loc 1 544 0
 927 0024 2946     		mov	r1, r5
 928 0026 FFF7FEFF 		bl	usb_lld_start_in
 929              	.LVL84:
 930              		.loc 1 545 0
 931 002a 3046     		mov	r0, r6
 932              		.loc 1 546 0
 933 002c 70BD     		pop	{r4, r5, r6, pc}
 934              	.LVL85:
 935              	.L82:
 936              		.loc 1 537 0 discriminator 2
 937 002e 0248     		ldr	r0, .L84
 938 0030 FFF7FEFF 		bl	chSysHalt
 939              	.LVL86:
 940 0034 EAE7     		b	.L78
 941              	.L85:
 942 0036 00BF     		.align	2
 943              	.L84:
 944 0038 00000000 		.word	.LANCHOR6
 945              		.cfi_endproc
 946              	.LFE270:
 947              		.size	usbStartTransmitI, .-usbStartTransmitI
 948              		.section	.text.usbStallReceiveI,"ax",%progbits
 949              		.align	1
 950              		.p2align 4,,15
 951              		.global	usbStallReceiveI
 952              		.syntax unified
 953              		.thumb
 954              		.thumb_func
 955              		.fpu fpv4-sp-d16
 956              		.type	usbStallReceiveI, %function
 957              	usbStallReceiveI:
 958              	.LFB271:
 959              		.loc 1 560 0
 960              		.cfi_startproc
 961              		@ args = 0, pretend = 0, frame = 0
 962              		@ frame_needed = 0, uses_anonymous_args = 0
 963              	.LVL87:
 964 0000 70B5     		push	{r4, r5, r6, lr}
 965              		.cfi_def_cfa_offset 16
 966              		.cfi_offset 4, -16
 967              		.cfi_offset 5, -12
 968              		.cfi_offset 6, -8
 969              		.cfi_offset 14, -4
ARM GAS  /var/folders/km/q6jdms0143g2bddz5bhvdfd00000gn/T//ccukKLLL.s 			page 18


 970              		.loc 1 560 0
 971 0002 0546     		mov	r5, r0
 972 0004 0E46     		mov	r6, r1
 973              		.loc 1 562 0
 974 0006 FFF7FEFF 		bl	chDbgCheckClassI
 975              	.LVL88:
 976              		.loc 1 563 0
 977 000a 65B1     		cbz	r5, .L91
 978              	.L87:
 979              		.loc 1 565 0
 980 000c 0120     		movs	r0, #1
 981 000e 6C89     		ldrh	r4, [r5, #10]
 982 0010 00FA06F3 		lsl	r3, r0, r6
 983 0014 1C40     		ands	r4, r3, r4
 984 0016 00D0     		beq	.L92
 985              		.loc 1 571 0
 986 0018 70BD     		pop	{r4, r5, r6, pc}
 987              	.LVL89:
 988              	.L92:
 989              		.loc 1 569 0
 990 001a 2846     		mov	r0, r5
 991 001c 3146     		mov	r1, r6
 992 001e FFF7FEFF 		bl	usb_lld_stall_out
 993              	.LVL90:
 994              		.loc 1 570 0
 995 0022 2046     		mov	r0, r4
 996              		.loc 1 571 0
 997 0024 70BD     		pop	{r4, r5, r6, pc}
 998              	.LVL91:
 999              	.L91:
 1000              		.loc 1 563 0 discriminator 2
 1001 0026 0248     		ldr	r0, .L93
 1002 0028 FFF7FEFF 		bl	chSysHalt
 1003              	.LVL92:
 1004 002c EEE7     		b	.L87
 1005              	.L94:
 1006 002e 00BF     		.align	2
 1007              	.L93:
 1008 0030 00000000 		.word	.LANCHOR7
 1009              		.cfi_endproc
 1010              	.LFE271:
 1011              		.size	usbStallReceiveI, .-usbStallReceiveI
 1012              		.section	.text.usbStallTransmitI,"ax",%progbits
 1013              		.align	1
 1014              		.p2align 4,,15
 1015              		.global	usbStallTransmitI
 1016              		.syntax unified
 1017              		.thumb
 1018              		.thumb_func
 1019              		.fpu fpv4-sp-d16
 1020              		.type	usbStallTransmitI, %function
 1021              	usbStallTransmitI:
 1022              	.LFB272:
 1023              		.loc 1 585 0
 1024              		.cfi_startproc
 1025              		@ args = 0, pretend = 0, frame = 0
 1026              		@ frame_needed = 0, uses_anonymous_args = 0
ARM GAS  /var/folders/km/q6jdms0143g2bddz5bhvdfd00000gn/T//ccukKLLL.s 			page 19


 1027              	.LVL93:
 1028 0000 70B5     		push	{r4, r5, r6, lr}
 1029              		.cfi_def_cfa_offset 16
 1030              		.cfi_offset 4, -16
 1031              		.cfi_offset 5, -12
 1032              		.cfi_offset 6, -8
 1033              		.cfi_offset 14, -4
 1034              		.loc 1 585 0
 1035 0002 0546     		mov	r5, r0
 1036 0004 0E46     		mov	r6, r1
 1037              		.loc 1 587 0
 1038 0006 FFF7FEFF 		bl	chDbgCheckClassI
 1039              	.LVL94:
 1040              		.loc 1 588 0
 1041 000a 65B1     		cbz	r5, .L100
 1042              	.L96:
 1043              		.loc 1 590 0
 1044 000c 0120     		movs	r0, #1
 1045 000e 2C89     		ldrh	r4, [r5, #8]
 1046 0010 00FA06F3 		lsl	r3, r0, r6
 1047 0014 1C40     		ands	r4, r3, r4
 1048 0016 00D0     		beq	.L101
 1049              		.loc 1 596 0
 1050 0018 70BD     		pop	{r4, r5, r6, pc}
 1051              	.LVL95:
 1052              	.L101:
 1053              		.loc 1 594 0
 1054 001a 2846     		mov	r0, r5
 1055 001c 3146     		mov	r1, r6
 1056 001e FFF7FEFF 		bl	usb_lld_stall_in
 1057              	.LVL96:
 1058              		.loc 1 595 0
 1059 0022 2046     		mov	r0, r4
 1060              		.loc 1 596 0
 1061 0024 70BD     		pop	{r4, r5, r6, pc}
 1062              	.LVL97:
 1063              	.L100:
 1064              		.loc 1 588 0 discriminator 2
 1065 0026 0248     		ldr	r0, .L102
 1066 0028 FFF7FEFF 		bl	chSysHalt
 1067              	.LVL98:
 1068 002c EEE7     		b	.L96
 1069              	.L103:
 1070 002e 00BF     		.align	2
 1071              	.L102:
 1072 0030 00000000 		.word	.LANCHOR8
 1073              		.cfi_endproc
 1074              	.LFE272:
 1075              		.size	usbStallTransmitI, .-usbStallTransmitI
 1076              		.section	.text._usb_reset,"ax",%progbits
 1077              		.align	1
 1078              		.p2align 4,,15
 1079              		.global	_usb_reset
 1080              		.syntax unified
 1081              		.thumb
 1082              		.thumb_func
 1083              		.fpu fpv4-sp-d16
ARM GAS  /var/folders/km/q6jdms0143g2bddz5bhvdfd00000gn/T//ccukKLLL.s 			page 20


 1084              		.type	_usb_reset, %function
 1085              	_usb_reset:
 1086              	.LFB273:
 1087              		.loc 1 607 0
 1088              		.cfi_startproc
 1089              		@ args = 0, pretend = 0, frame = 0
 1090              		@ frame_needed = 0, uses_anonymous_args = 0
 1091              		@ link register save eliminated.
 1092              	.LVL99:
 1093              		.loc 1 611 0
 1094 0000 0022     		movs	r2, #0
 1095              		.loc 1 610 0
 1096 0002 0221     		movs	r1, #2
 1097 0004 0170     		strb	r1, [r0]
 1098              		.loc 1 611 0
 1099 0006 C264     		str	r2, [r0, #76]
 1100              	.LVL100:
 1101              		.loc 1 615 0
 1102 0008 C0E90222 		strd	r2, r2, [r0, #8]
 1103              		.loc 1 619 0
 1104 000c C0E90422 		strd	r2, r2, [r0, #16]
 1105 0010 8261     		str	r2, [r0, #24]
 1106              	.LVL101:
 1107              		.loc 1 623 0
 1108 0012 80F83420 		strb	r2, [r0, #52]
 1109              		.loc 1 626 0
 1110 0016 FFF7FEBF 		b	usb_lld_reset
 1111              	.LVL102:
 1112              		.cfi_endproc
 1113              	.LFE273:
 1114              		.size	_usb_reset, .-_usb_reset
 1115 001a 00BF     		.section	.text._usb_ep0setup,"ax",%progbits
 1116              		.align	1
 1117              		.p2align 4,,15
 1118              		.global	_usb_ep0setup
 1119              		.syntax unified
 1120              		.thumb
 1121              		.thumb_func
 1122              		.fpu fpv4-sp-d16
 1123              		.type	_usb_ep0setup, %function
 1124              	_usb_ep0setup:
 1125              	.LFB274:
 1126              		.loc 1 639 0
 1127              		.cfi_startproc
 1128              		@ args = 0, pretend = 0, frame = 0
 1129              		@ frame_needed = 0, uses_anonymous_args = 0
 1130              	.LVL103:
 1131 0000 70B5     		push	{r4, r5, r6, lr}
 1132              		.cfi_def_cfa_offset 16
 1133              		.cfi_offset 4, -16
 1134              		.cfi_offset 5, -12
 1135              		.cfi_offset 6, -8
 1136              		.cfi_offset 14, -4
 1137              		.loc 1 642 0
 1138 0002 0023     		movs	r3, #0
 1139              		.loc 1 639 0
 1140 0004 0446     		mov	r4, r0
ARM GAS  /var/folders/km/q6jdms0143g2bddz5bhvdfd00000gn/T//ccukKLLL.s 			page 21


 1141              		.loc 1 642 0
 1142 0006 80F83430 		strb	r3, [r0, #52]
 1143              		.loc 1 643 0
 1144 000a 00F14402 		add	r2, r0, #68
 1145 000e FFF7FEFF 		bl	usb_lld_read_setup
 1146              	.LVL104:
 1147              		.loc 1 648 0
 1148 0012 6368     		ldr	r3, [r4, #4]
 1149 0014 9B68     		ldr	r3, [r3, #8]
 1150 0016 002B     		cmp	r3, #0
 1151 0018 35D0     		beq	.L110
 1152              		.loc 1 649 0 discriminator 1
 1153 001a 2046     		mov	r0, r4
 1154 001c 9847     		blx	r3
 1155              	.LVL105:
 1156              		.loc 1 648 0 discriminator 1
 1157 001e 90B3     		cbz	r0, .L110
 1158 0020 E16B     		ldr	r1, [r4, #60]
 1159 0022 94F84430 		ldrb	r3, [r4, #68]	@ zero_extendqisi2
 1160              	.L127:
 1161              	.LBB333:
 1162              	.LBB334:
 1163              		.loc 1 55 0
 1164 0026 94F84B00 		ldrb	r0, [r4, #75]	@ zero_extendqisi2
 1165 002a 94F84A20 		ldrb	r2, [r4, #74]	@ zero_extendqisi2
 1166              	.LBE334:
 1167              	.LBE333:
 1168              		.loc 1 676 0
 1169 002e 42EA0022 		orr	r2, r2, r0, lsl #8
 1170              	.LVL106:
 1171              		.loc 1 678 0
 1172 0032 8A42     		cmp	r2, r1
 1173 0034 2CBF     		ite	cs
 1174 0036 0A46     		movcs	r2, r1
 1175              	.LVL107:
 1176              		.loc 1 679 0
 1177 0038 E263     		strcc	r2, [r4, #60]
 1178              		.loc 1 681 0
 1179 003a 1806     		lsls	r0, r3, #24
 1180              	.LVL108:
 1181 003c E168     		ldr	r1, [r4, #12]
 1182 003e 00F19F80 		bmi	.L193
 1183              		.loc 1 707 0
 1184 0042 002A     		cmp	r2, #0
 1185 0044 7DD0     		beq	.L147
 1186              	.LBB335:
 1187              	.LBB336:
 1188              		.loc 1 401 0
 1189 0046 8B69     		ldr	r3, [r1, #24]
 1190              	.LBE336:
 1191              	.LBE335:
 1192              		.loc 1 710 0
 1193 0048 A16B     		ldr	r1, [r4, #56]
 1194              	.LVL109:
 1195              	.LBB339:
 1196              	.LBB337:
 1197              		.loc 1 403 0
ARM GAS  /var/folders/km/q6jdms0143g2bddz5bhvdfd00000gn/T//ccukKLLL.s 			page 22


 1198 004a 0025     		movs	r5, #0
 1199              	.LBE337:
 1200              	.LBE339:
 1201              		.loc 1 709 0
 1202 004c 0420     		movs	r0, #4
 1203 004e 84F83400 		strb	r0, [r4, #52]
 1204              	.LBB340:
 1205              	.LBB338:
 1206              		.loc 1 404 0
 1207 0052 D960     		str	r1, [r3, #12]
 1208              	.LVL110:
 1209              		.loc 1 405 0
 1210 0054 5A60     		str	r2, [r3, #4]
 1211              		.loc 1 403 0
 1212 0056 1D70     		strb	r5, [r3]
 1213              		.loc 1 406 0
 1214 0058 9D60     		str	r5, [r3, #8]
 1215              		.loc 1 408 0
 1216 005a 2946     		mov	r1, r5
 1217              	.LVL111:
 1218              	.L191:
 1219 005c 2046     		mov	r0, r4
 1220 005e FFF7FEFF 		bl	usb_lld_prepare_receive
 1221              	.LVL112:
 1222              	.LBE338:
 1223              	.LBE340:
 1224              	.LBB341:
 1225              	.LBB342:
 1226              	.LBB343:
 1227              	.LBB344:
 1228              	.LBB345:
 1229              	.LBB346:
 1230              	.LBB347:
 1231              		.loc 2 546 0
 1232 0062 2023     		movs	r3, #32
 1233              		.syntax unified
 1234              	@ 546 "../../lib/ChibiOS/os/ext/CMSIS/include/core_cmFunc.h" 1
 1235 0064 83F31188 		MSR basepri, r3
 1236              	@ 0 "" 2
 1237              	.LVL113:
 1238              		.thumb
 1239              		.syntax unified
 1240              	.LBE347:
 1241              	.LBE346:
 1242              	.LBE345:
 1243              	.LBE344:
 1244              		.loc 3 389 0
 1245 0068 FFF7FEFF 		bl	_stats_start_measure_crit_isr
 1246              	.LVL114:
 1247              		.loc 3 390 0
 1248 006c FFF7FEFF 		bl	_dbg_check_lock_from_isr
 1249              	.LVL115:
 1250              	.LBE343:
 1251              	.LBE342:
 1252              	.LBE341:
 1253              		.loc 1 712 0
 1254 0070 2946     		mov	r1, r5
ARM GAS  /var/folders/km/q6jdms0143g2bddz5bhvdfd00000gn/T//ccukKLLL.s 			page 23


 1255 0072 2046     		mov	r0, r4
 1256 0074 FFF7FEFF 		bl	usbStartReceiveI
 1257              	.LVL116:
 1258              	.LBB348:
 1259              	.LBB349:
 1260              	.LBB350:
 1261              		.loc 3 408 0
 1262 0078 FFF7FEFF 		bl	_dbg_check_unlock_from_isr
 1263              	.LVL117:
 1264              		.loc 3 409 0
 1265 007c FFF7FEFF 		bl	_stats_stop_measure_crit_isr
 1266              	.LVL118:
 1267              	.LBB351:
 1268              	.LBB352:
 1269              	.LBB353:
 1270              	.LBB354:
 1271              		.loc 2 546 0
 1272              		.syntax unified
 1273              	@ 546 "../../lib/ChibiOS/os/ext/CMSIS/include/core_cmFunc.h" 1
 1274 0080 85F31188 		MSR basepri, r5
 1275              	@ 0 "" 2
 1276              	.LVL119:
 1277              		.thumb
 1278              		.syntax unified
 1279              	.LBE354:
 1280              	.LBE353:
 1281              	.LBE352:
 1282              	.LBE351:
 1283              	.LBE350:
 1284              	.LBE349:
 1285              	.LBE348:
 1286              		.loc 1 729 0
 1287 0084 70BD     		pop	{r4, r5, r6, pc}
 1288              	.LVL120:
 1289              	.L110:
 1290              		.loc 1 654 0
 1291 0086 94F84430 		ldrb	r3, [r4, #68]	@ zero_extendqisi2
 1292 008a 13F06005 		ands	r5, r3, #96
 1293 008e 1846     		mov	r0, r3
 1294 0090 11D0     		beq	.L194
 1295              	.L126:
 1296              		.loc 1 660 0
 1297 0092 0021     		movs	r1, #0
 1298 0094 2046     		mov	r0, r4
 1299 0096 FFF7FEFF 		bl	usb_lld_stall_in
 1300              	.LVL121:
 1301              		.loc 1 661 0
 1302 009a 0021     		movs	r1, #0
 1303 009c 2046     		mov	r0, r4
 1304 009e FFF7FEFF 		bl	usb_lld_stall_out
 1305              	.LVL122:
 1306              		.loc 1 662 0
 1307 00a2 6368     		ldr	r3, [r4, #4]
 1308 00a4 1B68     		ldr	r3, [r3]
 1309 00a6 13B1     		cbz	r3, .L141
 1310              		.loc 1 662 0 is_stmt 0 discriminator 1
 1311 00a8 0521     		movs	r1, #5
ARM GAS  /var/folders/km/q6jdms0143g2bddz5bhvdfd00000gn/T//ccukKLLL.s 			page 24


 1312 00aa 2046     		mov	r0, r4
 1313 00ac 9847     		blx	r3
 1314              	.LVL123:
 1315              	.L141:
 1316              		.loc 1 663 0 is_stmt 1
 1317 00ae 0623     		movs	r3, #6
 1318 00b0 84F83430 		strb	r3, [r4, #52]
 1319              		.loc 1 729 0
 1320 00b4 70BD     		pop	{r4, r5, r6, pc}
 1321              	.LVL124:
 1322              	.L194:
 1323              	.LBB355:
 1324              	.LBB356:
 1325              		.loc 1 90 0
 1326 00b6 94F84510 		ldrb	r1, [r4, #69]	@ zero_extendqisi2
 1327              		.loc 1 88 0
 1328 00ba 03F07F02 		and	r2, r3, #127
 1329              		.loc 1 89 0
 1330 00be 42EA0122 		orr	r2, r2, r1, lsl #8
 1331              		.loc 1 88 0
 1332 00c2 B2F5407F 		cmp	r2, #768
 1333 00c6 00F00981 		beq	.L112
 1334 00ca 17D9     		bls	.L195
 1335 00cc B2F5C06F 		cmp	r2, #1536
 1336 00d0 00F0EB80 		beq	.L120
 1337 00d4 40F28E80 		bls	.L196
 1338 00d8 B2F5106F 		cmp	r2, #2304
 1339 00dc 68D0     		beq	.L124
 1340 00de 40F60241 		movw	r1, #3074
 1341 00e2 8A42     		cmp	r2, r1
 1342 00e4 00F0C780 		beq	.L117
 1343 00e8 B2F5006F 		cmp	r2, #2048
 1344 00ec D1D1     		bne	.L126
 1345              		.loc 1 141 0
 1346 00ee 04F14F02 		add	r2, r4, #79
 1347 00f2 0121     		movs	r1, #1
 1348 00f4 2564     		str	r5, [r4, #64]
 1349              	.LVL125:
 1350 00f6 C4E90E21 		strd	r2, r1, [r4, #56]
 1351 00fa 94E7     		b	.L127
 1352              	.LVL126:
 1353              	.L195:
 1354              		.loc 1 88 0
 1355 00fc 022A     		cmp	r2, #2
 1356 00fe 00F0A080 		beq	.L114
 1357 0102 40F29680 		bls	.L197
 1358 0106 B2F5807F 		cmp	r2, #256
 1359 010a 64D0     		beq	.L118
 1360 010c B2F5817F 		cmp	r2, #258
 1361 0110 BFD1     		bne	.L126
 1362              		.loc 1 201 0
 1363 0112 94F84630 		ldrb	r3, [r4, #70]	@ zero_extendqisi2
 1364 0116 002B     		cmp	r3, #0
 1365 0118 BBD1     		bne	.L126
 1366              		.loc 1 205 0
 1367 011a 94F84830 		ldrb	r3, [r4, #72]	@ zero_extendqisi2
 1368 011e 13F00F01 		ands	r1, r3, #15
ARM GAS  /var/folders/km/q6jdms0143g2bddz5bhvdfd00000gn/T//ccukKLLL.s 			page 25


 1369 0122 07D0     		beq	.L139
 1370              		.loc 1 206 0
 1371 0124 1E06     		lsls	r6, r3, #24
 1372              		.loc 1 207 0
 1373 0126 2046     		mov	r0, r4
 1374              		.loc 1 206 0
 1375 0128 00F1F080 		bmi	.L198
 1376              	.LVL127:
 1377              		.loc 1 210 0
 1378 012c FFF7FEFF 		bl	usb_lld_clear_out
 1379              	.LVL128:
 1380 0130 94F84400 		ldrb	r0, [r4, #68]	@ zero_extendqisi2
 1381              	.L139:
 1382              		.loc 1 229 0
 1383 0134 0023     		movs	r3, #0
 1384 0136 C4E90E33 		strd	r3, r3, [r4, #56]
 1385 013a 2364     		str	r3, [r4, #64]
 1386              	.LVL129:
 1387              	.L128:
 1388              	.LBE356:
 1389              	.LBE355:
 1390              		.loc 1 681 0
 1391 013c 0306     		lsls	r3, r0, #24
 1392 013e E168     		ldr	r1, [r4, #12]
 1393 0140 2BD4     		bmi	.L146
 1394              	.LVL130:
 1395              	.L147:
 1396              	.LBB364:
 1397              	.LBB365:
 1398              		.loc 1 427 0
 1399 0142 4B69     		ldr	r3, [r1, #20]
 1400              		.loc 1 429 0
 1401 0144 0025     		movs	r5, #0
 1402              	.LBE365:
 1403              	.LBE364:
 1404              		.loc 1 718 0
 1405 0146 0522     		movs	r2, #5
 1406 0148 84F83420 		strb	r2, [r4, #52]
 1407              	.LVL131:
 1408              	.LBB367:
 1409              	.LBB366:
 1410              		.loc 1 432 0
 1411 014c C3E90155 		strd	r5, r5, [r3, #4]
 1412              		.loc 1 434 0
 1413 0150 2946     		mov	r1, r5
 1414              		.loc 1 429 0
 1415 0152 1D70     		strb	r5, [r3]
 1416              		.loc 1 430 0
 1417 0154 DD60     		str	r5, [r3, #12]
 1418              	.LVL132:
 1419              	.L192:
 1420              		.loc 1 434 0
 1421 0156 2046     		mov	r0, r4
 1422 0158 FFF7FEFF 		bl	usb_lld_prepare_transmit
 1423              	.LVL133:
 1424              	.LBE366:
 1425              	.LBE367:
ARM GAS  /var/folders/km/q6jdms0143g2bddz5bhvdfd00000gn/T//ccukKLLL.s 			page 26


 1426              	.LBB368:
 1427              	.LBB369:
 1428              	.LBB370:
 1429              	.LBB371:
 1430              	.LBB372:
 1431              	.LBB373:
 1432              	.LBB374:
 1433              		.loc 2 546 0
 1434 015c 2023     		movs	r3, #32
 1435              		.syntax unified
 1436              	@ 546 "../../lib/ChibiOS/os/ext/CMSIS/include/core_cmFunc.h" 1
 1437 015e 83F31188 		MSR basepri, r3
 1438              	@ 0 "" 2
 1439              	.LVL134:
 1440              		.thumb
 1441              		.syntax unified
 1442              	.LBE374:
 1443              	.LBE373:
 1444              	.LBE372:
 1445              	.LBE371:
 1446              		.loc 3 389 0
 1447 0162 FFF7FEFF 		bl	_stats_start_measure_crit_isr
 1448              	.LVL135:
 1449              		.loc 3 390 0
 1450 0166 FFF7FEFF 		bl	_dbg_check_lock_from_isr
 1451              	.LVL136:
 1452              	.LBE370:
 1453              	.LBE369:
 1454              	.LBE368:
 1455              		.loc 1 722 0
 1456 016a 2946     		mov	r1, r5
 1457 016c 2046     		mov	r0, r4
 1458 016e FFF7FEFF 		bl	usbStartTransmitI
 1459              	.LVL137:
 1460              	.LBB375:
 1461              	.LBB376:
 1462              	.LBB377:
 1463              		.loc 3 408 0
 1464 0172 FFF7FEFF 		bl	_dbg_check_unlock_from_isr
 1465              	.LVL138:
 1466              		.loc 3 409 0
 1467 0176 FFF7FEFF 		bl	_stats_stop_measure_crit_isr
 1468              	.LVL139:
 1469              	.LBB378:
 1470              	.LBB379:
 1471              	.LBB380:
 1472              	.LBB381:
 1473              		.loc 2 546 0
 1474              		.syntax unified
 1475              	@ 546 "../../lib/ChibiOS/os/ext/CMSIS/include/core_cmFunc.h" 1
 1476 017a 85F31188 		MSR basepri, r5
 1477              	@ 0 "" 2
 1478              	.LVL140:
 1479              		.thumb
 1480              		.syntax unified
 1481              	.LBE381:
 1482              	.LBE380:
ARM GAS  /var/folders/km/q6jdms0143g2bddz5bhvdfd00000gn/T//ccukKLLL.s 			page 27


 1483              	.LBE379:
 1484              	.LBE378:
 1485              	.LBE377:
 1486              	.LBE376:
 1487              	.LBE375:
 1488              		.loc 1 729 0
 1489 017e 70BD     		pop	{r4, r5, r6, pc}
 1490              	.LVL141:
 1491              	.L193:
 1492              		.loc 1 683 0
 1493 0180 5AB1     		cbz	r2, .L146
 1494              	.LBB382:
 1495              	.LBB383:
 1496              		.loc 1 427 0
 1497 0182 4B69     		ldr	r3, [r1, #20]
 1498              	.LBE383:
 1499              	.LBE382:
 1500              		.loc 1 686 0
 1501 0184 A16B     		ldr	r1, [r4, #56]
 1502              	.LVL142:
 1503              	.LBB386:
 1504              	.LBB384:
 1505              		.loc 1 429 0
 1506 0186 0025     		movs	r5, #0
 1507              	.LBE384:
 1508              	.LBE386:
 1509              		.loc 1 685 0
 1510 0188 0120     		movs	r0, #1
 1511 018a 84F83400 		strb	r0, [r4, #52]
 1512              	.LBB387:
 1513              	.LBB385:
 1514              		.loc 1 430 0
 1515 018e D960     		str	r1, [r3, #12]
 1516              	.LVL143:
 1517              		.loc 1 431 0
 1518 0190 5A60     		str	r2, [r3, #4]
 1519              		.loc 1 429 0
 1520 0192 1D70     		strb	r5, [r3]
 1521              		.loc 1 432 0
 1522 0194 9D60     		str	r5, [r3, #8]
 1523              		.loc 1 434 0
 1524 0196 2946     		mov	r1, r5
 1525              	.LVL144:
 1526 0198 DDE7     		b	.L192
 1527              	.LVL145:
 1528              	.L146:
 1529              	.LBE385:
 1530              	.LBE387:
 1531              	.LBB388:
 1532              	.LBB389:
 1533              		.loc 1 401 0
 1534 019a 8B69     		ldr	r3, [r1, #24]
 1535              		.loc 1 403 0
 1536 019c 0025     		movs	r5, #0
 1537              	.LBE389:
 1538              	.LBE388:
 1539              		.loc 1 694 0
ARM GAS  /var/folders/km/q6jdms0143g2bddz5bhvdfd00000gn/T//ccukKLLL.s 			page 28


 1540 019e 0322     		movs	r2, #3
 1541 01a0 84F83420 		strb	r2, [r4, #52]
 1542              	.LVL146:
 1543              	.LBB391:
 1544              	.LBB390:
 1545              		.loc 1 408 0
 1546 01a4 2946     		mov	r1, r5
 1547              		.loc 1 403 0
 1548 01a6 1D70     		strb	r5, [r3]
 1549              		.loc 1 404 0
 1550 01a8 DD60     		str	r5, [r3, #12]
 1551              		.loc 1 406 0
 1552 01aa C3E90155 		strd	r5, r5, [r3, #4]
 1553 01ae 55E7     		b	.L191
 1554              	.LVL147:
 1555              	.L124:
 1556              	.LBE390:
 1557              	.LBE391:
 1558              	.LBB392:
 1559              	.LBB363:
 1560              		.loc 1 145 0
 1561 01b0 94F84630 		ldrb	r3, [r4, #70]	@ zero_extendqisi2
 1562 01b4 84F84F30 		strb	r3, [r4, #79]
 1563              		.loc 1 146 0
 1564 01b8 002B     		cmp	r3, #0
 1565 01ba 40F09E80 		bne	.L131
 1566              		.loc 1 147 0
 1567 01be 0323     		movs	r3, #3
 1568 01c0 2370     		strb	r3, [r4]
 1569              	.L132:
 1570              		.loc 1 152 0
 1571 01c2 6368     		ldr	r3, [r4, #4]
 1572 01c4 1B68     		ldr	r3, [r3]
 1573 01c6 002B     		cmp	r3, #0
 1574 01c8 B4D0     		beq	.L139
 1575 01ca 2046     		mov	r0, r4
 1576 01cc 0221     		movs	r1, #2
 1577 01ce 9847     		blx	r3
 1578              	.LVL148:
 1579 01d0 94F84400 		ldrb	r0, [r4, #68]	@ zero_extendqisi2
 1580 01d4 AEE7     		b	.L139
 1581              	.L118:
 1582              		.loc 1 98 0
 1583 01d6 94F84630 		ldrb	r3, [r4, #70]	@ zero_extendqisi2
 1584 01da 012B     		cmp	r3, #1
 1585 01dc 7FF459AF 		bne	.L126
 1586              		.loc 1 99 0
 1587 01e0 B4F84C30 		ldrh	r3, [r4, #76]
 1588              		.loc 1 100 0
 1589 01e4 A563     		str	r5, [r4, #56]
 1590              		.loc 1 99 0
 1591 01e6 23F00203 		bic	r3, r3, #2
 1592              		.loc 1 100 0
 1593 01ea C4E90F55 		strd	r5, r5, [r4, #60]
 1594              	.LVL149:
 1595              		.loc 1 99 0
 1596 01ee A4F84C30 		strh	r3, [r4, #76]	@ movhi
ARM GAS  /var/folders/km/q6jdms0143g2bddz5bhvdfd00000gn/T//ccukKLLL.s 			page 29


 1597 01f2 A3E7     		b	.L128
 1598              	.LVL150:
 1599              	.L196:
 1600              		.loc 1 88 0
 1601 01f4 40F20233 		movw	r3, #770
 1602 01f8 9A42     		cmp	r2, r3
 1603 01fa 43D0     		beq	.L122
 1604 01fc B2F5A06F 		cmp	r2, #1280
 1605 0200 7FF447AF 		bne	.L126
 1606              		.loc 1 118 0
 1607 0204 B4F84430 		ldrh	r3, [r4, #68]
 1608 0208 B3F5A06F 		cmp	r3, #1280
 1609 020c 92D1     		bne	.L139
 1610              	.LVL151:
 1611              	.LBB357:
 1612              	.LBB358:
 1613              		.loc 1 66 0
 1614 020e 94F84630 		ldrb	r3, [r4, #70]	@ zero_extendqisi2
 1615 0212 84F84E30 		strb	r3, [r4, #78]
 1616              		.loc 1 67 0
 1617 0216 2046     		mov	r0, r4
 1618 0218 FFF7FEFF 		bl	usb_lld_set_address
 1619              	.LVL152:
 1620              		.loc 1 68 0
 1621 021c 6368     		ldr	r3, [r4, #4]
 1622 021e 1B68     		ldr	r3, [r3]
 1623 0220 13B1     		cbz	r3, .L130
 1624 0222 0121     		movs	r1, #1
 1625 0224 2046     		mov	r0, r4
 1626 0226 9847     		blx	r3
 1627              	.LVL153:
 1628              	.L130:
 1629              		.loc 1 69 0
 1630 0228 0323     		movs	r3, #3
 1631 022a 94F84400 		ldrb	r0, [r4, #68]	@ zero_extendqisi2
 1632 022e 2370     		strb	r3, [r4]
 1633 0230 80E7     		b	.L139
 1634              	.LVL154:
 1635              	.L197:
 1636              	.LBE358:
 1637              	.LBE357:
 1638              		.loc 1 88 0
 1639 0232 EAB9     		cbnz	r2, .L199
 1640              		.loc 1 93 0
 1641 0234 04F14C00 		add	r0, r4, #76
 1642 0238 0221     		movs	r1, #2
 1643 023a 2264     		str	r2, [r4, #64]
 1644              	.LVL155:
 1645 023c C4E90E01 		strd	r0, r1, [r4, #56]
 1646 0240 F1E6     		b	.L127
 1647              	.LVL156:
 1648              	.L114:
 1649              		.loc 1 165 0
 1650 0242 94F84830 		ldrb	r3, [r4, #72]	@ zero_extendqisi2
 1651 0246 03F00F01 		and	r1, r3, #15
 1652 024a 1B06     		lsls	r3, r3, #24
 1653              		.loc 1 166 0
ARM GAS  /var/folders/km/q6jdms0143g2bddz5bhvdfd00000gn/T//ccukKLLL.s 			page 30


 1654 024c 2046     		mov	r0, r4
 1655              		.loc 1 165 0
 1656 024e 57D4     		bmi	.L200
 1657              	.LVL157:
 1658              		.loc 1 183 0
 1659 0250 FFF7FEFF 		bl	usb_lld_get_status_out
 1660              	.LVL158:
 1661 0254 0128     		cmp	r0, #1
 1662 0256 57D0     		beq	.L135
 1663              	.L189:
 1664 0258 0228     		cmp	r0, #2
 1665 025a 7FF41AAF 		bne	.L126
 1666              		.loc 1 174 0
 1667 025e 304B     		ldr	r3, .L202
 1668              	.L190:
 1669 0260 A363     		str	r3, [r4, #56]
 1670 0262 0221     		movs	r1, #2
 1671 0264 0023     		movs	r3, #0
 1672 0266 C4E90F13 		strd	r1, r3, [r4, #60]
 1673              	.LVL159:
 1674 026a 94F84430 		ldrb	r3, [r4, #68]	@ zero_extendqisi2
 1675 026e DAE6     		b	.L127
 1676              	.LVL160:
 1677              	.L199:
 1678              		.loc 1 88 0
 1679 0270 012A     		cmp	r2, #1
 1680 0272 7FF40EAF 		bne	.L126
 1681              	.L117:
 1682              		.loc 1 160 0
 1683 0276 2B4A     		ldr	r2, .L202+4
 1684 0278 A263     		str	r2, [r4, #56]
 1685 027a 0221     		movs	r1, #2
 1686 027c 0022     		movs	r2, #0
 1687 027e C4E90F12 		strd	r1, r2, [r4, #60]
 1688              	.LVL161:
 1689 0282 D0E6     		b	.L127
 1690              	.LVL162:
 1691              	.L122:
 1692              		.loc 1 217 0
 1693 0284 94F84630 		ldrb	r3, [r4, #70]	@ zero_extendqisi2
 1694 0288 002B     		cmp	r3, #0
 1695 028a 7FF402AF 		bne	.L126
 1696              		.loc 1 221 0
 1697 028e 94F84830 		ldrb	r3, [r4, #72]	@ zero_extendqisi2
 1698 0292 13F00F01 		ands	r1, r3, #15
 1699 0296 3FF44DAF 		beq	.L139
 1700              		.loc 1 222 0
 1701 029a 1D06     		lsls	r5, r3, #24
 1702              		.loc 1 223 0
 1703 029c 2046     		mov	r0, r4
 1704              		.loc 1 222 0
 1705 029e 3AD4     		bmi	.L201
 1706              	.LVL163:
 1707              		.loc 1 226 0
 1708 02a0 FFF7FEFF 		bl	usb_lld_stall_out
 1709              	.LVL164:
 1710 02a4 94F84400 		ldrb	r0, [r4, #68]	@ zero_extendqisi2
ARM GAS  /var/folders/km/q6jdms0143g2bddz5bhvdfd00000gn/T//ccukKLLL.s 			page 31


 1711 02a8 44E7     		b	.L139
 1712              	.L120:
 1713              	.LBB359:
 1714              	.LBB360:
 1715              		.loc 1 55 0
 1716 02aa 94F84900 		ldrb	r0, [r4, #73]	@ zero_extendqisi2
 1717              	.LBE360:
 1718              	.LBE359:
 1719              		.loc 1 129 0
 1720 02ae 6168     		ldr	r1, [r4, #4]
 1721              	.LBB362:
 1722              	.LBB361:
 1723              		.loc 1 55 0
 1724 02b0 94F84830 		ldrb	r3, [r4, #72]	@ zero_extendqisi2
 1725              	.LBE361:
 1726              	.LBE362:
 1727              		.loc 1 129 0
 1728 02b4 4E68     		ldr	r6, [r1, #4]
 1729 02b6 94F84620 		ldrb	r2, [r4, #70]	@ zero_extendqisi2
 1730 02ba 94F84710 		ldrb	r1, [r4, #71]	@ zero_extendqisi2
 1731 02be 43EA0023 		orr	r3, r3, r0, lsl #8
 1732 02c2 2046     		mov	r0, r4
 1733 02c4 B047     		blx	r6
 1734              	.LVL165:
 1735              		.loc 1 132 0
 1736 02c6 0028     		cmp	r0, #0
 1737 02c8 3FF4E3AE 		beq	.L126
 1738              		.loc 1 136 0
 1739 02cc D0E90013 		ldrd	r1, r3, [r0]
 1740 02d0 2564     		str	r5, [r4, #64]
 1741              	.LVL166:
 1742 02d2 C4E90E31 		strd	r3, r1, [r4, #56]
 1743 02d6 94F84430 		ldrb	r3, [r4, #68]	@ zero_extendqisi2
 1744 02da A4E6     		b	.L127
 1745              	.LVL167:
 1746              	.L112:
 1747              		.loc 1 107 0
 1748 02dc 94F84630 		ldrb	r3, [r4, #70]	@ zero_extendqisi2
 1749 02e0 012B     		cmp	r3, #1
 1750 02e2 7FF4D6AE 		bne	.L126
 1751              		.loc 1 108 0
 1752 02e6 B4F84C30 		ldrh	r3, [r4, #76]
 1753              		.loc 1 109 0
 1754 02ea A563     		str	r5, [r4, #56]
 1755              		.loc 1 108 0
 1756 02ec 43F00203 		orr	r3, r3, #2
 1757              		.loc 1 109 0
 1758 02f0 C4E90F55 		strd	r5, r5, [r4, #60]
 1759              	.LVL168:
 1760              		.loc 1 108 0
 1761 02f4 A4F84C30 		strh	r3, [r4, #76]	@ movhi
 1762 02f8 20E7     		b	.L128
 1763              	.LVL169:
 1764              	.L131:
 1765              		.loc 1 150 0
 1766 02fa 0423     		movs	r3, #4
 1767 02fc 2370     		strb	r3, [r4]
ARM GAS  /var/folders/km/q6jdms0143g2bddz5bhvdfd00000gn/T//ccukKLLL.s 			page 32


 1768 02fe 60E7     		b	.L132
 1769              	.LVL170:
 1770              	.L200:
 1771              		.loc 1 166 0
 1772 0300 FFF7FEFF 		bl	usb_lld_get_status_in
 1773              	.LVL171:
 1774 0304 0128     		cmp	r0, #1
 1775 0306 A7D1     		bne	.L189
 1776              	.L135:
 1777              		.loc 1 169 0
 1778 0308 074B     		ldr	r3, .L202+8
 1779 030a A9E7     		b	.L190
 1780              	.LVL172:
 1781              	.L198:
 1782              		.loc 1 207 0
 1783 030c FFF7FEFF 		bl	usb_lld_clear_in
 1784              	.LVL173:
 1785 0310 94F84400 		ldrb	r0, [r4, #68]	@ zero_extendqisi2
 1786 0314 0EE7     		b	.L139
 1787              	.LVL174:
 1788              	.L201:
 1789              		.loc 1 223 0
 1790 0316 FFF7FEFF 		bl	usb_lld_stall_in
 1791              	.LVL175:
 1792 031a 94F84400 		ldrb	r0, [r4, #68]	@ zero_extendqisi2
 1793 031e 09E7     		b	.L139
 1794              	.L203:
 1795              		.align	2
 1796              	.L202:
 1797 0320 00000000 		.word	.LANCHOR11
 1798 0324 00000000 		.word	.LANCHOR9
 1799 0328 00000000 		.word	.LANCHOR10
 1800              	.LBE363:
 1801              	.LBE392:
 1802              		.cfi_endproc
 1803              	.LFE274:
 1804              		.size	_usb_ep0setup, .-_usb_ep0setup
 1805              		.section	.text._usb_ep0in,"ax",%progbits
 1806              		.align	1
 1807              		.p2align 4,,15
 1808              		.global	_usb_ep0in
 1809              		.syntax unified
 1810              		.thumb
 1811              		.thumb_func
 1812              		.fpu fpv4-sp-d16
 1813              		.type	_usb_ep0in, %function
 1814              	_usb_ep0in:
 1815              	.LFB275:
 1816              		.loc 1 741 0
 1817              		.cfi_startproc
 1818              		@ args = 0, pretend = 0, frame = 0
 1819              		@ frame_needed = 0, uses_anonymous_args = 0
 1820              	.LVL176:
 1821 0000 38B5     		push	{r3, r4, r5, lr}
 1822              		.cfi_def_cfa_offset 16
 1823              		.cfi_offset 3, -16
 1824              		.cfi_offset 4, -12
ARM GAS  /var/folders/km/q6jdms0143g2bddz5bhvdfd00000gn/T//ccukKLLL.s 			page 33


 1825              		.cfi_offset 5, -8
 1826              		.cfi_offset 14, -4
 1827              		.loc 1 745 0
 1828 0002 90F83430 		ldrb	r3, [r0, #52]	@ zero_extendqisi2
 1829              		.loc 1 741 0
 1830 0006 0446     		mov	r4, r0
 1831              		.loc 1 745 0
 1832 0008 062B     		cmp	r3, #6
 1833 000a 52D8     		bhi	.L205
 1834 000c DFE803F0 		tbb	[pc, r3]
 1835              	.L207:
 1836 0010 04       		.byte	(.L206-.L207)/2
 1837 0011 20       		.byte	(.L208-.L207)/2
 1838 0012 4F       		.byte	(.L209-.L207)/2
 1839 0013 04       		.byte	(.L206-.L207)/2
 1840 0014 04       		.byte	(.L206-.L207)/2
 1841 0015 19       		.byte	(.L210-.L207)/2
 1842 0016 07       		.byte	(.L211-.L207)/2
 1843 0017 00       		.p2align 1
 1844              	.L206:
 1845              		.loc 1 784 0 discriminator 2
 1846 0018 3748     		ldr	r0, .L224
 1847              	.LVL177:
 1848 001a FFF7FEFF 		bl	chSysHalt
 1849              	.LVL178:
 1850              	.L211:
 1851              		.loc 1 790 0
 1852 001e 0021     		movs	r1, #0
 1853 0020 2046     		mov	r0, r4
 1854 0022 FFF7FEFF 		bl	usb_lld_stall_in
 1855              	.LVL179:
 1856              		.loc 1 791 0
 1857 0026 0021     		movs	r1, #0
 1858 0028 2046     		mov	r0, r4
 1859 002a FFF7FEFF 		bl	usb_lld_stall_out
 1860              	.LVL180:
 1861              		.loc 1 792 0
 1862 002e 6368     		ldr	r3, [r4, #4]
 1863 0030 1B68     		ldr	r3, [r3]
 1864 0032 13B1     		cbz	r3, .L215
 1865              		.loc 1 792 0 is_stmt 0 discriminator 1
 1866 0034 0521     		movs	r1, #5
 1867 0036 2046     		mov	r0, r4
 1868 0038 9847     		blx	r3
 1869              	.LVL181:
 1870              	.L215:
 1871              		.loc 1 793 0 is_stmt 1
 1872 003a 0623     		movs	r3, #6
 1873 003c 84F83430 		strb	r3, [r4, #52]
 1874              		.loc 1 798 0
 1875 0040 38BD     		pop	{r3, r4, r5, pc}
 1876              	.LVL182:
 1877              	.L210:
 1878              		.loc 1 775 0
 1879 0042 036C     		ldr	r3, [r0, #64]
 1880 0044 03B1     		cbz	r3, .L214
 1881              		.loc 1 776 0
ARM GAS  /var/folders/km/q6jdms0143g2bddz5bhvdfd00000gn/T//ccukKLLL.s 			page 34


 1882 0046 9847     		blx	r3
 1883              	.LVL183:
 1884              	.L214:
 1885              		.loc 1 778 0
 1886 0048 0023     		movs	r3, #0
 1887 004a 84F83430 		strb	r3, [r4, #52]
 1888              		.loc 1 798 0
 1889 004e 38BD     		pop	{r3, r4, r5, pc}
 1890              	.LVL184:
 1891              	.L208:
 1892              	.LBB393:
 1893              	.LBB394:
 1894              		.loc 1 55 0
 1895 0050 90F84B00 		ldrb	r0, [r0, #75]	@ zero_extendqisi2
 1896              	.LVL185:
 1897 0054 94F84A20 		ldrb	r2, [r4, #74]	@ zero_extendqisi2
 1898              	.LBE394:
 1899              	.LBE393:
 1900              		.loc 1 751 0
 1901 0058 E16B     		ldr	r1, [r4, #60]
 1902              	.LVL186:
 1903 005a E368     		ldr	r3, [r4, #12]
 1904              		.loc 1 747 0
 1905 005c 42EA0022 		orr	r2, r2, r0, lsl #8
 1906              		.loc 1 751 0
 1907 0060 9142     		cmp	r1, r2
 1908 0062 05D2     		bcs	.L212
 1909              		.loc 1 752 0 discriminator 1
 1910 0064 1A8A     		ldrh	r2, [r3, #16]
 1911 0066 B1FBF2F5 		udiv	r5, r1, r2
 1912 006a 02FB1515 		mls	r5, r2, r5, r1
 1913              		.loc 1 751 0 discriminator 1
 1914 006e 2DB3     		cbz	r5, .L223
 1915              	.LVL187:
 1916              	.L212:
 1917              	.LBB395:
 1918              	.LBB396:
 1919              		.loc 1 401 0
 1920 0070 9B69     		ldr	r3, [r3, #24]
 1921              		.loc 1 403 0
 1922 0072 0025     		movs	r5, #0
 1923              	.LBE396:
 1924              	.LBE395:
 1925              		.loc 1 763 0
 1926 0074 0322     		movs	r2, #3
 1927 0076 84F83420 		strb	r2, [r4, #52]
 1928              	.LVL188:
 1929              	.LBB398:
 1930              	.LBB397:
 1931              		.loc 1 408 0
 1932 007a 2946     		mov	r1, r5
 1933              		.loc 1 403 0
 1934 007c 1D70     		strb	r5, [r3]
 1935              		.loc 1 404 0
 1936 007e DD60     		str	r5, [r3, #12]
 1937              		.loc 1 406 0
 1938 0080 C3E90155 		strd	r5, r5, [r3, #4]
ARM GAS  /var/folders/km/q6jdms0143g2bddz5bhvdfd00000gn/T//ccukKLLL.s 			page 35


 1939              		.loc 1 408 0
 1940 0084 2046     		mov	r0, r4
 1941 0086 FFF7FEFF 		bl	usb_lld_prepare_receive
 1942              	.LVL189:
 1943              	.LBE397:
 1944              	.LBE398:
 1945              	.LBB399:
 1946              	.LBB400:
 1947              	.LBB401:
 1948              	.LBB402:
 1949              	.LBB403:
 1950              	.LBB404:
 1951              	.LBB405:
 1952              		.loc 2 546 0
 1953 008a 2023     		movs	r3, #32
 1954              		.syntax unified
 1955              	@ 546 "../../lib/ChibiOS/os/ext/CMSIS/include/core_cmFunc.h" 1
 1956 008c 83F31188 		MSR basepri, r3
 1957              	@ 0 "" 2
 1958              	.LVL190:
 1959              		.thumb
 1960              		.syntax unified
 1961              	.LBE405:
 1962              	.LBE404:
 1963              	.LBE403:
 1964              	.LBE402:
 1965              		.loc 3 389 0
 1966 0090 FFF7FEFF 		bl	_stats_start_measure_crit_isr
 1967              	.LVL191:
 1968              		.loc 3 390 0
 1969 0094 FFF7FEFF 		bl	_dbg_check_lock_from_isr
 1970              	.LVL192:
 1971              	.LBE401:
 1972              	.LBE400:
 1973              	.LBE399:
 1974              		.loc 1 767 0
 1975 0098 2946     		mov	r1, r5
 1976 009a 2046     		mov	r0, r4
 1977 009c FFF7FEFF 		bl	usbStartReceiveI
 1978              	.LVL193:
 1979              	.LBB406:
 1980              	.LBB407:
 1981              	.LBB408:
 1982              		.loc 3 408 0
 1983 00a0 FFF7FEFF 		bl	_dbg_check_unlock_from_isr
 1984              	.LVL194:
 1985              		.loc 3 409 0
 1986 00a4 FFF7FEFF 		bl	_stats_stop_measure_crit_isr
 1987              	.LVL195:
 1988              	.LBB409:
 1989              	.LBB410:
 1990              	.LBB411:
 1991              	.LBB412:
 1992              		.loc 2 546 0
 1993              		.syntax unified
 1994              	@ 546 "../../lib/ChibiOS/os/ext/CMSIS/include/core_cmFunc.h" 1
 1995 00a8 85F31188 		MSR basepri, r5
ARM GAS  /var/folders/km/q6jdms0143g2bddz5bhvdfd00000gn/T//ccukKLLL.s 			page 36


 1996              	@ 0 "" 2
 1997              	.LVL196:
 1998              		.thumb
 1999              		.syntax unified
 2000              	.LBE412:
 2001              	.LBE411:
 2002              	.LBE410:
 2003              	.LBE409:
 2004              	.LBE408:
 2005              	.LBE407:
 2006              	.LBE406:
 2007              		.loc 1 798 0
 2008 00ac 38BD     		pop	{r3, r4, r5, pc}
 2009              	.LVL197:
 2010              	.L209:
 2011 00ae C368     		ldr	r3, [r0, #12]
 2012 00b0 DEE7     		b	.L212
 2013              	.L205:
 2014              		.loc 1 796 0 discriminator 2
 2015 00b2 1148     		ldr	r0, .L224
 2016              	.LVL198:
 2017              		.loc 1 798 0 discriminator 2
 2018 00b4 BDE83840 		pop	{r3, r4, r5, lr}
 2019              	.LVL199:
 2020              		.loc 1 796 0 discriminator 2
 2021 00b8 FFF7FEBF 		b	chSysHalt
 2022              	.LVL200:
 2023              	.L223:
 2024              	.LBB413:
 2025              	.LBB414:
 2026              		.loc 1 427 0
 2027 00bc 5B69     		ldr	r3, [r3, #20]
 2028              	.LVL201:
 2029              		.loc 1 434 0
 2030 00be 2946     		mov	r1, r5
 2031              		.loc 1 429 0
 2032 00c0 1D70     		strb	r5, [r3]
 2033              	.LVL202:
 2034              		.loc 1 430 0
 2035 00c2 DD60     		str	r5, [r3, #12]
 2036              		.loc 1 432 0
 2037 00c4 C3E90155 		strd	r5, r5, [r3, #4]
 2038              		.loc 1 434 0
 2039 00c8 2046     		mov	r0, r4
 2040 00ca FFF7FEFF 		bl	usb_lld_prepare_transmit
 2041              	.LVL203:
 2042              	.LBE414:
 2043              	.LBE413:
 2044              	.LBB415:
 2045              	.LBB416:
 2046              	.LBB417:
 2047              	.LBB418:
 2048              	.LBB419:
 2049              	.LBB420:
 2050              	.LBB421:
 2051              		.loc 2 546 0
 2052 00ce 2023     		movs	r3, #32
ARM GAS  /var/folders/km/q6jdms0143g2bddz5bhvdfd00000gn/T//ccukKLLL.s 			page 37


 2053              		.syntax unified
 2054              	@ 546 "../../lib/ChibiOS/os/ext/CMSIS/include/core_cmFunc.h" 1
 2055 00d0 83F31188 		MSR basepri, r3
 2056              	@ 0 "" 2
 2057              	.LVL204:
 2058              		.thumb
 2059              		.syntax unified
 2060              	.LBE421:
 2061              	.LBE420:
 2062              	.LBE419:
 2063              	.LBE418:
 2064              		.loc 3 389 0
 2065 00d4 FFF7FEFF 		bl	_stats_start_measure_crit_isr
 2066              	.LVL205:
 2067              		.loc 3 390 0
 2068 00d8 FFF7FEFF 		bl	_dbg_check_lock_from_isr
 2069              	.LVL206:
 2070              	.LBE417:
 2071              	.LBE416:
 2072              	.LBE415:
 2073              		.loc 1 755 0
 2074 00dc 2946     		mov	r1, r5
 2075 00de 2046     		mov	r0, r4
 2076 00e0 FFF7FEFF 		bl	usbStartTransmitI
 2077              	.LVL207:
 2078              	.LBB422:
 2079              	.LBB423:
 2080              	.LBB424:
 2081              		.loc 3 408 0
 2082 00e4 FFF7FEFF 		bl	_dbg_check_unlock_from_isr
 2083              	.LVL208:
 2084              		.loc 3 409 0
 2085 00e8 FFF7FEFF 		bl	_stats_stop_measure_crit_isr
 2086              	.LVL209:
 2087              	.LBB425:
 2088              	.LBB426:
 2089              	.LBB427:
 2090              	.LBB428:
 2091              		.loc 2 546 0
 2092              		.syntax unified
 2093              	@ 546 "../../lib/ChibiOS/os/ext/CMSIS/include/core_cmFunc.h" 1
 2094 00ec 85F31188 		MSR basepri, r5
 2095              	@ 0 "" 2
 2096              	.LVL210:
 2097              		.thumb
 2098              		.syntax unified
 2099              	.LBE428:
 2100              	.LBE427:
 2101              	.LBE426:
 2102              	.LBE425:
 2103              	.LBE424:
 2104              	.LBE423:
 2105              	.LBE422:
 2106              		.loc 1 757 0
 2107 00f0 0223     		movs	r3, #2
 2108 00f2 84F83430 		strb	r3, [r4, #52]
 2109              		.loc 1 798 0
ARM GAS  /var/folders/km/q6jdms0143g2bddz5bhvdfd00000gn/T//ccukKLLL.s 			page 38


 2110 00f6 38BD     		pop	{r3, r4, r5, pc}
 2111              	.LVL211:
 2112              	.L225:
 2113              		.align	2
 2114              	.L224:
 2115 00f8 00000000 		.word	.LANCHOR12
 2116              		.cfi_endproc
 2117              	.LFE275:
 2118              		.size	_usb_ep0in, .-_usb_ep0in
 2119              		.section	.text._usb_ep0out,"ax",%progbits
 2120              		.align	1
 2121              		.p2align 4,,15
 2122              		.global	_usb_ep0out
 2123              		.syntax unified
 2124              		.thumb
 2125              		.thumb_func
 2126              		.fpu fpv4-sp-d16
 2127              		.type	_usb_ep0out, %function
 2128              	_usb_ep0out:
 2129              	.LFB276:
 2130              		.loc 1 810 0
 2131              		.cfi_startproc
 2132              		@ args = 0, pretend = 0, frame = 0
 2133              		@ frame_needed = 0, uses_anonymous_args = 0
 2134              	.LVL212:
 2135 0000 38B5     		push	{r3, r4, r5, lr}
 2136              		.cfi_def_cfa_offset 16
 2137              		.cfi_offset 3, -16
 2138              		.cfi_offset 4, -12
 2139              		.cfi_offset 5, -8
 2140              		.cfi_offset 14, -4
 2141              		.loc 1 813 0
 2142 0002 90F83430 		ldrb	r3, [r0, #52]	@ zero_extendqisi2
 2143              		.loc 1 810 0
 2144 0006 0446     		mov	r4, r0
 2145              		.loc 1 813 0
 2146 0008 062B     		cmp	r3, #6
 2147 000a 45D8     		bhi	.L227
 2148 000c DFE803F0 		tbb	[pc, r3]
 2149              	.L229:
 2150 0010 04       		.byte	(.L228-.L229)/2
 2151 0011 04       		.byte	(.L228-.L229)/2
 2152 0012 04       		.byte	(.L228-.L229)/2
 2153 0013 38       		.byte	(.L230-.L229)/2
 2154 0014 19       		.byte	(.L231-.L229)/2
 2155 0015 04       		.byte	(.L228-.L229)/2
 2156 0016 07       		.byte	(.L232-.L229)/2
 2157 0017 00       		.p2align 1
 2158              	.L228:
 2159              		.loc 1 844 0 discriminator 2
 2160 0018 2248     		ldr	r0, .L243
 2161              	.LVL213:
 2162 001a FFF7FEFF 		bl	chSysHalt
 2163              	.LVL214:
 2164              	.L232:
 2165              		.loc 1 850 0
 2166 001e 0021     		movs	r1, #0
ARM GAS  /var/folders/km/q6jdms0143g2bddz5bhvdfd00000gn/T//ccukKLLL.s 			page 39


 2167 0020 2046     		mov	r0, r4
 2168 0022 FFF7FEFF 		bl	usb_lld_stall_in
 2169              	.LVL215:
 2170              		.loc 1 851 0
 2171 0026 0021     		movs	r1, #0
 2172 0028 2046     		mov	r0, r4
 2173 002a FFF7FEFF 		bl	usb_lld_stall_out
 2174              	.LVL216:
 2175              		.loc 1 852 0
 2176 002e 6368     		ldr	r3, [r4, #4]
 2177 0030 1B68     		ldr	r3, [r3]
 2178 0032 13B1     		cbz	r3, .L235
 2179              		.loc 1 852 0 is_stmt 0 discriminator 1
 2180 0034 0521     		movs	r1, #5
 2181 0036 2046     		mov	r0, r4
 2182 0038 9847     		blx	r3
 2183              	.LVL217:
 2184              	.L235:
 2185              		.loc 1 853 0 is_stmt 1
 2186 003a 0623     		movs	r3, #6
 2187 003c 84F83430 		strb	r3, [r4, #52]
 2188              	.L226:
 2189              		.loc 1 858 0
 2190 0040 38BD     		pop	{r3, r4, r5, pc}
 2191              	.LVL218:
 2192              	.L231:
 2193              	.LBB429:
 2194              	.LBB430:
 2195              		.loc 1 427 0
 2196 0042 C368     		ldr	r3, [r0, #12]
 2197 0044 5B69     		ldr	r3, [r3, #20]
 2198              		.loc 1 429 0
 2199 0046 0025     		movs	r5, #0
 2200              	.LBE430:
 2201              	.LBE429:
 2202              		.loc 1 816 0
 2203 0048 0522     		movs	r2, #5
 2204 004a 80F83420 		strb	r2, [r0, #52]
 2205              	.LVL219:
 2206              	.LBB432:
 2207              	.LBB431:
 2208              		.loc 1 434 0
 2209 004e 2946     		mov	r1, r5
 2210              	.LVL220:
 2211              		.loc 1 429 0
 2212 0050 1D70     		strb	r5, [r3]
 2213              		.loc 1 430 0
 2214 0052 DD60     		str	r5, [r3, #12]
 2215              		.loc 1 432 0
 2216 0054 C3E90155 		strd	r5, r5, [r3, #4]
 2217              		.loc 1 434 0
 2218 0058 FFF7FEFF 		bl	usb_lld_prepare_transmit
 2219              	.LVL221:
 2220              	.LBE431:
 2221              	.LBE432:
 2222              	.LBB433:
 2223              	.LBB434:
ARM GAS  /var/folders/km/q6jdms0143g2bddz5bhvdfd00000gn/T//ccukKLLL.s 			page 40


 2224              	.LBB435:
 2225              	.LBB436:
 2226              	.LBB437:
 2227              	.LBB438:
 2228              	.LBB439:
 2229              		.loc 2 546 0
 2230 005c 2023     		movs	r3, #32
 2231              		.syntax unified
 2232              	@ 546 "../../lib/ChibiOS/os/ext/CMSIS/include/core_cmFunc.h" 1
 2233 005e 83F31188 		MSR basepri, r3
 2234              	@ 0 "" 2
 2235              	.LVL222:
 2236              		.thumb
 2237              		.syntax unified
 2238              	.LBE439:
 2239              	.LBE438:
 2240              	.LBE437:
 2241              	.LBE436:
 2242              		.loc 3 389 0
 2243 0062 FFF7FEFF 		bl	_stats_start_measure_crit_isr
 2244              	.LVL223:
 2245              		.loc 3 390 0
 2246 0066 FFF7FEFF 		bl	_dbg_check_lock_from_isr
 2247              	.LVL224:
 2248              	.LBE435:
 2249              	.LBE434:
 2250              	.LBE433:
 2251              		.loc 1 820 0
 2252 006a 2946     		mov	r1, r5
 2253 006c 2046     		mov	r0, r4
 2254 006e FFF7FEFF 		bl	usbStartTransmitI
 2255              	.LVL225:
 2256              	.LBB440:
 2257              	.LBB441:
 2258              	.LBB442:
 2259              		.loc 3 408 0
 2260 0072 FFF7FEFF 		bl	_dbg_check_unlock_from_isr
 2261              	.LVL226:
 2262              		.loc 3 409 0
 2263 0076 FFF7FEFF 		bl	_stats_stop_measure_crit_isr
 2264              	.LVL227:
 2265              	.LBB443:
 2266              	.LBB444:
 2267              	.LBB445:
 2268              	.LBB446:
 2269              		.loc 2 546 0
 2270              		.syntax unified
 2271              	@ 546 "../../lib/ChibiOS/os/ext/CMSIS/include/core_cmFunc.h" 1
 2272 007a 85F31188 		MSR basepri, r5
 2273              	@ 0 "" 2
 2274              	.LVL228:
 2275              		.thumb
 2276              		.syntax unified
 2277              	.LBE446:
 2278              	.LBE445:
 2279              	.LBE444:
 2280              	.LBE443:
ARM GAS  /var/folders/km/q6jdms0143g2bddz5bhvdfd00000gn/T//ccukKLLL.s 			page 41


 2281              	.LBE442:
 2282              	.LBE441:
 2283              	.LBE440:
 2284              		.loc 1 858 0
 2285 007e 38BD     		pop	{r3, r4, r5, pc}
 2286              	.LVL229:
 2287              	.L230:
 2288              		.loc 1 830 0
 2289 0080 C368     		ldr	r3, [r0, #12]
 2290 0082 9B69     		ldr	r3, [r3, #24]
 2291 0084 9B68     		ldr	r3, [r3, #8]
 2292 0086 002B     		cmp	r3, #0
 2293 0088 DAD1     		bne	.L226
 2294              		.loc 1 834 0
 2295 008a 036C     		ldr	r3, [r0, #64]
 2296 008c 03B1     		cbz	r3, .L234
 2297              		.loc 1 835 0
 2298 008e 9847     		blx	r3
 2299              	.LVL230:
 2300              	.L234:
 2301              		.loc 1 837 0
 2302 0090 0023     		movs	r3, #0
 2303 0092 84F83430 		strb	r3, [r4, #52]
 2304              		.loc 1 858 0
 2305 0096 38BD     		pop	{r3, r4, r5, pc}
 2306              	.LVL231:
 2307              	.L227:
 2308              		.loc 1 856 0 discriminator 2
 2309 0098 0248     		ldr	r0, .L243
 2310              	.LVL232:
 2311              		.loc 1 858 0 discriminator 2
 2312 009a BDE83840 		pop	{r3, r4, r5, lr}
 2313              	.LVL233:
 2314              		.loc 1 856 0 discriminator 2
 2315 009e FFF7FEBF 		b	chSysHalt
 2316              	.LVL234:
 2317              	.L244:
 2318 00a2 00BF     		.align	2
 2319              	.L243:
 2320 00a4 00000000 		.word	.LANCHOR13
 2321              		.cfi_endproc
 2322              	.LFE276:
 2323              		.size	_usb_ep0out, .-_usb_ep0out
 2324              		.section	.rodata.__func__.7554,"a",%progbits
 2325              		.align	2
 2326              		.set	.LANCHOR1,. + 0
 2327              		.type	__func__.7554, %object
 2328              		.size	__func__.7554, 12
 2329              	__func__.7554:
 2330 0000 63685379 		.ascii	"chSysUnlock\000"
 2330      73556E6C 
 2330      6F636B00 
 2331              		.section	.rodata.__func__.9336,"a",%progbits
 2332              		.align	2
 2333              		.set	.LANCHOR0,. + 0
 2334              		.type	__func__.9336, %object
 2335              		.size	__func__.9336, 9
ARM GAS  /var/folders/km/q6jdms0143g2bddz5bhvdfd00000gn/T//ccukKLLL.s 			page 42


 2336              	__func__.9336:
 2337 0000 75736253 		.ascii	"usbStart\000"
 2337      74617274 
 2337      00
 2338              		.section	.rodata.__func__.9343,"a",%progbits
 2339              		.align	2
 2340              		.set	.LANCHOR2,. + 0
 2341              		.type	__func__.9343, %object
 2342              		.size	__func__.9343, 8
 2343              	__func__.9343:
 2344 0000 75736253 		.ascii	"usbStop\000"
 2344      746F7000 
 2345              		.section	.rodata.__func__.9349,"a",%progbits
 2346              		.align	2
 2347              		.set	.LANCHOR3,. + 0
 2348              		.type	__func__.9349, %object
 2349              		.size	__func__.9349, 17
 2350              	__func__.9349:
 2351 0000 75736249 		.ascii	"usbInitEndpointI\000"
 2351      6E697445 
 2351      6E64706F 
 2351      696E7449 
 2351      00
 2352              		.section	.rodata.__func__.9354,"a",%progbits
 2353              		.align	2
 2354              		.set	.LANCHOR4,. + 0
 2355              		.type	__func__.9354, %object
 2356              		.size	__func__.9354, 21
 2357              	__func__.9354:
 2358 0000 75736244 		.ascii	"usbDisableEndpointsI\000"
 2358      69736162 
 2358      6C65456E 
 2358      64706F69 
 2358      6E747349 
 2359              		.section	.rodata.__func__.9390,"a",%progbits
 2360              		.align	2
 2361              		.set	.LANCHOR5,. + 0
 2362              		.type	__func__.9390, %object
 2363              		.size	__func__.9390, 17
 2364              	__func__.9390:
 2365 0000 75736253 		.ascii	"usbStartReceiveI\000"
 2365      74617274 
 2365      52656365 
 2365      69766549 
 2365      00
 2366              		.section	.rodata.__func__.9395,"a",%progbits
 2367              		.align	2
 2368              		.set	.LANCHOR6,. + 0
 2369              		.type	__func__.9395, %object
 2370              		.size	__func__.9395, 18
 2371              	__func__.9395:
 2372 0000 75736253 		.ascii	"usbStartTransmitI\000"
 2372      74617274 
 2372      5472616E 
 2372      736D6974 
 2372      4900
 2373              		.section	.rodata.__func__.9400,"a",%progbits
ARM GAS  /var/folders/km/q6jdms0143g2bddz5bhvdfd00000gn/T//ccukKLLL.s 			page 43


 2374              		.align	2
 2375              		.set	.LANCHOR7,. + 0
 2376              		.type	__func__.9400, %object
 2377              		.size	__func__.9400, 17
 2378              	__func__.9400:
 2379 0000 75736253 		.ascii	"usbStallReceiveI\000"
 2379      74616C6C 
 2379      52656365 
 2379      69766549 
 2379      00
 2380              		.section	.rodata.__func__.9405,"a",%progbits
 2381              		.align	2
 2382              		.set	.LANCHOR8,. + 0
 2383              		.type	__func__.9405, %object
 2384              		.size	__func__.9405, 18
 2385              	__func__.9405:
 2386 0000 75736253 		.ascii	"usbStallTransmitI\000"
 2386      74616C6C 
 2386      5472616E 
 2386      736D6974 
 2386      4900
 2387              		.section	.rodata.__func__.9429,"a",%progbits
 2388              		.align	2
 2389              		.set	.LANCHOR12,. + 0
 2390              		.type	__func__.9429, %object
 2391              		.size	__func__.9429, 11
 2392              	__func__.9429:
 2393 0000 5F757362 		.ascii	"_usb_ep0in\000"
 2393      5F657030 
 2393      696E00
 2394              		.section	.rodata.__func__.9443,"a",%progbits
 2395              		.align	2
 2396              		.set	.LANCHOR13,. + 0
 2397              		.type	__func__.9443, %object
 2398              		.size	__func__.9443, 12
 2399              	__func__.9443:
 2400 0000 5F757362 		.ascii	"_usb_ep0out\000"
 2400      5F657030 
 2400      6F757400 
 2401              		.section	.rodata.active_status,"a",%progbits
 2402              		.align	2
 2403              		.set	.LANCHOR11,. + 0
 2404              		.type	active_status, %object
 2405              		.size	active_status, 2
 2406              	active_status:
 2407 0000 0000     		.space	2
 2408              		.section	.rodata.halted_status,"a",%progbits
 2409              		.align	2
 2410              		.set	.LANCHOR10,. + 0
 2411              		.type	halted_status, %object
 2412              		.size	halted_status, 2
 2413              	halted_status:
 2414 0000 01       		.byte	1
 2415 0001 00       		.byte	0
 2416              		.section	.rodata.zero_status,"a",%progbits
 2417              		.align	2
 2418              		.set	.LANCHOR9,. + 0
ARM GAS  /var/folders/km/q6jdms0143g2bddz5bhvdfd00000gn/T//ccukKLLL.s 			page 44


 2419              		.type	zero_status, %object
 2420              		.size	zero_status, 2
 2421              	zero_status:
 2422 0000 0000     		.space	2
 2423              		.text
 2424              	.Letext0:
 2425              		.file 4 "/Applications/Eclipse_e-puck2.app/Contents/Eclipse_e-puck2/Tools/gcc-arm-none-eabi-7-2017
 2426              		.file 5 "/Applications/Eclipse_e-puck2.app/Contents/Eclipse_e-puck2/Tools/gcc-arm-none-eabi-7-2017
 2427              		.file 6 "/Applications/Eclipse_e-puck2.app/Contents/Eclipse_e-puck2/Tools/gcc-arm-none-eabi-7-2017
 2428              		.file 7 "/Applications/Eclipse_e-puck2.app/Contents/Eclipse_e-puck2/Tools/gcc-arm-none-eabi-7-2017
 2429              		.file 8 "/Applications/Eclipse_e-puck2.app/Contents/Eclipse_e-puck2/Tools/gcc-arm-none-eabi-7-2017
 2430              		.file 9 "/Applications/Eclipse_e-puck2.app/Contents/Eclipse_e-puck2/Tools/gcc-arm-none-eabi-7-2017
 2431              		.file 10 "../../lib/ChibiOS/os/rt/ports/ARMCMx/compilers/GCC/chtypes.h"
 2432              		.file 11 "../../lib/ChibiOS/os/rt/include/chsystypes.h"
 2433              		.file 12 "../../lib/ChibiOS/os/rt/include/chschd.h"
 2434              		.file 13 "../../lib/ChibiOS/os/ext/CMSIS/include/core_cm4.h"
 2435              		.file 14 "../../lib/ChibiOS/os/ext/CMSIS/ST/system_stm32f4xx.h"
 2436              		.file 15 "../../lib/ChibiOS/os/ext/CMSIS/ST/stm32f407xx.h"
 2437              		.file 16 "../../lib/ChibiOS/os/rt/ports/ARMCMx/chcore.h"
 2438              		.file 17 "../../lib/ChibiOS/os/rt/ports/ARMCMx/chcore_v7m.h"
 2439              		.file 18 "../../lib/ChibiOS/os/rt/include/chdebug.h"
 2440              		.file 19 "../../lib/ChibiOS/os/rt/include/chtm.h"
 2441              		.file 20 "../../lib/ChibiOS/os/rt/include/chstats.h"
 2442              		.file 21 "../../lib/ChibiOS/os/rt/include/chsem.h"
 2443              		.file 22 "../../lib/ChibiOS/os/rt/include/chmtx.h"
 2444              		.file 23 "../../lib/ChibiOS/os/rt/include/chregistry.h"
 2445              		.file 24 "../../lib/ChibiOS/os/rt/include/chevents.h"
 2446              		.file 25 "../../lib/ChibiOS/os/rt/include/chqueues.h"
 2447              		.file 26 "../../lib/ChibiOS/os/hal/ports/STM32/STM32F4xx/stm32_dma.h"
 2448              		.file 27 "../../lib/ChibiOS/os/hal/ports/STM32/LLD/GPIOv2/pal_lld.h"
 2449              		.file 28 "../../lib/ChibiOS/os/hal/include/gpt.h"
 2450              		.file 29 "../../lib/ChibiOS/os/hal/ports/STM32/LLD/TIMv1/gpt_lld.h"
 2451              		.file 30 "../../lib/ChibiOS/os/hal/ports/STM32/LLD/TIMv1/stm32_tim.h"
 2452              		.file 31 "../../lib/ChibiOS/os/hal/include/i2c.h"
 2453              		.file 32 "../../lib/ChibiOS/os/hal/ports/STM32/LLD/I2Cv1/i2c_lld.h"
 2454              		.file 33 "../../lib/ChibiOS/os/hal/include/serial.h"
 2455              		.file 34 "../../lib/ChibiOS/os/hal/ports/STM32/LLD/USARTv1/serial_lld.h"
 2456              		.file 35 "../../lib/ChibiOS/os/hal/include/usb.h"
 2457              		.file 36 "../../lib/ChibiOS/os/hal/ports/STM32/LLD/OTGv1/usb_lld.h"
 2458              		.file 37 "../../lib/ChibiOS/os/hal/ports/STM32/LLD/OTGv1/stm32_otg.h"
 2459              		.file 38 "../../lib/ChibiOS/os/hal/osal/rt/osal.h"