ARM GAS  C:\Users\stoma\AppData\Local\Temp\ccLygOki.s 			page 1


   1              		.cpu cortex-m4
   2              		.eabi_attribute 27, 1
   3              		.eabi_attribute 28, 1
   4              		.eabi_attribute 20, 1
   5              		.eabi_attribute 21, 1
   6              		.eabi_attribute 23, 3
   7              		.eabi_attribute 24, 1
   8              		.eabi_attribute 25, 1
   9              		.eabi_attribute 26, 1
  10              		.eabi_attribute 30, 2
  11              		.eabi_attribute 34, 1
  12              		.eabi_attribute 18, 4
  13              		.file	"usb_lld.c"
  14              		.text
  15              	.Ltext0:
  16              		.cfi_sections	.debug_frame
  17              		.section	.text.otg_disable_ep.isra.0,"ax",%progbits
  18              		.align	1
  19              		.p2align 4,,15
  20              		.syntax unified
  21              		.thumb
  22              		.thumb_func
  23              		.fpu fpv4-sp-d16
  24              		.type	otg_disable_ep.isra.0, %function
  25              	otg_disable_ep.isra.0:
  26              	.LFB293:
  27              		.file 1 "../../lib/ChibiOS/os/hal/ports/STM32/LLD/OTGv1/usb_lld.c"
  28              		.loc 1 132 0
  29              		.cfi_startproc
  30              		@ args = 0, pretend = 0, frame = 0
  31              		@ frame_needed = 0, uses_anonymous_args = 0
  32              	.LVL0:
  33 0000 8B68     		ldr	r3, [r1, #8]
  34 0002 F0B5     		push	{r4, r5, r6, r7, lr}
  35              		.cfi_def_cfa_offset 20
  36              		.cfi_offset 4, -20
  37              		.cfi_offset 5, -16
  38              		.cfi_offset 6, -12
  39              		.cfi_offset 7, -8
  40              		.cfi_offset 14, -4
  41              		.loc 1 136 0
  42 0004 0024     		movs	r4, #0
  43 0006 03F1010C 		add	ip, r3, #1
  44              		.loc 1 147 0
  45 000a 2546     		mov	r5, r4
  46              		.loc 1 141 0
  47 000c 4FF0804E 		mov	lr, #1073741824
  48              		.loc 1 149 0
  49 0010 4FF0FF36 		mov	r6, #-1
  50 0014 14E0     		b	.L8
  51              	.LVL1:
  52              	.L2:
  53              		.loc 1 147 0
  54 0016 C2F80059 		str	r5, [r2, #2304]
  55              	.L4:
  56              		.loc 1 148 0
  57 001a C118     		adds	r1, r0, r3
ARM GAS  C:\Users\stoma\AppData\Local\Temp\ccLygOki.s 			page 2


  58 001c C1F81059 		str	r5, [r1, #2320]
  59              		.loc 1 149 0
  60 0020 C1F80869 		str	r6, [r1, #2312]
  61              		.loc 1 155 0
  62 0024 D2F8007B 		ldr	r7, [r2, #2816]
  63 0028 002F     		cmp	r7, #0
  64 002a 17DB     		blt	.L16
  65              		.loc 1 162 0
  66 002c C2F8005B 		str	r5, [r2, #2816]
  67              	.L7:
  68              		.loc 1 163 0
  69 0030 0344     		add	r3, r3, r0
  70              		.loc 1 136 0
  71 0032 0134     		adds	r4, r4, #1
  72              	.LVL2:
  73 0034 6445     		cmp	r4, ip
  74              		.loc 1 163 0
  75 0036 C3F8105B 		str	r5, [r3, #2832]
  76              		.loc 1 164 0
  77 003a C3F8086B 		str	r6, [r3, #2824]
  78              		.loc 1 136 0
  79 003e 14D0     		beq	.L17
  80              	.LVL3:
  81              	.L8:
  82 0040 6301     		lsls	r3, r4, #5
  83 0042 C218     		adds	r2, r0, r3
  84              		.loc 1 140 0
  85 0044 D2F80019 		ldr	r1, [r2, #2304]
  86 0048 0029     		cmp	r1, #0
  87 004a E4DA     		bge	.L2
  88              		.loc 1 141 0
  89 004c C2F800E9 		str	lr, [r2, #2304]
  90              		.loc 1 143 0
  91 0050 1746     		mov	r7, r2
  92              	.L3:
  93 0052 D7F80819 		ldr	r1, [r7, #2312]
  94 0056 8907     		lsls	r1, r1, #30
  95 0058 FBD5     		bpl	.L3
  96 005a DEE7     		b	.L4
  97              	.L16:
  98              		.loc 1 156 0
  99 005c C2F800EB 		str	lr, [r2, #2816]
 100              	.L6:
 101              		.loc 1 158 0
 102 0060 D1F8082B 		ldr	r2, [r1, #2824]
 103 0064 D206     		lsls	r2, r2, #27
 104 0066 FBD5     		bpl	.L6
 105 0068 E2E7     		b	.L7
 106              	.L17:
 107              		.loc 1 166 0
 108 006a 4FF00113 		mov	r3, #65537
 109 006e C0F81C38 		str	r3, [r0, #2076]
 110              		.loc 1 167 0
 111 0072 F0BD     		pop	{r4, r5, r6, r7, pc}
 112              		.cfi_endproc
 113              	.LFE293:
 114              		.size	otg_disable_ep.isra.0, .-otg_disable_ep.isra.0
ARM GAS  C:\Users\stoma\AppData\Local\Temp\ccLygOki.s 			page 3


 115              		.section	.text.usb_lld_pump,"ax",%progbits
 116              		.align	1
 117              		.p2align 4,,15
 118              		.global	usb_lld_pump
 119              		.syntax unified
 120              		.thumb
 121              		.thumb_func
 122              		.fpu fpv4-sp-d16
 123              		.type	usb_lld_pump, %function
 124              	usb_lld_pump:
 125              	.LFB292:
 126              		.loc 1 1294 0
 127              		.cfi_startproc
 128              		@ args = 0, pretend = 0, frame = 24
 129              		@ frame_needed = 0, uses_anonymous_args = 0
 130              	.LVL4:
 131 0000 2DE9F04F 		push	{r4, r5, r6, r7, r8, r9, r10, fp, lr}
 132              		.cfi_def_cfa_offset 36
 133              		.cfi_offset 4, -36
 134              		.cfi_offset 5, -32
 135              		.cfi_offset 6, -28
 136              		.cfi_offset 7, -24
 137              		.cfi_offset 8, -20
 138              		.cfi_offset 9, -16
 139              		.cfi_offset 10, -12
 140              		.cfi_offset 11, -8
 141              		.cfi_offset 14, -4
 142              	.LBB421:
 143              	.LBB422:
 144              		.file 2 "../../lib/ChibiOS/os/rt/include/chregistry.h"
 145              		.loc 2 135 0
 146 0004 844E     		ldr	r6, .L136
 147 0006 8549     		ldr	r1, .L136+4
 148 0008 B269     		ldr	r2, [r6, #24]
 149              	.LBE422:
 150              	.LBE421:
 151              		.loc 1 1296 0
 152 000a D0F85080 		ldr	r8, [r0, #80]
 153              	.LBB424:
 154              	.LBB423:
 155              		.loc 2 135 0
 156 000e 9161     		str	r1, [r2, #24]
 157              	.LBE423:
 158              	.LBE424:
 159              		.loc 1 1294 0
 160 0010 87B0     		sub	sp, sp, #28
 161              		.cfi_def_cfa_offset 64
 162              		.loc 1 1294 0
 163 0012 8246     		mov	r10, r0
 164              	.LVL5:
 165              	.LBB425:
 166              	.LBB426:
 167              	.LBB427:
 168              	.LBB428:
 169              	.LBB429:
 170              	.LBB430:
 171              		.file 3 "../../lib/ChibiOS/os/ext/CMSIS/include/core_cmFunc.h"
ARM GAS  C:\Users\stoma\AppData\Local\Temp\ccLygOki.s 			page 4


 172              		.loc 3 546 0
 173 0014 2023     		movs	r3, #32
 174              		.syntax unified
 175              	@ 546 "../../lib/ChibiOS/os/ext/CMSIS/include/core_cmFunc.h" 1
 176 0016 83F31188 		MSR basepri, r3
 177              	@ 0 "" 2
 178              	.LVL6:
 179              		.thumb
 180              		.syntax unified
 181              	.LBE430:
 182              	.LBE429:
 183              	.LBE428:
 184              		.file 4 "../../lib/ChibiOS/os/rt/include/chsys.h"
 185              		.loc 4 349 0
 186 001a FFF7FEFF 		bl	_stats_start_measure_crit_thd
 187              	.LVL7:
 188              		.loc 4 350 0
 189 001e FFF7FEFF 		bl	_dbg_check_lock
 190              	.LVL8:
 191 0022 0AF16003 		add	r3, r10, #96
 192              	.LBE427:
 193              	.LBE426:
 194              	.LBE425:
 195              	.LBB431:
 196              	.LBB432:
 197              	.LBB433:
 198              	.LBB434:
 199              	.LBB435:
 200              	.LBB436:
 201              	.LBB437:
 202              		.loc 3 546 0
 203 0026 5746     		mov	r7, r10
 204 0028 0593     		str	r3, [sp, #20]
 205 002a C246     		mov	r10, r8
 206              	.LVL9:
 207              	.L73:
 208              	.LBE437:
 209              	.LBE436:
 210              	.LBE435:
 211              	.LBE434:
 212              	.LBE433:
 213              	.LBE432:
 214              		.loc 1 1307 0
 215 002c 3B78     		ldrb	r3, [r7]	@ zero_extendqisi2
 216 002e 012B     		cmp	r3, #1
 217 0030 05D0     		beq	.L19
 218              		.loc 1 1307 0 is_stmt 0 discriminator 1
 219 0032 FB6D     		ldr	r3, [r7, #92]
 220 0034 63B9     		cbnz	r3, .L20
 221              		.loc 1 1308 0 is_stmt 1
 222 0036 DAF81430 		ldr	r3, [r10, #20]
 223 003a DA06     		lsls	r2, r3, #27
 224 003c 08D4     		bmi	.L20
 225              	.L19:
 226              		.loc 1 1309 0
 227 003e DAF81830 		ldr	r3, [r10, #24]
 228              	.LBB443:
ARM GAS  C:\Users\stoma\AppData\Local\Temp\ccLygOki.s 			page 5


 229              	.LBB444:
 230              		.file 5 "../../lib/ChibiOS/os/hal/osal/rt/osal.h"
 231              		.loc 5 642 0
 232 0042 0598     		ldr	r0, [sp, #20]
 233              	.LBE444:
 234              	.LBE443:
 235              		.loc 1 1309 0
 236 0044 43F01003 		orr	r3, r3, #16
 237 0048 CAF81830 		str	r3, [r10, #24]
 238              	.LBB446:
 239              	.LBB445:
 240              		.loc 5 642 0
 241 004c FFF7FEFF 		bl	chThdSuspendS
 242              	.LVL10:
 243              	.L20:
 244              	.LBE445:
 245              	.LBE446:
 246              	.LBB447:
 247              	.LBB442:
 248              	.LBB441:
 249              		.loc 4 360 0
 250 0050 FFF7FEFF 		bl	_dbg_check_unlock
 251              	.LVL11:
 252              		.loc 4 361 0
 253 0054 FFF7FEFF 		bl	_stats_stop_measure_crit_thd
 254              	.LVL12:
 255              		.loc 4 367 0
 256 0058 3368     		ldr	r3, [r6]
 257 005a B342     		cmp	r3, r6
 258 005c 07D0     		beq	.L21
 259 005e B269     		ldr	r2, [r6, #24]
 260 0060 9B68     		ldr	r3, [r3, #8]
 261 0062 9268     		ldr	r2, [r2, #8]
 262 0064 9A42     		cmp	r2, r3
 263 0066 02D2     		bcs	.L21
 264 0068 6D48     		ldr	r0, .L136+8
 265 006a FFF7FEFF 		bl	chSysHalt
 266              	.LVL13:
 267              	.L21:
 268              	.LBB440:
 269              	.LBB439:
 270              	.LBB438:
 271              		.loc 3 546 0
 272 006e 0023     		movs	r3, #0
 273              		.syntax unified
 274              	@ 546 "../../lib/ChibiOS/os/ext/CMSIS/include/core_cmFunc.h" 1
 275 0070 83F31188 		MSR basepri, r3
 276              	@ 0 "" 2
 277              	.LVL14:
 278              		.thumb
 279              		.syntax unified
 280              	.LBE438:
 281              	.LBE439:
 282              	.LBE440:
 283              	.LBE441:
 284              	.LBE442:
 285              	.LBE447:
ARM GAS  C:\Users\stoma\AppData\Local\Temp\ccLygOki.s 			page 6


 286              		.loc 1 1315 0
 287 0074 9B46     		mov	fp, r3
 288              	.LVL15:
 289              	.L23:
 290              		.loc 1 1318 0
 291 0076 DAF81430 		ldr	r3, [r10, #20]
 292 007a DB06     		lsls	r3, r3, #27
 293 007c 5AD5     		bpl	.L129
 294              	.L44:
 295              	.LVL16:
 296              	.LBB448:
 297              	.LBB449:
 298              		.loc 1 437 0
 299 007e 396D     		ldr	r1, [r7, #80]
 300 0080 0B6A     		ldr	r3, [r1, #32]
 301              	.LVL17:
 302              		.loc 1 438 0
 303 0082 03F4F012 		and	r2, r3, #1966080
 304 0086 B2F5802F 		cmp	r2, #262144
 305 008a 24D0     		beq	.L24
 306 008c B2F5402F 		cmp	r2, #786432
 307 0090 F1D1     		bne	.L23
 308              	.LVL18:
 309              		.loc 1 443 0
 310 0092 03F00F02 		and	r2, r3, #15
 311              	.LVL19:
 312              		.loc 1 444 0
 313 0096 07EB8202 		add	r2, r7, r2, lsl #2
 314              	.LVL20:
 315              		.loc 1 442 0
 316 009a C3F30A13 		ubfx	r3, r3, #4, #11
 317              	.LVL21:
 318              		.loc 1 444 0
 319 009e D268     		ldr	r2, [r2, #12]
 320              	.LBB450:
 321              	.LBB451:
 322              		.loc 1 356 0
 323 00a0 0333     		adds	r3, r3, #3
 324              		.loc 1 358 0
 325 00a2 9B08     		lsrs	r3, r3, #2
 326              	.LBE451:
 327              	.LBE450:
 328              		.loc 1 444 0
 329 00a4 146A     		ldr	r4, [r2, #32]
 330              	.LVL22:
 331              	.LBB456:
 332              	.LBB455:
 333              		.loc 1 358 0
 334 00a6 E6D0     		beq	.L23
 335 00a8 01F58051 		add	r1, r1, #4096
 336              	.LVL23:
 337              		.loc 1 357 0
 338 00ac 0222     		movs	r2, #2
 339              	.LVL24:
 340              	.LBB452:
 341              		.loc 1 359 0
 342 00ae 0D68     		ldr	r5, [r1]
ARM GAS  C:\Users\stoma\AppData\Local\Temp\ccLygOki.s 			page 7


 343              	.LVL25:
 344 00b0 581E     		subs	r0, r3, #1
 345              		.loc 1 360 0
 346 00b2 4AB1     		cbz	r2, .L130
 347              	.L28:
 348              		.loc 1 365 0
 349 00b4 0346     		mov	r3, r0
 350              		.loc 1 363 0
 351 00b6 44F8045B 		str	r5, [r4], #4
 352              	.LVL26:
 353              		.loc 1 365 0
 354 00ba 013A     		subs	r2, r2, #1
 355              	.LVL27:
 356              	.LBE452:
 357              		.loc 1 358 0
 358 00bc 002B     		cmp	r3, #0
 359 00be DAD0     		beq	.L23
 360              	.LVL28:
 361              	.L128:
 362              	.LBB453:
 363              		.loc 1 359 0
 364 00c0 0D68     		ldr	r5, [r1]
 365              	.LVL29:
 366 00c2 581E     		subs	r0, r3, #1
 367              		.loc 1 360 0
 368 00c4 002A     		cmp	r2, #0
 369 00c6 F5D1     		bne	.L28
 370              	.L130:
 371              	.LVL30:
 372              	.LBE453:
 373              		.loc 1 358 0
 374 00c8 0028     		cmp	r0, #0
 375 00ca D4D0     		beq	.L23
 376 00cc 023B     		subs	r3, r3, #2
 377              	.LBB454:
 378              		.loc 1 359 0
 379 00ce 0868     		ldr	r0, [r1]
 380              	.LVL31:
 381              	.LBE454:
 382              		.loc 1 358 0
 383 00d0 002B     		cmp	r3, #0
 384 00d2 F5D1     		bne	.L128
 385 00d4 CFE7     		b	.L23
 386              	.LVL32:
 387              	.L24:
 388              	.LBE455:
 389              	.LBE456:
 390              		.loc 1 449 0
 391 00d6 03F00F08 		and	r8, r3, #15
 392 00da 07EB8808 		add	r8, r7, r8, lsl #2
 393              		.loc 1 448 0
 394 00de C3F30A14 		ubfx	r4, r3, #4, #11
 395              	.LVL33:
 396              		.loc 1 450 0
 397 00e2 D8F80C30 		ldr	r3, [r8, #12]
 398              	.LVL34:
 399 00e6 9B69     		ldr	r3, [r3, #24]
ARM GAS  C:\Users\stoma\AppData\Local\Temp\ccLygOki.s 			page 8


 400 00e8 1A78     		ldrb	r2, [r3]	@ zero_extendqisi2
 401 00ea DD68     		ldr	r5, [r3, #12]
 402 00ec 002A     		cmp	r2, #0
 403 00ee 42D1     		bne	.L131
 404              		.loc 1 461 0
 405 00f0 D3E9012C 		ldrd	r2, ip, [r3, #4]
 406              	.LVL35:
 407              	.LBB457:
 408              	.LBB458:
 409              		.loc 1 357 0
 410 00f4 D01C     		adds	r0, r2, #3
 411              		.loc 1 356 0
 412 00f6 E21C     		adds	r2, r4, #3
 413              	.LVL36:
 414              		.loc 1 357 0
 415 00f8 A0EB0C00 		sub	r0, r0, ip
 416              		.loc 1 358 0
 417 00fc 9208     		lsrs	r2, r2, #2
 418              		.loc 1 357 0
 419 00fe 4FEA9000 		lsr	r0, r0, #2
 420              	.LVL37:
 421              		.loc 1 358 0
 422 0102 0FD0     		beq	.L40
 423 0104 01F58051 		add	r1, r1, #4096
 424              	.LVL38:
 425 0108 A846     		mov	r8, r5
 426 010a 9946     		mov	r9, r3
 427 010c 8E46     		mov	lr, r1
 428              	.LVL39:
 429              	.L43:
 430              	.LBB459:
 431              		.loc 1 359 0
 432 010e DEF80030 		ldr	r3, [lr]
 433              	.LVL40:
 434 0112 511E     		subs	r1, r2, #1
 435              		.loc 1 360 0
 436 0114 38B3     		cbz	r0, .L132
 437              		.loc 1 365 0
 438 0116 0A46     		mov	r2, r1
 439              	.LVL41:
 440              		.loc 1 363 0
 441 0118 48F8043B 		str	r3, [r8], #4
 442              	.LVL42:
 443              		.loc 1 365 0
 444 011c 0138     		subs	r0, r0, #1
 445              	.LVL43:
 446              	.LBE459:
 447              		.loc 1 358 0
 448 011e 002A     		cmp	r2, #0
 449 0120 F5D1     		bne	.L43
 450              	.LVL44:
 451              	.L125:
 452 0122 4B46     		mov	r3, r9
 453              	.LVL45:
 454              	.L40:
 455              	.LBE458:
 456              	.LBE457:
ARM GAS  C:\Users\stoma\AppData\Local\Temp\ccLygOki.s 			page 9


 457              		.loc 1 462 0
 458 0124 2544     		add	r5, r5, r4
 459 0126 DD60     		str	r5, [r3, #12]
 460              	.L39:
 461              		.loc 1 464 0
 462 0128 6444     		add	r4, r4, ip
 463              	.LVL46:
 464 012a 9C60     		str	r4, [r3, #8]
 465              	.LBE449:
 466              	.LBE448:
 467              		.loc 1 1318 0
 468 012c DAF81430 		ldr	r3, [r10, #20]
 469 0130 DB06     		lsls	r3, r3, #27
 470 0132 A4D4     		bmi	.L44
 471              	.LVL47:
 472              	.L129:
 473              		.loc 1 1322 0
 474 0134 4FF00108 		mov	r8, #1
 475              		.loc 1 1323 0
 476 0138 FB6D     		ldr	r3, [r7, #92]
 477              		.loc 1 1322 0
 478 013a 08FA0BF8 		lsl	r8, r8, fp
 479              	.LVL48:
 480              		.loc 1 1323 0
 481 013e 18EA030F 		tst	r8, r3
 482 0142 6FD1     		bne	.L122
 483 0144 0BF10103 		add	r3, fp, #1
 484 0148 0193     		str	r3, [sp, #4]
 485              	.LVL49:
 486              	.L45:
 487              		.loc 1 1315 0 discriminator 2
 488 014a 7B6D     		ldr	r3, [r7, #84]
 489 014c 9DF804B0 		ldrb	fp, [sp, #4]	@ zero_extendqisi2
 490              	.LVL50:
 491 0150 9B68     		ldr	r3, [r3, #8]
 492 0152 9B45     		cmp	fp, r3
 493 0154 8FD9     		bls	.L23
 494              	.LVL51:
 495              	.LBB484:
 496              	.LBB485:
 497              	.LBB486:
 498              	.LBB487:
 499              	.LBB488:
 500              	.LBB489:
 501              		.loc 3 546 0
 502 0156 2023     		movs	r3, #32
 503              		.syntax unified
 504              	@ 546 "../../lib/ChibiOS/os/ext/CMSIS/include/core_cmFunc.h" 1
 505 0158 83F31188 		MSR basepri, r3
 506              	@ 0 "" 2
 507              	.LVL52:
 508              		.thumb
 509              		.syntax unified
 510              	.LBE489:
 511              	.LBE488:
 512              	.LBE487:
 513              		.loc 4 349 0
ARM GAS  C:\Users\stoma\AppData\Local\Temp\ccLygOki.s 			page 10


 514 015c FFF7FEFF 		bl	_stats_start_measure_crit_thd
 515              	.LVL53:
 516              		.loc 4 350 0
 517 0160 FFF7FEFF 		bl	_dbg_check_lock
 518              	.LVL54:
 519 0164 62E7     		b	.L73
 520              	.LVL55:
 521              	.L132:
 522              	.LBE486:
 523              	.LBE485:
 524              	.LBE484:
 525              	.LBB490:
 526              	.LBB483:
 527              	.LBB462:
 528              	.LBB461:
 529              		.loc 1 358 0
 530 0166 0029     		cmp	r1, #0
 531 0168 DBD0     		beq	.L125
 532 016a 023A     		subs	r2, r2, #2
 533              	.LVL56:
 534              	.LBB460:
 535              		.loc 1 359 0
 536 016c DEF80030 		ldr	r3, [lr]
 537              	.LVL57:
 538              	.LBE460:
 539              		.loc 1 358 0
 540 0170 002A     		cmp	r2, #0
 541 0172 CCD1     		bne	.L43
 542 0174 D5E7     		b	.L125
 543              	.LVL58:
 544              	.L131:
 545              	.LBE461:
 546              	.LBE462:
 547              	.LBB463:
 548              	.LBB464:
 549              		.loc 1 386 0
 550 0176 3CB3     		cbz	r4, .L32
 551 0178 6A69     		ldr	r2, [r5, #20]
 552 017a 01F58051 		add	r1, r1, #4096
 553              	.LVL59:
 554 017e A446     		mov	ip, r4
 555              	.LVL60:
 556              	.L33:
 557              	.LBB465:
 558              		.loc 1 390 0
 559 0180 BCF1030F 		cmp	ip, #3
 560 0184 07D9     		bls	.L34
 561              	.LVL61:
 562              	.L133:
 563              	.LBB466:
 564              		.loc 1 396 0
 565 0186 2B69     		ldr	r3, [r5, #16]
 566 0188 9342     		cmp	r3, r2
 567 018a 04D8     		bhi	.L34
 568              		.loc 1 397 0
 569 018c EA68     		ldr	r2, [r5, #12]
 570 018e 6A61     		str	r2, [r5, #20]
ARM GAS  C:\Users\stoma\AppData\Local\Temp\ccLygOki.s 			page 11


 571              	.LVL62:
 572              	.LBE466:
 573              		.loc 1 390 0
 574 0190 BCF1030F 		cmp	ip, #3
 575 0194 F7D8     		bhi	.L133
 576              	.LVL63:
 577              	.L34:
 578              		.loc 1 408 0
 579 0196 D1F800E0 		ldr	lr, [r1]
 580              	.LVL64:
 581 019a 0023     		movs	r3, #0
 582              	.LVL65:
 583              	.L37:
 584              		.loc 1 411 0
 585 019c 2EFA03F0 		lsr	r0, lr, r3
 586 01a0 02F10109 		add	r9, r2, #1
 587 01a4 C5F81490 		str	r9, [r5, #20]
 588 01a8 1070     		strb	r0, [r2]
 589              		.loc 1 412 0
 590 01aa D5E90420 		ldrd	r2, r0, [r5, #16]
 591 01ae 9042     		cmp	r0, r2
 592              		.loc 1 413 0
 593 01b0 24BF     		itt	cs
 594 01b2 EA68     		ldrcs	r2, [r5, #12]
 595 01b4 6A61     		strcs	r2, [r5, #20]
 596              		.loc 1 410 0
 597 01b6 BCF1010C 		subs	ip, ip, #1
 598              	.LVL66:
 599 01ba 03F10803 		add	r3, r3, #8
 600 01be 03D0     		beq	.L32
 601 01c0 202B     		cmp	r3, #32
 602 01c2 6A69     		ldr	r2, [r5, #20]
 603 01c4 EAD1     		bne	.L37
 604 01c6 DBE7     		b	.L33
 605              	.LVL67:
 606              	.L32:
 607              	.LBE465:
 608              	.LBB467:
 609              	.LBB468:
 610              	.LBB469:
 611              	.LBB470:
 612              	.LBB471:
 613              	.LBB472:
 614              		.loc 3 546 0
 615 01c8 2023     		movs	r3, #32
 616              		.syntax unified
 617              	@ 546 "../../lib/ChibiOS/os/ext/CMSIS/include/core_cmFunc.h" 1
 618 01ca 83F31188 		MSR basepri, r3
 619              	@ 0 "" 2
 620              	.LVL68:
 621              		.thumb
 622              		.syntax unified
 623              	.LBE472:
 624              	.LBE471:
 625              	.LBE470:
 626              		.loc 4 349 0
 627 01ce FFF7FEFF 		bl	_stats_start_measure_crit_thd
ARM GAS  C:\Users\stoma\AppData\Local\Temp\ccLygOki.s 			page 12


 628              	.LVL69:
 629              		.loc 4 350 0
 630 01d2 FFF7FEFF 		bl	_dbg_check_lock
 631              	.LVL70:
 632              	.LBE469:
 633              	.LBE468:
 634              	.LBE467:
 635              		.loc 1 421 0
 636 01d6 AB68     		ldr	r3, [r5, #8]
 637 01d8 2344     		add	r3, r3, r4
 638 01da AB60     		str	r3, [r5, #8]
 639              	.LVL71:
 640              	.LBB473:
 641              	.LBB474:
 642              		.loc 5 764 0
 643 01dc 2846     		mov	r0, r5
 644 01de 0021     		movs	r1, #0
 645 01e0 FFF7FEFF 		bl	chThdDequeueAllI
 646              	.LVL72:
 647              	.LBE474:
 648              	.LBE473:
 649              	.LBB475:
 650              	.LBB476:
 651              		.loc 5 554 0
 652 01e4 FFF7FEFF 		bl	chSchRescheduleS
 653              	.LVL73:
 654              	.LBE476:
 655              	.LBE475:
 656              	.LBB477:
 657              	.LBB478:
 658              	.LBB479:
 659              		.loc 4 360 0
 660 01e8 FFF7FEFF 		bl	_dbg_check_unlock
 661              	.LVL74:
 662              		.loc 4 361 0
 663 01ec FFF7FEFF 		bl	_stats_stop_measure_crit_thd
 664              	.LVL75:
 665              		.loc 4 367 0
 666 01f0 3368     		ldr	r3, [r6]
 667 01f2 B342     		cmp	r3, r6
 668 01f4 07D0     		beq	.L38
 669 01f6 B269     		ldr	r2, [r6, #24]
 670 01f8 9B68     		ldr	r3, [r3, #8]
 671 01fa 9268     		ldr	r2, [r2, #8]
 672 01fc 9A42     		cmp	r2, r3
 673 01fe 02D2     		bcs	.L38
 674 0200 0748     		ldr	r0, .L136+8
 675 0202 FFF7FEFF 		bl	chSysHalt
 676              	.LVL76:
 677              	.L38:
 678              	.LBB480:
 679              	.LBB481:
 680              	.LBB482:
 681              		.loc 3 546 0
 682 0206 0023     		movs	r3, #0
 683              		.syntax unified
 684              	@ 546 "../../lib/ChibiOS/os/ext/CMSIS/include/core_cmFunc.h" 1
ARM GAS  C:\Users\stoma\AppData\Local\Temp\ccLygOki.s 			page 13


 685 0208 83F31188 		MSR basepri, r3
 686              	@ 0 "" 2
 687              	.LVL77:
 688              		.thumb
 689              		.syntax unified
 690 020c D8F80C30 		ldr	r3, [r8, #12]
 691 0210 9B69     		ldr	r3, [r3, #24]
 692 0212 D3F808C0 		ldr	ip, [r3, #8]
 693 0216 87E7     		b	.L39
 694              	.L137:
 695              		.align	2
 696              	.L136:
 697 0218 00000000 		.word	ch
 698 021c 00000000 		.word	.LC0
 699 0220 00000000 		.word	.LANCHOR0
 700              	.LVL78:
 701              	.L122:
 702              	.LBE482:
 703              	.LBE481:
 704              	.LBE480:
 705              	.LBE479:
 706              	.LBE478:
 707              	.LBE477:
 708              	.LBE464:
 709              	.LBE463:
 710              	.LBE483:
 711              	.LBE490:
 712              	.LBB491:
 713              	.LBB492:
 714              	.LBB493:
 715              	.LBB494:
 716              	.LBB495:
 717              	.LBB496:
 718              	.LBB497:
 719 0224 2023     		movs	r3, #32
 720              		.syntax unified
 721              	@ 546 "../../lib/ChibiOS/os/ext/CMSIS/include/core_cmFunc.h" 1
 722 0226 83F31188 		MSR basepri, r3
 723              	@ 0 "" 2
 724              	.LVL79:
 725              		.thumb
 726              		.syntax unified
 727              	.LBE497:
 728              	.LBE496:
 729              	.LBE495:
 730              		.loc 4 349 0
 731 022a FFF7FEFF 		bl	_stats_start_measure_crit_thd
 732              	.LVL80:
 733              		.loc 4 350 0
 734 022e FFF7FEFF 		bl	_dbg_check_lock
 735              	.LVL81:
 736              	.LBE494:
 737              	.LBE493:
 738              	.LBE492:
 739              		.loc 1 1334 0
 740 0232 DAF80820 		ldr	r2, [r10, #8]
 741              		.loc 1 1335 0
ARM GAS  C:\Users\stoma\AppData\Local\Temp\ccLygOki.s 			page 14


 742 0236 FB6D     		ldr	r3, [r7, #92]
 743              		.loc 1 1334 0
 744 0238 22F00102 		bic	r2, r2, #1
 745              		.loc 1 1335 0
 746 023c 23EA0803 		bic	r3, r3, r8
 747              		.loc 1 1334 0
 748 0240 CAF80820 		str	r2, [r10, #8]
 749              		.loc 1 1335 0
 750 0244 FB65     		str	r3, [r7, #92]
 751              	.LBB498:
 752              	.LBB499:
 753              	.LBB500:
 754              		.loc 4 360 0
 755 0246 FFF7FEFF 		bl	_dbg_check_unlock
 756              	.LVL82:
 757              		.loc 4 361 0
 758 024a FFF7FEFF 		bl	_stats_stop_measure_crit_thd
 759              	.LVL83:
 760              		.loc 4 367 0
 761 024e 3368     		ldr	r3, [r6]
 762 0250 B342     		cmp	r3, r6
 763 0252 07D0     		beq	.L46
 764 0254 B269     		ldr	r2, [r6, #24]
 765 0256 9B68     		ldr	r3, [r3, #8]
 766 0258 9268     		ldr	r2, [r2, #8]
 767 025a 9A42     		cmp	r2, r3
 768 025c 02D2     		bcs	.L46
 769 025e 8848     		ldr	r0, .L138
 770 0260 FFF7FEFF 		bl	chSysHalt
 771              	.LVL84:
 772              	.L46:
 773              	.LBB501:
 774              	.LBB502:
 775              	.LBB503:
 776              		.loc 3 546 0
 777 0264 0023     		movs	r3, #0
 778              		.syntax unified
 779              	@ 546 "../../lib/ChibiOS/os/ext/CMSIS/include/core_cmFunc.h" 1
 780 0266 83F31188 		MSR basepri, r3
 781              	@ 0 "" 2
 782              	.LVL85:
 783              		.thumb
 784              		.syntax unified
 785 026a 07EB8B09 		add	r9, r7, fp, lsl #2
 786              	.LBE503:
 787              	.LBE502:
 788              	.LBE501:
 789              	.LBE500:
 790              	.LBE499:
 791              	.LBE498:
 792              	.LBB504:
 793              	.LBB505:
 794              		.loc 1 488 0
 795 026e D9F80C10 		ldr	r1, [r9, #12]
 796 0272 4A69     		ldr	r2, [r1, #20]
 797 0274 D2E9013C 		ldrd	r3, ip, [r2, #4]
 798 0278 9C45     		cmp	ip, r3
ARM GAS  C:\Users\stoma\AppData\Local\Temp\ccLygOki.s 			page 15


 799 027a 80F0DF80 		bcs	.L134
 800              		.loc 1 498 0
 801 027e 386D     		ldr	r0, [r7, #80]
 802              		.loc 1 493 0
 803 0280 0D8A     		ldrh	r5, [r1, #16]
 804              		.loc 1 498 0
 805 0282 4FEA4B14 		lsl	r4, fp, #5
 806 0286 0294     		str	r4, [sp, #8]
 807 0288 0419     		adds	r4, r0, r4
 808              		.loc 1 492 0
 809 028a A3EB0C03 		sub	r3, r3, ip
 810              	.LVL86:
 811              		.loc 1 498 0
 812 028e D4F81849 		ldr	r4, [r4, #2328]
 813 0292 9D42     		cmp	r5, r3
 814 0294 28BF     		it	cs
 815 0296 1D46     		movcs	r5, r3
 816              	.LVL87:
 817 0298 A3B2     		uxth	r3, r4
 818 029a B5EB830F 		cmp	r5, r3, lsl #2
 819 029e 00F2DE80 		bhi	.L49
 820 02a2 0BF10103 		add	r3, fp, #1
 821 02a6 CDE903A8 		strd	r10, r8, [sp, #12]
 822 02aa 0193     		str	r3, [sp, #4]
 823 02ac DDF808A0 		ldr	r10, [sp, #8]
 824 02b0 1B03     		lsls	r3, r3, #12
 825 02b2 9846     		mov	r8, r3
 826              	.LVL88:
 827              	.L50:
 828              		.loc 1 505 0
 829 02b4 1378     		ldrb	r3, [r2]	@ zero_extendqisi2
 830 02b6 D468     		ldr	r4, [r2, #12]
 831 02b8 00EB080C 		add	ip, r0, r8
 832 02bc 002B     		cmp	r3, #0
 833 02be 00F0A680 		beq	.L53
 834              	.LVL89:
 835              	.LBB506:
 836              	.LBB507:
 837              		.loc 1 274 0
 838 02c2 25B3     		cbz	r5, .L54
 839 02c4 D4F810B0 		ldr	fp, [r4, #16]
 840              	.LBB508:
 841              	.LBB509:
 842              		.loc 1 280 0
 843 02c8 0295     		str	r5, [sp, #8]
 844 02ca 2A46     		mov	r2, r5
 845              	.LVL90:
 846              	.L64:
 847              	.LBE509:
 848              		.loc 1 278 0
 849 02cc 5FEA920E 		lsrs	lr, r2, #2
 850              	.LVL91:
 851 02d0 A369     		ldr	r3, [r4, #24]
 852 02d2 00F08280 		beq	.L55
 853              	.LVL92:
 854              	.LBB514:
 855              		.loc 1 280 0
ARM GAS  C:\Users\stoma\AppData\Local\Temp\ccLygOki.s 			page 16


 856 02d6 BBEB0301 		subs	r1, fp, r3
 857 02da 48BF     		it	mi
 858 02dc 0331     		addmi	r1, r1, #3
 859 02de 8810     		asrs	r0, r1, #2
 860              		.loc 1 282 0
 861 02e0 7045     		cmp	r0, lr
 862 02e2 28BF     		it	cs
 863 02e4 7046     		movcs	r0, lr
 864              	.LVL93:
 865 02e6 8100     		lsls	r1, r0, #2
 866 02e8 521A     		subs	r2, r2, r1
 867              	.LVL94:
 868              	.LBB510:
 869              	.LBB511:
 870              		.loc 1 233 0
 871 02ea 0028     		cmp	r0, #0
 872 02ec 00F0A080 		beq	.L76
 873 02f0 1944     		add	r1, r1, r3
 874              	.LVL95:
 875              	.L58:
 876              		.loc 1 236 0
 877 02f2 53F8040B 		ldr	r0, [r3], #4
 878              	.LVL96:
 879 02f6 CCF80000 		str	r0, [ip]
 880              	.LVL97:
 881              		.loc 1 233 0
 882 02fa 8B42     		cmp	r3, r1
 883 02fc F9D1     		bne	.L58
 884              	.LVL98:
 885              	.L57:
 886              	.LBE511:
 887              	.LBE510:
 888              		.loc 1 284 0
 889 02fe 5945     		cmp	r1, fp
 890              		.loc 1 283 0
 891 0300 A161     		str	r1, [r4, #24]
 892              	.LVL99:
 893              		.loc 1 284 0
 894 0302 67D3     		bcc	.L59
 895              		.loc 1 285 0
 896 0304 E368     		ldr	r3, [r4, #12]
 897 0306 A361     		str	r3, [r4, #24]
 898              	.LBE514:
 899              	.LBE508:
 900              		.loc 1 274 0
 901 0308 002A     		cmp	r2, #0
 902 030a DFD1     		bne	.L64
 903              	.L126:
 904 030c 029D     		ldr	r5, [sp, #8]
 905              	.LVL100:
 906              	.L54:
 907              	.LBB516:
 908              	.LBB517:
 909              	.LBB518:
 910              	.LBB519:
 911              	.LBB520:
 912              	.LBB521:
ARM GAS  C:\Users\stoma\AppData\Local\Temp\ccLygOki.s 			page 17


 913              		.loc 3 546 0
 914 030e 2023     		movs	r3, #32
 915              		.syntax unified
 916              	@ 546 "../../lib/ChibiOS/os/ext/CMSIS/include/core_cmFunc.h" 1
 917 0310 83F31188 		MSR basepri, r3
 918              	@ 0 "" 2
 919              	.LVL101:
 920              		.thumb
 921              		.syntax unified
 922              	.LBE521:
 923              	.LBE520:
 924              	.LBE519:
 925              		.loc 4 349 0
 926 0314 FFF7FEFF 		bl	_stats_start_measure_crit_thd
 927              	.LVL102:
 928              		.loc 4 350 0
 929 0318 FFF7FEFF 		bl	_dbg_check_lock
 930              	.LVL103:
 931              	.LBE518:
 932              	.LBE517:
 933              	.LBE516:
 934              		.loc 1 310 0
 935 031c A368     		ldr	r3, [r4, #8]
 936 031e 2B44     		add	r3, r3, r5
 937 0320 A360     		str	r3, [r4, #8]
 938              	.LVL104:
 939              	.LBB522:
 940              	.LBB523:
 941              		.loc 5 764 0
 942 0322 2046     		mov	r0, r4
 943 0324 0021     		movs	r1, #0
 944 0326 FFF7FEFF 		bl	chThdDequeueAllI
 945              	.LVL105:
 946              	.LBE523:
 947              	.LBE522:
 948              	.LBB524:
 949              	.LBB525:
 950              		.loc 5 554 0
 951 032a FFF7FEFF 		bl	chSchRescheduleS
 952              	.LVL106:
 953              	.LBE525:
 954              	.LBE524:
 955              	.LBB526:
 956              	.LBB527:
 957              	.LBB528:
 958              		.loc 4 360 0
 959 032e FFF7FEFF 		bl	_dbg_check_unlock
 960              	.LVL107:
 961              		.loc 4 361 0
 962 0332 FFF7FEFF 		bl	_stats_stop_measure_crit_thd
 963              	.LVL108:
 964              		.loc 4 367 0
 965 0336 3368     		ldr	r3, [r6]
 966 0338 B342     		cmp	r3, r6
 967 033a 07D0     		beq	.L65
 968 033c B269     		ldr	r2, [r6, #24]
 969 033e 9B68     		ldr	r3, [r3, #8]
ARM GAS  C:\Users\stoma\AppData\Local\Temp\ccLygOki.s 			page 18


 970 0340 9268     		ldr	r2, [r2, #8]
 971 0342 9A42     		cmp	r2, r3
 972 0344 02D2     		bcs	.L65
 973 0346 4E48     		ldr	r0, .L138
 974 0348 FFF7FEFF 		bl	chSysHalt
 975              	.LVL109:
 976              	.L65:
 977              	.LBB529:
 978              	.LBB530:
 979              	.LBB531:
 980              		.loc 3 546 0
 981 034c 0023     		movs	r3, #0
 982              		.syntax unified
 983              	@ 546 "../../lib/ChibiOS/os/ext/CMSIS/include/core_cmFunc.h" 1
 984 034e 83F31188 		MSR basepri, r3
 985              	@ 0 "" 2
 986              	.LVL110:
 987              		.thumb
 988              		.syntax unified
 989 0352 D9F80C10 		ldr	r1, [r9, #12]
 990              	.L66:
 991              	.LBE531:
 992              	.LBE530:
 993              	.LBE529:
 994              	.LBE528:
 995              	.LBE527:
 996              	.LBE526:
 997              	.LBE507:
 998              	.LBE506:
 999              		.loc 1 521 0
 1000 0356 4A69     		ldr	r2, [r1, #20]
 1001              		.loc 1 488 0
 1002 0358 D2E90143 		ldrd	r4, r3, [r2, #4]
 1003              		.loc 1 521 0
 1004 035c 2B44     		add	r3, r3, r5
 1005              		.loc 1 488 0
 1006 035e 9C42     		cmp	r4, r3
 1007              		.loc 1 521 0
 1008 0360 9360     		str	r3, [r2, #8]
 1009              		.loc 1 488 0
 1010 0362 67D9     		bls	.L135
 1011              		.loc 1 498 0
 1012 0364 386D     		ldr	r0, [r7, #80]
 1013              		.loc 1 493 0
 1014 0366 0D8A     		ldrh	r5, [r1, #16]
 1015              		.loc 1 498 0
 1016 0368 00EB0A0C 		add	ip, r0, r10
 1017              		.loc 1 492 0
 1018 036c E31A     		subs	r3, r4, r3
 1019              	.LVL111:
 1020              		.loc 1 498 0
 1021 036e DCF81849 		ldr	r4, [ip, #2328]
 1022 0372 9D42     		cmp	r5, r3
 1023 0374 28BF     		it	cs
 1024 0376 1D46     		movcs	r5, r3
 1025              	.LVL112:
 1026 0378 A3B2     		uxth	r3, r4
ARM GAS  C:\Users\stoma\AppData\Local\Temp\ccLygOki.s 			page 19


 1027 037a B5EB830F 		cmp	r5, r3, lsl #2
 1028 037e 99D9     		bls	.L50
 1029 0380 DDE903A8 		ldrd	r10, r8, [sp, #12]
 1030              		.loc 1 499 0
 1031 0384 0024     		movs	r4, #0
 1032              	.LVL113:
 1033              	.L52:
 1034              	.LBE505:
 1035              	.LBE504:
 1036              	.LBB543:
 1037              	.LBB544:
 1038              	.LBB545:
 1039              	.LBB546:
 1040              	.LBB547:
 1041              	.LBB548:
 1042              		.loc 3 546 0
 1043 0386 2023     		movs	r3, #32
 1044              		.syntax unified
 1045              	@ 546 "../../lib/ChibiOS/os/ext/CMSIS/include/core_cmFunc.h" 1
 1046 0388 83F31188 		MSR basepri, r3
 1047              	@ 0 "" 2
 1048              	.LVL114:
 1049              		.thumb
 1050              		.syntax unified
 1051              	.LBE548:
 1052              	.LBE547:
 1053              	.LBE546:
 1054              		.loc 4 349 0
 1055 038c FFF7FEFF 		bl	_stats_start_measure_crit_thd
 1056              	.LVL115:
 1057              		.loc 4 350 0
 1058 0390 FFF7FEFF 		bl	_dbg_check_lock
 1059              	.LVL116:
 1060              	.LBE545:
 1061              	.LBE544:
 1062              	.LBE543:
 1063              		.loc 1 1341 0
 1064 0394 DAF80830 		ldr	r3, [r10, #8]
 1065 0398 43F00103 		orr	r3, r3, #1
 1066 039c CAF80830 		str	r3, [r10, #8]
 1067              		.loc 1 1342 0
 1068 03a0 2CB9     		cbnz	r4, .L48
 1069              	.LVL117:
 1070              	.L51:
 1071              		.loc 1 1343 0
 1072 03a2 DAF83438 		ldr	r3, [r10, #2100]
 1073 03a6 43EA0803 		orr	r3, r3, r8
 1074 03aa CAF83438 		str	r3, [r10, #2100]
 1075              	.L48:
 1076              	.LBB559:
 1077              	.LBB560:
 1078              	.LBB561:
 1079              		.loc 4 360 0
 1080 03ae FFF7FEFF 		bl	_dbg_check_unlock
 1081              	.LVL118:
 1082              		.loc 4 361 0
 1083 03b2 FFF7FEFF 		bl	_stats_stop_measure_crit_thd
ARM GAS  C:\Users\stoma\AppData\Local\Temp\ccLygOki.s 			page 20


 1084              	.LVL119:
 1085              		.loc 4 367 0
 1086 03b6 3368     		ldr	r3, [r6]
 1087 03b8 B342     		cmp	r3, r6
 1088 03ba 07D0     		beq	.L70
 1089 03bc B269     		ldr	r2, [r6, #24]
 1090 03be 9B68     		ldr	r3, [r3, #8]
 1091 03c0 9268     		ldr	r2, [r2, #8]
 1092 03c2 9A42     		cmp	r2, r3
 1093 03c4 02D2     		bcs	.L70
 1094 03c6 2E48     		ldr	r0, .L138
 1095 03c8 FFF7FEFF 		bl	chSysHalt
 1096              	.LVL120:
 1097              	.L70:
 1098              	.LBB562:
 1099              	.LBB563:
 1100              	.LBB564:
 1101              		.loc 3 546 0
 1102 03cc 0023     		movs	r3, #0
 1103              		.syntax unified
 1104              	@ 546 "../../lib/ChibiOS/os/ext/CMSIS/include/core_cmFunc.h" 1
 1105 03ce 83F31188 		MSR basepri, r3
 1106              	@ 0 "" 2
 1107              	.LVL121:
 1108              		.thumb
 1109              		.syntax unified
 1110 03d2 BAE6     		b	.L45
 1111              	.LVL122:
 1112              	.L59:
 1113              	.LBE564:
 1114              	.LBE563:
 1115              	.LBE562:
 1116              	.LBE561:
 1117              	.LBE560:
 1118              	.LBE559:
 1119              	.LBB565:
 1120              	.LBB542:
 1121              	.LBB536:
 1122              	.LBB534:
 1123              	.LBB532:
 1124              		.loc 1 292 0
 1125 03d4 002A     		cmp	r2, #0
 1126 03d6 99D0     		beq	.L126
 1127 03d8 0B46     		mov	r3, r1
 1128              	.L55:
 1129 03da 0021     		movs	r1, #0
 1130 03dc 0846     		mov	r0, r1
 1131              	.L63:
 1132              	.LVL123:
 1133              		.loc 1 299 0
 1134 03de 5D1C     		adds	r5, r3, #1
 1135 03e0 A561     		str	r5, [r4, #24]
 1136 03e2 1B78     		ldrb	r3, [r3]	@ zero_extendqisi2
 1137              		.loc 1 300 0
 1138 03e4 5D45     		cmp	r5, fp
 1139              		.loc 1 299 0
 1140 03e6 03FA01F3 		lsl	r3, r3, r1
ARM GAS  C:\Users\stoma\AppData\Local\Temp\ccLygOki.s 			page 21


 1141 03ea 40EA0300 		orr	r0, r0, r3
 1142              	.LVL124:
 1143              		.loc 1 301 0
 1144 03ee 24BF     		itt	cs
 1145 03f0 E368     		ldrcs	r3, [r4, #12]
 1146 03f2 A361     		strcs	r3, [r4, #24]
 1147              		.loc 1 298 0
 1148 03f4 013A     		subs	r2, r2, #1
 1149              	.LVL125:
 1150 03f6 04D0     		beq	.L62
 1151 03f8 1829     		cmp	r1, #24
 1152 03fa 02D0     		beq	.L62
 1153 03fc 0831     		adds	r1, r1, #8
 1154 03fe A369     		ldr	r3, [r4, #24]
 1155 0400 EDE7     		b	.L63
 1156              	.L62:
 1157              		.loc 1 305 0
 1158 0402 CCF80000 		str	r0, [ip]
 1159              	.LBE532:
 1160              		.loc 1 274 0
 1161 0406 002A     		cmp	r2, #0
 1162 0408 7FF460AF 		bne	.L64
 1163 040c 7EE7     		b	.L126
 1164              	.LVL126:
 1165              	.L53:
 1166              	.LBE534:
 1167              	.LBE536:
 1168              	.LBB537:
 1169              	.LBB538:
 1170              		.loc 1 256 0
 1171 040e EB1C     		adds	r3, r5, #3
 1172              	.LVL127:
 1173              	.LBB539:
 1174              	.LBB540:
 1175              		.loc 1 233 0
 1176 0410 9B08     		lsrs	r3, r3, #2
 1177              	.LVL128:
 1178 0412 0AD0     		beq	.L67
 1179 0414 04EB8301 		add	r1, r4, r3, lsl #2
 1180 0418 2346     		mov	r3, r4
 1181              	.LVL129:
 1182              	.L68:
 1183              		.loc 1 236 0
 1184 041a 53F8040B 		ldr	r0, [r3], #4
 1185              	.LVL130:
 1186 041e CCF80000 		str	r0, [ip]
 1187              	.LVL131:
 1188              		.loc 1 233 0
 1189 0422 8B42     		cmp	r3, r1
 1190 0424 F9D1     		bne	.L68
 1191 0426 D9F80C10 		ldr	r1, [r9, #12]
 1192              	.LVL132:
 1193              	.L67:
 1194              	.LBE540:
 1195              	.LBE539:
 1196              	.LBE538:
 1197              	.LBE537:
ARM GAS  C:\Users\stoma\AppData\Local\Temp\ccLygOki.s 			page 22


 1198              		.loc 1 516 0
 1199 042a 2C44     		add	r4, r4, r5
 1200 042c D460     		str	r4, [r2, #12]
 1201 042e 92E7     		b	.L66
 1202              	.LVL133:
 1203              	.L76:
 1204              	.LBB541:
 1205              	.LBB535:
 1206              	.LBB533:
 1207              	.LBB515:
 1208              	.LBB513:
 1209              	.LBB512:
 1210              		.loc 1 233 0
 1211 0430 1946     		mov	r1, r3
 1212 0432 64E7     		b	.L57
 1213              	.LVL134:
 1214              	.L135:
 1215 0434 DDE903A8 		ldrd	r10, r8, [sp, #12]
 1216              	.LBE512:
 1217              	.LBE513:
 1218              	.LBE515:
 1219              	.LBE533:
 1220              	.LBE535:
 1221              	.LBE541:
 1222              		.loc 1 489 0
 1223 0438 0124     		movs	r4, #1
 1224 043a A4E7     		b	.L52
 1225              	.LVL135:
 1226              	.L134:
 1227              	.LBE542:
 1228              	.LBE565:
 1229              	.LBB566:
 1230              	.LBB557:
 1231              	.LBB555:
 1232              	.LBB553:
 1233              	.LBB551:
 1234              	.LBB549:
 1235              		.loc 3 546 0
 1236 043c 2023     		movs	r3, #32
 1237              		.syntax unified
 1238              	@ 546 "../../lib/ChibiOS/os/ext/CMSIS/include/core_cmFunc.h" 1
 1239 043e 83F31188 		MSR basepri, r3
 1240              	@ 0 "" 2
 1241              	.LVL136:
 1242              		.thumb
 1243              		.syntax unified
 1244              	.LBE549:
 1245              	.LBE551:
 1246              	.LBE553:
 1247              		.loc 4 349 0
 1248 0442 FFF7FEFF 		bl	_stats_start_measure_crit_thd
 1249              	.LVL137:
 1250              		.loc 4 350 0
 1251 0446 FFF7FEFF 		bl	_dbg_check_lock
 1252              	.LVL138:
 1253              	.LBE555:
 1254              	.LBE557:
ARM GAS  C:\Users\stoma\AppData\Local\Temp\ccLygOki.s 			page 23


 1255              	.LBE566:
 1256              		.loc 1 1341 0
 1257 044a DAF80830 		ldr	r3, [r10, #8]
 1258 044e 0BF10102 		add	r2, fp, #1
 1259 0452 43F00103 		orr	r3, r3, #1
 1260 0456 0192     		str	r2, [sp, #4]
 1261 0458 CAF80830 		str	r3, [r10, #8]
 1262 045c A7E7     		b	.L48
 1263              	.LVL139:
 1264              	.L49:
 1265              	.LBB567:
 1266              	.LBB558:
 1267              	.LBB556:
 1268              	.LBB554:
 1269              	.LBB552:
 1270              	.LBB550:
 1271              		.loc 3 546 0
 1272 045e 2023     		movs	r3, #32
 1273              		.syntax unified
 1274              	@ 546 "../../lib/ChibiOS/os/ext/CMSIS/include/core_cmFunc.h" 1
 1275 0460 83F31188 		MSR basepri, r3
 1276              	@ 0 "" 2
 1277              	.LVL140:
 1278              		.thumb
 1279              		.syntax unified
 1280              	.LBE550:
 1281              	.LBE552:
 1282              	.LBE554:
 1283              		.loc 4 349 0
 1284 0464 FFF7FEFF 		bl	_stats_start_measure_crit_thd
 1285              	.LVL141:
 1286              		.loc 4 350 0
 1287 0468 FFF7FEFF 		bl	_dbg_check_lock
 1288              	.LVL142:
 1289              	.LBE556:
 1290              	.LBE558:
 1291              	.LBE567:
 1292              		.loc 1 1341 0
 1293 046c DAF80830 		ldr	r3, [r10, #8]
 1294 0470 0BF10102 		add	r2, fp, #1
 1295 0474 43F00103 		orr	r3, r3, #1
 1296 0478 0192     		str	r2, [sp, #4]
 1297 047a CAF80830 		str	r3, [r10, #8]
 1298 047e 90E7     		b	.L51
 1299              	.L139:
 1300              		.align	2
 1301              	.L138:
 1302 0480 00000000 		.word	.LANCHOR0
 1303              	.LBE491:
 1304              	.LBE431:
 1305              		.cfi_endproc
 1306              	.LFE292:
 1307              		.size	usb_lld_pump, .-usb_lld_pump
 1308              		.section	.text.usb_lld_init,"ax",%progbits
 1309              		.align	1
 1310              		.p2align 4,,15
 1311              		.global	usb_lld_init
ARM GAS  C:\Users\stoma\AppData\Local\Temp\ccLygOki.s 			page 24


 1312              		.syntax unified
 1313              		.thumb
 1314              		.thumb_func
 1315              		.fpu fpv4-sp-d16
 1316              		.type	usb_lld_init, %function
 1317              	usb_lld_init:
 1318              	.LFB274:
 1319              		.loc 1 744 0
 1320              		.cfi_startproc
 1321              		@ args = 0, pretend = 0, frame = 0
 1322              		@ frame_needed = 0, uses_anonymous_args = 0
 1323 0000 38B5     		push	{r3, r4, r5, lr}
 1324              		.cfi_def_cfa_offset 16
 1325              		.cfi_offset 3, -16
 1326              		.cfi_offset 4, -12
 1327              		.cfi_offset 5, -8
 1328              		.cfi_offset 14, -4
 1329              		.loc 1 748 0
 1330 0002 0E4C     		ldr	r4, .L142
 1331 0004 2046     		mov	r0, r4
 1332 0006 FFF7FEFF 		bl	usbObjectInit
 1333              	.LVL143:
 1334              	.LBB568:
 1335              		.loc 1 760 0
 1336 000a 04F1D005 		add	r5, r4, #208
 1337              	.LBE568:
 1338              		.loc 1 750 0
 1339 000e 4FF0A043 		mov	r3, #1342177280
 1340              		.loc 1 751 0
 1341 0012 0B4A     		ldr	r2, .L142+4
 1342              		.loc 1 750 0
 1343 0014 2365     		str	r3, [r4, #80]
 1344              	.LBB569:
 1345              		.loc 1 760 0
 1346 0016 2946     		mov	r1, r5
 1347 0018 04F16800 		add	r0, r4, #104
 1348              	.LBE569:
 1349              		.loc 1 749 0
 1350 001c 0023     		movs	r3, #0
 1351              		.loc 1 751 0
 1352 001e 6265     		str	r2, [r4, #84]
 1353              	.LBB570:
 1354              		.loc 1 760 0
 1355 0020 FF22     		movs	r2, #255
 1356              	.LBE570:
 1357              		.loc 1 754 0
 1358 0022 C4E91833 		strd	r3, r3, [r4, #96]
 1359              	.LVL144:
 1360              	.LBB571:
 1361              		.loc 1 760 0
 1362 0026 FFF7FEFF 		bl	_thread_memfill
 1363              	.LVL145:
 1364              		.loc 1 763 0
 1365 002a 2846     		mov	r0, r5
 1366 002c 04F51871 		add	r1, r4, #608
 1367 0030 5522     		movs	r2, #85
 1368              	.LBE571:
ARM GAS  C:\Users\stoma\AppData\Local\Temp\ccLygOki.s 			page 25


 1369              		.loc 1 794 0
 1370 0032 BDE83840 		pop	{r3, r4, r5, lr}
 1371              		.cfi_restore 14
 1372              		.cfi_restore 5
 1373              		.cfi_restore 4
 1374              		.cfi_restore 3
 1375              		.cfi_def_cfa_offset 0
 1376              	.LBB572:
 1377              		.loc 1 763 0
 1378 0036 FFF7FEBF 		b	_thread_memfill
 1379              	.LVL146:
 1380              	.L143:
 1381 003a 00BF     		.align	2
 1382              	.L142:
 1383 003c 00000000 		.word	.LANCHOR1
 1384 0040 00000000 		.word	.LANCHOR2
 1385              	.LBE572:
 1386              		.cfi_endproc
 1387              	.LFE274:
 1388              		.size	usb_lld_init, .-usb_lld_init
 1389              		.section	.text.usb_lld_start,"ax",%progbits
 1390              		.align	1
 1391              		.p2align 4,,15
 1392              		.global	usb_lld_start
 1393              		.syntax unified
 1394              		.thumb
 1395              		.thumb_func
 1396              		.fpu fpv4-sp-d16
 1397              		.type	usb_lld_start, %function
 1398              	usb_lld_start:
 1399              	.LFB275:
 1400              		.loc 1 806 0
 1401              		.cfi_startproc
 1402              		@ args = 0, pretend = 0, frame = 0
 1403              		@ frame_needed = 0, uses_anonymous_args = 0
 1404              	.LVL147:
 1405              		.loc 1 809 0
 1406 0000 0378     		ldrb	r3, [r0]	@ zero_extendqisi2
 1407 0002 012B     		cmp	r3, #1
 1408 0004 00D0     		beq	.L163
 1409 0006 7047     		bx	lr
 1410              	.L163:
 1411              		.loc 1 806 0
 1412 0008 70B5     		push	{r4, r5, r6, lr}
 1413              		.cfi_def_cfa_offset 16
 1414              		.cfi_offset 4, -16
 1415              		.cfi_offset 5, -12
 1416              		.cfi_offset 6, -8
 1417              		.cfi_offset 14, -4
 1418              		.loc 1 812 0
 1419 000a 354B     		ldr	r3, .L167
 1420              		.loc 1 807 0
 1421 000c 066D     		ldr	r6, [r0, #80]
 1422              		.loc 1 812 0
 1423 000e 9842     		cmp	r0, r3
 1424              		.loc 1 806 0
 1425 0010 82B0     		sub	sp, sp, #8
ARM GAS  C:\Users\stoma\AppData\Local\Temp\ccLygOki.s 			page 26


 1426              		.cfi_def_cfa_offset 24
 1427 0012 0546     		mov	r5, r0
 1428              		.loc 1 812 0
 1429 0014 3BD0     		beq	.L164
 1430              		.loc 1 807 0
 1431 0016 3446     		mov	r4, r6
 1432              	.LVL148:
 1433              	.L146:
 1434              		.loc 1 836 0
 1435 0018 0023     		movs	r3, #0
 1436              		.loc 1 841 0
 1437 001a 324A     		ldr	r2, .L167+4
 1438              		.loc 1 836 0
 1439 001c EB65     		str	r3, [r5, #92]
 1440              		.loc 1 844 0
 1441 001e 3249     		ldr	r1, .L167+8
 1442              		.loc 1 841 0
 1443 0020 F260     		str	r2, [r6, #12]
 1444              		.loc 1 854 0
 1445 0022 4FF45022 		mov	r2, #851968
 1446              		.loc 1 844 0
 1447 0026 C6F80018 		str	r1, [r6, #2048]
 1448              	.LBB581:
 1449              	.LBB582:
 1450              	.LBB583:
 1451              	.LBB584:
 1452              		.loc 5 527 0
 1453 002a 2020     		movs	r0, #32
 1454              	.LBE584:
 1455              	.LBE583:
 1456              	.LBE582:
 1457              	.LBE581:
 1458              		.loc 1 847 0
 1459 002c C6F8003E 		str	r3, [r6, #3584]
 1460              		.loc 1 854 0
 1461 0030 B263     		str	r2, [r6, #56]
 1462              	.LVL149:
 1463              	.LBB590:
 1464              	.LBB589:
 1465              	.LBB586:
 1466              	.LBB585:
 1467              		.loc 5 527 0
 1468 0032 FFF7FEFF 		bl	chSysPolledDelayX
 1469              	.LVL150:
 1470              	.LBE585:
 1471              	.LBE586:
 1472              		.loc 1 121 0
 1473 0036 0123     		movs	r3, #1
 1474 0038 2361     		str	r3, [r4, #16]
 1475              	.L147:
 1476              		.loc 1 122 0
 1477 003a 2369     		ldr	r3, [r4, #16]
 1478 003c DB07     		lsls	r3, r3, #31
 1479 003e FCD4     		bmi	.L147
 1480              	.LVL151:
 1481              	.LBB587:
 1482              	.LBB588:
ARM GAS  C:\Users\stoma\AppData\Local\Temp\ccLygOki.s 			page 27


 1483              		.loc 5 527 0
 1484 0040 0C20     		movs	r0, #12
 1485 0042 FFF7FEFF 		bl	chSysPolledDelayX
 1486              	.LVL152:
 1487              	.L148:
 1488              	.LBE588:
 1489              	.LBE587:
 1490              		.loc 1 128 0
 1491 0046 2369     		ldr	r3, [r4, #16]
 1492 0048 002B     		cmp	r3, #0
 1493 004a FCDA     		bge	.L148
 1494              	.LBE589:
 1495              	.LBE590:
 1496              		.loc 1 861 0
 1497 004c 0024     		movs	r4, #0
 1498 004e B460     		str	r4, [r6, #8]
 1499              		.loc 1 864 0
 1500 0050 D5E91401 		ldrd	r0, r1, [r5, #80]
 1501 0054 FFF7FEFF 		bl	otg_disable_ep.isra.0
 1502              	.LVL153:
 1503              		.loc 1 871 0
 1504 0058 6B68     		ldr	r3, [r5, #4]
 1505              		.loc 1 868 0
 1506 005a C6F81048 		str	r4, [r6, #2064]
 1507              		.loc 1 871 0
 1508 005e DB68     		ldr	r3, [r3, #12]
 1509              		.loc 1 869 0
 1510 0060 C6F81448 		str	r4, [r6, #2068]
 1511              		.loc 1 870 0
 1512 0064 C6F81C48 		str	r4, [r6, #2076]
 1513              		.loc 1 871 0
 1514 0068 6BB1     		cbz	r3, .L165
 1515              		.loc 1 875 0
 1516 006a 43F20803 		movw	r3, #12296
 1517 006e B361     		str	r3, [r6, #24]
 1518              	.L150:
 1519              		.loc 1 881 0
 1520 0070 6B6E     		ldr	r3, [r5, #100]
 1521              		.loc 1 877 0
 1522 0072 4FF0FF32 		mov	r2, #-1
 1523 0076 7261     		str	r2, [r6, #20]
 1524              		.loc 1 881 0
 1525 0078 D3B1     		cbz	r3, .L166
 1526              	.L151:
 1527              		.loc 1 891 0
 1528 007a B368     		ldr	r3, [r6, #8]
 1529 007c 43F00103 		orr	r3, r3, #1
 1530 0080 B360     		str	r3, [r6, #8]
 1531              		.loc 1 893 0
 1532 0082 02B0     		add	sp, sp, #8
 1533              		.cfi_remember_state
 1534              		.cfi_def_cfa_offset 16
 1535              		@ sp needed
 1536 0084 70BD     		pop	{r4, r5, r6, pc}
 1537              	.LVL154:
 1538              	.L165:
 1539              		.cfi_restore_state
ARM GAS  C:\Users\stoma\AppData\Local\Temp\ccLygOki.s 			page 28


 1540              		.loc 1 872 0
 1541 0086 4FF44053 		mov	r3, #12288
 1542 008a B361     		str	r3, [r6, #24]
 1543 008c F0E7     		b	.L150
 1544              	.LVL155:
 1545              	.L164:
 1546              		.loc 1 814 0
 1547 008e 174B     		ldr	r3, .L167+12
 1548 0090 5A6B     		ldr	r2, [r3, #52]
 1549 0092 42F08002 		orr	r2, r2, #128
 1550 0096 5A63     		str	r2, [r3, #52]
 1551              		.loc 1 815 0
 1552 0098 5A69     		ldr	r2, [r3, #20]
 1553 009a 0020     		movs	r0, #0
 1554              	.LVL156:
 1555 009c 42F08002 		orr	r2, r2, #128
 1556 00a0 5A61     		str	r2, [r3, #20]
 1557              		.loc 1 818 0
 1558 00a2 0E21     		movs	r1, #14
 1559              		.loc 1 815 0
 1560 00a4 5861     		str	r0, [r3, #20]
 1561              		.loc 1 818 0
 1562 00a6 4320     		movs	r0, #67
 1563 00a8 FFF7FEFF 		bl	nvicEnableVector
 1564              	.LVL157:
 1565 00ac 2C6D     		ldr	r4, [r5, #80]
 1566 00ae B3E7     		b	.L146
 1567              	.LVL158:
 1568              	.L166:
 1569              		.loc 1 882 0
 1570 00b0 0F4B     		ldr	r3, .L167+16
 1571 00b2 0095     		str	r5, [sp]
 1572 00b4 0222     		movs	r2, #2
 1573 00b6 4FF4FC71 		mov	r1, #504
 1574 00ba 05F16800 		add	r0, r5, #104
 1575 00be FFF7FEFF 		bl	chThdCreateI
 1576              	.LVL159:
 1577 00c2 6866     		str	r0, [r5, #100]
 1578              	.LVL160:
 1579              	.LBB591:
 1580              	.LBB592:
 1581              		.file 6 "../../lib/ChibiOS/os/rt/include/chthreads.h"
 1582              		.loc 6 247 0
 1583 00c4 90F82030 		ldrb	r3, [r0, #32]	@ zero_extendqisi2
 1584 00c8 022B     		cmp	r3, #2
 1585              	.LBE592:
 1586              	.LBE591:
 1587              		.loc 1 882 0
 1588 00ca 0446     		mov	r4, r0
 1589              	.LBB594:
 1590              	.LBB593:
 1591              		.loc 6 247 0
 1592 00cc 02D0     		beq	.L152
 1593 00ce 0948     		ldr	r0, .L167+20
 1594              	.LVL161:
 1595 00d0 FFF7FEFF 		bl	chSysHalt
 1596              	.LVL162:
ARM GAS  C:\Users\stoma\AppData\Local\Temp\ccLygOki.s 			page 29


 1597              	.L152:
 1598              		.loc 6 249 0
 1599 00d4 2046     		mov	r0, r4
 1600 00d6 FFF7FEFF 		bl	chSchReadyI
 1601              	.LVL163:
 1602              	.LBE593:
 1603              	.LBE594:
 1604              		.loc 1 886 0
 1605 00da FFF7FEFF 		bl	chSchRescheduleS
 1606              	.LVL164:
 1607 00de CCE7     		b	.L151
 1608              	.L168:
 1609              		.align	2
 1610              	.L167:
 1611 00e0 00000000 		.word	.LANCHOR1
 1612 00e4 40140040 		.word	1073747008
 1613 00e8 03002002 		.word	35651587
 1614 00ec 00380240 		.word	1073887232
 1615 00f0 00000000 		.word	usb_lld_pump
 1616 00f4 00000000 		.word	.LANCHOR3
 1617              		.cfi_endproc
 1618              	.LFE275:
 1619              		.size	usb_lld_start, .-usb_lld_start
 1620              		.section	.text.usb_lld_stop,"ax",%progbits
 1621              		.align	1
 1622              		.p2align 4,,15
 1623              		.global	usb_lld_stop
 1624              		.syntax unified
 1625              		.thumb
 1626              		.thumb_func
 1627              		.fpu fpv4-sp-d16
 1628              		.type	usb_lld_stop, %function
 1629              	usb_lld_stop:
 1630              	.LFB276:
 1631              		.loc 1 902 0
 1632              		.cfi_startproc
 1633              		@ args = 0, pretend = 0, frame = 0
 1634              		@ frame_needed = 0, uses_anonymous_args = 0
 1635              	.LVL165:
 1636 0000 38B5     		push	{r3, r4, r5, lr}
 1637              		.cfi_def_cfa_offset 16
 1638              		.cfi_offset 3, -16
 1639              		.cfi_offset 4, -12
 1640              		.cfi_offset 5, -8
 1641              		.cfi_offset 14, -4
 1642              		.loc 1 906 0
 1643 0002 0378     		ldrb	r3, [r0]	@ zero_extendqisi2
 1644 0004 012B     		cmp	r3, #1
 1645 0006 0ED0     		beq	.L169
 1646              		.loc 1 910 0
 1647 0008 D0E91451 		ldrd	r5, r1, [r0, #80]
 1648 000c 0446     		mov	r4, r0
 1649 000e 2846     		mov	r0, r5
 1650              	.LVL166:
 1651 0010 FFF7FEFF 		bl	otg_disable_ep.isra.0
 1652              	.LVL167:
 1653              		.loc 1 919 0
ARM GAS  C:\Users\stoma\AppData\Local\Temp\ccLygOki.s 			page 30


 1654 0014 094A     		ldr	r2, .L175
 1655              		.loc 1 912 0
 1656 0016 0023     		movs	r3, #0
 1657              		.loc 1 919 0
 1658 0018 9442     		cmp	r4, r2
 1659              		.loc 1 912 0
 1660 001a E365     		str	r3, [r4, #92]
 1661              		.loc 1 914 0
 1662 001c C5F81C38 		str	r3, [r5, #2076]
 1663              		.loc 1 915 0
 1664 0020 AB60     		str	r3, [r5, #8]
 1665              		.loc 1 916 0
 1666 0022 AB63     		str	r3, [r5, #56]
 1667              		.loc 1 919 0
 1668 0024 00D0     		beq	.L174
 1669              	.LVL168:
 1670              	.L169:
 1671              		.loc 1 932 0
 1672 0026 38BD     		pop	{r3, r4, r5, pc}
 1673              	.LVL169:
 1674              	.L174:
 1675              		.loc 1 920 0
 1676 0028 4320     		movs	r0, #67
 1677 002a FFF7FEFF 		bl	nvicDisableVector
 1678              	.LVL170:
 1679              		.loc 1 921 0
 1680 002e 044A     		ldr	r2, .L175+4
 1681 0030 536B     		ldr	r3, [r2, #52]
 1682 0032 23F08003 		bic	r3, r3, #128
 1683 0036 5363     		str	r3, [r2, #52]
 1684              		.loc 1 932 0
 1685 0038 38BD     		pop	{r3, r4, r5, pc}
 1686              	.LVL171:
 1687              	.L176:
 1688 003a 00BF     		.align	2
 1689              	.L175:
 1690 003c 00000000 		.word	.LANCHOR1
 1691 0040 00380240 		.word	1073887232
 1692              		.cfi_endproc
 1693              	.LFE276:
 1694              		.size	usb_lld_stop, .-usb_lld_stop
 1695              		.section	.text.usb_lld_reset,"ax",%progbits
 1696              		.align	1
 1697              		.p2align 4,,15
 1698              		.global	usb_lld_reset
 1699              		.syntax unified
 1700              		.thumb
 1701              		.thumb_func
 1702              		.fpu fpv4-sp-d16
 1703              		.type	usb_lld_reset, %function
 1704              	usb_lld_reset:
 1705              	.LFB277:
 1706              		.loc 1 941 0
 1707              		.cfi_startproc
 1708              		@ args = 0, pretend = 0, frame = 0
 1709              		@ frame_needed = 0, uses_anonymous_args = 0
 1710              	.LVL172:
ARM GAS  C:\Users\stoma\AppData\Local\Temp\ccLygOki.s 			page 31


 1711 0000 F8B5     		push	{r3, r4, r5, r6, r7, lr}
 1712              		.cfi_def_cfa_offset 24
 1713              		.cfi_offset 3, -24
 1714              		.cfi_offset 4, -20
 1715              		.cfi_offset 5, -16
 1716              		.cfi_offset 6, -12
 1717              		.cfi_offset 7, -8
 1718              		.cfi_offset 14, -4
 1719              		.loc 1 943 0
 1720 0002 056D     		ldr	r5, [r0, #80]
 1721              	.LVL173:
 1722              	.LBB595:
 1723              	.LBB596:
 1724              		.loc 1 182 0
 1725 0004 2023     		movs	r3, #32
 1726              	.LBE596:
 1727              	.LBE595:
 1728              		.loc 1 941 0
 1729 0006 0646     		mov	r6, r0
 1730              	.LVL174:
 1731              	.LBB600:
 1732              	.LBB599:
 1733              		.loc 1 182 0
 1734 0008 2B61     		str	r3, [r5, #16]
 1735              	.L178:
 1736              		.loc 1 183 0
 1737 000a 2C69     		ldr	r4, [r5, #16]
 1738 000c 14F02004 		ands	r4, r4, #32
 1739 0010 FBD1     		bne	.L178
 1740              	.LVL175:
 1741              	.LBB597:
 1742              	.LBB598:
 1743              		.loc 5 527 0
 1744 0012 0C20     		movs	r0, #12
 1745              	.LVL176:
 1746 0014 FFF7FEFF 		bl	chSysPolledDelayX
 1747              	.LVL177:
 1748              	.LBE598:
 1749              	.LBE597:
 1750              	.LBE599:
 1751              	.LBE600:
 1752              		.loc 1 949 0
 1753 0018 776D     		ldr	r7, [r6, #84]
 1754 001a BA68     		ldr	r2, [r7, #8]
 1755 001c 2346     		mov	r3, r4
 1756              		.loc 1 950 0
 1757 001e 4FF00060 		mov	r0, #134217728
 1758 0022 541C     		adds	r4, r2, #1
 1759              		.loc 1 952 0
 1760 0024 FF21     		movs	r1, #255
 1761              	.LVL178:
 1762              	.L179:
 1763 0026 05EB4312 		add	r2, r5, r3, lsl #5
 1764              		.loc 1 949 0 discriminator 3
 1765 002a 0133     		adds	r3, r3, #1
 1766              	.LVL179:
 1767 002c 9C42     		cmp	r4, r3
ARM GAS  C:\Users\stoma\AppData\Local\Temp\ccLygOki.s 			page 32


 1768              		.loc 1 950 0 discriminator 3
 1769 002e C2F80009 		str	r0, [r2, #2304]
 1770              		.loc 1 951 0 discriminator 3
 1771 0032 C2F8000B 		str	r0, [r2, #2816]
 1772              		.loc 1 952 0 discriminator 3
 1773 0036 C2F80819 		str	r1, [r2, #2312]
 1774              		.loc 1 953 0 discriminator 3
 1775 003a C2F8081B 		str	r1, [r2, #2824]
 1776              		.loc 1 949 0 discriminator 3
 1777 003e F2D1     		bne	.L179
 1778              	.LBB601:
 1779              	.LBB602:
 1780              		.loc 1 198 0
 1781 0040 3B68     		ldr	r3, [r7]
 1782              	.LVL180:
 1783              	.LBE602:
 1784              	.LBE601:
 1785              		.loc 1 958 0
 1786 0042 4FF00112 		mov	r2, #65537
 1787              		.loc 1 957 0
 1788 0046 4FF0FF31 		mov	r1, #-1
 1789 004a C5F81818 		str	r1, [r5, #2072]
 1790              		.loc 1 958 0
 1791 004e C5F81C28 		str	r2, [r5, #2076]
 1792              	.LVL181:
 1793              	.LBB604:
 1794              	.LBB603:
 1795              		.loc 1 198 0
 1796 0052 B365     		str	r3, [r6, #88]
 1797              	.LBE603:
 1798              	.LBE604:
 1799              		.loc 1 964 0
 1800 0054 3B68     		ldr	r3, [r7]
 1801 0056 326D     		ldr	r2, [r6, #80]
 1802              	.LVL182:
 1803 0058 6B62     		str	r3, [r5, #36]
 1804              	.LBB605:
 1805              	.LBB606:
 1806              		.loc 1 172 0
 1807 005a 1023     		movs	r3, #16
 1808 005c 1361     		str	r3, [r2, #16]
 1809              	.L180:
 1810              		.loc 1 173 0
 1811 005e 1469     		ldr	r4, [r2, #16]
 1812 0060 14F01004 		ands	r4, r4, #16
 1813 0064 FBD1     		bne	.L180
 1814              	.LVL183:
 1815              	.LBB607:
 1816              	.LBB608:
 1817              		.loc 5 527 0
 1818 0066 0C20     		movs	r0, #12
 1819 0068 FFF7FEFF 		bl	chSysPolledDelayX
 1820              	.LVL184:
 1821              	.LBE608:
 1822              	.LBE607:
 1823              	.LBE606:
 1824              	.LBE605:
ARM GAS  C:\Users\stoma\AppData\Local\Temp\ccLygOki.s 			page 33


 1825              		.loc 1 968 0
 1826 006c D5F80038 		ldr	r3, [r5, #2048]
 1827              		.loc 1 978 0
 1828 0070 144A     		ldr	r2, .L186
 1829              		.loc 1 976 0
 1830 0072 1549     		ldr	r1, .L186+4
 1831              		.loc 1 968 0
 1832 0074 23F4FE63 		bic	r3, r3, #2032
 1833 0078 C5F80038 		str	r3, [r5, #2048]
 1834              		.loc 1 971 0
 1835 007c AB69     		ldr	r3, [r5, #24]
 1836 007e 43F44023 		orr	r3, r3, #786432
 1837 0082 43F01003 		orr	r3, r3, #16
 1838 0086 AB61     		str	r3, [r5, #24]
 1839              		.loc 1 972 0
 1840 0088 0923     		movs	r3, #9
 1841 008a C5F81038 		str	r3, [r5, #2064]
 1842              		.loc 1 973 0
 1843 008e C5F81438 		str	r3, [r5, #2068]
 1844              		.loc 1 976 0
 1845 0092 F160     		str	r1, [r6, #12]
 1846              		.loc 1 977 0
 1847 0094 C5F8104B 		str	r4, [r5, #2832]
 1848              		.loc 1 978 0
 1849 0098 C5F8002B 		str	r2, [r5, #2816]
 1850              		.loc 1 980 0
 1851 009c C5F81049 		str	r4, [r5, #2320]
 1852              		.loc 1 981 0
 1853 00a0 C5F80029 		str	r2, [r5, #2304]
 1854 00a4 D6E91524 		ldrd	r2, r4, [r6, #84]
 1855              	.LVL185:
 1856              	.LBB609:
 1857              	.LBB610:
 1858              		.loc 1 213 0
 1859 00a8 04F11003 		add	r3, r4, #16
 1860 00ac B365     		str	r3, [r6, #88]
 1861              		.loc 1 214 0
 1862 00ae 5268     		ldr	r2, [r2, #4]
 1863 00b0 9342     		cmp	r3, r2
 1864 00b2 02D9     		bls	.L181
 1865 00b4 0548     		ldr	r0, .L186+8
 1866 00b6 FFF7FEFF 		bl	chSysHalt
 1867              	.LVL186:
 1868              	.L181:
 1869              	.LBE610:
 1870              	.LBE609:
 1871              		.loc 1 983 0
 1872 00ba 44F48014 		orr	r4, r4, #1048576
 1873 00be AC62     		str	r4, [r5, #40]
 1874              		.loc 1 986 0
 1875 00c0 F8BD     		pop	{r3, r4, r5, r6, r7, pc}
 1876              	.LVL187:
 1877              	.L187:
 1878 00c2 00BF     		.align	2
 1879              	.L186:
 1880 00c4 40800010 		.word	268468288
 1881 00c8 00000000 		.word	.LANCHOR4
ARM GAS  C:\Users\stoma\AppData\Local\Temp\ccLygOki.s 			page 34


 1882 00cc 00000000 		.word	.LANCHOR5
 1883              		.cfi_endproc
 1884              	.LFE277:
 1885              		.size	usb_lld_reset, .-usb_lld_reset
 1886              		.section	.text.usb_lld_set_address,"ax",%progbits
 1887              		.align	1
 1888              		.p2align 4,,15
 1889              		.global	usb_lld_set_address
 1890              		.syntax unified
 1891              		.thumb
 1892              		.thumb_func
 1893              		.fpu fpv4-sp-d16
 1894              		.type	usb_lld_set_address, %function
 1895              	usb_lld_set_address:
 1896              	.LFB278:
 1897              		.loc 1 995 0
 1898              		.cfi_startproc
 1899              		@ args = 0, pretend = 0, frame = 0
 1900              		@ frame_needed = 0, uses_anonymous_args = 0
 1901              		@ link register save eliminated.
 1902              	.LVL188:
 1903              		.loc 1 996 0
 1904 0000 026D     		ldr	r2, [r0, #80]
 1905              	.LVL189:
 1906              		.loc 1 998 0
 1907 0002 90F84E10 		ldrb	r1, [r0, #78]	@ zero_extendqisi2
 1908 0006 D2F80038 		ldr	r3, [r2, #2048]
 1909 000a 23F4FE63 		bic	r3, r3, #2032
 1910 000e 43EA0113 		orr	r3, r3, r1, lsl #4
 1911 0012 C2F80038 		str	r3, [r2, #2048]
 1912              		.loc 1 999 0
 1913 0016 7047     		bx	lr
 1914              		.cfi_endproc
 1915              	.LFE278:
 1916              		.size	usb_lld_set_address, .-usb_lld_set_address
 1917              		.section	.text.usb_lld_init_endpoint,"ax",%progbits
 1918              		.align	1
 1919              		.p2align 4,,15
 1920              		.global	usb_lld_init_endpoint
 1921              		.syntax unified
 1922              		.thumb
 1923              		.thumb_func
 1924              		.fpu fpv4-sp-d16
 1925              		.type	usb_lld_init_endpoint, %function
 1926              	usb_lld_init_endpoint:
 1927              	.LFB279:
 1928              		.loc 1 1009 0
 1929              		.cfi_startproc
 1930              		@ args = 0, pretend = 0, frame = 8
 1931              		@ frame_needed = 0, uses_anonymous_args = 0
 1932              	.LVL190:
 1933 0000 2DE9F04F 		push	{r4, r5, r6, r7, r8, r9, r10, fp, lr}
 1934              		.cfi_def_cfa_offset 36
 1935              		.cfi_offset 4, -36
 1936              		.cfi_offset 5, -32
 1937              		.cfi_offset 6, -28
 1938              		.cfi_offset 7, -24
ARM GAS  C:\Users\stoma\AppData\Local\Temp\ccLygOki.s 			page 35


 1939              		.cfi_offset 8, -20
 1940              		.cfi_offset 9, -16
 1941              		.cfi_offset 10, -12
 1942              		.cfi_offset 11, -8
 1943              		.cfi_offset 14, -4
 1944 0004 0EB2     		sxth	r6, r1
 1945 0006 00EB8609 		add	r9, r0, r6, lsl #2
 1946 000a 83B0     		sub	sp, sp, #12
 1947              		.cfi_def_cfa_offset 48
 1948              		.loc 1 1014 0
 1949 000c D9F80C30 		ldr	r3, [r9, #12]
 1950 0010 1A68     		ldr	r2, [r3]
 1951 0012 02F00302 		and	r2, r2, #3
 1952 0016 022A     		cmp	r2, #2
 1953              		.loc 1 1009 0
 1954 0018 0D46     		mov	r5, r1
 1955 001a 0746     		mov	r7, r0
 1956              	.LVL191:
 1957              		.loc 1 1014 0
 1958 001c 00F09D80 		beq	.L191
 1959 0020 032A     		cmp	r2, #3
 1960 0022 00F09780 		beq	.L192
 1961              		.loc 1 1016 0
 1962 0026 5148     		ldr	r0, .L207
 1963              	.LVL192:
 1964 0028 5149     		ldr	r1, .L207+4
 1965              	.LVL193:
 1966 002a 012A     		cmp	r2, #1
 1967 002c 0CBF     		ite	eq
 1968 002e 8246     		moveq	r10, r0
 1969 0030 8A46     		movne	r10, r1
 1970              	.L193:
 1971              		.loc 1 1011 0
 1972 0032 3C6D     		ldr	r4, [r7, #80]
 1973              	.LVL194:
 1974              		.loc 1 1033 0
 1975 0034 D868     		ldr	r0, [r3, #12]
 1976              		.loc 1 1032 0
 1977 0036 6901     		lsls	r1, r5, #5
 1978 0038 6218     		adds	r2, r4, r1
 1979 003a 4FF0000C 		mov	ip, #0
 1980 003e C2F810CB 		str	ip, [r2, #2832]
 1981 0042 05F11002 		add	r2, r5, #16
 1982 0046 4FF0010C 		mov	ip, #1
 1983 004a 0CFA02F2 		lsl	r2, ip, r2
 1984              		.loc 1 1033 0
 1985 004e 0028     		cmp	r0, #0
 1986 0050 71D0     		beq	.L194
 1987              		.loc 1 1034 0
 1988 0052 B3F812C0 		ldrh	ip, [r3, #18]
 1989 0056 05F15800 		add	r0, r5, #88
 1990 005a 4001     		lsls	r0, r0, #5
 1991 005c 4CEA0A0C 		orr	ip, ip, r10
 1992 0060 44F800C0 		str	ip, [r4, r0]
 1993              		.loc 1 1035 0
 1994 0064 D4F81C08 		ldr	r0, [r4, #2076]
 1995 0068 0243     		orrs	r2, r2, r0
ARM GAS  C:\Users\stoma\AppData\Local\Temp\ccLygOki.s 			page 36


 1996 006a C4F81C28 		str	r2, [r4, #2076]
 1997              	.L195:
 1998              		.loc 1 1043 0
 1999 006e 2144     		add	r1, r1, r4
 2000              		.loc 1 1044 0
 2001 0070 9A68     		ldr	r2, [r3, #8]
 2002              		.loc 1 1043 0
 2003 0072 0020     		movs	r0, #0
 2004 0074 4FEA8518 		lsl	r8, r5, #6
 2005 0078 C1F81009 		str	r0, [r1, #2320]
 2006 007c 48F02008 		orr	r8, r8, #32
 2007 0080 05F1FF3B 		add	fp, r5, #-1
 2008              		.loc 1 1044 0
 2009 0084 A2B3     		cbz	r2, .L196
 2010              		.loc 1 1046 0
 2011 0086 1E8A     		ldrh	r6, [r3, #16]
 2012              		.loc 1 1047 0
 2013 0088 9B8B     		ldrh	r3, [r3, #28]
 2014              		.loc 1 1046 0
 2015 008a B608     		lsrs	r6, r6, #2
 2016              	.LVL195:
 2017              		.loc 1 1047 0
 2018 008c 012B     		cmp	r3, #1
 2019              		.loc 1 1048 0
 2020 008e 88BF     		it	hi
 2021 0090 5E43     		mulhi	r6, r3, r6
 2022              	.LVL196:
 2023 0092 D7E91523 		ldrd	r2, r3, [r7, #84]
 2024              	.LVL197:
 2025              	.LBB611:
 2026              	.LBB612:
 2027              		.loc 1 213 0
 2028 0096 F118     		adds	r1, r6, r3
 2029 0098 B965     		str	r1, [r7, #88]
 2030              		.loc 1 214 0
 2031 009a 5268     		ldr	r2, [r2, #4]
 2032 009c 9142     		cmp	r1, r2
 2033              	.LBE612:
 2034              	.LBE611:
 2035              		.loc 1 1049 0
 2036 009e 4FEA0646 		lsl	r6, r6, #16
 2037              	.LVL198:
 2038              	.LBB615:
 2039              	.LBB613:
 2040              		.loc 1 214 0
 2041 00a2 5DD8     		bhi	.L206
 2042              	.LVL199:
 2043              	.L198:
 2044              	.LBE613:
 2045              	.LBE615:
 2046              		.loc 1 1049 0
 2047 00a4 0BF1400B 		add	fp, fp, #64
 2048 00a8 396D     		ldr	r1, [r7, #80]
 2049              	.LVL200:
 2050 00aa 04EB8B0B 		add	fp, r4, fp, lsl #2
 2051 00ae 1E43     		orrs	r6, r6, r3
 2052 00b0 CBF80460 		str	r6, [fp, #4]
ARM GAS  C:\Users\stoma\AppData\Local\Temp\ccLygOki.s 			page 37


 2053              	.LBB616:
 2054              	.LBB617:
 2055              		.loc 1 182 0
 2056 00b4 C1F81080 		str	r8, [r1, #16]
 2057              	.L199:
 2058              		.loc 1 183 0
 2059 00b8 0B69     		ldr	r3, [r1, #16]
 2060 00ba 9A06     		lsls	r2, r3, #26
 2061 00bc FCD4     		bmi	.L199
 2062              	.LVL201:
 2063              	.LBB618:
 2064              	.LBB619:
 2065              		.loc 5 527 0
 2066 00be 0C20     		movs	r0, #12
 2067 00c0 FFF7FEFF 		bl	chSysPolledDelayX
 2068              	.LVL202:
 2069              	.LBE619:
 2070              	.LBE618:
 2071              	.LBE617:
 2072              	.LBE616:
 2073              		.loc 1 1055 0
 2074 00c4 D9F80C30 		ldr	r3, [r9, #12]
 2075 00c8 1A8A     		ldrh	r2, [r3, #16]
 2076              		.loc 1 1053 0
 2077 00ca 05F14803 		add	r3, r5, #72
 2078              		.loc 1 1054 0
 2079 00ce 42EA8552 		orr	r2, r2, r5, lsl #22
 2080              		.loc 1 1053 0
 2081 00d2 5B01     		lsls	r3, r3, #5
 2082              		.loc 1 1054 0
 2083 00d4 42EA0A02 		orr	r2, r2, r10
 2084              		.loc 1 1053 0
 2085 00d8 E250     		str	r2, [r4, r3]
 2086              		.loc 1 1056 0
 2087 00da 0121     		movs	r1, #1
 2088 00dc D4F81C38 		ldr	r3, [r4, #2076]
 2089 00e0 01FA05F5 		lsl	r5, r1, r5
 2090 00e4 1D43     		orrs	r5, r5, r3
 2091 00e6 C4F81C58 		str	r5, [r4, #2076]
 2092              		.loc 1 1064 0
 2093 00ea 03B0     		add	sp, sp, #12
 2094              		.cfi_remember_state
 2095              		.cfi_def_cfa_offset 36
 2096              		@ sp needed
 2097 00ec BDE8F08F 		pop	{r4, r5, r6, r7, r8, r9, r10, fp, pc}
 2098              	.LVL203:
 2099              	.L196:
 2100              		.cfi_restore_state
 2101              		.loc 1 1059 0
 2102 00f0 05F13F03 		add	r3, r5, #63
 2103 00f4 3A6D     		ldr	r2, [r7, #80]
 2104              	.LVL204:
 2105 00f6 1F49     		ldr	r1, .L207+8
 2106 00f8 04EB8303 		add	r3, r4, r3, lsl #2
 2107 00fc 5960     		str	r1, [r3, #4]
 2108              	.LBB620:
 2109              	.LBB621:
ARM GAS  C:\Users\stoma\AppData\Local\Temp\ccLygOki.s 			page 38


 2110              		.loc 1 182 0
 2111 00fe C2F81080 		str	r8, [r2, #16]
 2112              	.L201:
 2113              		.loc 1 183 0
 2114 0102 1369     		ldr	r3, [r2, #16]
 2115 0104 9B06     		lsls	r3, r3, #26
 2116 0106 FCD4     		bmi	.L201
 2117              	.LVL205:
 2118 0108 04EB4616 		add	r6, r4, r6, lsl #5
 2119              	.LBB622:
 2120              	.LBB623:
 2121              		.loc 5 527 0
 2122 010c 0C20     		movs	r0, #12
 2123 010e FFF7FEFF 		bl	chSysPolledDelayX
 2124              	.LVL206:
 2125              	.LBE623:
 2126              	.LBE622:
 2127              	.LBE621:
 2128              	.LBE620:
 2129              		.loc 1 1061 0
 2130 0112 D6F80039 		ldr	r3, [r6, #2304]
 2131 0116 23F40043 		bic	r3, r3, #32768
 2132 011a C6F80039 		str	r3, [r6, #2304]
 2133              		.loc 1 1062 0
 2134 011e D4F81C38 		ldr	r3, [r4, #2076]
 2135 0122 0121     		movs	r1, #1
 2136 0124 01FA05F5 		lsl	r5, r1, r5
 2137 0128 23EA0505 		bic	r5, r3, r5
 2138 012c C4F81C58 		str	r5, [r4, #2076]
 2139              		.loc 1 1064 0
 2140 0130 03B0     		add	sp, sp, #12
 2141              		.cfi_remember_state
 2142              		.cfi_def_cfa_offset 36
 2143              		@ sp needed
 2144 0132 BDE8F08F 		pop	{r4, r5, r6, r7, r8, r9, r10, fp, pc}
 2145              	.LVL207:
 2146              	.L194:
 2147              		.cfi_restore_state
 2148 0136 04EB461C 		add	ip, r4, r6, lsl #5
 2149              		.loc 1 1038 0
 2150 013a DCF8000B 		ldr	r0, [ip, #2816]
 2151 013e 20F40040 		bic	r0, r0, #32768
 2152 0142 CCF8000B 		str	r0, [ip, #2816]
 2153              		.loc 1 1039 0
 2154 0146 D4F81C08 		ldr	r0, [r4, #2076]
 2155 014a 20EA0202 		bic	r2, r0, r2
 2156 014e C4F81C28 		str	r2, [r4, #2076]
 2157 0152 8CE7     		b	.L195
 2158              	.LVL208:
 2159              	.L192:
 2160              		.loc 1 1025 0
 2161 0154 DFF824A0 		ldr	r10, .L207+16
 2162              		.loc 1 1026 0
 2163 0158 6BE7     		b	.L193
 2164              	.LVL209:
 2165              	.L191:
 2166              		.loc 1 1022 0
ARM GAS  C:\Users\stoma\AppData\Local\Temp\ccLygOki.s 			page 39


 2167 015a DFF824A0 		ldr	r10, .L207+20
 2168              		.loc 1 1023 0
 2169 015e 68E7     		b	.L193
 2170              	.LVL210:
 2171              	.L206:
 2172              	.LBB624:
 2173              	.LBB614:
 2174              		.loc 1 214 0
 2175 0160 0548     		ldr	r0, .L207+12
 2176 0162 0193     		str	r3, [sp, #4]
 2177 0164 FFF7FEFF 		bl	chSysHalt
 2178              	.LVL211:
 2179 0168 019B     		ldr	r3, [sp, #4]
 2180 016a 9BE7     		b	.L198
 2181              	.L208:
 2182              		.align	2
 2183              	.L207:
 2184 016c 00800410 		.word	268730368
 2185 0170 00800010 		.word	268468224
 2186 0174 00040002 		.word	33555456
 2187 0178 00000000 		.word	.LANCHOR5
 2188 017c 00800C10 		.word	269254656
 2189 0180 00800810 		.word	268992512
 2190              	.LBE614:
 2191              	.LBE624:
 2192              		.cfi_endproc
 2193              	.LFE279:
 2194              		.size	usb_lld_init_endpoint, .-usb_lld_init_endpoint
 2195              		.section	.text.usb_lld_disable_endpoints,"ax",%progbits
 2196              		.align	1
 2197              		.p2align 4,,15
 2198              		.global	usb_lld_disable_endpoints
 2199              		.syntax unified
 2200              		.thumb
 2201              		.thumb_func
 2202              		.fpu fpv4-sp-d16
 2203              		.type	usb_lld_disable_endpoints, %function
 2204              	usb_lld_disable_endpoints:
 2205              	.LFB280:
 2206              		.loc 1 1073 0
 2207              		.cfi_startproc
 2208              		@ args = 0, pretend = 0, frame = 0
 2209              		@ frame_needed = 0, uses_anonymous_args = 0
 2210              		@ link register save eliminated.
 2211              	.LVL212:
 2212              		.loc 1 1073 0
 2213 0000 0346     		mov	r3, r0
 2214              		.loc 1 1079 0
 2215 0002 D0E91401 		ldrd	r0, r1, [r0, #80]
 2216              	.LVL213:
 2217              	.LBB625:
 2218              	.LBB626:
 2219              		.loc 1 198 0
 2220 0006 0A68     		ldr	r2, [r1]
 2221 0008 9A65     		str	r2, [r3, #88]
 2222              	.LBE626:
 2223              	.LBE625:
ARM GAS  C:\Users\stoma\AppData\Local\Temp\ccLygOki.s 			page 40


 2224              		.loc 1 1079 0
 2225 000a FFF7FEBF 		b	otg_disable_ep.isra.0
 2226              	.LVL214:
 2227              		.cfi_endproc
 2228              	.LFE280:
 2229              		.size	usb_lld_disable_endpoints, .-usb_lld_disable_endpoints
 2230 000e 00BF     		.section	.text.usb_lld_get_status_out,"ax",%progbits
 2231              		.align	1
 2232              		.p2align 4,,15
 2233              		.global	usb_lld_get_status_out
 2234              		.syntax unified
 2235              		.thumb
 2236              		.thumb_func
 2237              		.fpu fpv4-sp-d16
 2238              		.type	usb_lld_get_status_out, %function
 2239              	usb_lld_get_status_out:
 2240              	.LFB281:
 2241              		.loc 1 1094 0
 2242              		.cfi_startproc
 2243              		@ args = 0, pretend = 0, frame = 0
 2244              		@ frame_needed = 0, uses_anonymous_args = 0
 2245              		@ link register save eliminated.
 2246              	.LVL215:
 2247              		.loc 1 1099 0
 2248 0000 5831     		adds	r1, r1, #88
 2249              	.LVL216:
 2250 0002 036D     		ldr	r3, [r0, #80]
 2251 0004 4901     		lsls	r1, r1, #5
 2252 0006 5B58     		ldr	r3, [r3, r1]
 2253              	.LVL217:
 2254              		.loc 1 1100 0
 2255 0008 13F40040 		ands	r0, r3, #32768
 2256              	.LVL218:
 2257 000c 04D0     		beq	.L211
 2258              		.loc 1 1102 0
 2259 000e 13F4001F 		tst	r3, #2097152
 2260              		.loc 1 1104 0
 2261 0012 14BF     		ite	ne
 2262 0014 0120     		movne	r0, #1
 2263 0016 0220     		moveq	r0, #2
 2264              	.L211:
 2265              		.loc 1 1105 0
 2266 0018 7047     		bx	lr
 2267              		.cfi_endproc
 2268              	.LFE281:
 2269              		.size	usb_lld_get_status_out, .-usb_lld_get_status_out
 2270 001a 00BF     		.section	.text.usb_lld_get_status_in,"ax",%progbits
 2271              		.align	1
 2272              		.p2align 4,,15
 2273              		.global	usb_lld_get_status_in
 2274              		.syntax unified
 2275              		.thumb
 2276              		.thumb_func
 2277              		.fpu fpv4-sp-d16
 2278              		.type	usb_lld_get_status_in, %function
 2279              	usb_lld_get_status_in:
 2280              	.LFB282:
ARM GAS  C:\Users\stoma\AppData\Local\Temp\ccLygOki.s 			page 41


 2281              		.loc 1 1119 0
 2282              		.cfi_startproc
 2283              		@ args = 0, pretend = 0, frame = 0
 2284              		@ frame_needed = 0, uses_anonymous_args = 0
 2285              		@ link register save eliminated.
 2286              	.LVL219:
 2287              		.loc 1 1124 0
 2288 0000 4831     		adds	r1, r1, #72
 2289              	.LVL220:
 2290 0002 036D     		ldr	r3, [r0, #80]
 2291 0004 4901     		lsls	r1, r1, #5
 2292 0006 5B58     		ldr	r3, [r3, r1]
 2293              	.LVL221:
 2294              		.loc 1 1125 0
 2295 0008 13F40040 		ands	r0, r3, #32768
 2296              	.LVL222:
 2297 000c 04D0     		beq	.L215
 2298              		.loc 1 1127 0
 2299 000e 13F4001F 		tst	r3, #2097152
 2300              		.loc 1 1129 0
 2301 0012 14BF     		ite	ne
 2302 0014 0120     		movne	r0, #1
 2303 0016 0220     		moveq	r0, #2
 2304              	.L215:
 2305              		.loc 1 1130 0
 2306 0018 7047     		bx	lr
 2307              		.cfi_endproc
 2308              	.LFE282:
 2309              		.size	usb_lld_get_status_in, .-usb_lld_get_status_in
 2310 001a 00BF     		.section	.text.usb_lld_read_setup,"ax",%progbits
 2311              		.align	1
 2312              		.p2align 4,,15
 2313              		.global	usb_lld_read_setup
 2314              		.syntax unified
 2315              		.thumb
 2316              		.thumb_func
 2317              		.fpu fpv4-sp-d16
 2318              		.type	usb_lld_read_setup, %function
 2319              	usb_lld_read_setup:
 2320              	.LFB283:
 2321              		.loc 1 1146 0
 2322              		.cfi_startproc
 2323              		@ args = 0, pretend = 0, frame = 0
 2324              		@ frame_needed = 0, uses_anonymous_args = 0
 2325              		@ link register save eliminated.
 2326              	.LVL223:
 2327              		.loc 1 1148 0
 2328 0000 00EB8101 		add	r1, r0, r1, lsl #2
 2329              	.LVL224:
 2330 0004 CB68     		ldr	r3, [r1, #12]
 2331 0006 1B6A     		ldr	r3, [r3, #32]
 2332 0008 1968     		ldr	r1, [r3]	@ unaligned
 2333 000a 5B68     		ldr	r3, [r3, #4]	@ unaligned
 2334 000c 5360     		str	r3, [r2, #4]	@ unaligned
 2335 000e 1160     		str	r1, [r2]	@ unaligned
 2336              		.loc 1 1149 0
 2337 0010 7047     		bx	lr
ARM GAS  C:\Users\stoma\AppData\Local\Temp\ccLygOki.s 			page 42


 2338              		.cfi_endproc
 2339              	.LFE283:
 2340              		.size	usb_lld_read_setup, .-usb_lld_read_setup
 2341 0012 00BF     		.section	.text.usb_lld_prepare_receive,"ax",%progbits
 2342              		.align	1
 2343              		.p2align 4,,15
 2344              		.global	usb_lld_prepare_receive
 2345              		.syntax unified
 2346              		.thumb
 2347              		.thumb_func
 2348              		.fpu fpv4-sp-d16
 2349              		.type	usb_lld_prepare_receive, %function
 2350              	usb_lld_prepare_receive:
 2351              	.LFB284:
 2352              		.loc 1 1159 0
 2353              		.cfi_startproc
 2354              		@ args = 0, pretend = 0, frame = 0
 2355              		@ frame_needed = 0, uses_anonymous_args = 0
 2356              		@ link register save eliminated.
 2357              	.LVL225:
 2358              		.loc 1 1161 0
 2359 0000 00EB8103 		add	r3, r0, r1, lsl #2
 2360              		.loc 1 1159 0
 2361 0004 70B4     		push	{r4, r5, r6}
 2362              		.cfi_def_cfa_offset 12
 2363              		.cfi_offset 4, -12
 2364              		.cfi_offset 5, -8
 2365              		.cfi_offset 6, -4
 2366              		.loc 1 1161 0
 2367 0006 DE68     		ldr	r6, [r3, #12]
 2368 0008 B569     		ldr	r5, [r6, #24]
 2369              	.LVL226:
 2370              		.loc 1 1164 0
 2371 000a 6A68     		ldr	r2, [r5, #4]
 2372 000c 2A61     		str	r2, [r5, #16]
 2373              		.loc 1 1165 0
 2374 000e 29B9     		cbnz	r1, .L224
 2375              		.loc 1 1165 0 is_stmt 0 discriminator 1
 2376 0010 402A     		cmp	r2, #64
 2377 0012 03D9     		bls	.L224
 2378              		.loc 1 1166 0 is_stmt 1
 2379 0014 4022     		movs	r2, #64
 2380 0016 094C     		ldr	r4, .L225
 2381 0018 6A60     		str	r2, [r5, #4]
 2382 001a 01E0     		b	.L221
 2383              	.L224:
 2384 001c 42F0C044 		orr	r4, r2, #1610612736
 2385              	.L221:
 2386              		.loc 1 1168 0
 2387 0020 758A     		ldrh	r5, [r6, #18]
 2388              	.LVL227:
 2389              		.loc 1 1170 0
 2390 0022 006D     		ldr	r0, [r0, #80]
 2391              	.LVL228:
 2392              		.loc 1 1168 0
 2393 0024 6B1E     		subs	r3, r5, #1
 2394              		.loc 1 1170 0
ARM GAS  C:\Users\stoma\AppData\Local\Temp\ccLygOki.s 			page 43


 2395 0026 00EB4111 		add	r1, r0, r1, lsl #5
 2396              	.LVL229:
 2397              		.loc 1 1168 0
 2398 002a 1344     		add	r3, r3, r2
 2399 002c B3FBF5F3 		udiv	r3, r3, r5
 2400              		.loc 1 1170 0
 2401 0030 44EAC343 		orr	r3, r4, r3, lsl #19
 2402 0034 C1F8103B 		str	r3, [r1, #2832]
 2403              		.loc 1 1173 0
 2404 0038 70BC     		pop	{r4, r5, r6}
 2405              		.cfi_restore 6
 2406              		.cfi_restore 5
 2407              		.cfi_restore 4
 2408              		.cfi_def_cfa_offset 0
 2409              	.LVL230:
 2410 003a 7047     		bx	lr
 2411              	.L226:
 2412              		.align	2
 2413              	.L225:
 2414 003c 40000060 		.word	1610612800
 2415              		.cfi_endproc
 2416              	.LFE284:
 2417              		.size	usb_lld_prepare_receive, .-usb_lld_prepare_receive
 2418              		.section	.text.otg_epout_handler.constprop.7,"ax",%progbits
 2419              		.align	1
 2420              		.p2align 4,,15
 2421              		.syntax unified
 2422              		.thumb
 2423              		.thumb_func
 2424              		.fpu fpv4-sp-d16
 2425              		.type	otg_epout_handler.constprop.7, %function
 2426              	otg_epout_handler.constprop.7:
 2427              	.LFB300:
 2428              		.loc 1 581 0
 2429              		.cfi_startproc
 2430              		@ args = 0, pretend = 0, frame = 0
 2431              		@ frame_needed = 0, uses_anonymous_args = 0
 2432              	.LVL231:
 2433 0000 2DE9F041 		push	{r4, r5, r6, r7, r8, lr}
 2434              		.cfi_def_cfa_offset 24
 2435              		.cfi_offset 4, -24
 2436              		.cfi_offset 5, -20
 2437              		.cfi_offset 6, -16
 2438              		.cfi_offset 7, -12
 2439              		.cfi_offset 8, -8
 2440              		.cfi_offset 14, -4
 2441              		.loc 1 582 0
 2442 0004 284E     		ldr	r6, .L245
 2443 0006 376D     		ldr	r7, [r6, #80]
 2444              	.LVL232:
 2445              		.loc 1 583 0
 2446 0008 07EB4013 		add	r3, r7, r0, lsl #5
 2447              		.loc 1 581 0
 2448 000c 0546     		mov	r5, r0
 2449              		.loc 1 583 0
 2450 000e D3F8084B 		ldr	r4, [r3, #2824]
 2451              	.LVL233:
ARM GAS  C:\Users\stoma\AppData\Local\Temp\ccLygOki.s 			page 44


 2452              		.loc 1 586 0
 2453 0012 C3F8084B 		str	r4, [r3, #2824]
 2454              		.loc 1 588 0
 2455 0016 2007     		lsls	r0, r4, #28
 2456              	.LVL234:
 2457 0018 0AD5     		bpl	.L228
 2458 001a D7F81438 		ldr	r3, [r7, #2068]
 2459 001e 1907     		lsls	r1, r3, #28
 2460 0020 06D5     		bpl	.L228
 2461              		.loc 1 591 0
 2462 0022 06EB8503 		add	r3, r6, r5, lsl #2
 2463 0026 2946     		mov	r1, r5
 2464 0028 DB68     		ldr	r3, [r3, #12]
 2465 002a 3046     		mov	r0, r6
 2466 002c 5B68     		ldr	r3, [r3, #4]
 2467 002e 9847     		blx	r3
 2468              	.LVL235:
 2469              	.L228:
 2470              		.loc 1 594 0
 2471 0030 E207     		lsls	r2, r4, #31
 2472 0032 36D5     		bpl	.L227
 2473 0034 D7F81438 		ldr	r3, [r7, #2068]
 2474 0038 DB07     		lsls	r3, r3, #31
 2475 003a 32D5     		bpl	.L227
 2476              	.LBB627:
 2477              		.loc 1 596 0
 2478 003c 06EB8503 		add	r3, r6, r5, lsl #2
 2479 0040 D968     		ldr	r1, [r3, #12]
 2480 0042 8B69     		ldr	r3, [r1, #24]
 2481              	.LVL236:
 2482              		.loc 1 598 0
 2483 0044 5868     		ldr	r0, [r3, #4]
 2484 0046 1A69     		ldr	r2, [r3, #16]
 2485 0048 9042     		cmp	r0, r2
 2486 004a 0CD3     		bcc	.L244
 2487              		.loc 1 611 0
 2488 004c 7389     		ldrh	r3, [r6, #10]
 2489              	.LVL237:
 2490 004e CC68     		ldr	r4, [r1, #12]
 2491              	.LVL238:
 2492 0050 1548     		ldr	r0, .L245
 2493 0052 0122     		movs	r2, #1
 2494 0054 AA40     		lsls	r2, r2, r5
 2495 0056 23EA0203 		bic	r3, r3, r2
 2496 005a 7381     		strh	r3, [r6, #10]	@ movhi
 2497 005c 2946     		mov	r1, r5
 2498              	.LVL239:
 2499 005e 2346     		mov	r3, r4
 2500              	.LBE627:
 2501              		.loc 1 614 0
 2502 0060 BDE8F041 		pop	{r4, r5, r6, r7, r8, lr}
 2503              		.cfi_remember_state
 2504              		.cfi_restore 14
 2505              		.cfi_restore 8
 2506              		.cfi_restore 7
 2507              		.cfi_restore 6
 2508              		.cfi_restore 5
ARM GAS  C:\Users\stoma\AppData\Local\Temp\ccLygOki.s 			page 45


 2509              		.cfi_restore 4
 2510              		.cfi_def_cfa_offset 0
 2511              	.LVL240:
 2512              	.LBB642:
 2513              		.loc 1 611 0
 2514 0064 1847     		bx	r3	@ indirect register sibling call
 2515              	.LVL241:
 2516              	.L244:
 2517              		.cfi_restore_state
 2518              		.loc 1 602 0
 2519 0066 121A     		subs	r2, r2, r0
 2520              		.loc 1 603 0
 2521 0068 0024     		movs	r4, #0
 2522              	.LVL242:
 2523 006a C3E90124 		strd	r2, r4, [r3, #4]
 2524              		.loc 1 604 0
 2525 006e 2946     		mov	r1, r5
 2526 0070 0D48     		ldr	r0, .L245
 2527 0072 FFF7FEFF 		bl	usb_lld_prepare_receive
 2528              	.LVL243:
 2529              	.LBB628:
 2530              	.LBB629:
 2531              	.LBB630:
 2532              	.LBB631:
 2533              	.LBB632:
 2534              	.LBB633:
 2535              		.loc 3 546 0
 2536 0076 2023     		movs	r3, #32
 2537              		.syntax unified
 2538              	@ 546 "../../lib/ChibiOS/os/ext/CMSIS/include/core_cmFunc.h" 1
 2539 0078 83F31188 		MSR basepri, r3
 2540              	@ 0 "" 2
 2541              	.LVL244:
 2542              		.thumb
 2543              		.syntax unified
 2544              	.LBE633:
 2545              	.LBE632:
 2546              	.LBE631:
 2547              	.LBE630:
 2548              		.loc 4 389 0
 2549 007c FFF7FEFF 		bl	_stats_start_measure_crit_isr
 2550              	.LVL245:
 2551              		.loc 4 390 0
 2552 0080 FFF7FEFF 		bl	_dbg_check_lock_from_isr
 2553              	.LVL246:
 2554 0084 336D     		ldr	r3, [r6, #80]
 2555 0086 03EB4515 		add	r5, r3, r5, lsl #5
 2556              	.LVL247:
 2557              	.LBE629:
 2558              	.LBE628:
 2559              	.LBB634:
 2560              	.LBB635:
 2561              		.loc 1 1214 0
 2562 008a D5F8003B 		ldr	r3, [r5, #2816]
 2563 008e 43F08063 		orr	r3, r3, #67108864
 2564 0092 C5F8003B 		str	r3, [r5, #2816]
 2565              	.LVL248:
ARM GAS  C:\Users\stoma\AppData\Local\Temp\ccLygOki.s 			page 46


 2566              	.LBE635:
 2567              	.LBE634:
 2568              	.LBB636:
 2569              	.LBB637:
 2570              		.loc 4 408 0
 2571 0096 FFF7FEFF 		bl	_dbg_check_unlock_from_isr
 2572              	.LVL249:
 2573              		.loc 4 409 0
 2574 009a FFF7FEFF 		bl	_stats_stop_measure_crit_isr
 2575              	.LVL250:
 2576              	.LBB638:
 2577              	.LBB639:
 2578              	.LBB640:
 2579              	.LBB641:
 2580              		.loc 3 546 0
 2581              		.syntax unified
 2582              	@ 546 "../../lib/ChibiOS/os/ext/CMSIS/include/core_cmFunc.h" 1
 2583 009e 84F31188 		MSR basepri, r4
 2584              	@ 0 "" 2
 2585              	.LVL251:
 2586              		.thumb
 2587              		.syntax unified
 2588              	.L227:
 2589              	.LBE641:
 2590              	.LBE640:
 2591              	.LBE639:
 2592              	.LBE638:
 2593              	.LBE637:
 2594              	.LBE636:
 2595              	.LBE642:
 2596              		.loc 1 614 0
 2597 00a2 BDE8F081 		pop	{r4, r5, r6, r7, r8, pc}
 2598              	.LVL252:
 2599              	.L246:
 2600 00a6 00BF     		.align	2
 2601              	.L245:
 2602 00a8 00000000 		.word	.LANCHOR1
 2603              		.cfi_endproc
 2604              	.LFE300:
 2605              		.size	otg_epout_handler.constprop.7, .-otg_epout_handler.constprop.7
 2606              		.section	.text.usb_lld_prepare_transmit,"ax",%progbits
 2607              		.align	1
 2608              		.p2align 4,,15
 2609              		.global	usb_lld_prepare_transmit
 2610              		.syntax unified
 2611              		.thumb
 2612              		.thumb_func
 2613              		.fpu fpv4-sp-d16
 2614              		.type	usb_lld_prepare_transmit, %function
 2615              	usb_lld_prepare_transmit:
 2616              	.LFB285:
 2617              		.loc 1 1183 0
 2618              		.cfi_startproc
 2619              		@ args = 0, pretend = 0, frame = 0
 2620              		@ frame_needed = 0, uses_anonymous_args = 0
 2621              		@ link register save eliminated.
 2622              	.LVL253:
ARM GAS  C:\Users\stoma\AppData\Local\Temp\ccLygOki.s 			page 47


 2623              		.loc 1 1184 0
 2624 0000 00EB8103 		add	r3, r0, r1, lsl #2
 2625              		.loc 1 1183 0
 2626 0004 10B4     		push	{r4}
 2627              		.cfi_def_cfa_offset 4
 2628              		.cfi_offset 4, -4
 2629              		.loc 1 1184 0
 2630 0006 DC68     		ldr	r4, [r3, #12]
 2631 0008 026D     		ldr	r2, [r0, #80]
 2632 000a 6069     		ldr	r0, [r4, #20]
 2633              	.LVL254:
 2634              		.loc 1 1187 0
 2635 000c 4368     		ldr	r3, [r0, #4]
 2636 000e 0361     		str	r3, [r0, #16]
 2637              		.loc 1 1188 0
 2638 0010 9BB1     		cbz	r3, .L252
 2639              	.LBB643:
 2640              		.loc 1 1193 0
 2641 0012 69B1     		cbz	r1, .L253
 2642              	.L250:
 2643              		.loc 1 1197 0
 2644 0014 208A     		ldrh	r0, [r4, #16]
 2645              	.LVL255:
 2646              	.LBE643:
 2647              		.loc 1 1202 0
 2648 0016 5DF8044B 		ldr	r4, [sp], #4
 2649              		.cfi_remember_state
 2650              		.cfi_restore 4
 2651              		.cfi_def_cfa_offset 0
 2652              	.LVL256:
 2653              	.LBB644:
 2654              		.loc 1 1199 0
 2655 001a 02EB4112 		add	r2, r2, r1, lsl #5
 2656              		.loc 1 1197 0
 2657 001e 411E     		subs	r1, r0, #1
 2658              	.LVL257:
 2659 0020 1944     		add	r1, r1, r3
 2660 0022 B1FBF0F1 		udiv	r1, r1, r0
 2661              		.loc 1 1199 0
 2662 0026 43EAC143 		orr	r3, r3, r1, lsl #19
 2663              	.LVL258:
 2664 002a C2F81039 		str	r3, [r2, #2320]
 2665              	.LBE644:
 2666              		.loc 1 1202 0
 2667 002e 7047     		bx	lr
 2668              	.LVL259:
 2669              	.L253:
 2670              		.cfi_restore_state
 2671              	.LBB645:
 2672              		.loc 1 1193 0 discriminator 1
 2673 0030 402B     		cmp	r3, #64
 2674              		.loc 1 1194 0 discriminator 1
 2675 0032 84BF     		itt	hi
 2676 0034 4023     		movhi	r3, #64
 2677 0036 4360     		strhi	r3, [r0, #4]
 2678 0038 ECE7     		b	.L250
 2679              	.L252:
ARM GAS  C:\Users\stoma\AppData\Local\Temp\ccLygOki.s 			page 48


 2680              	.LBE645:
 2681              		.loc 1 1190 0
 2682 003a 02EB4112 		add	r2, r2, r1, lsl #5
 2683 003e 4FF40023 		mov	r3, #524288
 2684 0042 C2F81039 		str	r3, [r2, #2320]
 2685              		.loc 1 1202 0
 2686 0046 5DF8044B 		ldr	r4, [sp], #4
 2687              		.cfi_restore 4
 2688              		.cfi_def_cfa_offset 0
 2689 004a 7047     		bx	lr
 2690              		.cfi_endproc
 2691              	.LFE285:
 2692              		.size	usb_lld_prepare_transmit, .-usb_lld_prepare_transmit
 2693              		.section	.text.otg_epin_handler.constprop.8,"ax",%progbits
 2694              		.align	1
 2695              		.p2align 4,,15
 2696              		.syntax unified
 2697              		.thumb
 2698              		.thumb_func
 2699              		.fpu fpv4-sp-d16
 2700              		.type	otg_epin_handler.constprop.8, %function
 2701              	otg_epin_handler.constprop.8:
 2702              	.LFB299:
 2703              		.loc 1 533 0
 2704              		.cfi_startproc
 2705              		@ args = 0, pretend = 0, frame = 0
 2706              		@ frame_needed = 0, uses_anonymous_args = 0
 2707              	.LVL260:
 2708 0000 2DE9F041 		push	{r4, r5, r6, r7, r8, lr}
 2709              		.cfi_def_cfa_offset 24
 2710              		.cfi_offset 4, -24
 2711              		.cfi_offset 5, -20
 2712              		.cfi_offset 6, -16
 2713              		.cfi_offset 7, -12
 2714              		.cfi_offset 8, -8
 2715              		.cfi_offset 14, -4
 2716              		.loc 1 534 0
 2717 0004 384E     		ldr	r6, .L273
 2718 0006 356D     		ldr	r5, [r6, #80]
 2719              	.LVL261:
 2720              		.loc 1 535 0
 2721 0008 05EB4013 		add	r3, r5, r0, lsl #5
 2722              		.loc 1 533 0
 2723 000c 0746     		mov	r7, r0
 2724              		.loc 1 535 0
 2725 000e D3F80849 		ldr	r4, [r3, #2312]
 2726              	.LVL262:
 2727              		.loc 1 537 0
 2728 0012 C3F80849 		str	r4, [r3, #2312]
 2729              		.loc 1 542 0
 2730 0016 E107     		lsls	r1, r4, #31
 2731 0018 16D5     		bpl	.L255
 2732 001a D5F81038 		ldr	r3, [r5, #2064]
 2733 001e DA07     		lsls	r2, r3, #31
 2734 0020 12D5     		bpl	.L255
 2735              	.LBB646:
 2736              		.loc 1 544 0
ARM GAS  C:\Users\stoma\AppData\Local\Temp\ccLygOki.s 			page 49


 2737 0022 06EB8003 		add	r3, r6, r0, lsl #2
 2738 0026 D968     		ldr	r1, [r3, #12]
 2739 0028 4B69     		ldr	r3, [r1, #20]
 2740              	.LVL263:
 2741              		.loc 1 546 0
 2742 002a 5868     		ldr	r0, [r3, #4]
 2743              	.LVL264:
 2744 002c 1A69     		ldr	r2, [r3, #16]
 2745 002e 9042     		cmp	r0, r2
 2746 0030 32D3     		bcc	.L271
 2747              		.loc 1 559 0
 2748 0032 3389     		ldrh	r3, [r6, #8]
 2749              	.LVL265:
 2750 0034 D1F80880 		ldr	r8, [r1, #8]
 2751 0038 0122     		movs	r2, #1
 2752 003a BA40     		lsls	r2, r2, r7
 2753 003c 23EA0203 		bic	r3, r3, r2
 2754 0040 3381     		strh	r3, [r6, #8]	@ movhi
 2755 0042 3946     		mov	r1, r7
 2756              	.LVL266:
 2757 0044 3046     		mov	r0, r6
 2758 0046 C047     		blx	r8
 2759              	.LVL267:
 2760              	.L255:
 2761              	.LBE646:
 2762              		.loc 1 562 0
 2763 0048 2306     		lsls	r3, r4, #24
 2764 004a 06D5     		bpl	.L254
 2765              		.loc 1 563 0
 2766 004c 0123     		movs	r3, #1
 2767 004e D5F83428 		ldr	r2, [r5, #2100]
 2768 0052 03FA07F7 		lsl	r7, r3, r7
 2769              		.loc 1 562 0
 2770 0056 1742     		tst	r7, r2
 2771 0058 01D1     		bne	.L272
 2772              	.L254:
 2773              		.loc 1 571 0
 2774 005a BDE8F081 		pop	{r4, r5, r6, r7, r8, pc}
 2775              	.LVL268:
 2776              	.L272:
 2777              	.LBB663:
 2778              	.LBB664:
 2779              	.LBB665:
 2780              	.LBB666:
 2781              	.LBB667:
 2782              	.LBB668:
 2783              	.LBB669:
 2784              		.loc 3 546 0
 2785 005e 2023     		movs	r3, #32
 2786              		.syntax unified
 2787              	@ 546 "../../lib/ChibiOS/os/ext/CMSIS/include/core_cmFunc.h" 1
 2788 0060 83F31188 		MSR basepri, r3
 2789              	@ 0 "" 2
 2790              	.LVL269:
 2791              		.thumb
 2792              		.syntax unified
 2793              	.LBE669:
ARM GAS  C:\Users\stoma\AppData\Local\Temp\ccLygOki.s 			page 50


 2794              	.LBE668:
 2795              	.LBE667:
 2796              	.LBE666:
 2797              		.loc 4 389 0
 2798 0064 FFF7FEFF 		bl	_stats_start_measure_crit_isr
 2799              	.LVL270:
 2800              		.loc 4 390 0
 2801 0068 FFF7FEFF 		bl	_dbg_check_lock_from_isr
 2802              	.LVL271:
 2803              	.LBE665:
 2804              	.LBE664:
 2805              	.LBE663:
 2806              		.loc 1 567 0
 2807 006c D5F83428 		ldr	r2, [r5, #2100]
 2808              		.loc 1 566 0
 2809 0070 F36D     		ldr	r3, [r6, #92]
 2810              	.LBB670:
 2811              	.LBB671:
 2812              		.loc 5 682 0
 2813 0072 1E48     		ldr	r0, .L273+4
 2814              	.LBE671:
 2815              	.LBE670:
 2816              		.loc 1 567 0
 2817 0074 22EA0702 		bic	r2, r2, r7
 2818 0078 C5F83428 		str	r2, [r5, #2100]
 2819              	.LVL272:
 2820              		.loc 1 566 0
 2821 007c 1F43     		orrs	r7, r7, r3
 2822              	.LBB674:
 2823              	.LBB672:
 2824              		.loc 5 682 0
 2825 007e 0021     		movs	r1, #0
 2826              	.LBE672:
 2827              	.LBE674:
 2828              		.loc 1 566 0
 2829 0080 F765     		str	r7, [r6, #92]
 2830              	.LBB675:
 2831              	.LBB673:
 2832              		.loc 5 682 0
 2833 0082 FFF7FEFF 		bl	chThdResumeI
 2834              	.LVL273:
 2835              	.LBE673:
 2836              	.LBE675:
 2837              	.LBB676:
 2838              	.LBB677:
 2839              	.LBB678:
 2840              		.loc 4 408 0
 2841 0086 FFF7FEFF 		bl	_dbg_check_unlock_from_isr
 2842              	.LVL274:
 2843              		.loc 4 409 0
 2844 008a FFF7FEFF 		bl	_stats_stop_measure_crit_isr
 2845              	.LVL275:
 2846              	.LBB679:
 2847              	.LBB680:
 2848              	.LBB681:
 2849              	.LBB682:
 2850              		.loc 3 546 0
ARM GAS  C:\Users\stoma\AppData\Local\Temp\ccLygOki.s 			page 51


 2851 008e 0023     		movs	r3, #0
 2852              		.syntax unified
 2853              	@ 546 "../../lib/ChibiOS/os/ext/CMSIS/include/core_cmFunc.h" 1
 2854 0090 83F31188 		MSR basepri, r3
 2855              	@ 0 "" 2
 2856              	.LVL276:
 2857              		.thumb
 2858              		.syntax unified
 2859              	.LBE682:
 2860              	.LBE681:
 2861              	.LBE680:
 2862              	.LBE679:
 2863              	.LBE678:
 2864              	.LBE677:
 2865              	.LBE676:
 2866              		.loc 1 571 0
 2867 0094 BDE8F081 		pop	{r4, r5, r6, r7, r8, pc}
 2868              	.LVL277:
 2869              	.L271:
 2870              	.LBB683:
 2871              		.loc 1 550 0
 2872 0098 121A     		subs	r2, r2, r0
 2873              		.loc 1 551 0
 2874 009a 4FF00008 		mov	r8, #0
 2875 009e C3E90128 		strd	r2, r8, [r3, #4]
 2876              		.loc 1 552 0
 2877 00a2 3946     		mov	r1, r7
 2878 00a4 3046     		mov	r0, r6
 2879 00a6 FFF7FEFF 		bl	usb_lld_prepare_transmit
 2880              	.LVL278:
 2881              	.LBB647:
 2882              	.LBB648:
 2883              	.LBB649:
 2884              	.LBB650:
 2885              	.LBB651:
 2886              	.LBB652:
 2887              	.LBB653:
 2888              		.loc 3 546 0
 2889 00aa 2023     		movs	r3, #32
 2890              		.syntax unified
 2891              	@ 546 "../../lib/ChibiOS/os/ext/CMSIS/include/core_cmFunc.h" 1
 2892 00ac 83F31188 		MSR basepri, r3
 2893              	@ 0 "" 2
 2894              	.LVL279:
 2895              		.thumb
 2896              		.syntax unified
 2897              	.LBE653:
 2898              	.LBE652:
 2899              	.LBE651:
 2900              	.LBE650:
 2901              		.loc 4 389 0
 2902 00b0 FFF7FEFF 		bl	_stats_start_measure_crit_isr
 2903              	.LVL280:
 2904              		.loc 4 390 0
 2905 00b4 FFF7FEFF 		bl	_dbg_check_lock_from_isr
 2906              	.LVL281:
 2907              	.LBE649:
ARM GAS  C:\Users\stoma\AppData\Local\Temp\ccLygOki.s 			page 52


 2908              	.LBE648:
 2909              	.LBE647:
 2910              	.LBB654:
 2911              	.LBB655:
 2912              		.loc 1 1227 0
 2913 00b8 326D     		ldr	r2, [r6, #80]
 2914 00ba 02EB4710 		add	r0, r2, r7, lsl #5
 2915              		.loc 1 1228 0
 2916 00be 0123     		movs	r3, #1
 2917              		.loc 1 1227 0
 2918 00c0 D0F80019 		ldr	r1, [r0, #2304]
 2919 00c4 41F00441 		orr	r1, r1, #-2080374784
 2920 00c8 C0F80019 		str	r1, [r0, #2304]
 2921              		.loc 1 1228 0
 2922 00cc D2F83418 		ldr	r1, [r2, #2100]
 2923 00d0 BB40     		lsls	r3, r3, r7
 2924 00d2 0B43     		orrs	r3, r3, r1
 2925 00d4 C2F83438 		str	r3, [r2, #2100]
 2926              	.LVL282:
 2927              	.LBE655:
 2928              	.LBE654:
 2929              	.LBB656:
 2930              	.LBB657:
 2931              	.LBB658:
 2932              		.loc 4 408 0
 2933 00d8 FFF7FEFF 		bl	_dbg_check_unlock_from_isr
 2934              	.LVL283:
 2935              		.loc 4 409 0
 2936 00dc FFF7FEFF 		bl	_stats_stop_measure_crit_isr
 2937              	.LVL284:
 2938              	.LBB659:
 2939              	.LBB660:
 2940              	.LBB661:
 2941              	.LBB662:
 2942              		.loc 3 546 0
 2943              		.syntax unified
 2944              	@ 546 "../../lib/ChibiOS/os/ext/CMSIS/include/core_cmFunc.h" 1
 2945 00e0 88F31188 		MSR basepri, r8
 2946              	@ 0 "" 2
 2947              	.LVL285:
 2948              		.thumb
 2949              		.syntax unified
 2950 00e4 B0E7     		b	.L255
 2951              	.L274:
 2952 00e6 00BF     		.align	2
 2953              	.L273:
 2954 00e8 00000000 		.word	.LANCHOR1
 2955 00ec 60000000 		.word	.LANCHOR1+96
 2956              	.LBE662:
 2957              	.LBE661:
 2958              	.LBE660:
 2959              	.LBE659:
 2960              	.LBE658:
 2961              	.LBE657:
 2962              	.LBE656:
 2963              	.LBE683:
 2964              		.cfi_endproc
ARM GAS  C:\Users\stoma\AppData\Local\Temp\ccLygOki.s 			page 53


 2965              	.LFE299:
 2966              		.size	otg_epin_handler.constprop.8, .-otg_epin_handler.constprop.8
 2967              		.section	.text.Vector14C,"ax",%progbits
 2968              		.align	1
 2969              		.p2align 4,,15
 2970              		.global	Vector14C
 2971              		.syntax unified
 2972              		.thumb
 2973              		.thumb_func
 2974              		.fpu fpv4-sp-d16
 2975              		.type	Vector14C, %function
 2976              	Vector14C:
 2977              	.LFB273:
 2978              		.loc 1 706 0
 2979              		.cfi_startproc
 2980              		@ args = 0, pretend = 0, frame = 0
 2981              		@ frame_needed = 0, uses_anonymous_args = 0
 2982 0000 70B5     		push	{r4, r5, r6, lr}
 2983              		.cfi_def_cfa_offset 16
 2984              		.cfi_offset 4, -16
 2985              		.cfi_offset 5, -12
 2986              		.cfi_offset 6, -8
 2987              		.cfi_offset 14, -4
 2988              	.LBB702:
 2989              	.LBB703:
 2990              		.loc 1 624 0
 2991 0002 424D     		ldr	r5, .L344
 2992              	.LBE703:
 2993              	.LBE702:
 2994              		.loc 1 708 0
 2995 0004 FFF7FEFF 		bl	_stats_increase_irq
 2996              	.LVL286:
 2997 0008 FFF7FEFF 		bl	_dbg_check_enter_isr
 2998              	.LVL287:
 2999              	.LBB725:
 3000              	.LBB722:
 3001              		.loc 1 624 0
 3002 000c 2E6D     		ldr	r6, [r5, #80]
 3003              	.LVL288:
 3004              		.loc 1 627 0
 3005 000e 7469     		ldr	r4, [r6, #20]
 3006              	.LVL289:
 3007              		.loc 1 628 0
 3008 0010 B369     		ldr	r3, [r6, #24]
 3009 0012 1C40     		ands	r4, r4, r3
 3010              	.LVL290:
 3011              		.loc 1 632 0
 3012 0014 E104     		lsls	r1, r4, #19
 3013              		.loc 1 629 0
 3014 0016 7461     		str	r4, [r6, #20]
 3015              		.loc 1 632 0
 3016 0018 28D4     		bmi	.L334
 3017              	.L277:
 3018              		.loc 1 638 0
 3019 001a A204     		lsls	r2, r4, #18
 3020              		.loc 1 639 0
 3021 001c 48BF     		it	mi
ARM GAS  C:\Users\stoma\AppData\Local\Temp\ccLygOki.s 			page 54


 3022 001e D6F80838 		ldrmi	r3, [r6, #2056]
 3023              		.loc 1 643 0
 3024 0022 2307     		lsls	r3, r4, #28
 3025 0024 04D5     		bpl	.L280
 3026              		.loc 1 644 0
 3027 0026 6B68     		ldr	r3, [r5, #4]
 3028 0028 DB68     		ldr	r3, [r3, #12]
 3029 002a 0BB1     		cbz	r3, .L280
 3030 002c 3748     		ldr	r0, .L344
 3031 002e 9847     		blx	r3
 3032              	.LVL291:
 3033              	.L280:
 3034              		.loc 1 648 0
 3035 0030 E506     		lsls	r5, r4, #27
 3036 0032 26D4     		bmi	.L335
 3037              	.L281:
 3038              		.loc 1 659 0
 3039 0034 6003     		lsls	r0, r4, #13
 3040              		.loc 1 658 0
 3041 0036 D6F81858 		ldr	r5, [r6, #2072]
 3042              	.LVL292:
 3043              		.loc 1 659 0
 3044 003a 07D5     		bpl	.L283
 3045              		.loc 1 660 0
 3046 003c E907     		lsls	r1, r5, #31
 3047 003e 5BD4     		bmi	.L336
 3048              		.loc 1 662 0
 3049 0040 AA07     		lsls	r2, r5, #30
 3050 0042 4ED4     		bmi	.L337
 3051              	.L285:
 3052              		.loc 1 664 0
 3053 0044 6B07     		lsls	r3, r5, #29
 3054 0046 51D4     		bmi	.L338
 3055              	.L286:
 3056              		.loc 1 666 0
 3057 0048 2E07     		lsls	r6, r5, #28
 3058              	.LVL293:
 3059 004a 5BD4     		bmi	.L339
 3060              	.L283:
 3061              		.loc 1 675 0
 3062 004c 2403     		lsls	r4, r4, #12
 3063              	.LVL294:
 3064 004e 07D5     		bpl	.L289
 3065              		.loc 1 676 0
 3066 0050 E803     		lsls	r0, r5, #15
 3067 0052 36D4     		bmi	.L340
 3068              		.loc 1 678 0
 3069 0054 A903     		lsls	r1, r5, #14
 3070 0056 39D4     		bmi	.L341
 3071              	.L291:
 3072              		.loc 1 680 0
 3073 0058 6A03     		lsls	r2, r5, #13
 3074 005a 3CD4     		bmi	.L342
 3075              	.L292:
 3076              		.loc 1 682 0
 3077 005c 2B03     		lsls	r3, r5, #12
 3078 005e 27D4     		bmi	.L343
ARM GAS  C:\Users\stoma\AppData\Local\Temp\ccLygOki.s 			page 55


 3079              	.L289:
 3080              	.LVL295:
 3081              	.LBE722:
 3082              	.LBE725:
 3083              		.loc 1 712 0
 3084 0060 FFF7FEFF 		bl	_dbg_check_leave_isr
 3085              	.LVL296:
 3086              		.loc 1 713 0
 3087 0064 BDE87040 		pop	{r4, r5, r6, lr}
 3088              		.cfi_remember_state
 3089              		.cfi_restore 14
 3090              		.cfi_restore 6
 3091              		.cfi_restore 5
 3092              		.cfi_restore 4
 3093              		.cfi_def_cfa_offset 0
 3094              		.loc 1 712 0
 3095 0068 FFF7FEBF 		b	_port_irq_epilogue
 3096              	.LVL297:
 3097              	.L334:
 3098              		.cfi_restore_state
 3099              	.LBB726:
 3100              	.LBB723:
 3101              		.loc 1 633 0
 3102 006c 2846     		mov	r0, r5
 3103 006e FFF7FEFF 		bl	_usb_reset
 3104              	.LVL298:
 3105              		.loc 1 634 0
 3106 0072 6B68     		ldr	r3, [r5, #4]
 3107 0074 1B68     		ldr	r3, [r3]
 3108 0076 002B     		cmp	r3, #0
 3109 0078 CFD0     		beq	.L277
 3110 007a 0021     		movs	r1, #0
 3111 007c 2846     		mov	r0, r5
 3112 007e 9847     		blx	r3
 3113              	.LVL299:
 3114 0080 CBE7     		b	.L277
 3115              	.L335:
 3116              	.LVL300:
 3117              	.LBB704:
 3118              	.LBB705:
 3119              	.LBB706:
 3120              	.LBB707:
 3121              	.LBB708:
 3122              	.LBB709:
 3123              	.LBB710:
 3124              		.loc 3 546 0
 3125 0082 2023     		movs	r3, #32
 3126              		.syntax unified
 3127              	@ 546 "../../lib/ChibiOS/os/ext/CMSIS/include/core_cmFunc.h" 1
 3128 0084 83F31188 		MSR basepri, r3
 3129              	@ 0 "" 2
 3130              	.LVL301:
 3131              		.thumb
 3132              		.syntax unified
 3133              	.LBE710:
 3134              	.LBE709:
 3135              	.LBE708:
ARM GAS  C:\Users\stoma\AppData\Local\Temp\ccLygOki.s 			page 56


 3136              	.LBE707:
 3137              		.loc 4 389 0
 3138 0088 FFF7FEFF 		bl	_stats_start_measure_crit_isr
 3139              	.LVL302:
 3140              		.loc 4 390 0
 3141 008c FFF7FEFF 		bl	_dbg_check_lock_from_isr
 3142              	.LVL303:
 3143              	.LBE706:
 3144              	.LBE705:
 3145              	.LBE704:
 3146              		.loc 1 652 0
 3147 0090 B369     		ldr	r3, [r6, #24]
 3148              	.LBB711:
 3149              	.LBB712:
 3150              		.loc 5 682 0
 3151 0092 1F48     		ldr	r0, .L344+4
 3152              	.LBE712:
 3153              	.LBE711:
 3154              		.loc 1 652 0
 3155 0094 23F01003 		bic	r3, r3, #16
 3156 0098 B361     		str	r3, [r6, #24]
 3157              	.LVL304:
 3158              	.LBB714:
 3159              	.LBB713:
 3160              		.loc 5 682 0
 3161 009a 0021     		movs	r1, #0
 3162 009c FFF7FEFF 		bl	chThdResumeI
 3163              	.LVL305:
 3164              	.LBE713:
 3165              	.LBE714:
 3166              	.LBB715:
 3167              	.LBB716:
 3168              	.LBB717:
 3169              		.loc 4 408 0
 3170 00a0 FFF7FEFF 		bl	_dbg_check_unlock_from_isr
 3171              	.LVL306:
 3172              		.loc 4 409 0
 3173 00a4 FFF7FEFF 		bl	_stats_stop_measure_crit_isr
 3174              	.LVL307:
 3175              	.LBB718:
 3176              	.LBB719:
 3177              	.LBB720:
 3178              	.LBB721:
 3179              		.loc 3 546 0
 3180 00a8 0023     		movs	r3, #0
 3181              		.syntax unified
 3182              	@ 546 "../../lib/ChibiOS/os/ext/CMSIS/include/core_cmFunc.h" 1
 3183 00aa 83F31188 		MSR basepri, r3
 3184              	@ 0 "" 2
 3185              	.LVL308:
 3186              		.thumb
 3187              		.syntax unified
 3188 00ae C1E7     		b	.L281
 3189              	.LVL309:
 3190              	.L343:
 3191              	.LBE721:
 3192              	.LBE720:
ARM GAS  C:\Users\stoma\AppData\Local\Temp\ccLygOki.s 			page 57


 3193              	.LBE719:
 3194              	.LBE718:
 3195              	.LBE717:
 3196              	.LBE716:
 3197              	.LBE715:
 3198              		.loc 1 683 0
 3199 00b0 0320     		movs	r0, #3
 3200 00b2 FFF7FEFF 		bl	otg_epout_handler.constprop.7
 3201              	.LVL310:
 3202              	.LBE723:
 3203              	.LBE726:
 3204              		.loc 1 712 0
 3205 00b6 FFF7FEFF 		bl	_dbg_check_leave_isr
 3206              	.LVL311:
 3207              		.loc 1 713 0
 3208 00ba BDE87040 		pop	{r4, r5, r6, lr}
 3209              		.cfi_remember_state
 3210              		.cfi_restore 14
 3211              		.cfi_restore 6
 3212              		.cfi_restore 5
 3213              		.cfi_restore 4
 3214              		.cfi_def_cfa_offset 0
 3215              		.loc 1 712 0
 3216 00be FFF7FEBF 		b	_port_irq_epilogue
 3217              	.LVL312:
 3218              	.L340:
 3219              		.cfi_restore_state
 3220              	.LBB727:
 3221              	.LBB724:
 3222              		.loc 1 677 0
 3223 00c2 0020     		movs	r0, #0
 3224 00c4 FFF7FEFF 		bl	otg_epout_handler.constprop.7
 3225              	.LVL313:
 3226              		.loc 1 678 0
 3227 00c8 A903     		lsls	r1, r5, #14
 3228 00ca C5D5     		bpl	.L291
 3229              	.L341:
 3230              		.loc 1 679 0
 3231 00cc 0120     		movs	r0, #1
 3232 00ce FFF7FEFF 		bl	otg_epout_handler.constprop.7
 3233              	.LVL314:
 3234              		.loc 1 680 0
 3235 00d2 6A03     		lsls	r2, r5, #13
 3236 00d4 C2D5     		bpl	.L292
 3237              	.L342:
 3238              		.loc 1 681 0
 3239 00d6 0220     		movs	r0, #2
 3240 00d8 FFF7FEFF 		bl	otg_epout_handler.constprop.7
 3241              	.LVL315:
 3242              		.loc 1 682 0
 3243 00dc 2B03     		lsls	r3, r5, #12
 3244 00de BFD5     		bpl	.L289
 3245 00e0 E6E7     		b	.L343
 3246              	.LVL316:
 3247              	.L337:
 3248              		.loc 1 663 0
 3249 00e2 0120     		movs	r0, #1
ARM GAS  C:\Users\stoma\AppData\Local\Temp\ccLygOki.s 			page 58


 3250 00e4 FFF7FEFF 		bl	otg_epin_handler.constprop.8
 3251              	.LVL317:
 3252              		.loc 1 664 0
 3253 00e8 6B07     		lsls	r3, r5, #29
 3254 00ea ADD5     		bpl	.L286
 3255              	.L338:
 3256              		.loc 1 665 0
 3257 00ec 0220     		movs	r0, #2
 3258 00ee FFF7FEFF 		bl	otg_epin_handler.constprop.8
 3259              	.LVL318:
 3260              		.loc 1 666 0
 3261 00f2 2E07     		lsls	r6, r5, #28
 3262              	.LVL319:
 3263 00f4 AAD5     		bpl	.L283
 3264 00f6 05E0     		b	.L339
 3265              	.LVL320:
 3266              	.L336:
 3267              		.loc 1 661 0
 3268 00f8 0020     		movs	r0, #0
 3269 00fa FFF7FEFF 		bl	otg_epin_handler.constprop.8
 3270              	.LVL321:
 3271              		.loc 1 662 0
 3272 00fe AA07     		lsls	r2, r5, #30
 3273 0100 A0D5     		bpl	.L285
 3274 0102 EEE7     		b	.L337
 3275              	.LVL322:
 3276              	.L339:
 3277              		.loc 1 667 0
 3278 0104 0320     		movs	r0, #3
 3279 0106 FFF7FEFF 		bl	otg_epin_handler.constprop.8
 3280              	.LVL323:
 3281 010a 9FE7     		b	.L283
 3282              	.L345:
 3283              		.align	2
 3284              	.L344:
 3285 010c 00000000 		.word	.LANCHOR1
 3286 0110 60000000 		.word	.LANCHOR1+96
 3287              	.LBE724:
 3288              	.LBE727:
 3289              		.cfi_endproc
 3290              	.LFE273:
 3291              		.size	Vector14C, .-Vector14C
 3292              		.section	.text.usb_lld_start_out,"ax",%progbits
 3293              		.align	1
 3294              		.p2align 4,,15
 3295              		.global	usb_lld_start_out
 3296              		.syntax unified
 3297              		.thumb
 3298              		.thumb_func
 3299              		.fpu fpv4-sp-d16
 3300              		.type	usb_lld_start_out, %function
 3301              	usb_lld_start_out:
 3302              	.LFB286:
 3303              		.loc 1 1212 0
 3304              		.cfi_startproc
 3305              		@ args = 0, pretend = 0, frame = 0
 3306              		@ frame_needed = 0, uses_anonymous_args = 0
ARM GAS  C:\Users\stoma\AppData\Local\Temp\ccLygOki.s 			page 59


 3307              		@ link register save eliminated.
 3308              	.LVL324:
 3309 0000 036D     		ldr	r3, [r0, #80]
 3310 0002 03EB4111 		add	r1, r3, r1, lsl #5
 3311              	.LVL325:
 3312              		.loc 1 1214 0
 3313 0006 D1F8003B 		ldr	r3, [r1, #2816]
 3314 000a 43F08063 		orr	r3, r3, #67108864
 3315 000e C1F8003B 		str	r3, [r1, #2816]
 3316              		.loc 1 1215 0
 3317 0012 7047     		bx	lr
 3318              		.cfi_endproc
 3319              	.LFE286:
 3320              		.size	usb_lld_start_out, .-usb_lld_start_out
 3321              		.section	.text.usb_lld_start_in,"ax",%progbits
 3322              		.align	1
 3323              		.p2align 4,,15
 3324              		.global	usb_lld_start_in
 3325              		.syntax unified
 3326              		.thumb
 3327              		.thumb_func
 3328              		.fpu fpv4-sp-d16
 3329              		.type	usb_lld_start_in, %function
 3330              	usb_lld_start_in:
 3331              	.LFB287:
 3332              		.loc 1 1225 0
 3333              		.cfi_startproc
 3334              		@ args = 0, pretend = 0, frame = 0
 3335              		@ frame_needed = 0, uses_anonymous_args = 0
 3336              		@ link register save eliminated.
 3337              	.LVL326:
 3338              		.loc 1 1227 0
 3339 0000 026D     		ldr	r2, [r0, #80]
 3340              		.loc 1 1225 0
 3341 0002 10B4     		push	{r4}
 3342              		.cfi_def_cfa_offset 4
 3343              		.cfi_offset 4, -4
 3344 0004 02EB4114 		add	r4, r2, r1, lsl #5
 3345              		.loc 1 1228 0
 3346 0008 0123     		movs	r3, #1
 3347              		.loc 1 1227 0
 3348 000a D4F80009 		ldr	r0, [r4, #2304]
 3349              	.LVL327:
 3350 000e 40F00440 		orr	r0, r0, #-2080374784
 3351 0012 C4F80009 		str	r0, [r4, #2304]
 3352              		.loc 1 1228 0
 3353 0016 D2F83408 		ldr	r0, [r2, #2100]
 3354              		.loc 1 1229 0
 3355 001a 5DF8044B 		ldr	r4, [sp], #4
 3356              		.cfi_restore 4
 3357              		.cfi_def_cfa_offset 0
 3358              		.loc 1 1228 0
 3359 001e 03FA01F1 		lsl	r1, r3, r1
 3360              	.LVL328:
 3361 0022 0143     		orrs	r1, r1, r0
 3362 0024 C2F83418 		str	r1, [r2, #2100]
 3363              		.loc 1 1229 0
ARM GAS  C:\Users\stoma\AppData\Local\Temp\ccLygOki.s 			page 60


 3364 0028 7047     		bx	lr
 3365              		.cfi_endproc
 3366              	.LFE287:
 3367              		.size	usb_lld_start_in, .-usb_lld_start_in
 3368 002a 00BF     		.section	.text.usb_lld_stall_out,"ax",%progbits
 3369              		.align	1
 3370              		.p2align 4,,15
 3371              		.global	usb_lld_stall_out
 3372              		.syntax unified
 3373              		.thumb
 3374              		.thumb_func
 3375              		.fpu fpv4-sp-d16
 3376              		.type	usb_lld_stall_out, %function
 3377              	usb_lld_stall_out:
 3378              	.LFB288:
 3379              		.loc 1 1239 0
 3380              		.cfi_startproc
 3381              		@ args = 0, pretend = 0, frame = 0
 3382              		@ frame_needed = 0, uses_anonymous_args = 0
 3383              		@ link register save eliminated.
 3384              	.LVL329:
 3385 0000 036D     		ldr	r3, [r0, #80]
 3386 0002 03EB4111 		add	r1, r3, r1, lsl #5
 3387              	.LVL330:
 3388              		.loc 1 1241 0
 3389 0006 D1F8003B 		ldr	r3, [r1, #2816]
 3390 000a 43F40013 		orr	r3, r3, #2097152
 3391 000e C1F8003B 		str	r3, [r1, #2816]
 3392              		.loc 1 1242 0
 3393 0012 7047     		bx	lr
 3394              		.cfi_endproc
 3395              	.LFE288:
 3396              		.size	usb_lld_stall_out, .-usb_lld_stall_out
 3397              		.section	.text.usb_lld_stall_in,"ax",%progbits
 3398              		.align	1
 3399              		.p2align 4,,15
 3400              		.global	usb_lld_stall_in
 3401              		.syntax unified
 3402              		.thumb
 3403              		.thumb_func
 3404              		.fpu fpv4-sp-d16
 3405              		.type	usb_lld_stall_in, %function
 3406              	usb_lld_stall_in:
 3407              	.LFB289:
 3408              		.loc 1 1252 0
 3409              		.cfi_startproc
 3410              		@ args = 0, pretend = 0, frame = 0
 3411              		@ frame_needed = 0, uses_anonymous_args = 0
 3412              		@ link register save eliminated.
 3413              	.LVL331:
 3414 0000 036D     		ldr	r3, [r0, #80]
 3415 0002 03EB4111 		add	r1, r3, r1, lsl #5
 3416              	.LVL332:
 3417              		.loc 1 1254 0
 3418 0006 D1F80039 		ldr	r3, [r1, #2304]
 3419 000a 43F40013 		orr	r3, r3, #2097152
 3420 000e C1F80039 		str	r3, [r1, #2304]
ARM GAS  C:\Users\stoma\AppData\Local\Temp\ccLygOki.s 			page 61


 3421              		.loc 1 1255 0
 3422 0012 7047     		bx	lr
 3423              		.cfi_endproc
 3424              	.LFE289:
 3425              		.size	usb_lld_stall_in, .-usb_lld_stall_in
 3426              		.section	.text.usb_lld_clear_out,"ax",%progbits
 3427              		.align	1
 3428              		.p2align 4,,15
 3429              		.global	usb_lld_clear_out
 3430              		.syntax unified
 3431              		.thumb
 3432              		.thumb_func
 3433              		.fpu fpv4-sp-d16
 3434              		.type	usb_lld_clear_out, %function
 3435              	usb_lld_clear_out:
 3436              	.LFB290:
 3437              		.loc 1 1265 0
 3438              		.cfi_startproc
 3439              		@ args = 0, pretend = 0, frame = 0
 3440              		@ frame_needed = 0, uses_anonymous_args = 0
 3441              		@ link register save eliminated.
 3442              	.LVL333:
 3443 0000 036D     		ldr	r3, [r0, #80]
 3444 0002 03EB4111 		add	r1, r3, r1, lsl #5
 3445              	.LVL334:
 3446              		.loc 1 1267 0
 3447 0006 D1F8003B 		ldr	r3, [r1, #2816]
 3448 000a 23F40013 		bic	r3, r3, #2097152
 3449 000e C1F8003B 		str	r3, [r1, #2816]
 3450              		.loc 1 1268 0
 3451 0012 7047     		bx	lr
 3452              		.cfi_endproc
 3453              	.LFE290:
 3454              		.size	usb_lld_clear_out, .-usb_lld_clear_out
 3455              		.section	.text.usb_lld_clear_in,"ax",%progbits
 3456              		.align	1
 3457              		.p2align 4,,15
 3458              		.global	usb_lld_clear_in
 3459              		.syntax unified
 3460              		.thumb
 3461              		.thumb_func
 3462              		.fpu fpv4-sp-d16
 3463              		.type	usb_lld_clear_in, %function
 3464              	usb_lld_clear_in:
 3465              	.LFB291:
 3466              		.loc 1 1278 0
 3467              		.cfi_startproc
 3468              		@ args = 0, pretend = 0, frame = 0
 3469              		@ frame_needed = 0, uses_anonymous_args = 0
 3470              		@ link register save eliminated.
 3471              	.LVL335:
 3472 0000 036D     		ldr	r3, [r0, #80]
 3473 0002 03EB4111 		add	r1, r3, r1, lsl #5
 3474              	.LVL336:
 3475              		.loc 1 1280 0
 3476 0006 D1F80039 		ldr	r3, [r1, #2304]
 3477 000a 23F40013 		bic	r3, r3, #2097152
ARM GAS  C:\Users\stoma\AppData\Local\Temp\ccLygOki.s 			page 62


 3478 000e C1F80039 		str	r3, [r1, #2304]
 3479              		.loc 1 1281 0
 3480 0012 7047     		bx	lr
 3481              		.cfi_endproc
 3482              	.LFE291:
 3483              		.size	usb_lld_clear_in, .-usb_lld_clear_in
 3484              		.global	USBD1
 3485              		.section	.bss.USBD1,"aw",%nobits
 3486              		.align	3
 3487              		.set	.LANCHOR1,. + 0
 3488              		.type	USBD1, %object
 3489              		.size	USBD1, 608
 3490              	USBD1:
 3491 0000 00000000 		.space	608
 3491      00000000 
 3491      00000000 
 3491      00000000 
 3491      00000000 
 3492              		.section	.bss.ep0_state,"aw",%nobits
 3493              		.align	2
 3494              		.type	ep0_state, %object
 3495              		.size	ep0_state, 20
 3496              	ep0_state:
 3497 0000 00000000 		.space	20
 3497      00000000 
 3497      00000000 
 3497      00000000 
 3497      00000000 
 3498              		.section	.bss.ep0setup_buffer,"aw",%nobits
 3499              		.align	2
 3500              		.type	ep0setup_buffer, %object
 3501              		.size	ep0setup_buffer, 8
 3502              	ep0setup_buffer:
 3503 0000 00000000 		.space	8
 3503      00000000 
 3504              		.section	.rodata.__func__.7554,"a",%progbits
 3505              		.align	2
 3506              		.set	.LANCHOR0,. + 0
 3507              		.type	__func__.7554, %object
 3508              		.size	__func__.7554, 12
 3509              	__func__.7554:
 3510 0000 63685379 		.ascii	"chSysUnlock\000"
 3510      73556E6C 
 3510      6F636B00 
 3511              		.section	.rodata.__func__.7721,"a",%progbits
 3512              		.align	2
 3513              		.set	.LANCHOR3,. + 0
 3514              		.type	__func__.7721, %object
 3515              		.size	__func__.7721, 12
 3516              	__func__.7721:
 3517 0000 63685468 		.ascii	"chThdStartI\000"
 3517      64537461 
 3517      72744900 
 3518              		.section	.rodata.__func__.9336,"a",%progbits
 3519              		.align	2
 3520              		.set	.LANCHOR5,. + 0
 3521              		.type	__func__.9336, %object
ARM GAS  C:\Users\stoma\AppData\Local\Temp\ccLygOki.s 			page 63


 3522              		.size	__func__.9336, 14
 3523              	__func__.9336:
 3524 0000 6F74675F 		.ascii	"otg_ram_alloc\000"
 3524      72616D5F 
 3524      616C6C6F 
 3524      6300
 3525              		.section	.rodata.ep0config,"a",%progbits
 3526              		.align	2
 3527              		.set	.LANCHOR4,. + 0
 3528              		.type	ep0config, %object
 3529              		.size	ep0config, 36
 3530              	ep0config:
 3531 0000 00000000 		.word	0
 3532 0004 00000000 		.word	_usb_ep0setup
 3533 0008 00000000 		.word	_usb_ep0in
 3534 000c 00000000 		.word	_usb_ep0out
 3535 0010 4000     		.short	64
 3536 0012 4000     		.short	64
 3537 0014 00000000 		.word	ep0_state
 3538 0018 00000000 		.word	ep0_state
 3539 001c 0100     		.short	1
 3540 001e 0000     		.space	2
 3541 0020 00000000 		.word	ep0setup_buffer
 3542              		.section	.rodata.fsparams,"a",%progbits
 3543              		.align	2
 3544              		.set	.LANCHOR2,. + 0
 3545              		.type	fsparams, %object
 3546              		.size	fsparams, 12
 3547              	fsparams:
 3548 0000 80000000 		.word	128
 3549 0004 40010000 		.word	320
 3550 0008 03000000 		.word	3
 3551              		.section	.rodata.usb_lld_pump.str1.4,"aMS",%progbits,1
 3552              		.align	2
 3553              	.LC0:
 3554 0000 7573625F 		.ascii	"usb_lld_pump\000"
 3554      6C6C645F 
 3554      70756D70 
 3554      00
 3555              		.text
 3556              	.Letext0:
 3557              		.file 7 "c:\\users\\stoma\\desktop\\eclipse_e-puck2\\tools\\gcc-arm-none-eabi-7-2017-q4-major-win3
 3558              		.file 8 "c:\\users\\stoma\\desktop\\eclipse_e-puck2\\tools\\gcc-arm-none-eabi-7-2017-q4-major-win3
 3559              		.file 9 "c:\\users\\stoma\\desktop\\eclipse_e-puck2\\tools\\gcc-arm-none-eabi-7-2017-q4-major-win3
 3560              		.file 10 "c:\\users\\stoma\\desktop\\eclipse_e-puck2\\tools\\gcc-arm-none-eabi-7-2017-q4-major-win
 3561              		.file 11 "c:\\users\\stoma\\desktop\\eclipse_e-puck2\\tools\\gcc-arm-none-eabi-7-2017-q4-major-win
 3562              		.file 12 "c:\\users\\stoma\\desktop\\eclipse_e-puck2\\tools\\gcc-arm-none-eabi-7-2017-q4-major-win
 3563              		.file 13 "../../lib/ChibiOS/os/rt/ports/ARMCMx/compilers/GCC/chtypes.h"
 3564              		.file 14 "../../lib/ChibiOS/os/rt/include/chsystypes.h"
 3565              		.file 15 "../../lib/ChibiOS/os/rt/include/chschd.h"
 3566              		.file 16 "../../lib/ChibiOS/os/ext/CMSIS/include/core_cm4.h"
 3567              		.file 17 "../../lib/ChibiOS/os/ext/CMSIS/ST/system_stm32f4xx.h"
 3568              		.file 18 "../../lib/ChibiOS/os/ext/CMSIS/ST/stm32f407xx.h"
 3569              		.file 19 "../../lib/ChibiOS/os/rt/ports/ARMCMx/chcore.h"
 3570              		.file 20 "../../lib/ChibiOS/os/rt/ports/ARMCMx/chcore_v7m.h"
 3571              		.file 21 "../../lib/ChibiOS/os/rt/include/chdebug.h"
 3572              		.file 22 "../../lib/ChibiOS/os/rt/include/chtm.h"
ARM GAS  C:\Users\stoma\AppData\Local\Temp\ccLygOki.s 			page 64


 3573              		.file 23 "../../lib/ChibiOS/os/rt/include/chstats.h"
 3574              		.file 24 "../../lib/ChibiOS/os/rt/include/chsem.h"
 3575              		.file 25 "../../lib/ChibiOS/os/rt/include/chmtx.h"
 3576              		.file 26 "../../lib/ChibiOS/os/rt/include/chevents.h"
 3577              		.file 27 "../../lib/ChibiOS/os/rt/include/chqueues.h"
 3578              		.file 28 "../../lib/ChibiOS/os/hal/ports/STM32/STM32F4xx/stm32_dma.h"
 3579              		.file 29 "../../lib/ChibiOS/os/hal/ports/STM32/LLD/GPIOv2/pal_lld.h"
 3580              		.file 30 "../../lib/ChibiOS/os/hal/include/gpt.h"
 3581              		.file 31 "../../lib/ChibiOS/os/hal/ports/STM32/LLD/TIMv1/gpt_lld.h"
 3582              		.file 32 "../../lib/ChibiOS/os/hal/ports/STM32/LLD/TIMv1/stm32_tim.h"
 3583              		.file 33 "../../lib/ChibiOS/os/hal/include/i2c.h"
 3584              		.file 34 "../../lib/ChibiOS/os/hal/ports/STM32/LLD/I2Cv1/i2c_lld.h"
 3585              		.file 35 "../../lib/ChibiOS/os/hal/include/serial.h"
 3586              		.file 36 "../../lib/ChibiOS/os/hal/ports/STM32/LLD/USARTv1/serial_lld.h"
 3587              		.file 37 "../../lib/ChibiOS/os/hal/include/usb.h"
 3588              		.file 38 "../../lib/ChibiOS/os/hal/ports/STM32/LLD/OTGv1/usb_lld.h"
 3589              		.file 39 "../../lib/ChibiOS/os/hal/ports/STM32/LLD/OTGv1/stm32_otg.h"
 3590              		.file 40 "../../lib/ChibiOS/os/hal/ports/common/ARMCMx/nvic.h"