ARM GAS  C:\Users\stoma\AppData\Local\Temp\ccLygOki.s 			page 1


   1              		.cpu cortex-m4
   2              		.eabi_attribute 27, 1
   3              		.eabi_attribute 28, 1
   4              		.eabi_attribute 20, 1
   5              		.eabi_attribute 21, 1
   6              		.eabi_attribute 23, 3
   7              		.eabi_attribute 24, 1
   8              		.eabi_attribute 25, 1
   9              		.eabi_attribute 26, 1
  10              		.eabi_attribute 30, 2
  11              		.eabi_attribute 34, 1
  12              		.eabi_attribute 18, 4
  13              		.file	"usb_lld.c"
  14              		.text
  15              	.Ltext0:
  16              		.cfi_sections	.debug_frame
  17              		.section	.text.otg_disable_ep.isra.0,"ax",%progbits
  18              		.align	1
  19              		.p2align 4,,15
  20              		.syntax unified
  21              		.thumb
  22              		.thumb_func
  23              		.fpu fpv4-sp-d16
  24              		.type	otg_disable_ep.isra.0, %function
  25              	otg_disable_ep.isra.0:
  26              	.LFB293:
  27              		.file 1 "../../lib/ChibiOS/os/hal/ports/STM32/LLD/OTGv1/usb_lld.c"
  28              		.loc 1 132 0
  29              		.cfi_startproc
  30              		@ args = 0, pretend = 0, frame = 0
  31              		@ frame_needed = 0, uses_anonymous_args = 0
  32              	.LVL0:
  33 0000 8B68     		ldr	r3, [r1, #8]
  34 0002 F0B5     		push	{r4, r5, r6, r7, lr}
  35              		.cfi_def_cfa_offset 20
  36              		.cfi_offset 4, -20
  37              		.cfi_offset 5, -16
  38              		.cfi_offset 6, -12
  39              		.cfi_offset 7, -8
  40              		.cfi_offset 14, -4
  41              		.loc 1 136 0
  42 0004 0024     		movs	r4, #0
  43 0006 03F1010C 		add	ip, r3, #1
  44              		.loc 1 147 0
  45 000a 2546     		mov	r5, r4
  46              		.loc 1 141 0
  47 000c 4FF0804E 		mov	lr, #1073741824
  48              		.loc 1 149 0
  49 0010 4FF0FF36 		mov	r6, #-1
  50 0014 14E0     		b	.L8
  51              	.LVL1:
  52              	.L2:
  53              		.loc 1 147 0
  54 0016 C2F80059 		str	r5, [r2, #2304]
  55              	.L4:
  56              		.loc 1 148 0
  57 001a C118     		adds	r1, r0, r3
ARM GAS  C:\Users\stoma\AppData\Local\Temp\ccLygOki.s 			page 2


  58 001c C1F81059 		str	r5, [r1, #2320]
  59              		.loc 1 149 0
  60 0020 C1F80869 		str	r6, [r1, #2312]
  61              		.loc 1 155 0
  62 0024 D2F8007B 		ldr	r7, [r2, #2816]
  63 0028 002F     		cmp	r7, #0
  64 002a 17DB     		blt	.L16
  65              		.loc 1 162 0
  66 002c C2F8005B 		str	r5, [r2, #2816]
  67              	.L7:
  68              		.loc 1 163 0
  69 0030 0344     		add	r3, r3, r0
  70              		.loc 1 136 0
  71 0032 0134     		adds	r4, r4, #1
  72              	.LVL2:
  73 0034 6445     		cmp	r4, ip
  74              		.loc 1 163 0
  75 0036 C3F8105B 		str	r5, [r3, #2832]
  76              		.loc 1 164 0
  77 003a C3F8086B 		str	r6, [r3, #2824]
  78              		.loc 1 136 0
  79 003e 14D0     		beq	.L17
  80              	.LVL3:
  81              	.L8:
  82 0040 6301     		lsls	r3, r4, #5
  83 0042 C218     		adds	r2, r0, r3
  84              		.loc 1 140 0
  85 0044 D2F80019 		ldr	r1, [r2, #2304]
  86 0048 0029     		cmp	r1, #0
  87 004a E4DA     		bge	.L2
  88              		.loc 1 141 0
  89 004c C2F800E9 		str	lr, [r2, #2304]
  90              		.loc 1 143 0
  91 0050 1746     		mov	r7, r2
  92              	.L3:
  93 0052 D7F80819 		ldr	r1, [r7, #2312]
  94 0056 8907     		lsls	r1, r1, #30
  95 0058 FBD5     		bpl	.L3
  96 005a DEE7     		b	.L4
  97              	.L16:
  98              		.loc 1 156 0
  99 005c C2F800EB 		str	lr, [r2, #2816]
 100              	.L6:
 101              		.loc 1 158 0
 102 0060 D1F8082B 		ldr	r2, [r1, #2824]
 103 0064 D206     		lsls	r2, r2, #27
 104 0066 FBD5     		bpl	.L6
 105 0068 E2E7     		b	.L7
 106              	.L17:
 107              		.loc 1 166 0
 108 006a 4FF00113 		mov	r3, #65537
 109 006e C0F81C38 		str	r3, [r0, #2076]
 110              		.loc 1 167 0
 111 0072 F0BD     		pop	{r4, r5, r6, r7, pc}
 112              		.cfi_endproc
 113              	.LFE293:
 114              		.size	otg_disable_ep.isra.0, .-otg_disable_ep.isra.0
ARM GAS  C:\Users\stoma\AppData\Local\Temp\ccLygOki.s 			page 3


 115              		.section	.text.usb_lld_pump,"ax",%progbits
 116              		.align	1
 117              		.p2align 4,,15
 118              		.global	usb_lld_pump
 119              		.syntax unified
 120              		.thumb
 121              		.thumb_func
 122              		.fpu fpv4-sp-d16
 123              		.type	usb_lld_pump, %function
 124              	usb_lld_pump:
 125              	.LFB292:
 126              		.loc 1 1294 0
 127              		.cfi_startproc
 128              		@ args = 0, pretend = 0, frame = 24
 129              		@ frame_needed = 0, uses_anonymous_args = 0
 130              	.LVL4:
 131 0000 2DE9F04F 		push	{r4, r5, r6, r7, r8, r9, r10, fp, lr}
 132              		.cfi_def_cfa_offset 36
 133              		.cfi_offset 4, -36
 134              		.cfi_offset 5, -32
 135              		.cfi_offset 6, -28
 136              		.cfi_offset 7, -24
 137              		.cfi_offset 8, -20
 138              		.cfi_offset 9, -16
 139              		.cfi_offset 10, -12
 140              		.cfi_offset 11, -8
 141              		.cfi_offset 14, -4
 142              	.LBB421:
 143              	.LBB422:
 144              		.file 2 "../../lib/ChibiOS/os/rt/include/chregistry.h"
 145              		.loc 2 135 0
 146 0004 844E     		ldr	r6, .L136
 147 0006 8549     		ldr	r1, .L136+4
 148 0008 B269     		ldr	r2, [r6, #24]
 149              	.LBE422:
 150              	.LBE421:
 151              		.loc 1 1296 0
 152 000a D0F85080 		ldr	r8, [r0, #80]
 153              	.LBB424:
 154              	.LBB423:
 155              		.loc 2 135 0
 156 000e 9161     		str	r1, [r2, #24]
 157              	.LBE423:
 158              	.LBE424:
 159              		.loc 1 1294 0
 160 0010 87B0     		sub	sp, sp, #28
 161              		.cfi_def_cfa_offset 64
 162              		.loc 1 1294 0
 163 0012 8246     		mov	r10, r0
 164              	.LVL5:
 165              	.LBB425:
 166              	.LBB426:
 167              	.LBB427:
 168              	.LBB428:
 169              	.LBB429:
 170              	.LBB430:
 171              		.file 3 "../../lib/ChibiOS/os/ext/CMSIS/include/core_cmFunc.h"
ARM GAS  C:\Users\stoma\AppData\Local\Temp\ccLygOki.s 			page 4


 172              		.loc 3 546 0
 173 0014 2023     		movs	r3, #32
 174              		.syntax unified
 175              	@ 546 "../../lib/ChibiOS/os/ext/CMSIS/include/core_cmFunc.h" 1
 176 0016 83F31188 		MSR basepri, r3
 177              	@ 0 "" 2
 178              	.LVL6:
 179              		.thumb
 180              		.syntax unified
 181              	.LBE430:
 182              	.LBE429:
 183              	.LBE428:
 184              		.file 4 "../../lib/ChibiOS/os/rt/include/chsys.h"
 185              		.loc 4 349 0
 186 001a FFF7FEFF 		bl	_stats_start_measure_crit_thd
 187              	.LVL7:
 188              		.loc 4 350 0
 189 001e FFF7FEFF 		bl	_dbg_check_lock
 190              	.LVL8:
 191 0022 0AF16003 		add	r3, r10, #96
 192              	.LBE427:
 193              	.LBE426:
 194              	.LBE425:
 195              	.LBB431:
 196              	.LBB432:
 197              	.LBB433:
 198              	.LBB434:
 199              	.LBB435:
 200              	.LBB436:
 201              	.LBB437:
 202              		.loc 3 546 0
 203 0026 5746     		mov	r7, r10
 204 0028 0593     		str	r3, [sp, #20]
 205 002a C246     		mov	r10, r8
 206              	.LVL9:
 207              	.L73:
 208              	.LBE437:
 209              	.LBE436:
 210              	.LBE435:
 211              	.LBE434:
 212              	.LBE433:
 213              	.LBE432:
 214              		.loc 1 1307 0
 215 002c 3B78     		ldrb	r3, [r7]	@ zero_extendqisi2
 216 002e 012B     		cmp	r3, #1
 217 0030 05D0     		beq	.L19
 218              		.loc 1 1307 0 is_stmt 0 discriminator 1
 219 0032 FB6D     		ldr	r3, [r7, #92]
 220 0034 63B9     		cbnz	r3, .L20
 221              		.loc 1 1308 0 is_stmt 1
 222 0036 DAF81430 		ldr	r3, [r10, #20]
 223 003a DA06     		lsls	r2, r3, #27
 224 003c 08D4     		bmi	.L20
 225              	.L19:
 226              		.loc 1 1309 0
 227 003e DAF81830 		ldr	r3, [r10, #24]
 228              	.LBB443:
ARM GAS  C:\Users\stoma\AppData\Local\Temp\ccLygOki.s 			page 5


 229              	.LBB444:
 230              		.file 5 "../../lib/ChibiOS/os/hal/osal/rt/osal.h"
 231              		.loc 5 642 0
 232 0042 0598     		ldr	r0, [sp, #20]
 233              	.LBE444:
 234              	.LBE443:
 235              		.loc 1 1309 0
 236 0044 43F01003 		orr	r3, r3, #16
 237 0048 CAF81830 		str	r3, [r10, #24]
 238              	.LBB446:
 239              	.LBB445:
 240              		.loc 5 642 0
 241 004c FFF7FEFF 		bl	chThdSuspendS
 242              	.LVL10:
 243              	.L20:
 244              	.LBE445:
 245              	.LBE446:
 246              	.LBB447:
 247              	.LBB442:
 248              	.LBB441:
 249              		.loc 4 360 0
 250 0050 FFF7FEFF 		bl	_dbg_check_unlock
 251              	.LVL11:
 252              		.loc 4 361 0
 253 0054 FFF7FEFF 		bl	_stats_stop_measure_crit_thd
 254              	.LVL12:
 255              		.loc 4 367 0
 256 0058 3368     		ldr	r3, [r6]
 257 005a B342     		cmp	r3, r6
 258 005c 07D0     		beq	.L21
 259 005e B269     		ldr	r2, [r6, #24]
 260 0060 9B68     		ldr	r3, [r3, #8]
 261 0062 9268     		ldr	r2, [r2, #8]
 262 0064 9A42     		cmp	r2, r3
 263 0066 02D2     		bcs	.L21
 264 0068 6D48     		ldr	r0, .L136+8
 265 006a FFF7FEFF 		bl	chSysHalt
 266              	.LVL13:
 267              	.L21:
 268              	.LBB440:
 269              	.LBB439:
 270              	.LBB438:
 271              		.loc 3 546 0
 272 006e 0023     		movs	r3, #0
 273              		.syntax unified
 274              	@ 546 "../../lib/ChibiOS/os/ext/CMSIS/include/core_cmFunc.h" 1
 275 0070 83F31188 		MSR basepri, r3
 276              	@ 0 "" 2
 277              	.LVL14:
 278              		.thumb
 279              		.syntax unified
 280              	.LBE438:
 281              	.LBE439:
 282              	.LBE440:
 283              	.LBE441:
 284              	.LBE442:
 285              	.LBE447:
ARM GAS  C:\Users\stoma\AppData\Local\Temp\ccLygOki.s 			page 6


 286              		.loc 1 1315 0
 287 0074 9B46     		mov	fp, r3
 288              	.LVL15:
 289              	.L23:
 290              		.loc 1 1318 0
 291 0076 DAF81430 		ldr	r3, [r10, #20]
 292 007a DB06     		lsls	r3, r3, #27
 293 007c 5AD5     		bpl	.L129
 294              	.L44:
 295              	.LVL16:
 296              	.LBB448:
 297              	.LBB449:
 298              		.loc 1 437 0
 299 007e 396D     		ldr	r1, [r7, #80]
 300 0080 0B6A     		ldr	r3, [r1, #32]
 301              	.LVL17:
 302              		.loc 1 438 0
 303 0082 03F4F012 		and	r2, r3, #1966080
 304 0086 B2F5802F 		cmp	r2, #262144
 305 008a 24D0     		beq	.L24
 306 008c B2F5402F 		cmp	r2, #786432
 307 0090 F1D1     		bne	.L23
 308              	.LVL18:
 309              		.loc 1 443 0
 310 0092 03F00F02 		and	r2, r3, #15
 311              	.LVL19:
 312              		.loc 1 444 0
 313 0096 07EB8202 		add	r2, r7, r2, lsl #2
 314              	.LVL20:
 315              		.loc 1 442 0
 316 009a C3F30A13 		ubfx	r3, r3, #4, #11
 317              	.LVL21:
 318              		.loc 1 444 0
 319 009e D268     		ldr	r2, [r2, #12]
 320              	.LBB450:
 321              	.LBB451:
 322              		.loc 1 356 0
 323 00a0 0333     		adds	r3, r3, #3
 324              		.loc 1 358 0
 325 00a2 9B08     		lsrs	r3, r3, #2
 326              	.LBE451:
 327              	.LBE450:
 328              		.loc 1 444 0
 329 00a4 146A     		ldr	r4, [r2, #32]
 330              	.LVL22:
 331              	.LBB456:
 332              	.LBB455:
 333              		.loc 1 358 0
 334 00a6 E6D0     		beq	.L23
 335 00a8 01F58051 		add	r1, r1, #4096
 336              	.LVL23:
 337              		.loc 1 357 0
 338 00ac 0222     		movs	r2, #2
 339              	.LVL24:
 340              	.LBB452:
 341              		.loc 1 359 0
 342 00ae 0D68     		ldr	r5, [r1]
ARM GAS  C:\Users\stoma\AppData\Local\Temp\ccLygOki.s 			page 7


 343              	.LVL25:
 344 00b0 581E     		subs	r0, r3, #1
 345              		.loc 1 360 0
 346 00b2 4AB1     		cbz	r2, .L130
 347              	.L28:
 348              		.loc 1 365 0
 349 00b4 0346     		mov	r3, r0
 350              		.loc 1 363 0
 351 00b6 44F8045B 		str	r5, [r4], #4
 352              	.LVL26:
 353              		.loc 1 365 0
 354 00ba 013A     		subs	r2, r2, #1
 355              	.LVL27:
 356              	.LBE452:
 357              		.loc 1 358 0
 358 00bc 002B     		cmp	r3, #0
 359 00be DAD0     		beq	.L23
 360              	.LVL28:
 361              	.L128:
 362              	.LBB453:
 363              		.loc 1 359 0
 364 00c0 0D68     		ldr	r5, [r1]
 365              	.LVL29:
 366 00c2 581E     		subs	r0, r3, #1
 367              		.loc 1 360 0
 368 00c4 002A     		cmp	r2, #0
 369 00c6 F5D1     		bne	.L28
 370              	.L130:
 371              	.LVL30:
 372              	.LBE453:
 373              		.loc 1 358 0
 374 00c8 0028     		cmp	r0, #0
 375 00ca D4D0     		beq	.L23
 376 00cc 023B     		subs	r3, r3, #2
 377              	.LBB454:
 378              		.loc 1 359 0
 379 00ce 0868     		ldr	r0, [r1]
 380              	.LVL31:
 381              	.LBE454:
 382              		.loc 1 358 0
 383 00d0 002B     		cmp	r3, #0
 384 00d2 F5D1     		bne	.L128
 385 00d4 CFE7     		b	.L23
 386              	.LVL32:
 387              	.L24:
 388              	.LBE455:
 389              	.LBE456:
 390              		.loc 1 449 0
 391 00d6 03F00F08 		and	r8, r3, #15
 392 00da 07EB8808 		add	r8, r7, r8, lsl #2
 393              		.loc 1 448 0
 394 00de C3F30A14 		ubfx	r4, r3, #4, #11
 395              	.LVL33:
 396              		.loc 1 450 0
 397 00e2 D8F80C30 		ldr	r3, [r8, #12]
 398              	.LVL34:
 399 00e6 9B69     		ldr	r3, [r3, #24]
ARM GAS  C:\Users\stoma\AppData\Local\Temp\ccLygOki.s 			page 8


 400 00e8 1A78     		ldrb	r2, [r3]	@ zero_extendqisi2
 401 00ea DD68     		ldr	r5, [r3, #12]
 402 00ec 002A     		cmp	r2, #0
 403 00ee 42D1     		bne	.L131
 404              		.loc 1 461 0
 405 00f0 D3E9012C 		ldrd	r2, ip, [r3, #4]
 406              	.LVL35:
 407              	.LBB457:
 408              	.LBB458:
 409              		.loc 1 357 0
 410 00f4 D01C     		adds	r0, r2, #3
 411              		.loc 1 356 0
 412 00f6 E21C     		adds	r2, r4, #3
 413              	.LVL36:
 414              		.loc 1 357 0
 415 00f8 A0EB0C00 		sub	r0, r0, ip
 416              		.loc 1 358 0
 417 00fc 9208     		lsrs	r2, r2, #2
 418              		.loc 1 357 0
 419 00fe 4FEA9000 		lsr	r0, r0, #2
 420              	.LVL37:
 421              		.loc 1 358 0
 422 0102 0FD0     		beq	.L40
 423 0104 01F58051 		add	r1, r1, #4096
 424              	.LVL38:
 425 0108 A846     		mov	r8, r5
 426 010a 9946     		mov	r9, r3
 427 010c 8E46     		mov	lr, r1
 428              	.LVL39:
 429              	.L43:
 430              	.LBB459:
 431              		.loc 1 359 0
 432 010e DEF80030 		ldr	r3, [lr]
 433              	.LVL40:
 434 0112 511E     		subs	r1, r2, #1
 435              		.loc 1 360 0
 436 0114 38B3     		cbz	r0, .L132
 437              		.loc 1 365 0
 438 0116 0A46     		mov	r2, r1
 439              	.LVL41:
 440              		.loc 1 363 0
 441 0118 48F8043B 		str	r3, [r8], #4
 442              	.LVL42:
 443              		.loc 1 365 0
 444 011c 0138     		subs	r0, r0, #1
 445              	.LVL43:
 446              	.LBE459:
 447              		.loc 1 358 0
 448 011e 002A     		cmp	r2, #0
 449 0120 F5D1     		bne	.L43
 450              	.LVL44:
 451              	.L125:
 452 0122 4B46     		mov	r3, r9
 453              	.LVL45:
 454              	.L40:
 455              	.LBE458:
 456              	.LBE457:
ARM GAS  C:\Users\stoma\AppData\Local\Temp\ccLygOki.s 			page 9


 457              		.loc 1 462 0
 458 0124 2544     		add	r5, r5, r4
 459 0126 DD60     		str	r5, [r3, #12]
 460              	.L39:
 461              		.loc 1 464 0
 462 0128 6444     		add	r4, r4, ip
 463              	.LVL46:
 464 012a 9C60     		str	r4, [r3, #8]
 465              	.LBE449:
 466              	.LBE448:
 467              		.loc 1 1318 0
 468 012c DAF81430 		ldr	r3, [r10, #20]
 469 0130 DB06     		lsls	r3, r3, #27
 470 0132 A4D4     		bmi	.L44
 471              	.LVL47:
 472              	.L129:
 473              		.loc 1 1322 0
 474 0134 4FF00108 		mov	r8, #1
 475              		.loc 1 1323 0
 476 0138 FB6D     		ldr	r3, [r7, #92]
 477              		.loc 1 1322 0
 478 013a 08FA0BF8 		lsl	r8, r8, fp
 479              	.LVL48:
 480              		.loc 1 1323 0
 481 013e 18EA030F 		tst	r8, r3
 482 0142 6FD1     		bne	.L122
 483 0144 0BF10103 		add	r3, fp, #1
 484 0148 0193     		str	r3, [sp, #4]
 485              	.LVL49:
 486              	.L45:
 487              		.loc 1 1315 0 discriminator 2
 488 014a 7B6D     		ldr	r3, [r7, #84]
 489 014c 9DF804B0 		ldrb	fp, [sp, #4]	@ zero_extendqisi2
 490              	.LVL50:
 491 0150 9B68     		ldr	r3, [r3, #8]
 492 0152 9B45     		cmp	fp, r3
 493 0154 8FD9     		bls	.L23
 494              	.LVL51:
 495              	.LBB484:
 496              	.LBB485:
 497              	.LBB486:
 498              	.LBB487:
 499              	.LBB488:
 500              	.LBB489:
 501              		.loc 3 546 0
 502 0156 2023     		movs	r3, #32
 503              		.syntax unified
 504              	@ 546 "../../lib/ChibiOS/os/ext/CMSIS/include/core_cmFunc.h" 1
 505 0158 83F31188 		MSR basepri, r3
 506              	@ 0 "" 2
 507              	.LVL52:
 508              		.thumb
 509              		.syntax unified
 510              	.LBE489:
 511              	.LBE488:
 512              	.LBE487:
 513              		.loc 4 349 0
ARM GAS  C:\Users\stoma\AppData\Local\Temp\ccLygOki.s 			page 10


 514 015c FFF7FEFF 		bl	_stats_start_measure_crit_thd
 515              	.LVL53:
 516              		.loc 4 350 0
 517 0160 FFF7FEFF 		bl	_dbg_check_lock
 518              	.LVL54:
 519 0164 62E7     		b	.L73
 520              	.LVL55:
 521              	.L132:
 522              	.LBE486:
 523              	.LBE485:
 524              	.LBE484:
 525              	.LBB490:
 526              	.LBB483:
 527              	.LBB462:
 528              	.LBB461:
 529              		.loc 1 358 0
 530 0166 0029     		cmp	r1, #0
 531 0168 DBD0     		beq	.L125
 532 016a 023A     		subs	r2, r2, #2
 533              	.LVL56:
 534              	.LBB460:
 535              		.loc 1 359 0
 536 016c DEF80030 		ldr	r3, [lr]
 537              	.LVL57:
 538              	.LBE460:
 539              		.loc 1 358 0
 540 0170 002A     		cmp	r2, #0
 541 0172 CCD1     		bne	.L43
 542 0174 D5E7     		b	.L125
 543              	.LVL58:
 544              	.L131:
 545              	.LBE461:
 546              	.LBE462:
 547              	.LBB463:
 548              	.LBB464:
 549              		.loc 1 386 0
 550 0176 3CB3     		cbz	r4, .L32
 551 0178 6A69     		ldr	r2, [r5, #20]
 552 017a 01F58051 		add	r1, r1, #4096
 553              	.LVL59:
 554 017e A446     		mov	ip, r4
 555              	.LVL60:
 556              	.L33:
 557              	.LBB465:
 558              		.loc 1 390 0
 559 0180 BCF1030F 		cmp	ip, #3
 560 0184 07D9     		bls	.L34
 561              	.LVL61:
 562              	.L133:
 563              	.LBB466:
 564              		.loc 1 396 0
 565 0186 2B69     		ldr	r3, [r5, #16]
 566 0188 9342     		cmp	r3, r2
 567 018a 04D8     		bhi	.L34
 568              		.loc 1 397 0
 569 018c EA68     		ldr	r2, [r5, #12]
 570 018e 6A61     		str	r2, [r5, #20]
ARM GAS  C:\Users\stoma\AppData\Local\Temp\ccLygOki.s 			page 11


 571              	.LVL62:
 572              	.LBE466:
 573              		.loc 1 390 0
 574 0190 BCF1030F 		cmp	ip, #3
 575 0194 F7D8     		bhi	.L133
 576              	.LVL63:
 577              	.L34:
 578              		.loc 1 408 0
 579 0196 D1F800E0 		ldr	lr, [r1]
 580              	.LVL64:
 581 019a 0023     		movs	r3, #0
 582              	.LVL65:
 583              	.L37:
 584              		.loc 1 411 0
 585 019c 2EFA03F0 		lsr	r0, lr, r3
 586 01a0 02F10109 		add	r9, r2, #1
 587 01a4 C5F81490 		str	r9, [r5, #20]
 588 01a8 1070     		strb	r0, [r2]
 589              		.loc 1 412 0
 590 01aa D5E90420 		ldrd	r2, r0, [r5, #16]
 591 01ae 9042     		cmp	r0, r2
 592              		.loc 1 413 0
 593 01b0 24BF     		itt	cs
 594 01b2 EA68     		ldrcs	r2, [r5, #12]
 595 01b4 6A61     		strcs	r2, [r5, #20]
 596              		.loc 1 410 0
 597 01b6 BCF1010C 		subs	ip, ip, #1
 598              	.LVL66:
 599 01ba 03F10803 		add	r3, r3, #8
 600 01be 03D0     		beq	.L32
 601 01c0 202B     		cmp	r3, #32
 602 01c2 6A69     		ldr	r2, [r5, #20]
 603 01c4 EAD1     		bne	.L37
 604 01c6 DBE7     		b	.L33
 605              	.LVL67:
 606              	.L32:
 607              	.LBE465:
 608              	.LBB467:
 609              	.LBB468:
 610              	.LBB469:
 611              	.LBB470:
 612              	.LBB471:
 613              	.LBB472:
 614              		.loc 3 546 0
 615 01c8 2023     		movs	r3, #32
 616              		.syntax unified
 617              	@ 546 "../../lib/ChibiOS/os/ext/CMSIS/include/core_cmFunc.h" 1
 618 01ca 83F31188 		MSR basepri, r3
 619              	@ 0 "" 2
 620              	.LVL68:
 621              		.thumb
 622              		.syntax unified
 623              	.LBE472:
 624              	.LBE471:
 625              	.LBE470:
 626              		.loc 4 349 0
 627 01ce FFF7FEFF 		bl	_stats_start_measure_crit_thd
ARM GAS  C:\Users\stoma\AppData\Local\Temp\ccLygOki.s 			page 12


 628              	.LVL69:
 629              		.loc 4 350 0
 630 01d2 FFF7FEFF 		bl	_dbg_check_lock
 631              	.LVL70:
 632              	.LBE469:
 633              	.LBE468:
 634              	.LBE467:
 635              		.loc 1 421 0
 636 01d6 AB68     		ldr	r3, [r5, #8]
 637 01d8 2344     		add	r3, r3, r4
 638 01da AB60     		str	r3, [r5, #8]
 639              	.LVL71:
 640              	.LBB473:
 641              	.LBB474:
 642              		.loc 5 764 0
 643 01dc 2846     		mov	r0, r5
 644 01de 0021     		movs	r1, #0
 645 01e0 FFF7FEFF 		bl	chThdDequeueAllI
 646              	.LVL72:
 647              	.LBE474:
 648              	.LBE473:
 649              	.LBB475:
 650              	.LBB476:
 651              		.loc 5 554 0
 652 01e4 FFF7FEFF 		bl	chSchRescheduleS
 653              	.LVL73:
 654              	.LBE476:
 655              	.LBE475:
 656              	.LBB477:
 657              	.LBB478:
 658              	.LBB479:
 659              		.loc 4 360 0
 660 01e8 FFF7FEFF 		bl	_dbg_check_unlock
 661              	.LVL74:
 662              		.loc 4 361 0
 663 01ec FFF7FEFF 		bl	_stats_stop_measure_crit_thd
 664              	.LVL75:
 665              		.loc 4 367 0
 666 01f0 3368     		ldr	r3, [r6]
 667 01f2 B342     		cmp	r3, r6
 668 01f4 07D0     		beq	.L38
 669 01f6 B269     		ldr	r2, [r6, #24]
 670 01f8 9B68     		ldr	r3, [r3, #8]
 671 01fa 9268     		ldr	r2, [r2, #8]
 672 01fc 9A42     		cmp	r2, r3
 673 01fe 02D2     		bcs	.L38
 674 0200 0748     		ldr	r0, .L136+8
 675 0202 FFF7FEFF 		bl	chSysHalt
 676              	.LVL76:
 677              	.L38:
 678              	.LBB480:
 679              	.LBB481:
 680              	.LBB482:
 681              		.loc 3 546 0
 682 0206 0023     		movs	r3, #0
 683              		.syntax unified
 684              	@ 546 "../../lib/ChibiOS/os/ext/CMSIS/include/core_cmFunc.h" 1
ARM GAS  C:\Users\stoma\AppData\Local\Temp\ccLygOki.s 			page 13


 685 0208 83F31188 		MSR basepri, r3
 686              	@ 0 "" 2
 687              	.LVL77:
 688              		.thumb
 689              		.syntax unified
 690 020c D8F80C30 		ldr	r3, [r8, #12]
 691 0210 9B69     		ldr	r3, [r3, #24]
 692 0212 D3F808C0 		ldr	ip, [r3, #8]
 693 0216 87E7     		b	.L39
 694              	.L137:
 695              		.align	2
 696              	.L136:
 697 0218 00000000 		.word	ch
 698 021c 00000000 		.word	.LC0
 699 0220 00000000 		.word	.LANCHOR0
 700              	.LVL78:
 701              	.L122:
 702              	.LBE482:
 703              	.LBE481:
 704              	.LBE480:
 705              	.LBE479:
 706              	.LBE478:
 707              	.LBE477:
 708              	.LBE464:
 709              	.LBE463:
 710              	.LBE483:
 711              	.LBE490:
 712              	.LBB491:
 713              	.LBB492:
 714              	.LBB493:
 715              	.LBB494:
 716              	.LBB495:
 717              	.LBB496:
 718              	.LBB497:
 719 0224 2023     		movs	r3, #32
 720              		.syntax unified
 721              	@ 546 "../../lib/ChibiOS/os/ext/CMSIS/include/core_cmFunc.h" 1
 722 0226 83F31188 		MSR basepri, r3
 723              	@ 0 "" 2
 724              	.LVL79:
 725              		.thumb
 726              		.syntax unified
 727              	.LBE497:
 728              	.LBE496:
 729              	.LBE495:
 730              		.loc 4 349 0
 731 022a FFF7FEFF 		bl	_stats_start_measure_crit_thd
 732              	.LVL80:
 733              		.loc 4 350 0
 734 022e FFF7FEFF 		bl	_dbg_check_lock
 735              	.LVL81:
 736              	.LBE494:
 737              	.LBE493:
 738              	.LBE492:
 739              		.loc 1 1334 0
 740 0232 DAF80820 		ldr	r2, [r10, #8]
 741              		.loc 1 1335 0
ARM GAS  C:\Users\stoma\AppData\Local\Temp\ccLygOki.s 			page 14


 742 0236 FB6D     		ldr	r3, [r7, #92]
 743              		.loc 1 1334 0
 744 0238 22F00102 		bic	r2, r2, #1
 745              		.loc 1 1335 0
 746 023c 23EA0803 		bic	r3, r3, r8
 747              		.loc 1 1334 0
 748 0240 CAF80820 		str	r2, [r10, #8]
 749              		.loc 1 1335 0
 750 0244 FB65     		str	r3, [r7, #92]
 751              	.LBB498:
 752              	.LBB499:
 753              	.LBB500:
 754              		.loc 4 360 0
 755 0246 FFF7FEFF 		bl	_dbg_check_unlock
 756              	.LVL82:
 757              		.loc 4 361 0
 758 024a FFF7FEFF 		bl	_stats_stop_measure_crit_thd
 759              	.LVL83:
 760              		.loc 4 367 0
 761 024e 3368     		ldr	r3, [r6]
 762 0250 B342     		cmp	r3, r6
 763 0252 07D0     		beq	.L46
 764 0254 B269     		ldr	r2, [r6, #24]
 765 0256 9B68     		ldr	r3, [r3, #8]
 766 0258 9268     		ldr	r2, [r2, #8]
 767 025a 9A42     		cmp	r2, r3
 768 025c 02D2     		bcs	.L46
 769 025e 8848     		ldr	r0, .L138
 770 0260 FFF7FEFF 		bl	chSysHalt
 771              	.LVL84:
 772              	.L46:
 773              	.LBB501:
 774              	.LBB502:
 775              	.LBB503:
 776              		.loc 3 546 0
 777 0264 0023     		movs	r3, #0
 778              		.syntax unified
 779              	@ 546 "../../lib/ChibiOS/os/ext/CMSIS/include/core_cmFunc.h" 1
 780 0266 83F31188 		MSR basepri, r3
 781              	@ 0 "" 2
 782              	.LVL85:
 783              		.thumb
 784              		.syntax unified
 785 026a 07EB8B09 		add	r9, r7, fp, lsl #2
 786              	.LBE503:
 787              	.LBE502:
 788              	.LBE501:
 789              	.LBE500:
 790              	.LBE499:
 791              	.LBE498:
 792              	.LBB504:
 793              	.LBB505:
 794              		.loc 1 488 0
 795 026e D9F80C10 		ldr	r1, [r9, #12]
 796 0272 4A69     		ldr	r2, [r1, #20]
 797 0274 D2E9013C 		ldrd	r3, ip, [r2, #4]
 798 0278 9C45     		cmp	ip, r3
ARM GAS  C:\Users\stoma\AppData\Local\Temp\ccLygOki.s 			page 15


 799 027a 80F0DF80 		bcs	.L134
 800              		.loc 1 498 0
 801 027e 386D     		ldr	r0, [r7, #80]
 802              		.loc 1 493 0
 803 0280 0D8A     		ldrh	r5, [r1, #16]
 804              		.loc 1 498 0
 805 0282 4FEA4B14 		lsl	r4, fp, #5
 806 0286 0294     		str	r4, [sp, #8]
 807 0288 0419     		adds	r4, r0, r4
 808              		.loc 1 492 0
 809 028a A3EB0C03 		sub	r3, r3, ip
 810              	.LVL86:
 811              		.loc 1 498 0
 812 028e D4F81849 		ldr	r4, [r4, #2328]
 813 0292 9D42     		cmp	r5, r3
 814 0294 28BF     		it	cs
 815 0296 1D46     		movcs	r5, r3
 816              	.LVL87:
 817 0298 A3B2     		uxth	r3, r4
 818 029a B5EB830F 		cmp	r5, r3, lsl #2
 819 029e 00F2DE80 		bhi	.L49
 820 02a2 0BF10103 		add	r3, fp, #1
 821 02a6 CDE903A8 		strd	r10, r8, [sp, #12]
 822 02aa 0193     		str	r3, [sp, #4]
 823 02ac DDF808A0 		ldr	r10, [sp, #8]
 824 02b0 1B03     		lsls	r3, r3, #12
 825 02b2 9846     		mov	r8, r3
 826              	.LVL88:
 827              	.L50:
 828              		.loc 1 505 0
 829 02b4 1378     		ldrb	r3, [r2]	@ zero_extendqisi2
 830 02b6 D468     		ldr	r4, [r2, #12]
 831 02b8 00EB080C 		add	ip, r0, r8
 832 02bc 002B     		cmp	r3, #0
 833 02be 00F0A680 		beq	.L53
 834              	.LVL89:
 835              	.LBB506:
 836              	.LBB507:
 837              		.loc 1 274 0
 838 02c2 25B3     		cbz	r5, .L54
 839 02c4 D4F810B0 		ldr	fp, [r4, #16]
 840              	.LBB508:
 841              	.LBB509:
 842              		.loc 1 280 0
 843 02c8 0295     		str	r5, [sp, #8]
 844 02ca 2A46     		mov	r2, r5
 845              	.LVL90:
 846              	.L64:
 847              	.LBE509:
 848              		.loc 1 278 0
 849 02cc 5FEA920E 		lsrs	lr, r2, #2
 850              	.LVL91:
 851 02d0 A369     		ldr	r3, [r4, #24]
 852 02d2 00F08280 		beq	.L55
 853              	.LVL92:
 854              	.LBB514:
 855              		.loc 1 280 0
ARM GAS  C:\Users\stoma\AppData\Local\Temp\ccLygOki.s 			page 16


 856 02d6 BBEB0301 		subs	r1, fp, r3
 857 02da 48BF     		it	mi
 858 02dc 0331     		addmi	r1, r1, #3
 859 02de 8810     		asrs	r0, r1, #2
 860              		.loc 1 282 0
 861 02e0 7045     		cmp	r0, lr
 862 02e2 28BF     		it	cs
 863 02e4 7046     		movcs	r0, lr
 864              	.LVL93:
 865 02e6 8100     		lsls	r1, r0, #2
 866 02e8 521A     		subs	r2, r2, r1
 867              	.LVL94:
 868              	.LBB510:
 869              	.LBB511:
 870              		.loc 1 233 0
 871 02ea 0028     		cmp	r0, #0
 872 02ec 00F0A080 		beq	.L76
 873 02f0 1944     		add	r1, r1, r3
 874              	.LVL95:
 875              	.L58:
 876              		.loc 1 236 0
 877 02f2 53F8040B 		ldr	r0, [r3], #4
 878              	.LVL96:
 879 02f6 CCF80000 		str	r0, [ip]
 880              	.LVL97:
 881              		.loc 1 233 0
 882 02fa 8B42     		cmp	r3, r1
 883 02fc F9D1     		bne	.L58
 884              	.LVL98:
 885              	.L57:
 886              	.LBE511:
 887              	.LBE510:
 888              		.loc 1 284 0
 889 02fe 5945     		cmp	r1, fp
 890              		.loc 1 283 0
 891 0300 A161     		str	r1, [r4, #24]
 892              	.LVL99:
 893              		.loc 1 284 0
 894 0302 67D3     		bcc	.L59
 895              		.loc 1 285 0
 896 0304 E368     		ldr	r3, [r4, #12]
 897 0306 A361     		str	r3, [r4, #24]
 898              	.LBE514:
 899              	.LBE508:
 900              		.loc 1 274 0
 901 0308 002A     		cmp	r2, #0
 902 030a DFD1     		bne	.L64
 903              	.L126:
 904 030c 029D     		ldr	r5, [sp, #8]
 905              	.LVL100:
 906              	.L54:
 907              	.LBB516:
 908              	.LBB517:
 909              	.LBB518:
 910              	.LBB519:
 911              	.LBB520:
 912              	.LBB521:
ARM GAS  C:\Users\stoma\AppData\Local\Temp\ccLygOki.s 			page 17


 913              		.loc 3 546 0
 914 030e 2023     		movs	r3, #32
 915              		.syntax unified
 916              	@ 546 "../../lib/ChibiOS/os/ext/CMSIS/include/core_cmFunc.h" 1
 917 0310 83F31188 		MSR basepri, r3
 918              	@ 0 "" 2
 919              	.LVL101:
 920              		.thumb
 921              		.syntax unified
 922              	.LBE521:
 923              	.LBE520:
 924              	.LBE519:
 925              		.loc 4 349 0
 926 0314 FFF7FEFF 		bl	_stats_start_measure_crit_thd
 927              	.LVL102:
 928              		.loc 4 350 0
 929 0318 FFF7FEFF 		bl	_dbg_check_lock
 930              	.LVL103:
 931              	.LBE518:
 932              	.LBE517:
 933              	.LBE516:
 934              		.loc 1 310 0
 935 031c A368     		ldr	r3, [r4, #8]
 936 031e 2B44     		add	r3, r3, r5
 937 0320 A360     		str	r3, [r4, #8]
 938              	.LVL104:
 939              	.LBB522:
 940              	.LBB523:
 941              		.loc 5 764 0
 942 0322 2046     		mov	r0, r4
 943 0324 0021     		movs	r1, #0
 944 0326 FFF7FEFF 		bl	chThdDequeueAllI
 945              	.LVL105:
 946              	.LBE523:
 947              	.LBE522:
 948              	.LBB524:
 949              	.LBB525:
 950              		.loc 5 554 0
 951 032a FFF7FEFF 		bl	chSchRescheduleS
 952              	.LVL106:
 953              	.LBE525:
 954              	.LBE524:
 955              	.LBB526:
 956              	.LBB527:
 957              	.LBB528:
 958              		.loc 4 360 0
 959 032e FFF7FEFF 		bl	_dbg_check_unlock
 960              	.LVL107:
 961              		.loc 4 361 0
 962 0332 FFF7FEFF 		bl	_stats_stop_measure_crit_thd
 963              	.LVL108:
 964              		.loc 4 367 0
 965 0336 3368     		ldr	r3, [r6]
 966 0338 B342     		cmp	r3, r6
 967 033a 07D0     		beq	.L65
 968 033c B269     		ldr	r2, [r6, #24]
 969 033e 9B68     		ldr	r3, [r3, #8]
ARM GAS  C:\Users\stoma\AppData\Local\Temp\ccLygOki.s 			page 18


 970 0340 9268     		ldr	r2, [r2, #8]
 971 0342 9A42     		cmp	r2, r3
 972 0344 02D2     		bcs	.L65
 973 0346 4E48     		ldr	r0, .L138
 974 0348 FFF7FEFF 		bl	chSysHalt
 975              	.LVL109:
 976              	.L65:
 977              	.LBB529:
 978              	.LBB530:
 979              	.LBB531:
 980              		.loc 3 546 0
 981 034c 0023     		movs	r3, #0
 982              		.syntax unified
 983              	@ 546 "../../lib/ChibiOS/os/ext/CMSIS/include/core_cmFunc.h" 1
 984 034e 83F31188 		MSR basepri, r3
 985              	@ 0 "" 2
 986              	.LVL110:
 987              		.thumb
 988              		.syntax unified
 989 0352 D9F80C10 		ldr	r1, [r9, #12]
 990              	.L66:
 991              	.LBE531:
 992              	.LBE530:
 993              	.LBE529:
 994              	.LBE528:
 995              	.LBE527:
 996              	.LBE526:
 997              	.LBE507:
 998              	.LBE506:
 999              		.loc 1 521 0
 1000 0356 4A69     		ldr	r2, [r1, #20]
 1001              		.loc 1 488 0
 1002 0358 D2E90143 		ldrd	r4, r3, [r2, #4]
 1003              		.loc 1 521 0
 1004 035c 2B44     		add	r3, r3, r5
 1005              		.loc 1 488 0
 1006 035e 9C42     		cmp	r4, r3
 1007              		.loc 1 521 0
 1008 0360 9360     		str	r3, [r2, #8]
 1009              		.loc 1 488 0
 1010 0362 67D9     		bls	.L135
 1011              		.loc 1 498 0
 1012 0364 386D     		ldr	r0, [r7, #80]
 1013              		.loc 1 493 0
 1014 0366 0D8A     		ldrh	r5, [r1, #16]
 1015              		.loc 1 498 0
 1016 0368 00EB0A0C 		add	ip, r0, r10
 1017              		.loc 1 492 0
 1018 036c E31A     		subs	r3, r4, r3
 1019              	.LVL111:
 1020              		.loc 1 498 0
 1021 036e DCF81849 		ldr	r4, [ip, #2328]
 1022 0372 9D42     		cmp	r5, r3
 1023 0374 28BF     		it	cs
 1024 0376 1D46     		movcs	r5, r3
 1025              	.LVL112:
 1026 0378 A3B2     		uxth	r3, r4
ARM GAS  C:\Users\stoma\AppData\Local\Temp\ccLygOki.s 			page 19


 1027 037a B5EB830F 		cmp	r5, r3, lsl #2
 1028 037e 99D9     		bls	.L50
 1029 0380 DDE903A8 		ldrd	r10, r8, [sp, #12]
 1030              		.loc 1 499 0
 1031 0384 0024     		movs	r4, #0
 1032              	.LVL113:
 1033              	.L52:
 1034              	.LBE505:
 1035              	.LBE504:
 1036              	.LBB543:
 1037              	.LBB544:
 1038              	.LBB545:
 1039              	.LBB546:
 1040              	.LBB547:
 1041              	.LBB548:
 1042              		.loc 3 546 0
 1043 0386 2023     		movs	r3, #32
 1044              		.syntax unified
 1045              	@ 546 "../../lib/ChibiOS/os/ext/CMSIS/include/core_cmFunc.h" 1
 1046 0388 83F31188 		MSR basepri, r3
 1047              	@ 0 "" 2
 1048              	.LVL114:
 1049              		.thumb
 1050              		.syntax unified
 1051              	.LBE548:
 1052              	.LBE547:
 1053              	.LBE546:
 1054              		.loc 4 349 0
 1055 038c FFF7FEFF 		bl	_stats_start_measure_crit_thd
 1056              	.LVL115:
 1057              		.loc 4 350 0
 1058 0390 FFF7FEFF 		bl	_dbg_check_lock
 1059              	.LVL116:
 1060              	.LBE545:
 1061              	.LBE544:
 1062              	.LBE543:
 1063              		.loc 1 1341 0
 1064 0394 DAF80830 		ldr	r3, [r10, #8]
 1065 0398 43F00103 		orr	r3, r3, #1
 1066 039c CAF80830 		str	r3, [r10, #8]
 1067              		.loc 1 1342 0
 1068 03a0 2CB9     		cbnz	r4, .L48
 1069              	.LVL117:
 1070              	.L51:
 1071              		.loc 1 1343 0
 1072 03a2 DAF83438 		ldr	r3, [r10, #2100]
 1073 03a6 43EA0803 		orr	r3, r3, r8
 1074 03aa CAF83438 		str	r3, [r10, #2100]
 1075              	.L48:
 1076              	.LBB559:
 1077              	.LBB560:
 1078              	.LBB561:
 1079              		.loc 4 360 0
 1080 03ae FFF7FEFF 		bl	_dbg_check_unlock
 1081              	.LVL118:
 1082              		.loc 4 361 0
 1083 03b2 FFF7FEFF 		bl	_stats_stop_measure_crit_thd
ARM GAS  C:\Users\stoma\AppData\Local\Temp\ccLygOki.s 			page 20


 1084              	.LVL119:
 1085              		.loc 4 367 0
 1086 03b6 3368     		ldr	r3, [r6]
 1087 03b8 B342     		cmp	r3, r6
 1088 03ba 07D0     		beq	.L70
 1089 03bc B269     		ldr	r2, [r6, #24]
 1090 03be 9B68     		ldr	r3, [r3, #8]
 1091 03c0 9268     		ldr	r2, [r2, #8]
 1092 03c2 9A42     		cmp	r2, r3
 1093 03c4 02D2     		bcs	.L70
 1094 03c6 2E48     		ldr	r0, .L138
 1095 03c8 FFF7FEFF 		bl	chSysHalt
 1096              	.LVL120:
 1097              	.L70:
 1098              	.LBB562:
 1099              	.LBB563:
 1100              	.LBB564:
 1101              		.loc 3 546 0
 1102 03cc 0023     		movs	r3, #0
 1103              		.syntax unified
 1104              	@ 546 "../../lib/ChibiOS/os/ext/CMSIS/include/core_cmFunc.h" 1
 1105 03ce 83F31188 		MSR basepri, r3
 1106              	@ 0 "" 2
 1107              	.LVL121:
 1108              		.thumb
 1109              		.syntax unified
 1110 03d2 BAE6     		b	.L45
 1111              	.LVL122:
 1112              	.L59:
 1113              	.LBE564:
 1114              	.LBE563:
 1115              	.LBE562:
 1116              	.LBE561:
 1117              	.LBE560:
 1118              	.LBE559:
 1119              	.LBB565:
 1120              	.LBB542:
 1121              	.LBB536:
 1122              	.LBB534:
 1123              	.LBB532:
 1124              		.loc 1 292 0
 1125 03d4 002A     		cmp	r2, #0
 1126 03d6 99D0     		beq	.L126
 1127 03d8 0B46     		mov	r3, r1
 1128              	.L55:
 1129 03da 0021     		movs	r1, #0
 1130 03dc 0846     		mov	r0, r1
 1131              	.L63:
 1132              	.LVL123:
 1133              		.loc 1 299 0
 1134 03de 5D1C     		adds	r5, r3, #1
 1135 03e0 A561     		str	r5, [r4, #24]
 1136 03e2 1B78     		ldrb	r3, [r3]	@ zero_extendqisi2
 1137              		.loc 1 300 0
 1138 03e4 5D45     		cmp	r5, fp
 1139              		.loc 1 299 0
 1140 03e6 03FA01F3 		lsl	r3, r3, r1
ARM GAS  C:\Users\stoma\AppData\Local\Temp\ccLygOki.s 			page 21


 1141 03ea 40EA0300 		orr	r0, r0, r3
 1142              	.LVL124:
 1143              		.loc 1 301 0
 1144 03ee 24BF     		itt	cs
 1145 03f0 E368     		ldrcs	r3, [r4, #12]
 1146 03f2 A361     		strcs	r3, [r4, #24]
 1147              		.loc 1 298 0
 1148 03f4 013A     		subs	r2, r2, #1
 1149              	.LVL125:
 1150 03f6 04D0     		beq	.L62
 1151 03f8 1829     		cmp	r1, #24
 1152 03fa 02D0     		beq	.L62
 1153 03fc 0831     		adds	r1, r1, #8
 1154 03fe A369     		ldr	r3, [r4, #24]
 1155 0400 EDE7     		b	.L63
 1156              	.L62:
 1157              		.loc 1 305 0
 1158 0402 CCF80000 		str	r0, [ip]
 1159              	.LBE532:
 1160              		.loc 1 274 0
 1161 0406 002A     		cmp	r2, #0
 1162 0408 7FF460AF 		bne	.L64
 1163 040c 7EE7     		b	.L126
 1164              	.LVL126:
 1165              	.L53:
 1166              	.LBE534:
 1167              	.LBE536:
 1168              	.LBB537:
 1169              	.LBB538:
 1170              		.loc 1 256 0
 1171 040e EB1C     		adds	r3, r5, #3
 1172              	.LVL127:
 1173              	.LBB539:
 1174              	.LBB540:
 1175              		.loc 1 233 0
 1176 0410 9B08     		lsrs	r3, r3, #2
 1177              	.LVL128:
 1178 0412 0AD0     		beq	.L67
 1179 0414 04EB8301 		add	r1, r4, r3, lsl #2
 1180 0418 2346     		mov	r3, r4
 1181              	.LVL129:
 1182              	.L68:
 1183              		.loc 1 236 0
 1184 041a 53F8040B 		ldr	r0, [r3], #4
 1185              	.LVL130:
 1186 041e CCF80000 		str	r0, [ip]
 1187              	.LVL131:
 1188              		.loc 1 233 0
 1189 0422 8B42     		cmp	r3, r1
 1190 0424 F9D1     		bne	.L68
 1191 0426 D9F80C10 		ldr	r1, [r9, #12]
 1192              	.LVL132:
 1193              	.L67:
 1194              	.LBE540:
 1195              	.LBE539:
 1196              	.LBE538:
 1197              	.LBE537:
ARM GAS  C:\Users\stoma\AppData\Local\Temp\ccLygOki.s 			page 22


 1198              		.loc 1 516 0
 1199 042a 2C44     		add	r4, r4, r5
 1200 042c D460     		str	r4, [r2, #12]
 1201 042e 92E7     		b	.L66
 1202              	.LVL133:
 1203              	.L76:
 1204              	.LBB541:
 1205              	.LBB535:
 1206              	.LBB533:
 1207              	.LBB515:
 1208              	.LBB513:
 1209              	.LBB512:
 1210              		.loc 1 233 0
 1211 0430 1946     		mov	r1, r3
 1212 0432 64E7     		b	.L57
 1213              	.LVL134:
 1214              	.L135:
 1215 0434 DDE903A8 		ldrd	r10, r8, [sp, #12]
 1216              	.LBE512:
 1217              	.LBE513:
 1218              	.LBE515:
 1219              	.LBE533:
 1220              	.LBE535:
 1221              	.LBE541:
 1222              		.loc 1 489 0
 1223 0438 0124     		movs	r4, #1
 1224 043a A4E7     		b	.L52
 1225              	.LVL135:
 1226              	.L134:
 1227              	.LBE542:
 1228              	.LBE565:
 1229              	.LBB566:
 1230              	.LBB557:
 1231              	.LBB555:
 1232              	.LBB553:
 1233              	.LBB551:
 1234              	.LBB549:
 1235              		.loc 3 546 0
 1236 043c 2023     		movs	r3, #32
 1237              		.syntax unified
 1238              	@ 546 "../../lib/ChibiOS/os/ext/CMSIS/include/core_cmFunc.h" 1
 1239 043e 83F31188 		MSR basepri, r3
 1240              	@ 0 "" 2
 1241              	.LVL136:
 1242              		.thumb
 1243              		.syntax unified
 1244              	.LBE549:
 1245              	.LBE551:
 1246              	.LBE553:
 1247              		.loc 4 349 0
 1248 0442 FFF7FEFF 		bl	_stats_start_measure_crit_thd
 1249              	.LVL137:
 1250              		.loc 4 350 0
 1251 0446 FFF7FEFF 		bl	_dbg_check_lock
 1252              	.LVL138:
 1253              	.LBE555:
 1254              	.LBE557:
ARM GAS  C:\Users\stoma\AppData\Local\Temp\ccLygOki.s 			page 23


 1255              	.LBE566:
 1256              		.loc 1 1341 0
 1257 044a DAF80830 		ldr	r3, [r10, #8]
 1258 044e 0BF10102 		add	r2, fp, #1
 1259 0452 43F00103 		orr	r3, r3, #1
 1260 0456 0192     		str	r2, [sp, #4]
 1261 0458 CAF80830 		str	r3, [r10, #8]
 1262 045c A7E7     		b	.L48
 1263              	.LVL139:
 1264              	.L49:
 1265              	.LBB567:
 1266              	.LBB558:
 1267              	.LBB556:
 1268              	.LBB554:
 1269              	.LBB552:
 1270              	.LBB550:
 1271              		.loc 3 546 0
 1272 045e 2023     		movs	r3, #32
 1273              		.syntax unified
 1274              	@ 546 "../../lib/ChibiOS/os/ext/CMSIS/include/core_cmFunc.h" 1
 1275 0460 83F31188 		MSR basepri, r3
 1276              	@ 0 "" 2
 1277              	.LVL140:
 1278              		.thumb
 1279              		.syntax unified
 1280              	.LBE550:
 1281              	.LBE552:
 1282              	.LBE554:
 1283              		.loc 4 349 0
 1284 0464 FFF7FEFF 		bl	_stats_start_measure_crit_thd
 1285              	.LVL141:
 1286              		.loc 4 350 0
 1287 0468 FFF7FEFF 		bl	_dbg_check_lock
 1288              	.LVL142:
 1289              	.LBE556:
 1290              	.LBE558:
 1291              	.LBE567:
 1292              		.loc 1 1341 0
 1293 046c DAF80830 		ldr	r3, [r10, #8]
 1294 0470 0BF10102 		add	r2, fp, #1
 1295 0474 43F00103 		orr	r3, r3, #1
 1296 0478 0192     		str	r2, [sp, #4]
 1297 047a CAF80830 		str	r3, [r10, #8]
 1298 047e 90E7     		b	.L51
 1299              	.L139:
 1300              		.align	2
 1301              	.L138:
 1302 0480 00000000 		.word	.LANCHOR0
 1303              	.LBE491:
 1304              	.LBE431:
 1305              		.cfi_endproc
 1306              	.LFE292:
 1307              		.size	usb_lld_pump, .-usb_lld_pump
 1308              		.section	.text.usb_lld_init,"ax",%progbits
 1309              		.align	1
 1310              		.p2align 4,,15
 1311              		.global	usb_lld_init
ARM GAS  C:\Users\stoma\AppData\Local\Temp\ccLygOki.s 			page 24


 1312              		.syntax unified
 1313              		.thumb
 1314              		.thumb_func
 1315              		.fpu fpv4-sp-d16
 1316              		.type	usb_lld_init, %function
 1317              	usb_lld_init:
 1318              	.LFB274:
 1319              		.loc 1 744 0
 1320              		.cfi_startproc
 1321              		@ args = 0, pretend = 0, frame = 0
 1322              		@ frame_needed = 0, uses_anonymous_args = 0
 1323 0000 38B5     		push	{r3, r4, r5, lr}
 1324              		.cfi_def_cfa_offset 16
 1325              		.cfi_offset 3, -16
 1326              		.cfi_offset 4, -12
 1327              		.cfi_offset 5, -8
 1328              		.cfi_offset 14, -4
 1329              		.loc 1 748 0
 1330 0002 0E4C     		ldr	r4, .L142
 1331 0004 2046     		mov	r0, r4
 1332 0006 FFF7FEFF 		bl	usbObjectInit
 1333              	.LVL143:
 1334              	.LBB568:
 1335              		.loc 1 760 0
 1336 000a 04F1D005 		add	r5, r4, #208
 1337              	.LBE568:
 1338              		.loc 1 750 0
 1339 000e 4FF0A043 		mov	r3, #1342177280
 1340              		.loc 1 751 0
 1341 0012 0B4A     		ldr	r2, .L142+4
 1342              		.loc 1 750 0
 1343 0014 2365     		str	r3, [r4, #80]
 1344              	.LBB569:
 1345              		.loc 1 760 0
 1346 0016 2946     		mov	r1, r5
 1347 0018 04F16800 		add	r0, r4, #104
 1348              	.LBE569:
 1349              		.loc 1 749 0
 1350 001c 0023     		movs	r3, #0
 1351              		.loc 1 751 0
 1352 001e 6265     		str	r2, [r4, #84]
 1353              	.LBB570:
 1354              		.loc 1 760 0
 1355 0020 FF22     		movs	r2, #255
 1356              	.LBE570:
 1357              		.loc 1 754 0
 1358 0022 C4E91833 		strd	r3, r3, [r4, #96]
 1359              	.LVL144:
 1360              	.LBB571:
 1361              		.loc 1 760 0
 1362 0026 FFF7FEFF 		bl	_thread_memfill
 1363              	.LVL145:
 1364              		.loc 1 763 0
 1365 002a 2846     		mov	r0, r5
 1366 002c 04F51871 		add	r1, r4, #608
 1367 0030 5522     		movs	r2, #85
 1368              	.LBE571:
ARM GAS  C:\Users\stoma\AppData\Local\Temp\ccLygOki.s 			page 25


 1369              		.loc 1 794 0
 1370 0032 BDE83840 		pop	{r3, r4, r5, lr}
 1371              		.cfi_restore 14
 1372              		.cfi_restore 5
 1373              		.cfi_restore 4
 1374              		.cfi_restore 3
 1375              		.cfi_def_cfa_offset 0
 1376              	.LBB572:
 1377              		.loc 1 763 0
 1378 0036 FFF7FEBF 		b	_thread_memfill
 1379              	.LVL146:
 1380              	.L143:
 1381 003a 00BF     		.align	2
 1382              	.L142:
 1383 003c 00000000 		.word	.LANCHOR1
 1384 0040 00000000 		.word	.LANCHOR2
 1385              	.LBE572:
 1386              		.cfi_endproc
 1387              	.LFE274:
 1388              		.size	usb_lld_init, .-usb_lld_init
 1389              		.section	.text.usb_lld_start,"ax",%progbits
 1390              		.align	1
 1391              		.p2align 4,,15
 1392              		.global	usb_lld_start
 1393              		.syntax unified
 1394              		.thumb
 1395              		.thumb_func
 1396              		.fpu fpv4-sp-d16
 1397              		.type	usb_lld_start, %function
 1398              	usb_lld_start:
 1399              	.LFB275:
 1400              		.loc 1 806 0
 1401              		.cfi_startproc
 1402              		@ args = 0, pretend = 0, frame = 0
 1403              		@ frame_needed = 0, uses_anonymous_args = 0
 1404              	.LVL147:
 1405              		.loc 1 809 0
 1406 0000 0378     		ldrb	r3, [r0]	@ zero_extendqisi2
 1407 0002 012B     		cmp	r3, #1
 1408 0004 00D0     		beq	.L163
 1409 0006 7047     		bx	lr
 1410              	.L163:
 1411              		.loc 1 806 0
 1412 0008 70B5     		push	{r4, r5, r6, lr}
 1413              		.cfi_def_cfa_offset 16
 1414              		.cfi_offset 4, -16
 1415              		.cfi_offset 5, -12
 1416              		.cfi_offset 6, -8
 1417              		.cfi_offset 14, -4
 1418              		.loc 1 812 0
 1419 000a 354B     		ldr	r3, .L167
 1420              		.loc 1 807 0
 1421 000c 066D     		ldr	r6, [r0, #80]
 1422              		.loc 1 812 0
 1423 000e 9842     		cmp	r0, r3
 1424              		.loc 1 806 0
 1425 0010 82B0     		sub	sp, sp, #8
ARM GAS  C:\Users\stoma\AppData\Local\Temp\ccLygOki.s 			page 26


 1426              		.cfi_def_cfa_offset 24
 1427 0012 0546     		mov	r5, r0
 1428              		.loc 1 812 0
 1429 0014 3BD0     		beq	.L164
 1430              		.loc 1 807 0
 1431 0016 3446     		mov	r4, r6
 1432              	.LVL148:
 1433              	.L146:
 1434              		.loc 1 836 0
 1435 0018 0023     		movs	r3, #0
 1436              		.loc 1 841 0
 1437 001a 324A     		ldr	r2, .L167+4
 1438              		.loc 1 836 0
 1439 001c EB65     		str	r3, [r5, #92]
 1440              		.loc 1 844 0
 1441 001e 3249     		ldr	r1, .L167+8
 1442              		.loc 1 841 0
 1443 0020 F260     		str	r2, [r6, #12]
 1444              		.loc 1 854 0
 1445 0022 4FF45022 		mov	r2, #851968
 1446              		.loc 1 844 0
 1447 0026 C6F80018 		str	r1, [r6, #2048]
 1448              	.LBB581:
 1449              	.LBB582:
 1450              	.LBB583:
 1451              	.LBB584:
 1452              		.loc 5 527 0
 1453 002a 2020     		movs	r0, #32
 1454              	.LBE584:
 1455              	.LBE583:
 1456              	.LBE582:
 1457              	.LBE581:
 1458              		.loc 1 847 0
 1459 002c C6F8003E 		str	r3, [r6, #3584]
 1460              		.loc 1 854 0
 1461 0030 B263     		str	r2, [r6, #56]
 1462              	.LVL149:
 1463              	.LBB590:
 1464              	.LBB589:
 1465              	.LBB586:
 1466              	.LBB585:
 1467              		.loc 5 527 0
 1468 0032 FFF7FEFF 		bl	chSysPolledDelayX
 1469              	.LVL150:
 1470              	.LBE585:
 1471              	.LBE586:
 1472              		.loc 1 121 0
 1473 0036 0123     		movs	r3, #1
 1474 0038 2361     		str	r3, [r4, #16]
 1475              	.L147:
 1476              		.loc 1 122 0
 1477 003a 2369     		ldr	r3, [r4, #16]
 1478 003c DB07     		lsls	r3, r3, #31
 1479 003e FCD4     		bmi	.L147
 1480              	.LVL151:
 1481              	.LBB587:
 1482              	.LBB588:
ARM GAS  C:\Users\stoma\AppData\Local\Temp\ccLygOki.s 			page 27


 1483              		.loc 5 527 0
 1484 0040 0C20     		movs	r0, #12
 1485 0042 FFF7FEFF 		bl	chSysPolledDelayX
 1486              	.LVL152:
 1487              	.L148:
 1488              	.LBE588:
 1489              	.LBE587:
 1490              		.loc 1 128 0
 1491 0046 2369     		ldr	r3, [r4, #16]
 1492 0048 002B     		cmp	r3, #0
 1493 004a FCDA     		bge	.L148
 1494              	.LBE589:
 1495              	.LBE590:
 1496              		.loc 1 861 0
 1497 004c 0024     		movs	r4, #0
 1498 004e B460     		str	r4, [r6, #8]
 1499              		.loc 1 864 0
 1500 0050 D5E91401 		ldrd	r0, r1, [r5, #80]
 1501 0054 FFF7FEFF 		bl	otg_disable_ep.isra.0
 1502              	.LVL153:
 1503              		.loc 1 871 0
 1504 0058 6B68     		ldr	r3, [r5, #4]
 1505              		.loc 1 868 0
 1506 005a C6F81048 		str	r4, [r6, #2064]
 1507              		.loc 1 871 0
 1508 005e DB68     		ldr	r3, [r3, #12]
 1509              		.loc 1 869 0
 1510 0060 C6F81448 		str	r4, [r6, #2068]
 1511              		.loc 1 870 0
 1512 0064 C6F81C48 		str	r4, [r6, #2076]
 1513              		.loc 1 871 0
 1514 0068 6BB1     		cbz	r3, .L165
 1515              		.loc 1 875 0
 1516 006a 43F20803 		movw	r3, #12296
 1517 006e B361     		str	r3, [r6, #24]
 1518              	.L150:
 1519              		.loc 1 881 0
 1520 0070 6B6E     		ldr	r3, [r5, #100]
 1521              		.loc 1 877 0
 1522 0072 4FF0FF32 		mov	r2, #-1
 1523 0076 7261     		str	r2, [r6, #20]
 1524              		.loc 1 881 0
 1525 0078 D3B1     		cbz	r3, .L166
 1526              	.L151:
 1527              		.loc 1 891 0
 1528 007a B368     		ldr	r3, [r6, #8]
 1529 007c 43F00103 		orr	r3, r3, #1
 1530 0080 B360     		str	r3, [r6, #8]
 1531              		.loc 1 893 0
 1532 0082 02B0     		add	sp, sp, #8
 1533              		.cfi_remember_state
 1534              		.cfi_def_cfa_offset 16
 1535              		@ sp needed
 1536 0084 70BD     		pop	{r4, r5, r6, pc}
 1537              	.LVL154:
 1538              	.L165:
 1539              		.cfi_restore_state
ARM GAS  C:\Users\stoma\AppData\Local\Temp\ccLygOki.s 			page 28


 1540              		.loc 1 872 0
 1541 0086 4FF44053 		mov	r3, #12288
 1542 008a B361     		str	r3, [r6, #24]
 1543 008c F0E7     		b	.L150
 1544              	.LVL155:
 1545              	.L164:
 1546              		.loc 1 814 0
 1547 008e 174B     		ldr	r3, .L167+12
 1548 0090 5A6B     		ldr	r2, [r3, #52]
 1549 0092 42F08002 		orr	r2, r2, #128
 1550 0096 5A63     		str	r2, [r3, #52]
 1551              		.loc 1 815 0
 1552 0098 5A69     		ldr	r2, [r3, #20]
 1553 009a 0020     		movs	r0, #0
 1554              	.LVL156:
 1555 009c 42F08002 		orr	r2, r2, #128
 1556 00a0 5A61     		str	r2, [r3, #20]
 1557              		.loc 1 818 0
 1558 00a2 0E21     		movs	r1, #14
 1559              		.loc 1 815 0
 1560 00a4 5861     		str	r0, [r3, #20]
 1561              		.loc 1 818 0
 1562 00a6 4320     		movs	r0, #67
 1563 00a8 FFF7FEFF 		bl	nvicEnableVector
 1564              	.LVL157:
 1565 00ac 2C6D     		ldr	r4, [r5, #80]
 1566 00ae B3E7     		b	.L146
 1567              	.LVL158:
 1568              	.L166:
 1569              		.loc 1 882 0
 1570 00b0 0F4B     		ldr	r3, .L167+16
 1571 00b2 0095     		str	r5, [sp]
 1572 00b4 0222     		movs	r2, #2
 1573 00b6 4FF4FC71 		mov	r1, #504
 1574 00ba 05F16800 		add	r0, r5, #104
 1575 00be FFF7FEFF 		bl	chThdCreateI
 1576              	.LVL159:
 1577 00c2 6866     		str	r0, [r5, #100]
 1578              	.LVL160:
 1579              	.LBB591:
 1580              	.LBB592:
 1581              		.file 6 "../../lib/ChibiOS/os/rt/include/chthreads.h"
 1582              		.loc 6 247 0
 1583 00c4 90F82030 		ldrb	r3, [r0, #32]	@ zero_extendqisi2
 1584 00c8 022B     		cmp	r3, #2
 1585              	.LBE592:
 1586              	.LBE591:
 1587              		.loc 1 882 0
 1588 00ca 0446     		mov	r4, r0
 1589              	.LBB594:
 1590              	.LBB593:
 1591              		.loc 6 247 0
 1592 00cc 02D0     		beq	.L152
 1593 00ce 0948     		ldr	r0, .L167+20
 1594              	.LVL161:
 1595 00d0 FFF7FEFF 		bl	chSysHalt
 1596              	.LVL162:
ARM GAS  C:\Users\stoma\AppData\Local\Temp\ccLygOki.s 			page 29


 1597              	.L152:
 1598              		.loc 6 249 0
 1599 00d4 2046     		mov	r0, r4
 1600 00d6 FFF7FEFF 		bl	chSchReadyI
 1601              	.LVL163:
 1602              	.LBE593:
 1603              	.LBE594:
 1604              		.loc 1 886 0
 1605 00da FFF7FEFF 		bl	chSchRescheduleS
 1606              	.LVL164:
 1607 00de CCE7     		b	.L151
 1608              	.L168:
 1609              		.align	2
 1610              	.L167:
 1611 00e0 00000000 		.word	.LANCHOR1
 1612 00e4 40140040 		.word	1073747008
 1613 00e8 03002002 		.word	35651587
 1614 00ec 00380240 		.word	1073887232
 1615 00f0 00000000 		.word	usb_lld_pump
 1616 00f4 00000000 		.word	.LANCHOR3
 1617              		.cfi_endproc
 1618              	.LFE275:
 1619              		.size	usb_lld_start, .-usb_lld_start
 1620              		.section	.text.usb_lld_stop,"ax",%progbits
 1621              		.align	1
 1622              		.p2align 4,,15
 1623              		.global	usb_lld_stop
 1624              		.syntax unified
 1625              		.thumb
 1626              		.thumb_func
 1627              		.fpu fpv4-sp-d16
 1628              		.type	usb_lld_stop, %function
 1629              	usb_lld_stop:
 1630              	.LFB276:
 1631              		.loc 1 902 0
 1632              		.cfi_startproc
 1633              		@ args = 0, pretend = 0, frame = 0
 1634              		@ frame_needed = 0, uses_anonymous_args = 0
 1635              	.LVL165:
 1636 0000 38B5     		push	{r3, r4, r5, lr}
 1637              		.cfi_def_cfa_offset 16
 1638              		.cfi_offset 3, -16
 1639              		.cfi_offset 4, -12
 1640              		.cfi_offset 5, -8
 1641              		.cfi_offset 14, -4
 1642              		.loc 1 906 0
 1643 0002 0378     		ldrb	r3, [r0]	@ zero_extendqisi2
 1644 0004 012B     		cmp	r3, #1
 1645 0006 0ED0     		beq	.L169
 1646              		.loc 1 910 0
 1647 0008 D0E91451 		ldrd	r5, r1, [r0, #80]
 1648 000c 0446     		mov	r4, r0
 1649 000e 2846     		mov	r0, r5
 1650              	.LVL166:
 1651 0010 FFF7FEFF 		bl	otg_disable_ep.isra.0
 1652              	.LVL167:
 1653              		.loc 1 919 0
ARM GAS  C:\Users\stoma\AppData\Local\Temp\ccLygOki.s 			page 30


 1654 0014 094A     		ldr	r2, .L175
 1655              		.loc 1 912 0
 1656 0016 0023     		movs	r3, #0
 1657              		.loc 1 919 0
 1658 0018 9442     		cmp	r4, r2
 1659              		.loc 1 912 0
 1660 001a E365     		str	r3, [r4, #92]
 1661              		.loc 1 914 0
 1662 001c C5F81C38 		str	r3, [r5, #2076]
 1663              		.loc 1 915 0
 1664 0020 AB60     		str	r3, [r5, #8]
 1665              		.loc 1 916 0
 1666 0022 AB63     		str	r3, [r5, #56]
 1667              		.loc 1 919 0
 1668 0024 00D0     		beq	.L174
 1669              	.LVL168:
 1670              	.L169:
 1671              		.loc 1 932 0
 1672 0026 38BD     		pop	{r3, r4, r5, pc}
 1673              	.LVL169:
 1674              	.L174:
 1675              		.loc 1 920 0
 1676 0028 4320     		movs	r0, #67
 1677 002a FFF7FEFF 		bl	nvicDisableVector
 1678              	.LVL170:
 1679              		.loc 1 921 0
 1680 002e 044A     		ldr	r2, .L175+4
 1681 0030 536B     		ldr	r3, [r2, #52]
 1682 0032 23F08003 		bic	r3, r3, #128
 1683 0036 5363     		str	r3, [r2, #52]
 1684              		.loc 1 932 0
 1685 0038 38BD     		pop	{r3, r4, r5, pc}
 1686              	.LVL171:
 1687              	.L176:
 1688 003a 00BF     		.align	2
 1689              	.L175:
 1690 003c 00000000 		.word	.LANCHOR1
 1691 0040 00380240 		.word	1073887232
 1692              		.cfi_endproc
 1693              	.LFE276:
 1694              		.size	usb_lld_stop, .-usb_lld_stop
 1695              		.section	.text.usb_lld_reset,"ax",%progbits
 1696              		.align	1
 1697              		.p2align 4,,15
 1698              		.global	usb_lld_reset
 1699              		.syntax unified
 1700              		.thumb
 1701              		.thumb_func
 1702              		.fpu fpv4-sp-d16
 1703              		.type	usb_lld_reset, %function
 1704              	usb_lld_reset:
 1705              	.LFB277:
 1706              		.loc 1 941 0
 1707              		.cfi_startproc
 1708              		@ args = 0, pretend = 0, frame = 0
 1709              		@ frame_needed = 0, uses_anonymous_args = 0
 1710              	.LVL172:
ARM GAS  C:\Users\stoma\AppData\Local\Temp\ccLygOki.s 			page 31


 1711 0000 F8B5     		push	{r3, r4, r5, r6, r7, lr}
 1712              		.cfi_def_cfa_offset 24
 1713              		.cfi_offset 3, -24
 1714              		.cfi_offset 4, -20
 1715              		.cfi_offset 5, -16
 1716              		.cfi_offset 6, -12
 1717              		.cfi_offset 7, -8
 1718              		.cfi_offset 14, -4
 1719              		.loc 1 943 0
 1720 0002 056D     		ldr	r5, [r0, #80]
 1721              	.LVL173:
 1722              	.LBB595:
 1723              	.LBB596:
 1724              		.loc 1 182 0
 1725 0004 2023     		movs	r3, #32
 1726              	.LBE596:
 1727              	.LBE595:
 1728              		.loc 1 941 0
 1729 0006 0646     		mov	r6, r0
 1730              	.LVL174:
 1731              	.LBB600:
 1732              	.LBB599:
 1733              		.loc 1 182 0
 1734 0008 2B61     		str	r3, [r5, #16]
 1735              	.L178:
 1736              		.loc 1 183 0
 1737 000a 2C69     		ldr	r4, [r5, #16]
 1738 000c 14F02004 		ands	r4, r4, #32
 1739 0010 FBD1     		bne	.L178
 1740              	.LVL175:
 1741              	.LBB597:
 1742              	.LBB598:
 1743              		.loc 5 527 0
 1744 0012 0C20     		movs	r0, #12
 1745              	.LVL176:
 1746 0014 FFF7FEFF 		bl	chSysPolledDelayX
 1747              	.LVL177:
 1748              	.LBE598:
 1749              	.LBE597:
 1750              	.LBE599:
 1751              	.LBE600:
 1752              		.loc 1 949 0
 1753 0018 776D     		ldr	r7, [r6, #84]
 1754 001a BA68     		ldr	r2, [r7, #8]
 1755 001c 2346     		mov	r3, r4
 1756              		.loc 1 950 0
 1757 001e 4FF00060 		mov	r0, #134217728
 1758 0022 541C     		adds	r4, r2, #1
 1759              		.loc 1 952 0
 1760 0024 FF21     		movs	r1, #255
 1761              	.LVL178:
 1762              	.L179:
 1763 0026 05EB4312 		add	r2, r5, r3, lsl #5
 1764              		.loc 1 949 0 discriminator 3
 1765 002a 0133     		adds	r3, r3, #1
 1766              	.LVL179:
 1767 002c 9C42     		cmp	r4, r3
ARM GAS  C:\Users\stoma\AppData\Local\Temp\ccLygOki.s 			page 32


 1768              		.loc 1 950 0 discriminator 3
 1769 002e C2F80009 		str	r0, [r2, #2304]
 1770              		.loc 1 951 0 discriminator 3
 1771 0032 C2F8000B 		str	r0, [r2, #2816]
 1772              		.loc 1 952 0 discriminator 3
 1773 0036 C2F80819 		str	r1, [r2, #2312]
 1774              		.loc 1 953 0 discriminator 3
 1775 003a C2F8081B 		str	r1, [r2, #2824]
 1776              		.loc 1 949 0 discriminator 3
 1777 003e F2D1     		bne	.L179
 1778              	.LBB601:
 1779              	.LBB602:
 1780              		.loc 1 198 0
 1781 0040 3B68     		ldr	r3, [r7]
 1782              	.LVL180:
 1783              	.LBE602:
 1784              	.LBE601:
 1785              		.loc 1 958 0
 1786 0042 4FF00112 		mov	r2, #65537
 1787              		.loc 1 957 0
 1788 0046 4FF0FF31 		mov	r1, #-1
 1789 004a C5F81818 		str	r1, [r5, #2072]
 1790              		.loc 1 958 0
 1791 004e C5F81C28 		str	r2, [r5, #2076]
 1792              	.LVL181:
 1793              	.LBB604:
 1794              	.LBB603:
 1795              		.loc 1 198 0
 1796 0052 B365     		str	r3, [r6, #88]
 1797              	.LBE603:
 1798              	.LBE604:
 1799              		.loc 1 964 0
 1800 0054 3B68     		ldr	r3, [r7]
 1801 0056 326D     		ldr	r2, [r6, #80]
 1802              	.LVL182:
 1803 0058 6B62     		str	r3, [r5, #36]
 1804              	.LBB605:
 1805              	.LBB606:
 1806              		.loc 1 172 0
 1807 005a 1023     		movs	r3, #16
 1808 005c 1361     		str	r3, [r2, #16]
 1809              	.L180:
 1810              		.loc 1 173 0
 1811 005e 1469     		ldr	r4, [r2, #16]
 1812 0060 14F01004 		ands	r4, r4, #16
 1813 0064 FBD1     		bne	.L180
 1814              	.LVL183:
 1815              	.LBB607:
 1816              	.LBB608:
 1817              		.loc 5 527 0
 1818 0066 0C20     		movs	r0, #12
 1819 0068 FFF7FEFF 		bl	chSysPolledDelayX
 1820              	.LVL184:
 1821              	.LBE608:
 1822              	.LBE607:
 1823              	.LBE606:
 1824              	.LBE605:
ARM GAS  C:\Users\stoma\AppData\Local\Temp\ccLygOki.s 			page 33


 1825              		.loc 1 968 0
 1826 006c D5F80038 		ldr	r3, [r5, #2048]
 1827              		.loc 1 978 0
 1828 0070 144A     		ldr	r2, .L186
 1829              		.loc 1 976 0
 1830 0072 1549     		ldr	r1, .L186+4
 1831              		.loc 1 968 0
 1832 0074 23F4FE63 		bic	r3, r3, #2032
 1833 0078 C5F80038 		str	r3, [r5, #2048]
 1834              		.loc 1 971 0
 1835 007c AB69     		ldr	r3, [r5, #24]
 1836 007e 43F44023 		orr	r3, r3, #786432
 1837 0082 43F01003 		orr	r3, r3, #16
 1838 0086 AB61     		str	r3, [r5, #24]
 1839              		.loc 1 972 0
 1840 0088 0923     		movs	r3, #9
 1841 008a C5F81038 		str	r3, [r5, #2064]
 1842              		.loc 1 973 0
 1843 008e C5F81438 		str	r3, [r5, #2068]
 1844              		.loc 1 976 0
 1845 0092 F160     		str	r1, [r6, #12]
 1846              		.loc 1 977 0
 1847 0094 C5F8104B 		str	r4, [r5, #2832]
 1848              		.loc 1 978 0
 1849 0098 C5F8002B 		str	r2, [r5, #2816]
 1850              		.loc 1 980 0
 1851 009c C5F81049 		str	r4, [r5, #2320]
 1852              		.loc 1 981 0
 1853 00a0 C5F80029 		str	r2, [r5, #2304]
 1854 00a4 D6E91524 		ldrd	r2, r4, [r6, #84]
 1855              	.LVL185:
 1856              	.LBB609:
 1857              	.LBB610:
 1858              		.loc 1 213 0
 1859 00a8 04F11003 		add	r3, r4, #16
 1860 00ac B365     		str	r3, [r6, #88]
 1861              		.loc 1 214 0
 1862 00ae 5268     		ldr	r2, [r2, #4]
 1863 00b0 9342     		cmp	r3, r2
 1864 00b2 02D9     		bls	.L181
 1865 00b4 0548     		ldr	r0, .L186+8
 1866 00b6 FFF7FEFF 		bl	chSysHalt
 1867              	.LVL186:
 1868              	.L181:
 1869              	.LBE610:
 1870              	.LBE609:
 1871              		.loc 1 983 0
 1872 00ba 44F48014 		orr	r4, r4, #1048576
 1873 00be AC62     		str	r4, [r5, #40]
 1874              		.loc 1 986 0
 1875 00c0 F8BD     		pop	{r3, r4, r5, r6, r7, pc}
 1876              	.LVL187:
 1877              	.L187:
 1878 00c2 00BF     		.align	2
 1879              	.L186:
 1880 00c4 40800010 		.word	268468288
 1881 00c8 00000000 		.word	.LANCHOR4
ARM GAS  C:\Users\stoma\AppData\Local\Temp\ccLygOki.s 			page 34


 1882 00cc 00000000 		.word	.LANCHOR5
 1883              		.cfi_endproc
 1884              	.LFE277:
 1885              		.size	usb_lld_reset, .-usb_lld_reset
 1886              		.section	.text.usb_lld_set_address,"ax",%progbits
 1887              		.align	1
 1888              		.p2align 4,,15
 1889              		.global	usb_lld_set_address
 1890              		.syntax unified
 1891              		.thumb
 1892              		.thumb_func
 1893              		.fpu fpv4-sp-d16
 1894              		.type	usb_lld_set_address, %function
 1895              	usb_lld_set_address:
 1896              	.LFB278:
 1897              		.loc 1 995 0
 1898              		.cfi_startproc
 1899              		@ args = 0, pretend = 0, frame = 0
 1900              		@ frame_needed = 0, uses_anonymous_args = 0
 1901              		@ link register save eliminated.
 1902              	.LVL188:
 1903              		.loc 1 996 0
 1904 0000 026D     		ldr	r2, [r0, #80]
 1905              	.LVL189:
 1906              		.loc 1 998 0
 1907 0002 90F84E10 		ldrb	r1, [r0, #78]	@ zero_extendqisi2
 1908 0006 D2F80038 		ldr	r3, [r2, #2048]
 1909 000a 23F4FE63 		bic	r3, r3, #2032
 1910 000e 43EA0113 		orr	r3, r3, r1, lsl #4
 1911 0012 C2F80038 		str	r3, [r2, #2048]
 1912              		.loc 1 999 0
 1913 0016 7047     		bx	lr
 1914              		.cfi_endproc
 1915              	.LFE278:
 1916              		.size	usb_lld_set_address, .-usb_lld_set_address
 1917              		.section	.text.usb_lld_init_endpoint,"ax",%progbits
 1918              		.align	1
 1919              		.p2align 4,,15
 1920              		.global	usb_lld_init_endpoint
 1921              		.syntax unified
 1922              		.thumb
 1923              		.thumb_func
 1924              		.fpu fpv4-sp-d16
 1925              		.type	usb_lld_init_endpoint, %function
 1926              	usb_lld_init_endpoint:
 1927              	.LFB279:
 1928              		.loc 1 1009 0
 1929              		.cfi_startproc
 1930              		@ args = 0, pretend = 0, frame = 8
 1931              		@ frame_needed = 0, uses_anonymous_args = 0
 1932              	.LVL190:
 1933 0000 2DE9F04F 		push	{r4, r5, r6, r7, r8, r9, r10, fp, lr}
 1934              		.cfi_def_cfa_offset 36
 1935              		.cfi_offset 4, -36
 1936              		.cfi_offset 5, -32
 1937              		.cfi_offset 6, -28
 1938              		.cfi_offset 7, -24
ARM GAS  C:\Users\stoma\AppData\Local\Temp\ccLygOki.s 			page 35


 1939              		.cfi_offset 8, -20
 1940              		.cfi_offset 9, -16
 1941              		.cfi_offset 10, -12
 1942              		.cfi_offset 11, -8
 1943              		.cfi_offset 14, -4
 1944 0004 0EB2     		sxth	r6, r1
 1945 0006 00EB8609 		add	r9, r0, r6, lsl #2
 1946 000a 83B0     		sub	sp, sp, #12
 1947              		.cfi_def_cfa_offset 48
 1948              		.loc 1 1014 0
 1949 000c D9F80C30 		ldr	r3, [r9, #12]
 1950 0010 1A68     		ldr	r2, [r3]
 1951 0012 02F00302 		and	r2, r2, #3
 1952 0016 022A     		cmp	r2, #2
 1953              		.loc 1 1009 0
 1954 0018 0D46     		mov	r5, r1
 1955 001a 0746     		mov	r7, r0
 1956              	.LVL191:
 1957              		.loc 1 1014 0
 1958 001c 00F09D80 		beq	.L191
 1959 0020 032A     		cmp	r2, #3
 1960 0022 00F09780 		beq	.L192
 1961              		.loc 1 1016 0
 1962 0026 5148     		ldr	r0, .L207
 1963              	.LVL192:
 1964 0028 5149     		ldr	r1, .L207+4
 1965              	.LVL193:
 1966 002a 012A     		cmp	r2, #1
 1967 002c 0CBF     		ite	eq
 1968 002e 8246     		moveq	r10, r0
 1969 0030 8A46     		movne	r10, r1
 1970              	.L193:
 1971              		.loc 1 1011 0
 1972 0032 3C6D     		ldr	r4, [r7, #80]
 1973              	.LVL194:
 1974              		.loc 1 1033 0
 1975 0034 D868     		ldr	r0, [r3, #12]
 1976              		.loc 1 1032 0
 1977 0036 6901     		lsls	r1, r5, #5
 1978 0038 6218     		adds	r2, r4, r1
 1979 003a 4FF0000C 		mov	ip, #0
 1980 003e C2F810CB 		str	ip, [r2, #2832]
 1981 0042 05F11002 		add	r2, r5, #16
 1982 0046 4FF0010C 		mov	ip, #1
 1983 004a 0CFA02F2 		lsl	r2, ip, r2
 1984              		.loc 1 1033 0
 1985 004e 0028     		cmp	r0, #0
 1986 0050 71D0     		beq	.L194
 1987              		.loc 1 1034 0
 1988 0052 B3F812C0 		ldrh	ip, [r3, #18]
 1989 0056 05F15800 		add	r0, r5, #88
 1990 005a 4001     		lsls	r0, r0, #5
 1991 005c 4CEA0A0C 		orr	ip, ip, r10
 1992 0060 44F800C0 		str	ip, [r4, r0]
 1993              		.loc 1 1035 0
 1994 0064 D4F81C08 		ldr	r0, [r4, #2076]
 1995 0068 0243     		orrs	r2, r2, r0
ARM GAS  C:\Users\stoma\AppData\Local\Temp\ccLygOki.s 			page 36


 1996 006a C4F81C28 		str	r2, [r4, #2076]
 1997              	.L195:
 1998              		.loc 1 1043 0
 1999 006e 2144     		add	r1, r1, r4
 2000              		.loc 1 1044 0
 2001 0070 9A68     		ldr	r2, [r3, #8]
 2002              		.loc 1 1043 0
 2003 0072 0020     		movs	r0, #0
 2004 0074 4FEA8518 		lsl	r8, r5, #6
 2005 0078 C1F81009 		str	r0, [r1, #2320]
 2006 007c 48F02008 		orr	r8, r8, #32
 2007 0080 05F1FF3B 		add	fp, r5, #-1
 2008              		.loc 1 1044 0
 2009 0084 A2B3     		cbz	r2, .L196
 2010              		.loc 1 1046 0
 2011 0086 1E8A     		ldrh	r6, [r3, #16]
 2012              		.loc 1 1047 0
 2013 0088 9B8B     		ldrh	r3, [r3, #28]
 2014              		.loc 1 1046 0
 2015 008a B608     		lsrs	r6, r6, #2
 2016              	.LVL195:
 2017              		.loc 1 1047 0
 2018 008c 012B     		cmp	r3, #1
 2019              		.loc 1 1048 0
 2020 008e 88BF     		it	hi
 2021 0090 5E43     		mulhi	r6, r3, r6
 2022              	.LVL196:
 2023 0092 D7E91523 		ldrd	r2, r3, [r7, #84]
 2024              	.LVL197:
 2025              	.LBB611:
 2026              	.LBB612:
 2027              		.loc 1 213 0
 2028 0096 F118     		adds	r1, r6, r3
 2029 0098 B965     		str	r1, [r7, #88]
 2030              		.loc 1 214 0
 2031 009a 5268     		ldr	r2, [r2, #4]
 2032 009c 9142     		cmp	r1, r2
 2033              	.LBE612:
 2034              	.LBE611:
 2035              		.loc 1 1049 0
 2036 009e 4FEA0646 		lsl	r6, r6, #16
 2037              	.LVL198:
 2038              	.LBB615:
 2039              	.LBB613:
 2040              		.loc 1 214 0
 2041 00a2 5DD8     		bhi	.L206
 2042              	.LVL199:
 2043              	.L198:
 2044              	.LBE613:
 2045              	.LBE615:
 2046              		.loc 1 1049 0
 2047 00a4 0BF1400B 		add	fp, fp, #64
 2048 00a8 396D     		ldr	r1, [r7, #80]
 2049              	.LVL200:
 2050 00aa 04EB8B0B 		add	fp, r4, fp, lsl #2
 2051 00ae 1E43     		orrs	r6, r6, r3
 2052 00b0 CBF80460 		str	r6, [fp, #4]
ARM GAS  C:\Users\stoma\AppData\Local\Temp\ccLygOki.s 			page 37


 2053              	.LBB616:
 2054              	.LBB617:
 2055              		.loc 1 182 0
 2056 00b4 C1F81080 		str	r8, [r1, #16]
 2057              	.L199:
 2058              		.loc 1 183 0
 2059 00b8 0B69     		ldr	r3, [r1, #16]
 2060 00ba 9A06     		lsls	r2, r3, #26
 2061 00bc FCD4     		bmi	.L199
 2062              	.LVL201:
 2063              	.LBB618:
 2064              	.LBB619:
 2065              		.loc 5 527 0
 2066 00be 0C20     		movs	r0, #12
 2067 00c0 FFF7FEFF 		bl	chSysPolledDelayX
 2068              	.LVL202:
 2069              	.LBE619:
 2070              	.LBE618:
 2071              	.LBE617:
 2072              	.LBE616:
 2073              		.loc 1 1055 0
 2074 00c4 D9F80C30 		ldr	r3, [r9, #12]
 2075 00c8 1A8A     		ldrh	r2, [r3, #16]
 2076              		.loc 1 1053 0
 2077 00ca 05F14803 		add	r3, r5, #72
 2078              		.loc 1 1054 0
 2079 00ce 42EA8552 		orr	r2, r2, r5, lsl #22
 2080              		.loc 1 1053 0
 2081 00d2 5B01     		lsls	r3, r3, #5
 2082              		.loc 1 1054 0
 2083 00d4 42EA0A02 		orr	r2, r2, r10
 2084              		.loc 1 1053 0
 2085 00d8 E250     		str	r2, [r4, r3]
 2086              		.loc 1 1056 0
 2087 00da 0121     		movs	r1, #1
 2088 00dc D4F81C38 		ldr	r3, [r4, #2076]
 2089 00e0 01FA05F5 		lsl	r5, r1, r5
 2090 00e4 1D43     		orrs	r5, r5, r3
 2091 00e6 C4F81C58 		str	r5, [r4, #2076]
 2092              		.loc 1 1064 0
 2093 00ea 03B0     		add	sp, sp, #12
 2094              		.cfi_remember_state
 2095              		.cfi_def_cfa_offset 36
 2096              		@ sp needed
 2097 00ec BDE8F08F 		pop	{r4, r5, r6, r7, r8, r9, r10, fp, pc}
 2098              	.LVL203:
 2099              	.L196:
 2100              		.cfi_restore_state
 2101              		.loc 1 1059 0
 2102 00f0 05F13F03 		add	r3, r5, #63
 2103 00f4 3A6D     		ldr	r2, [r7, #80]
 2104              	.LVL204:
 2105 00f6 1F49     		ldr	r1, .L207+8
 2106 00f8 04EB8303 		add	r3, r4, r3, lsl #2
 2107 00fc 5960     		str	r1, [r3, #4]
 2108              	.LBB620:
 2109              	.LBB621:
ARM GAS  C:\Users\stoma\AppData\Local\Temp\ccLygOki.s 			page 38


 2110              		.loc 1 182 0
 2111 00fe C2F81080 		str	r8, [r2, #16]
 2112              	.L201:
 2113              		.loc 1 183 0
 2114 0102 1369     		ldr	r3, [r2, #16]
 2115 0104 9B06     		lsls	r3, r3, #26
 2116 0106 FCD4     		bmi	.L201
 2117              	.LVL205:
 2118 0108 04EB4616 		add	r6, r4, r6, lsl #5
 2119              	.LBB622:
 2120              	.LBB623:
 2121              		.loc 5 527 0
 2122 010c 0C20     		movs	r0, #12
 2123 010e FFF7FEFF 		bl	chSysPolledDelayX
 2124              	.LVL206:
 2125              	.LBE623:
 2126              	.LBE622:
 2127              	.LBE621:
 2128              	.LBE620:
 2129              		.loc 1 1061 0
 2130 0112 D6F80039 		ldr	r3, [r6, #2304]
 2131 0116 23F40043 		bic	r3, r3, #32768
 2132 011a C6F80039 		str	r3, [r6, #2304]
 2133              		.loc 1 1062 0
 2134 011e D4F81C38 		ldr	r3, [r4, #2076]
 2135 0122 0121     		movs	r1, #1
 2136 0124 01FA05F5 		lsl	r5, r1, r5
 2137 0128 23EA0505 		bic	r5, r3, r5
 2138 012c C4F81C58 		str	r5, [r4, #2076]
 2139              		.loc 1 1064 0
 2140 0130 03B0     		add	sp, sp, #12
 2141              		.cfi_remember_state
 2142              		.cfi_def_cfa_offset 36
 2143              		@ sp needed
 2144 0132 BDE8F08F 		pop	{r4, r5, r6, r7, r8, r9, r10, fp, pc}
 2145              	.LVL207:
 2146              	.L194:
 2147              		.cfi_restore_state
 2148 0136 04EB461C 		add	ip, r4, r6, lsl #5
 2149              		.loc 1 1038 0
 2150 013a DCF8000B 		ldr	r0, [ip, #2816]
 2151 013e 20F40040 		bic	r0, r0, #32768
 2152 0142 CCF8000B 		str	r0, [ip, #2816]
 2153              		.loc 1 1039 0
 2154 0146 D4F81C08 		ldr	r0, [r4, #2076]
 2155 014a 20EA0202 		bic	r2, r0, r2
 2156 014e C4F81C28 		str	r2, [r4, #2076]
 2157 0152 8CE7     		b	.L195
 2158              	.LVL208:
 2159              	.L192:
 2160              		.loc 1 1025 0
 2161 0154 DFF824A0 		ldr	r10, .L207+16
 2162              		.loc 1 1026 0
 2163 0158 6BE7     		b	.L193
 2164              	.LVL209:
 2165              	.L191:
 2166              		.loc 1 1022 0
ARM GAS  C:\Users\stoma\AppData\Local\Temp\ccLygOki.s 			page 39


 2167 015a DFF824A0 		ldr	r10, .L207+20
 2168              		.loc 1 1023 0
 2169 015e 68E7     		b	.L193
 2170              	.LVL210:
 2171              	.L206:
 2172              	.LBB624:
 2173              	.LBB614:
 2174              		.loc 1 214 0
 2175 0160 0548     		ldr	r0, .L207+12
 2176 0162 0193     		str	r3, [sp, #4]
 2177 0164 FFF7FEFF 		bl	chSysHalt
 2178              	.LVL211:
 2179 0168 019B     		ldr	r3, [sp, #4]
 2180 016a 9BE7     		b	.L198
 2181              	.L208:
 2182              		.align	2
 2183              	.L207:
 2184 016c 00800410 		.word	268730368
 2185 0170 00800010 		.word	268468224
 2186 0174 00040002 		.word	33555456
 2187 0178 00000000 		.word	.LANCHOR5
 2188 017c 00800C10 		.word	269254656
 2189 0180 00800810 		.word	268992512
 2190              	.LBE614:
 2191              	.LBE624:
 2192              		.cfi_endproc
 2193              	.LFE279:
 2194              		.size	usb_lld_init_endpoint, .-usb_lld_init_endpoint
 2195              		.section	.text.usb_lld_disable_endpoints,"ax",%progbits
 2196              		.align	1
 2197              		.p2align 4,,15
 2198              		.global	usb_lld_disable_endpoints
 2199              		.syntax unified
 2200              		.thumb
 2201              		.thumb_func
 2202              		.fpu fpv4-sp-d16
 2203              		.type	usb_lld_disable_endpoints, %function
 2204              	usb_lld_disable_endpoints:
 2205              	.LFB280:
 2206              		.loc 1 1073 0
 2207              		.cfi_startproc
 2208              		@ args = 0, pretend = 0, frame = 0
 2209              		@ frame_needed = 0, uses_anonymous_args = 0
 2210              		@ link register save eliminated.
 2211              	.LVL212:
 2212              		.loc 1 1073 0
 2213 0000 0346     		mov	r3, r0
 2214              		.loc 1 1079 0
 2215 0002 D0E91401 		ldrd	r0, r1, [r0, #80]
 2216              	.LVL213:
 2217              	.LBB625:
 2218              	.LBB626:
 2219              		.loc 1 198 0
 2220 0006 0A68     		ldr	r2, [r1]
 2221 0008 9A65     		str	r2, [r3, #88]
 2222              	.LBE626:
 2223              	.LBE625:
ARM GAS  C:\Users\stoma\AppData\Local\Temp\ccLygOki.s 			page 40


 2224              		.loc 1 1079 0
 2225 000a FFF7FEBF 		b	otg_disable_ep.isra.0
 2226              	.LVL214:
 2227              		.cfi_endproc
 2228              	.LFE280:
 2229              		.size	usb_lld_disable_endpoints, .-usb_lld_disable_endpoints
 2230 000e 00BF     		.section	.text.usb_lld_get_status_out,"ax",%progbits
 2231              		.align	1
 2232              		.p2align 4,,15
 2233              		.global	usb_lld_get_status_out
 2234              		.syntax unified
 2235              		.thumb
 2236              		.thumb_func
 2237              		.fpu fpv4-sp-d16
 2238              		.type	usb_lld_get_status_out, %function
 2239              	usb_lld_get_status_out:
 2240              	.LFB281:
 2241              		.loc 1 1094 0
 2242              		.cfi_startproc
 2243              		@ args = 0, pretend = 0, frame = 0
 2244              		@ frame_needed = 0, uses_anonymous_args = 0
 2245              		@ link register save eliminated.
 2246              	.LVL215:
 2247              		.loc 1 1099 0
 2248 0000 5831     		adds	r1, r1, #88
 2249              	.LVL216:
 2250 0002 036D     		ldr	r3, [r0, #80]
 2251 0004 4901     		lsls	r1, r1, #5
 2252 0006 5B58     		ldr	r3, [r3, r1]
 2253              	.LVL217:
 2254              		.loc 1 1100 0
 2255 0008 13F40040 		ands	r0, r3, #32768
 2256              	.LVL218:
 2257 000c 04D0     		beq	.L211
 2258              		.loc 1 1102 0
 2259 000e 13F4001F 		tst	r3, #2097152
 2260              		.loc 1 1104 0
 2261 0012 14BF     		ite	ne
 2262 0014 0120     		movne	r0, #1
 2263 0016 0220     		moveq	r0, #2
 2264              	.L211:
 2265              		.loc 1 1105 0
 2266 0018 7047     		bx	lr
 2267              		.cfi_endproc
 2268              	.LFE281:
 2269              		.size	usb_lld_get_status_out, .-usb_lld_get_status_out
 2270 001a 00BF     		.section	.text.usb_lld_get_status_in,"ax",%progbits
 2271              		.align	1
 2272              		.p2align 4,,15
 2273              		.global	usb_lld_get_status_in
 2274              		.syntax unified
 2275              		.thumb
 2276              		.thumb_func
 2277              		.fpu fpv4-sp-d16
 2278              		.type	usb_lld_get_status_in, %function
 2279              	usb_lld_get_status_in:
 2280              	.LFB282:
ARM GAS  C:\Users\stoma\AppData\Local\Temp\ccLygOki.s 			page 41


 2281              		.loc 1 1119 0
 2282              		.cfi_startproc
 2283              		@ args = 0, pretend = 0, frame = 0
 2284              		@ frame_needed = 0, uses_anonymous_args = 0
 2285              		@ link register save eliminated.
 2286              	.LVL219:
 2287              		.loc 1 1124 0
 2288 0000 4831     		adds	r1, r1, #72
 2289              	.LVL220:
 2290 0002 036D     		ldr	r3, [r0, #80]
 2291 0004 4901     		lsls	r1, r1, #5
 2292 0006 5B58     		ldr	r3, [r3, r1]
 2293              	.LVL221:
 2294              		.loc 1 1125 0
 2295 0008 13F40040 		ands	r0, r3, #32768
 2296              	.LVL222:
 2297 000c 04D0     		beq	.L215
 2298              		.loc 1 1127 0
 2299 000e 13F4001F 		tst	r3, #2097152
 2300              		.loc 1 1129 0
 2301 0012 14BF     		ite	ne
 2302 0014 0120     		movne	r0, #1
 2303 0016 0220     		moveq	r0, #2
 2304              	.L215:
 2305              		.loc 1 1130 0
 2306 0018 7047     		bx	lr
 2307              		.cfi_endproc
 2308              	.LFE282:
 2309              		.size	usb_lld_get_status_in, .-usb_lld_get_status_in
 2310 001a 00BF     		.section	.text.usb_lld_read_setup,"ax",%progbits
 2311              		.align	1
 2312              		.p2align 4,,15
 2313              		.global	usb_lld_read_setup
 2314              		.syntax unified
 2315              		.thumb
 2316              		.thumb_func
 2317              		.fpu fpv4-sp-d16
 2318              		.type	usb_lld_read_setup, %function
 2319              	usb_lld_read_setup:
 2320              	.LFB283:
 2321              		.loc 1 1146 0
 2322              		.cfi_startproc
 2323              		@ args = 0, pretend = 0, frame = 0
 2324              		@ frame_needed = 0, uses_anonymous_args = 0
 2325              		@ link register save eliminated.
 2326              	.LVL223:
 2327              		.loc 1 1148 0
 2328 0000 00EB8101 		add	r1, r0, r1, lsl #2
 2329              	.LVL224:
 2330 0004 CB68     		ldr	r3, [r1, #12]
 2331 0006 1B6A     		ldr	r3, [r3, #32]
 2332 0008 1968     		ldr	r1, [r3]	@ unaligned
 2333 000a 5B68     		ldr	r3, [r3, #4]	@ unaligned
 2334 000c 5360     		str	r3, [r2, #4]	@ unaligned
 2335 000e 1160     		str	r1, [r2]	@ unaligned
 2336              		.loc 1 1149 0
 2337 0010 7047     		bx	lr
ARM GAS  C:\Users\stoma\AppData\Local\Temp\ccLygOki.s 			page 42


 2338              		.cfi_endproc
 2339              	.LFE283:
 2340              		.size	usb_lld_read_setup, .-usb_lld_read_setup
 2341 0012 00BF     		.section	.text.usb_lld_prepare_receive,"ax",%progbits
 2342              		.align	1
 2343              		.p2align 4,,15
 2344              		.global	usb_lld_prepare_receive
 2345              		.syntax unified
 2346              		.thumb
 2347              		.thumb_func
 2348              		.fpu fpv4-sp-d16
 2349              		.type	usb_lld_prepare_receive, %function
 2350              	usb_lld_prepare_receive:
 2351              	.LFB284:
 2352              		.loc 1 1159 0
 2353              		.cfi_startproc
 2354              		@ args = 0, pretend = 0, frame = 0
 2355              		@ frame_needed = 0, uses_anonymous_args = 0
 2356              		@ link register save eliminated.
 2357              	.LVL225:
 2358              		.loc 1 1161 0
 2359 0000 00EB8103 		add	r3, r0, r1, lsl #2
 2360              		.loc 1 1159 0
 2361 0004 70B4     		push	{r4, r5, r6}
 2362              		.cfi_def_cfa_offset 12
 2363              		.cfi_offset 4, -12
 2364              		.cfi_offset 5, -8
 2365              		.cfi_offset 6, -4
 2366              		.loc 1 1161 0
 2367 0006 DE68     		ldr	r6, [r3, #12]
 2368 0008 B569     		ldr	r5, [r6, #24]
 2369              	.LVL226:
 2370              		.loc 1 1164 0
 2371 000a 6A68     		ldr	r2, [r5, #4]
 2372 000c 2A61     		str	r2, [r5, #16]
 2373              		.loc 1 1165 0
 2374 000e 29B9     		cbnz	r1, .L224
 2375              		.loc 1 1165 0 is_stmt 0 discriminator 1
 2376 0010 402A     		cmp	r2, #64
 2377 0012 03D9     		bls	.L224
 2378              		.loc 1 1166 0 is_stmt 1
 2379 0014 4022     		movs	r2, #64
 2380 0016 094C     		ldr	r4, .L225
 2381 0018 6A60     		str	r2, [r5, #4]
 2382 001a 01E0     		b	.L221
 2383              	.L224:
 2384 001c 42F0C044 		orr	r4, r2, #1610612736
 2385              	.L221:
 2386              		.loc 1 1168 0
 2387 0020 758A     		ldrh	r5, [r6, #18]
 2388              	.LVL227:
 2389              		.loc 1 1170 0
 2390 0022 006D     		ldr	r0, [r0, #80]
 2391              	.LVL228:
 2392              		.loc 1 1168 0
 2393 0024 6B1E     		subs	r3, r5, #1
 2394              		.loc 1 1170 0
ARM GAS  C:\Users\stoma\AppData\Local\Temp\ccLygOki.s 			page 43


 2395 0026 00EB4111 		add	r1, r0, r1, lsl #5
 2396              	.LVL229:
 2397              		.loc 1 1168 0
 2398 002a 1344     		add	r3, r3, r2
 2399 002c B3FBF5F3 		udiv	r3, r3, r5
 2400              		.loc 1 1170 0
 2401 0030 44EAC343 		orr	r3, r4, r3, lsl #19
 2402 0034 C1F8103B 		str	r3, [r1, #2832]
 2403              		.loc 1 1173 0
 2404 0038 70BC     		pop	{r4, r5, r6}
 2405              		.cfi_restore 6
 2406              		.cfi_restore 5
 2407              		.cfi_restore 4
 2408              		.cfi_def_cfa_offset 0
 2409              	.LVL230:
 2410 003a 7047     		bx	lr
 2411              	.L226:
 2412              		.align	2
 2413              	.L225:
 2414 003c 40000060 		.word	1610612800
 2415              		.cfi_endproc
 2416              	.LFE284:
 2417              		.size	usb_lld_prepare_receive, .-usb_lld_prepare_receive
 2418              		.section	.text.otg_epout_handler.constprop.7,"ax",%progbits
 2419              		.align	1
 2420              		.p2align 4,,15
 2421              		.syntax unified
 2422              		.thumb
 2423              		.thumb_func
 2424              		.fpu fpv4-sp-d16
 2425              		.type	otg_epout_handler.constprop.7, %function
 2426              	otg_epout_handler.constprop.7:
 2427              	.LFB300:
 2428              		.loc 1 581 0
 2429              		.cfi_startproc
 2430              		@ args = 0, pretend = 0, frame = 0
 2431              		@ frame_needed = 0, uses_anonymous_args = 0
 2432              	.LVL231:
 2433 0000 2DE9F041 		push	{r4, r5, r6, r7, r8, lr}
 2434              		.cfi_def_cfa_offset 24
 2435              		.cfi_offset 4, -24
 2436              		.cfi_offset 5, -20
 2437              		.cfi_offset 6, -16
 2438              		.cfi_offset 7, -12
 2439              		.cfi_offset 8, -8
 2440              		.cfi_offset 14, -4
 2441              		.loc 1 582 0
 2442 0004 284E     		ldr	r6, .L245
 2443 0006 376D     		ldr	r7, [r6, #80]
 2444              	.LVL232:
 2445              		.loc 1 583 0
 2446 0008 07EB4013 		add	r3, r7, r0, lsl #5
 2447              		.loc 1 581 0
 2448 000c 0546     		mov	r5, r0
 2449              		.loc 1 583 0
 2450 000e D3F8084B 		ldr	r4, [r3, #2824]
 2451              	.LVL233:
ARM GAS  C:\Users\stoma\AppData\Local\Temp\ccLygOki.s 			page 44


 2452              		.loc 1 586 0
 2453 0012 C3F8084B 		str	r4, [r3, #2824]
 2454              		.loc 1 588 0
 2455 0016 2007     		lsls	r0, r4, #28
 2456              	.LVL234:
 2457 0018 0AD5     		bpl	.L228
 2458 001a D7F81438 		ldr	r3, [r7, #2068]
 2459 001e 1907     		lsls	r1, r3, #28
 2460 0020 06D5     		bpl	.L228
 2461              		.loc 1 591 0
 2462 0022 06EB8503 		add	r3, r6, r5, lsl #2
 2463 0026 2946     		mov	r1, r5
 2464 0028 DB68     		ldr	r3, [r3, #12]
 2465 002a 3046     		mov	r0, r6
 2466 002c 5B68     		ldr	r3, [r3, #4]
 2467 002e 9847     		blx	r3
 2468              	.LVL235:
 2469              	.L228:
 2470              		.loc 1 594 0
 2471 0030 E207     		lsls	r2, r4, #31
 2472 0032 36D5     		bpl	.L227
 2473 0034 D7F81438 		ldr	r3, [r7, #2068]
 2474 0038 DB07     		lsls	r3, r3, #31
 2475 003a 32D5     		bpl	.L227
 2476              	.LBB627:
 2477              		.loc 1 596 0
 2478 003c 06EB8503 		add	r3, r6, r5, lsl #2
 2479 0040 D968     		ldr	r1, [r3, #12]
 2480 0042 8B69     		ldr	r3, [r1, #24]
 2481              	.LVL236:
 2482              		.loc 1 598 0
 2483 0044 5868     		ldr	r0, [r3, #4]
 2484 0046 1A69     		ldr	r2, [r3, #16]
 2485 0048 9042     		cmp	r0, r2
 2486 004a 0CD3     		bcc	.L244
 2487              		.loc 1 611 0
 2488 004c 7389     		ldrh	r3, [r6, #10]
 2489              	.LVL237:
 2490 004e CC68     		ldr	r4, [r1, #12]
 2491              	.LVL238:
 2492 0050 1548     		ldr	r0, .L245
 2493 0052 0122     		movs	r2, #1
 2494 0054 AA40     		lsls	r2, r2, r5
 2495 0056 23EA0203 		bic	r3, r3, r2
 2496 005a 7381     		strh	r3, [r6, #10]	@ movhi
 2497 005c 2946     		mov	r1, r5
 2498              	.LVL239:
 2499 005e 2346     		mov	r3, r4
 2500              	.LBE627:
 2501              		.loc 1 614 0
 2502 0060 BDE8F041 		pop	{r4, r5, r6, r7, r8, lr}
 2503              		.cfi_remember_state
 2504              		.cfi_restore 14
 2505              		.cfi_restore 8
 2506              		.cfi_restore 7
 2507              		.cfi_restore 6
 2508              		.cfi_restore 5
ARM GAS  C:\Users\stoma\AppData\Local\Temp\ccLygOki.s 			page 45


 2509              		.cfi_restore 4
 2510              		.cfi_def_cfa_offset 0
 2511              	.LVL240:
 2512              	.LBB642:
 2513              		.loc 1 611 0
 2514 0064 1847     		bx	r3	@ indirect register sibling call
 2515              	.LVL241:
 2516              	.L244:
 2517              		.cfi_restore_state
 2518              		.loc 1 602 0
 2519 0066 121A     		subs	r2, r2, r0
 2520              		.loc 1 603 0
 2521 0068 0024     		movs	r4, #0
 2522              	.LVL242:
 2523 006a C3E90124 		strd	r2, r4, [r3, #4]
 2524              		.loc 1 604 0
 2525 006e 2946     		mov	r1, r5
 2526 0070 0D48     		ldr	r0, .L245
 2527 0072 FFF7FEFF 		bl	usb_lld_prepare_receive
 2528              	.LVL243:
 2529              	.LBB628:
 2530              	.LBB629:
 2531              	.LBB630:
 2532              	.LBB631:
 2533              	.LBB632:
 2534              	.LBB633:
 2535              		.loc 3 546 0
 2536 0076 2023     		movs	r3, #32
 2537              		.syntax unified
 2538              	@ 546 "../../lib/ChibiOS/os/ext/CMSIS/include/core_cmFunc.h" 1
 2539 0078 83F31188 		MSR basepri, r3
 2540              	@ 0 "" 2
 2541              	.LVL244:
 2542              		.thumb
 2543              		.syntax unified
 2544              	.LBE633:
 2545              	.LBE632:
 2546              	.LBE631:
 2547              	.LBE630:
 2548              		.loc 4 389 0
 2549 007c FFF7FEFF 		bl	_stats_start_measure_crit_isr
 2550              	.LVL245:
 2551              		.loc 4 390 0
 2552 0080 FFF7FEFF 		bl	_dbg_check_lock_from_isr
 2553              	.LVL246:
 2554 0084 336D     		ldr	r3, [r6, #80]
 2555 0086 03EB4515 		add	r5, r3, r5, lsl #5
 2556              	.LVL247:
 2557              	.LBE629:
 2558              	.LBE628:
 2559              	.LBB634:
 2560              	.LBB635:
 2561              		.loc 1 1214 0
 2562 008a D5F8003B 		ldr	r3, [r5, #2816]
 2563 008e 43F08063 		orr	r3, r3, #67108864
 2564 0092 C5F8003B 		str	r3, [r5, #2816]
 2565              	.LVL248:
ARM GAS  C:\Users\stoma\AppData\Local\Temp\ccLygOki.s 			page 46


 2566              	.LBE635:
 2567              	.LBE634:
 2568              	.LBB636:
 2569              	.LBB637:
 2570              		.loc 4 408 0
 2571 0096 FFF7FEFF 		bl	_dbg_check_unlock_from_isr
 2572              	.LVL249:
 2573              		.loc 4 409 0
 2574 009a FFF7FEFF 		bl	_stats_stop_measure_crit_isr
 2575              	.LVL250:
 2576              	.LBB638:
 2577              	.LBB639:
 2578              	.LBB640:
 2579              	.LBB641:
 2580              		.loc 3 546 0
 2581              		.syntax unified
 2582              	@ 546 "../../lib/ChibiOS/os/ext/CMSIS/include/core_cmFunc.h" 1
 2583 009e 84F31188 		MSR basepri, r4
 2584              	@ 0 "" 2
 2585              	.LVL251:
 2586              		.thumb
 2587              		.syntax unified
 2588              	.L227:
 2589              	.LBE641:
 2590              	.LBE640:
 2591              	.LBE639:
 2592              	.LBE638:
 2593              	.LBE637:
 2594              	.LBE636:
 2595              	.LBE642:
 2596              		.loc 1 614 0
 2597 00a2 BDE8F081 		pop	{r4, r5, r6, r7, r8, pc}
 2598              	.LVL252:
 2599              	.L246:
 2600 00a6 00BF     		.align	2
 2601              	.L245:
 2602 00a8 00000000 		.word	.LANCHOR1
 2603              		.cfi_endproc
 2604              	.LFE300:
 2605              		.size	otg_epout_handler.constprop.7, .-otg_epout_handler.constprop.7
 2606              		.section	.text.usb_lld_prepare_transmit,"ax",%progbits
 2607              		.align	1
 2608              		.p2align 4,,15
 2609              		.global	usb_lld_prepare_transmit
 2610              		.syntax unified
 2611              		.thumb
 2612              		.thumb_func
 2613              		.fpu fpv4-sp-d16
 2614              		.type	usb_lld_prepare_transmit, %function
 2615              	usb_lld_prepare_transmit:
 2616              	.LFB285:
 2617              		.loc 1 1183 0
 2618              		.cfi_startproc
 2619              		@ args = 0, pretend = 0, frame = 0
 2620              		@ frame_needed = 0, uses_anonymous_args = 0
 2621              		@ link register save eliminated.
 2622              	.LVL253:
ARM GAS  C:\Users\stoma\AppData\Local\Temp\ccLygOki.s 			page 47


 2623              		.loc 1 1184 0
 2624 0000 00EB8103 		add	r3, r0, r1, lsl #2
 2625              		.loc 1 1183 0
 2626 0004 10B4     		push	{r4}
 2627              		.cfi_def_cfa_offset 4
 2628              		.cfi_offset 4, -4
 2629              		.loc 1 1184 0
 2630 0006 DC68     		ldr	r4, [r3, #12]
 2631 0008 026D     		ldr	r2, [r0, #80]
 2632 000a 6069     		ldr	r0, [r4, #20]
 2633              	.LVL254:
 2634              		.loc 1 1187 0
 2635 000c 4368     		ldr	r3, [r0, #4]
 2636 000e 0361     		str	r3, [r0, #16]
 2637              		.loc 1 1188 0
 2638 0010 9BB1     		cbz	r3, .L252
 2639              	.LBB643:
 2640              		.loc 1 1193 0
 2641 0012 69B1     		cbz	r1, .L253
 2642              	.L250:
 2643              		.loc 1 1197 0
 2644 0014 208A     		ldrh	r0, [r4, #16]
 2645              	.LVL255:
 2646              	.LBE643:
 2647              		.loc 1 1202 0
 2648 0016 5DF8044B 		ldr	r4, [sp], #4
 2649              		.cfi_remember_state
 2650              		.cfi_restore 4
 2651              		.cfi_def_cfa_offset 0
 2652              	.LVL256:
 2653              	.LBB644:
 2654              		.loc 1 1199 0
 2655 001a 02EB4112 		add	r2, r2, r1, lsl #5
 2656              		.loc 1 1197 0
 2657 001e 411E     		subs	r1, r0, #1
 2658              	.LVL257:
 2659 0020 1944     		add	r1, r1, r3
 2660 0022 B1FBF0F1 		udiv	r1, r1, r0
 2661              		.loc 1 1199 0
 2662 0026 43EAC143 		orr	r3, r3, r1, lsl #19
 2663              	.LVL258:
 2664 002a C2F81039 		str	r3, [r2, #2320]
 2665              	.LBE644:
 2666              		.loc 1 1202 0
 2667 002e 7047     		bx	lr
 2668              	.LVL259:
 2669              	.L253:
 2670              		.cfi_restore_state
 2671              	.LBB645:
 2672              		.loc 1 1193 0 discriminator 1
 2673 0030 402B     		cmp	r3, #64
 2674              		.loc 1 1194 0 discriminator 1
 2675 0032 84BF     		itt	hi
 2676 0034 4023     		movhi	r3, #64
 2677 0036 4360     		strhi	r3, [r0, #4]
 2678 0038 ECE7     		b	.L250
 2679              	.L252:
ARM GAS  C:\Users\stoma\AppData\Local\Temp\ccLygOki.s 			page 48


 2680              	.LBE645:
 2681              		.loc 1 1190 0
 2682 003a 02EB4112 		add	r2, r2, r1, lsl #5
 2683 003e 4FF40023 		mov	r3, #524288
 2684 0042 C2F81039 		str	r3, [r2, #2320]
 2685              		.loc 1 1202 0
 2686 0046 5DF8044B 		ldr	r4, [sp], #4
 2687              		.cfi_restore 4
 2688              		.cfi_def_cfa_offset 0
 2689 004a 7047     		bx	lr
 2690              		.cfi_endproc
 2691              	.LFE285:
 2692              		.size	usb_lld_prepare_transmit, .-usb_lld_prepare_transmit
 2693              		.section	.text.otg_epin_handler.constprop.8,"ax",%progbits
 2694              		.align	1
 2695              		.p2align 4,,15
 2696              		.syntax unified
 2697              		.thumb
 2698              		.thumb_func
 2699              		.fpu fpv4-sp-d16
 2700              		.type	otg_epin_handler.constprop.8, %function
 2701              	otg_epin_handler.constprop.8:
 2702              	.LFB299:
 2703              		.loc 1 533 0
 2704              		.cfi_startproc
 2705              		@ args = 0, pretend = 0, frame = 0
 2706              		@ frame_needed = 0, uses_anonymous_args = 0
 2707              	.LVL260:
 2708 0000 2DE9F041 		push	{r4, r5, r6, r7, r8, lr}
 2709              		.cfi_def_cfa_offset 24
 2710              		.cfi_offset 4, -24
 2711              		.cfi_offset 5, -20
 2712              		.cfi_offset 6, -16
 2713              		.cfi_offset 7, -12
 2714              		.cfi_offset 8, -8
 2715              		.cfi_offset 14, -4
 2716              		.loc 1 534 0
 2717 0004 384E     		ldr	r6, .L273
 2718 0006 356D     		ldr	r5, [r6, #80]
 2719              	.LVL261:
 2720              		.loc 1 535 0
 2721 0008 05EB4013 		add	r3, r5, r0, lsl #5
 2722              		.loc 1 533 0
 2723 000c 0746     		mov	r7, r0
 2724              		.loc 1 535 0
 2725 000e D3F80849 		ldr	r4, [r3, #2312]
 2726              	.LVL262:
 2727              		.loc 1 537 0
 2728 0012 C3F80849 		str	r4, [r3, #2312]
 2729              		.loc 1 542 0
 2730 0016 E107     		lsls	r1, r4, #31
 2731 0018 16D5     		bpl	.L255
 2732 001a D5F81038 		ldr	r3, [r5, #2064]
 2733 001e DA07     		lsls	r2, r3, #31
 2734 0020 12D5     		bpl	.L255
 2735              	.LBB646:
 2736              		.loc 1 544 0
ARM GAS  C:\Users\stoma\AppData\Local\Temp\ccLygOki.s 			page 49


 2737 0022 06EB8003 		add	r3, r6, r0, lsl #2
 2738 0026 D968     		ldr	r1, [r3, #12]
 2739 0028 4B69     		ldr	r3, [r1, #20]
 2740              	.LVL263:
 2741              		.loc 1 546 0
 2742 002a 5868     		ldr	r0, [r3, #4]
 2743              	.LVL264:
 2744 002c 1A69     		ldr	r2, [r3, #16]
 2745 002e 9042     		cmp	r0, r2
 2746 0030 32D3     		bcc	.L271
 2747              		.loc 1 559 0
 2748 0032 3389     		ldrh	r3, [r6, #8]
 2749              	.LVL265:
 2750 0034 D1F80880 		ldr	r8, [r1, #8]
 2751 0038 0122     		movs	r2, #1
 2752 003a BA40     		lsls	r2, r2, r7
 2753 003c 23EA0203 		bic	r3, r3, r2
 2754 0040 3381     		strh	r3, [r6, #8]	@ movhi
 2755 0042 3946     		mov	r1, r7
 2756              	.LVL266:
 2757 0044 3046     		mov	r0, r6
 2758 0046 C047     		blx	r8
 2759              	.LVL267:
 2760              	.L255:
 2761              	.LBE646:
 2762              		.loc 1 562 0
 2763 0048 2306     		lsls	r3, r4, #24
 2764 004a 06D5     		bpl	.L254
 2765              		.loc 1 563 0
 2766 004c 0123     		movs	r3, #1
 2767 004e D5F83428 		ldr	r2, [r5, #2100]
 2768 0052 03FA07F7 		lsl	r7, r3, r7
 2769              		.loc 1 562 0
 2770 0056 1742     		tst	r7, r2
 2771 0058 01D1     		bne	.L272
 2772              	.L254:
 2773              		.loc 1 571 0
 2774 005a BDE8F081 		pop	{r4, r5, r6, r7, r8, pc}
 2775              	.LVL268:
 2776              	.L272:
 2777              	.LBB663:
 2778              	.LBB664:
 2779              	.LBB665:
 2780              	.LBB666:
 2781              	.LBB667:
 2782              	.LBB668:
 2783              	.LBB669:
 2784              		.loc 3 546 0
 2785 005e 2023     		movs	r3, #32
 2786              		.syntax unified
 2787              	@ 546 "../../lib/ChibiOS/os/ext/CMSIS/include/core_cmFunc.h" 1
 2788 0060 83F31188 		MSR basepri, r3
 2789              	@ 0 "" 2
 2790              	.LVL269:
 2791              		.thumb
 2792              		.syntax unified
 2793              	.LBE669:
ARM GAS  C:\Users\stoma\AppData\Local\Temp\ccLygOki.s 			page 50


 2794              	.LBE668:
 2795              	.LBE667:
 2796              	.LBE666:
 2797              		.loc 4 389 0
 2798 0064 FFF7FEFF 		bl	_stats_start_measure_crit_isr
 2799              	.LVL270:
 2800              		.loc 4 390 0
 2801 0068 FFF7FEFF 		bl	_dbg_check_lock_from_isr
 2802              	.LVL271:
 2803              	.LBE665:
 2804              	.LBE664:
 2805              	.LBE663:
 2806              		.loc 1 567 0
 2807 006c D5F83428 		ldr	r2, [r5, #2100]
 2808              		.loc 1 566 0
 2809 0070 F36D     		ldr	r3, [r6, #92]
 2810              	.LBB670:
 2811              	.LBB671:
 2812              		.loc 5 682 0
 2813 0072 1E48     		ldr	r0, .L273+4
 2814              	.LBE671:
 2815              	.LBE670:
 2816              		.loc 1 567 0
 2817 0074 22EA0702 		bic	r2, r2, r7
 2818 0078 C5F83428 		str	r2, [r5, #2100]
 2819              	.LVL272:
 2820              		.loc 1 566 0
 2821 007c 1F43     		orrs	r7, r7, r3
 2822              	.LBB674:
 2823              	.LBB672:
 2824              		.loc 5 682 0
 2825 007e 0021     		movs	r1, #0
 2826              	.LBE672:
 2827              	.LBE674:
 2828              		.loc 1 566 0
 2829 0080 F765     		str	r7, [r6, #92]
 2830              	.LBB675:
 2831              	.LBB673:
 2832              		.loc 5 682 0
 2833 0082 FFF7FEFF 		bl	chThdResumeI
 2834              	.LVL273:
 2835              	.LBE673:
 2836              	.LBE675:
 2837              	.LBB676:
 2838              	.LBB677:
 2839              	.LBB678:
 2840              		.loc 4 408 0
 2841 0086 FFF7FEFF 		bl	_dbg_check_unlock_from_isr
 2842              	.LVL274:
 2843              		.loc 4 409 0
 2844 008a FFF7FEFF 		bl	_stats_stop_measure_crit_isr
 2845              	.LVL275:
 2846              	.LBB679:
 2847              	.LBB680:
 2848              	.LBB681:
 2849              	.LBB682:
 2850              		.loc 3 546 0
ARM GAS  C:\Users\stoma\AppData\Local\Temp\ccLygOki.s 			page 51


 2851 008e 0023     		movs	r3, #0
 2852              		.syntax unified
 2853              	@ 546 "../../lib/ChibiOS/os/ext/CMSIS/include/core_cmFunc.h" 1
 2854 0090 83F31188 		MSR basepri, r3
 2855              	@ 0 "" 2
 2856              	.LVL276:
 2857              		.thumb
 2858              		.syntax unified
 2859              	.LBE682:
 2860              	.LBE681:
 2861              	.LBE680:
 2862              	.LBE679:
 2863              	.LBE678:
 2864              	.LBE677:
 2865              	.LBE676:
 2866              		.loc 1 571 0
 2867 0094 BDE8F081 		pop	{r4, r5, r6, r7, r8, pc}
 2868              	.LVL277:
 2869              	.L271:
 2870              	.LBB683:
 2871              		.loc 1 550 0
 2872 0098 121A     		subs	r2, r2, r0
 2873              		.loc 1 551 0
 2874 009a 4FF00008 		mov	r8, #0
 2875 009e C3E90128 		strd	r2, r8, [r3, #4]
 2876              		.loc 1 552 0
 2877 00a2 3946     		mov	r1, r7
 2878 00a4 3046     		mov	r0, r6
 2879 00a6 FFF7FEFF 		bl	usb_lld_prepare_transmit
 2880              	.LVL278:
 2881              	.LBB647:
 2882              	.LBB648:
 2883              	.LBB649:
 2884              	.LBB650:
 2885              	.LBB651:
 2886              	.LBB652:
 2887              	.LBB653:
 2888              		.loc 3 546 0
 2889 00aa 2023     		movs	r3, #32
 2890              		.syntax unified
 2891              	@ 546 "../../lib/ChibiOS/os/ext/CMSIS/include/core_cmFunc.h" 1
 2892 00ac 83F31188 		MSR basepri, r3
 2893              	@ 0 "" 2
 2894              	.LVL279:
 2895              		.thumb
 2896              		.syntax unified
 2897              	.LBE653:
 2898              	.LBE652:
 2899              	.LBE651:
 2900              	.LBE650:
 2901              		.loc 4 389 0
 2902 00b0 FFF7FEFF 		bl	_stats_start_measure_crit_isr
 2903              	.LVL280:
 2904              		.loc 4 390 0
 2905 00b4 FFF7FEFF 		bl	_dbg_check_lock_from_isr
 2906              	.LVL281:
 2907              	.LBE649:
ARM GAS  C:\Users\stoma\AppData\Local\Temp\ccLygOki.s 			page 52


 2908              	.LBE648:
 2909              	.LBE647:
 2910              	.LBB654:
 2911              	.LBB655:
 2912              		.loc 1 1227 0
 2913 00b8 326D     		ldr	r2, [r6, #80]
 2914 00ba 02EB4710 		add	r0, r2, r7, lsl #5
 2915              		.loc 1 1228 0
 2916 00be 0123     		movs	r3, #1
 2917              		.loc 1 1227 0
 2918 00c0 D0F80019 		ldr	r1, [r0, #2304]
 2919 00c4 41F00441 		orr	r1, r1, #-2080374784
 2920 00c8 C0F80019 		str	r1, [r0, #2304]
 2921              		.loc 1 1228 0
 2922 00cc D2F83418 		ldr	r1, [r2, #2100]
 2923 00d0 BB40     		lsls	r3, r3, r7
 2924 00d2 0B43     		orrs	r3, r3, r1
 2925 00d4 C2F83438 		str	r3, [r2, #2100]
 2926              	.LVL282:
 2927              	.LBE655:
 2928              	.LBE654:
 2929              	.LBB656:
 2930              	.LBB657:
 2931              	.LBB658:
 2932              		.loc 4 408 0
 2933 00d8 FFF7FEFF 		bl	_dbg_check_unlock_from_isr
 2934              	.LVL283:
 2935              		.loc 4 409 0
 2936 00dc FFF7FEFF 		bl	_stats_stop_measure_crit_isr
 2937              	.LVL284:
 2938              	.LBB659:
 2939              	.LBB660:
 2940              	.LBB661:
 2941              	.LBB662:
 2942              		.loc 3 546 0
 2943              		.syntax unified
 2944              	@ 546 "../../lib/ChibiOS/os/ext/CMSIS/include/core_cmFunc.h" 1
 2945 00e0 88F31188 		MSR basepri, r8
 2946              	@ 0 "" 2
 2947              	.LVL285:
 2948              		.thumb
 2949              		.syntax unified
 2950 00e4 B0E7     		b	.L255
 2951              	.L274:
 2952 00e6 00BF     		.align	2
 2953              	.L273:
 2954 00e8 00000000 		.word	.LANCHOR1
 2955 00ec 60000000 		.word	.LANCHOR1+96
 2956              	.LBE662:
 2957              	.LBE661:
 2958              	.LBE660:
 2959              	.LBE659:
 2960              	.LBE658:
 2961              	.LBE657:
 2962              	.LBE656:
 2963              	.LBE683:
 2964              		.cfi_endproc
ARM GAS  C:\Users\stoma\AppData\Local\Temp\ccLygOki.s 			page 53


 2965              	.LFE299:
 2966              		.size	otg_epin_handler.constprop.8, .-otg_epin_handler.constprop.8
 2967              		.section	.text.Vector14C,"ax",%progbits
 2968              		.align	1
 2969              		.p2align 4,,15
 2970              		.global	Vector14C
 2971              		.syntax unified
 2972              		.thumb
 2973              		.thumb_func
 2974              		.fpu fpv4-sp-d16
 2975              		.type	Vector14C, %function
 2976              	Vector14C:
 2977              	.LFB273:
 2978              		.loc 1 706 0
 2979              		.cfi_startproc
 2980              		@ args = 0, pretend = 0, frame = 0
 2981              		@ frame_needed = 0, uses_anonymous_args = 0
 2982 0000 70B5     		push	{r4, r5, r6, lr}
 2983              		.cfi_def_cfa_offset 16
 2984              		.cfi_offset 4, -16
 2985              		.cfi_offset 5, -12
 2986              		.cfi_offset 6, -8
 2987              		.cfi_offset 14, -4
 2988              	.LBB702:
 2989              	.LBB703:
 2990              		.loc 1 624 0
 2991 0002 424D     		ldr	r5, .L344
 2992              	.LBE703:
 2993              	.LBE702:
 2994              		.loc 1 708 0
 2995 0004 FFF7FEFF 		bl	_stats_increase_irq
 2996              	.LVL286:
 2997 0008 FFF7FEFF 		bl	_dbg_check_enter_isr
 2998              	.LVL287:
 2999              	.LBB725:
 3000              	.LBB722:
 3001              		.loc 1 624 0
 3002 000c 2E6D     		ldr	r6, [r5, #80]
 3003              	.LVL288:
 3004              		.loc 1 627 0
 3005 000e 7469     		ldr	r4, [r6, #20]
 3006              	.LVL289:
 3007              		.loc 1 628 0
 3008 0010 B369     		ldr	r3, [r6, #24]
 3009 0012 1C40     		ands	r4, r4, r3
 3010              	.LVL290:
 3011              		.loc 1 632 0
 3012 0014 E104     		lsls	r1, r4, #19
 3013              		.loc 1 629 0
 3014 0016 7461     		str	r4, [r6, #20]
 3015              		.loc 1 632 0
 3016 0018 28D4     		bmi	.L334
 3017              	.L277:
 3018              		.loc 1 638 0
 3019 001a A204     		lsls	r2, r4, #18
 3020              		.loc 1 639 0
 3021 001c 48BF     		it	mi
ARM GAS  C:\Users\stoma\AppData\Local\Temp\ccLygOki.s 			page 54


 3022 001e D6F80838 		ldrmi	r3, [r6, #2056]
 3023              		.loc 1 643 0
 3024 0022 2307     		lsls	r3, r4, #28
 3025 0024 04D5     		bpl	.L280
 3026              		.loc 1 644 0
 3027 0026 6B68     		ldr	r3, [r5, #4]
 3028 0028 DB68     		ldr	r3, [r3, #12]
 3029 002a 0BB1     		cbz	r3, .L280
 3030 002c 3748     		ldr	r0, .L344
 3031 002e 9847     		blx	r3
 3032              	.LVL291:
 3033              	.L280:
 3034              		.loc 1 648 0
 3035 0030 E506     		lsls	r5, r4, #27
 3036 0032 26D4     		bmi	.L335
 3037              	.L281:
 3038              		.loc 1 659 0
 3039 0034 6003     		lsls	r0, r4, #13
 3040              		.loc 1 658 0
 3041 0036 D6F81858 		ldr	r5, [r6, #2072]
 3042              	.LVL292:
 3043              		.loc 1 659 0
 3044 003a 07D5     		bpl	.L283
 3045              		.loc 1 660 0
 3046 003c E907     		lsls	r1, r5, #31
 3047 003e 5BD4     		bmi	.L336
 3048              		.loc 1 662 0
 3049 0040 AA07     		lsls	r2, r5, #30
 3050 0042 4ED4     		bmi	.L337
 3051              	.L285:
 3052              		.loc 1 664 0
 3053 0044 6B07     		lsls	r3, r5, #29
 3054 0046 51D4     		bmi	.L338
 3055              	.L286:
 3056              		.loc 1 666 0
 3057 0048 2E07     		lsls	r6, r5, #28
 3058              	.LVL293:
 3059 004a 5BD4     		bmi	.L339
 3060              	.L283:
 3061              		.loc 1 675 0
 3062 004c 2403     		lsls	r4, r4, #12
 3063              	.LVL294:
 3064 004e 07D5     		bpl	.L289
 3065              		.loc 1 676 0
 3066 0050 E803     		lsls	r0, r5, #15
 3067 0052 36D4     		bmi	.L340
 3068              		.loc 1 678 0
 3069 0054 A903     		lsls	r1, r5, #14
 3070 0056 39D4     		bmi	.L341
 3071              	.L291:
 3072              		.loc 1 680 0
 3073 0058 6A03     		lsls	r2, r5, #13
 3074 005a 3CD4     		bmi	.L342
 3075              	.L292:
 3076              		.loc 1 682 0
 3077 005c 2B03     		lsls	r3, r5, #12
 3078 005e 27D4     		bmi	.L343
ARM GAS  C:\Users\stoma\AppData\Local\Temp\ccLygOki.s 			page 55


 3079              	.L289:
 3080              	.LVL295:
 3081              	.LBE722:
 3082              	.LBE725:
 3083              		.loc 1 712 0
 3084 0060 FFF7FEFF 		bl	_dbg_check_leave_isr
 3085              	.LVL296:
 3086              		.loc 1 713 0
 3087 0064 BDE87040 		pop	{r4, r5, r6, lr}
 3088              		.cfi_remember_state
 3089              		.cfi_restore 14
 3090              		.cfi_restore 6
 3091              		.cfi_restore 5
 3092              		.cfi_restore 4
 3093              		.cfi_def_cfa_offset 0
 3094              		.loc 1 712 0
 3095 0068 FFF7FEBF 		b	_port_irq_epilogue
 3096              	.LVL297:
 3097              	.L334:
 3098              		.cfi_restore_state
 3099              	.LBB726:
 3100              	.LBB723:
 3101              		.loc 1 633 0
 3102 006c 2846     		mov	r0, r5
 3103 006e FFF7FEFF 		bl	_usb_reset
 3104              	.LVL298:
 3105              		.loc 1 634 0
 3106 0072 6B68     		ldr	r3, [r5, #4]
 3107 0074 1B68     		ldr	r3, [r3]
 3108 0076 002B     		cmp	r3, #0
 3109 0078 CFD0     		beq	.L277
 3110 007a 0021     		movs	r1, #0
 3111 007c 2846     		mov	r0, r5
 3112 007e 9847     		blx	r3
 3113              	.LVL299:
 3114 0080 CBE7     		b	.L277
 3115              	.L335:
 3116              	.LVL300:
 3117              	.LBB704:
 3118              	.LBB705:
 3119              	.LBB706:
 3120              	.LBB707:
 3121              	.LBB708:
 3122              	.LBB709:
 3123              	.LBB710:
 3124              		.loc 3 546 0
 3125 0082 2023     		movs	r3, #32
 3126              		.syntax unified
 3127              	@ 546 "../../lib/ChibiOS/os/ext/CMSIS/include/core_cmFunc.h" 1
 3128 0084 83F31188 		MSR basepri, r3
 3129              	@ 0 "" 2
 3130              	.LVL301:
 3131              		.thumb
 3132              		.syntax unified
 3133              	.LBE710:
 3134              	.LBE709:
 3135              	.LBE708:
ARM GAS  C:\Users\stoma\AppData\Local\Temp\ccLygOki.s 			page 56


 3136              	.LBE707:
 3137              		.loc 4 389 0
 3138 0088 FFF7FEFF 		bl	_stats_start_measure_crit_isr
 3139              	.LVL302:
 3140              		.loc 4 390 0
 3141 008c FFF7FEFF 		bl	_dbg_check_lock_from_isr
 3142              	.LVL303:
 3143              	.LBE706:
 3144              	.LBE705:
 3145              	.LBE704:
 3146              		.loc 1 652 0
 3147 0090 B369     		ldr	r3, [r6, #24]
 3148              	.LBB711:
 3149              	.LBB712:
 3150              		.loc 5 682 0
 3151 0092 1F48     		ldr	r0, .L344+4
 3152              	.LBE712:
 3153              	.LBE711:
 3154              		.loc 1 652 0
 3155 0094 23F01003 		bic	r3, r3, #16
 3156 0098 B361     		str	r3, [r6, #24]
 3157              	.LVL304:
 3158              	.LBB714:
 3159              	.LBB713:
 3160              		.loc 5 682 0
 3161 009a 0021     		movs	r1, #0
 3162 009c FFF7FEFF 		bl	chThdResumeI
 3163              	.LVL305:
 3164              	.LBE713:
 3165              	.LBE714:
 3166              	.LBB715:
 3167              	.LBB716:
 3168              	.LBB717:
 3169              		.loc 4 408 0
 3170 00a0 FFF7FEFF 		bl	_dbg_check_unlock_from_isr
 3171              	.LVL306:
 3172              		.loc 4 409 0
 3173 00a4 FFF7FEFF 		bl	_stats_stop_measure_crit_isr
 3174              	.LVL307:
 3175              	.LBB718:
 3176              	.LBB719:
 3177              	.LBB720:
 3178              	.LBB721:
 3179              		.loc 3 546 0
 3180 00a8 0023     		movs	r3, #0
 3181              		.syntax unified
 3182              	@ 546 "../../lib/ChibiOS/os/ext/CMSIS/include/core_cmFunc.h" 1
 3183 00aa 83F31188 		MSR basepri, r3
 3184              	@ 0 "" 2
 3185              	.LVL308:
 3186              		.thumb
 3187              		.syntax unified
 3188 00ae C1E7     		b	.L281
 3189              	.LVL309:
 3190              	.L343:
 3191              	.LBE721:
 3192              	.LBE720:
ARM GAS  C:\Users\stoma\AppData\Local\Temp\ccLygOki.s 			page 57


 3193              	.LBE719:
 3194              	.LBE718:
 3195              	.LBE717:
 3196              	.LBE716:
 3197              	.LBE715:
 3198              		.loc 1 683 0
 3199 00b0 0320     		movs	r0, #3
 3200 00b2 FFF7FEFF 		bl	otg_epout_handler.constprop.7
 3201              	.LVL310:
 3202              	.LBE723:
 3203              	.LBE726:
 3204              		.loc 1 712 0
 3205 00b6 FFF7FEFF 		bl	_dbg_check_leave_isr
 3206              	.LVL311:
 3207              		.loc 1 713 0
 3208 00ba BDE87040 		pop	{r4, r5, r6, lr}
 3209              		.cfi_remember_state
 3210              		.cfi_restore 14
 3211              		.cfi_restore 6
 3212              		.cfi_restore 5
 3213              		.cfi_restore 4
 3214              		.cfi_def_cfa_offset 0
 3215              		.loc 1 712 0
 3216 00be FFF7FEBF 		b	_port_irq_epilogue
 3217              	.LVL312:
 3218              	.L340:
 3219              		.cfi_restore_state
 3220              	.LBB727:
 3221              	.LBB724:
 3222              		.loc 1 677 0
 3223 00c2 0020     		movs	r0, #0
 3224 00c4 FFF7FEFF 		bl	otg_epout_handler.constprop.7
 3225              	.LVL313:
 3226              		.loc 1 678 0
 3227 00c8 A903     		lsls	r1, r5, #14
 3228 00ca C5D5     		bpl	.L291
 3229              	.L341:
 3230              		.loc 1 679 0
 3231 00cc 0120     		movs	r0, #1
 3232 00ce FFF7FEFF 		bl	otg_epout_handler.constprop.7
 3233              	.LVL314:
 3234              		.loc 1 680 0
 3235 00d2 6A03     		lsls	r2, r5, #13
 3236 00d4 C2D5     		bpl	.L292
 3237              	.L342:
 3238              		.loc 1 681 0
 3239 00d6 0220     		movs	r0, #2
 3240 00d8 FFF7FEFF 		bl	otg_epout_handler.constprop.7
 3241              	.LVL315:
 3242              		.loc 1 682 0
 3243 00dc 2B03     		lsls	r3, r5, #12
 3244 00de BFD5     		bpl	.L289
 3245 00e0 E6E7     		b	.L343
 3246              	.LVL316:
 3247              	.L337:
 3248              		.loc 1 663 0
 3249 00e2 0120     		movs	r0, #1
ARM GAS  C:\Users\stoma\AppData\Local\Temp\ccLygOki.s 			page 58


 3250 00e4 FFF7FEFF 		bl	otg_epin_handler.constprop.8
 3251              	.LVL317:
 3252              		.loc 1 664 0
 3253 00e8 6B07     		lsls	r3, r5, #29
 3254 00ea ADD5     		bpl	.L286
 3255              	.L338:
 3256              		.loc 1 665 0
 3257 00ec 0220     		movs	r0, #2
 3258 00ee FFF7FEFF 		bl	otg_epin_handler.constprop.8
 3259              	.LVL318:
 3260              		.loc 1 666 0
 3261 00f2 2E07     		lsls	r6, r5, #28
 3262              	.LVL319:
 3263 00f4 AAD5     		bpl	.L283
 3264 00f6 05E0     		b	.L339
 3265              	.LVL320:
 3266              	.L336:
 3267              		.loc 1 661 0
 3268 00f8 0020     		movs	r0, #0
 3269 00fa FFF7FEFF 		bl	otg_epin_handler.constprop.8
 3270              	.LVL321:
 3271              		.loc 1 662 0
 3272 00fe AA07     		lsls	r2, r5, #30
 3273 0100 A0D5     		bpl	.L285
 3274 0102 EEE7     		b	.L337
 3275              	.LVL322:
 3276              	.L339:
 3277              		.loc 1 667 0
 3278 0104 0320     		movs	r0, #3
 3279 0106 FFF7FEFF 		bl	otg_epin_handler.constprop.8
 3280              	.LVL323:
 3281 010a 9FE7     		b	.L283
 3282              	.L345:
 3283              		.align	2
 3284              	.L344:
 3285 010c 00000000 		.word	.LANCHOR1
 3286 0110 60000000 		.word	.LANCHOR1+96
 3287              	.LBE724:
 3288              	.LBE727:
 3289              		.cfi_endproc
 3290              	.LFE273:
 3291              		.size	Vector14C, .-Vector14C
 3292              		.section	.text.usb_lld_start_out,"ax",%progbits
 3293              		.align	1
 3294              		.p2align 4,,15
 3295              		.global	usb_lld_start_out
 3296              		.syntax unified
 3297              		.thumb
 3298              		.thumb_func
 3299              		.fpu fpv4-sp-d16
 3300              		.type	usb_lld_start_out, %function
 3301              	usb_lld_start_out:
 3302              	.LFB286:
 3303              		.loc 1 1212 0
 3304              		.cfi_startproc
 3305              		@ args = 0, pretend = 0, frame = 0
 3306              		@ frame_needed = 0, uses_anonymous_args = 0
ARM GAS  C:\Users\stoma\AppData\Local\Temp\ccLygOki.s 			page 59


 3307              		@ link register save eliminated.
 3308              	.LVL324:
 3309 0000 036D     		ldr	r3, [r0, #80]
 3310 0002 03EB4111 		add	r1, r3, r1, lsl #5
 3311              	.LVL325:
 3312              		.loc 1 1214 0
 3313 0006 D1F8003B 		ldr	r3, [r1, #2816]
 3314 000a 43F08063 		orr	r3, r3, #67108864
 3315 000e C1F8003B 		str	r3, [r1, #2816]
 3316              		.loc 1 1215 0
 3317 0012 7047     		bx	lr
 3318              		.cfi_endproc
 3319              	.LFE286:
 3320              		.size	usb_lld_start_out, .-usb_lld_start_out
 3321              		.section	.text.usb_lld_start_in,"ax",%progbits
 3322              		.align	1
 3323              		.p2align 4,,15
 3324              		.global	usb_lld_start_in
 3325              		.syntax unified
 3326              		.thumb
 3327              		.thumb_func
 3328              		.fpu fpv4-sp-d16
 3329              		.type	usb_lld_start_in, %function
 3330              	usb_lld_start_in:
 3331              	.LFB287:
 3332              		.loc 1 1225 0
 3333              		.cfi_startproc
 3334              		@ args = 0, pretend = 0, frame = 0
 3335              		@ frame_needed = 0, uses_anonymous_args = 0
 3336              		@ link register save eliminated.
 3337              	.LVL326:
 3338              		.loc 1 1227 0
 3339 0000 026D     		ldr	r2, [r0, #80]
 3340              		.loc 1 1225 0
 3341 0002 10B4     		push	{r4}
 3342              		.cfi_def_cfa_offset 4
 3343              		.cfi_offset 4, -4
 3344 0004 02EB4114 		add	r4, r2, r1, lsl #5
 3345              		.loc 1 1228 0
 3346 0008 0123     		movs	r3, #1
 3347              		.loc 1 1227 0
 3348 000a D4F80009 		ldr	r0, [r4, #2304]
 3349              	.LVL327:
 3350 000e 40F00440 		orr	r0, r0, #-2080374784
 3351 0012 C4F80009 		str	r0, [r4, #2304]
 3352              		.loc 1 1228 0
 3353 0016 D2F83408 		ldr	r0, [r2, #2100]
 3354              		.loc 1 1229 0
 3355 001a 5DF8044B 		ldr	r4, [sp], #4
 3356              		.cfi_restore 4
 3357              		.cfi_def_cfa_offset 0
 3358              		.loc 1 1228 0
 3359 001e 03FA01F1 		lsl	r1, r3, r1
 3360              	.LVL328:
 3361 0022 0143     		orrs	r1, r1, r0
 3362 0024 C2F83418 		str	r1, [r2, #2100]
 3363              		.loc 1 1229 0
ARM GAS  C:\Users\stoma\AppData\Local\Temp\ccLygOki.s 			page 60


 3364 0028 7047     		bx	lr
 3365              		.cfi_endproc
 3366              	.LFE287:
 3367              		.size	usb_lld_start_in, .-usb_lld_start_in
 3368 002a 00BF     		.section	.text.usb_lld_stall_out,"ax",%progbits
 3369              		.align	1
 3370              		.p2align 4,,15
 3371              		.global	usb_lld_stall_out
 3372              		.syntax unified
 3373              		.thumb
 3374              		.thumb_func
 3375              		.fpu fpv4-sp-d16
 3376              		.type	usb_lld_stall_out, %function
 3377              	usb_lld_stall_out:
 3378              	.LFB288:
 3379              		.loc 1 1239 0
 3380              		.cfi_startproc
 3381              		@ args = 0, pretend = 0, frame = 0
 3382              		@ frame_needed = 0, uses_anonymous_args = 0
 3383              		@ link register save eliminated.
 3384              	.LVL329:
 3385 0000 036D     		ldr	r3, [r0, #80]
 3386 0002 03EB4111 		add	r1, r3, r1, lsl #5
 3387              	.LVL330:
 3388              		.loc 1 1241 0
 3389 0006 D1F8003B 		ldr	r3, [r1, #2816]
 3390 000a 43F40013 		orr	r3, r3, #2097152
 3391 000e C1F8003B 		str	r3, [r1, #2816]
 3392              		.loc 1 1242 0
 3393 0012 7047     		bx	lr
 3394              		.cfi_endproc
 3395              	.LFE288:
 3396              		.size	usb_lld_stall_out, .-usb_lld_stall_out
 3397              		.section	.text.usb_lld_stall_in,"ax",%progbits
 3398              		.align	1
 3399              		.p2align 4,,15
 3400              		.global	usb_lld_stall_in
 3401              		.syntax unified
 3402              		.thumb
 3403              		.thumb_func
 3404              		.fpu fpv4-sp-d16
 3405              		.type	usb_lld_stall_in, %function
 3406              	usb_lld_stall_in:
 3407              	.LFB289:
 3408              		.loc 1 1252 0
 3409              		.cfi_startproc
 3410              		@ args = 0, pretend = 0, frame = 0
 3411              		@ frame_needed = 0, uses_anonymous_args = 0
 3412              		@ link register save eliminated.
 3413              	.LVL331:
 3414 0000 036D     		ldr	r3, [r0, #80]
 3415 0002 03EB4111 		add	r1, r3, r1, lsl #5
 3416              	.LVL332:
 3417              		.loc 1 1254 0
 3418 0006 D1F80039 		ldr	r3, [r1, #2304]
 3419 000a 43F40013 		orr	r3, r3, #2097152
 3420 000e C1F80039 		str	r3, [r1, #2304]
ARM GAS  C:\Users\stoma\AppData\Local\Temp\ccLygOki.s 			page 61


 3421              		.loc 1 1255 0
 3422 0012 7047     		bx	lr
 3423              		.cfi_endproc
 3424              	.LFE289:
 3425              		.size	usb_lld_stall_in, .-usb_lld_stall_in
 3426              		.section	.text.usb_lld_clear_out,"ax",%progbits
 3427              		.align	1
 3428              		.p2align 4,,15
 3429              		.global	usb_lld_clear_out
 3430              		.syntax unified
 3431              		.thumb
 3432              		.thumb_func
 3433              		.fpu fpv4-sp-d16
 3434              		.type	usb_lld_clear_out, %function
 3435              	usb_lld_clear_out:
 3436              	.LFB290:
 3437              		.loc 1 1265 0
 3438              		.cfi_startproc
 3439              		@ args = 0, pretend = 0, frame = 0
 3440              		@ frame_needed = 0, uses_anonymous_args = 0
 3441              		@ link register save eliminated.
 3442              	.LVL333:
 3443 0000 036D     		ldr	r3, [r0, #80]
 3444 0002 03EB4111 		add	r1, r3, r1, lsl #5
 3445              	.LVL334:
 3446              		.loc 1 1267 0
 3447 0006 D1F8003B 		ldr	r3, [r1, #2816]
 3448 000a 23F40013 		bic	r3, r3, #2097152
 3449 000e C1F8003B 		str	r3, [r1, #2816]
 3450              		.loc 1 1268 0
 3451 0012 7047     		bx	lr
 3452              		.cfi_endproc
 3453              	.LFE290:
 3454              		.size	usb_lld_clear_out, .-usb_lld_clear_out
 3455              		.section	.text.usb_lld_clear_in,"ax",%progbits
 3456              		.align	1
 3457              		.p2align 4,,15
 3458              		.global	usb_lld_clear_in
 3459              		.syntax unified
 3460              		.thumb
 3461              		.thumb_func
 3462              		.fpu fpv4-sp-d16
 3463              		.type	usb_lld_clear_in, %function
 3464              	usb_lld_clear_in:
 3465              	.LFB291:
 3466              		.loc 1 1278 0
 3467              		.cfi_startproc
 3468              		@ args = 0, pretend = 0, frame = 0
 3469              		@ frame_needed = 0, uses_anonymous_args = 0
 3470              		@ link register save eliminated.
 3471              	.LVL335:
 3472 0000 036D     		ldr	r3, [r0, #80]
 3473 0002 03EB4111 		add	r1, r3, r1, lsl #5
 3474              	.LVL336:
 3475              		.loc 1 1280 0
 3476 0006 D1F80039 		ldr	r3, [r1, #2304]
 3477 000a 23F40013 		bic	r3, r3, #2097152
ARM GAS  C:\Users\stoma\AppData\Local\Temp\ccLygOki.s 			page 62


 3478 000e C1F80039 		str	r3, [r1, #2304]
 3479              		.loc 1 1281 0
 3480 0012 7047     		bx	lr
 3481              		.cfi_endproc
 3482              	.LFE291:
 3483              		.size	usb_lld_clear_in, .-usb_lld_clear_in
 3484              		.global	USBD1
 3485              		.section	.bss.USBD1,"aw",%nobits
 3486              		.align	3
 3487              		.set	.LANCHOR1,. + 0
 3488              		.type	USBD1, %object
 3489              		.size	USBD1, 608
 3490              	USBD1:
 3491 0000 00000000 		.space	608
 3491      00000000 
 3491      00000000 
 3491      00000000 
 3491      00000000 
 3492              		.section	.bss.ep0_state,"aw",%nobits
 3493              		.align	2
 3494              		.type	ep0_state, %object
 3495              		.size	ep0_state, 20
 3496              	ep0_state:
 3497 0000 00000000 		.space	20
 3497      00000000 
 3497      00000000 
 3497      00000000 
 3497      00000000 
 3498              		.section	.bss.ep0setup_buffer,"aw",%nobits
 3499              		.align	2
 3500              		.type	ep0setup_buffer, %object
 3501              		.size	ep0setup_buffer, 8
 3502              	ep0setup_buffer:
 3503 0000 00000000 		.space	8
 3503      00000000 
 3504              		.section	.rodata.__func__.7554,"a",%progbits
 3505              		.align	2
 3506              		.set	.LANCHOR0,. + 0
 3507              		.type	__func__.7554, %object
 3508              		.size	__func__.7554, 12
 3509              	__func__.7554:
 3510 0000 63685379 		.ascii	"chSysUnlock\000"
 3510      73556E6C 
 3510      6F636B00 
 3511              		.section	.rodata.__func__.7721,"a",%progbits
 3512              		.align	2
 3513              		.set	.LANCHOR3,. + 0
 3514              		.type	__func__.7721, %object
 3515              		.size	__func__.7721, 12
 3516              	__func__.7721:
 3517 0000 63685468 		.ascii	"chThdStartI\000"
 3517      64537461 
 3517      72744900 
 3518              		.section	.rodata.__func__.9336,"a",%progbits
 3519              		.align	2
 3520              		.set	.LANCHOR5,. + 0
 3521              		.type	__func__.9336, %object
ARM GAS  C:\Users\stoma\AppData\Local\Temp\ccLygOki.s 			page 63


 3522              		.size	__func__.9336, 14
 3523              	__func__.9336:
 3524 0000 6F74675F 		.ascii	"otg_ram_alloc\000"
 3524      72616D5F 
 3524      616C6C6F 
 3524      6300
 3525              		.section	.rodata.ep0config,"a",%progbits
 3526              		.align	2
 3527              		.set	.LANCHOR4,. + 0
 3528              		.type	ep0config, %object
 3529              		.size	ep0config, 36
 3530              	ep0config:
 3531 0000 00000000 		.word	0
 3532 0004 00000000 		.word	_usb_ep0setup
 3533 0008 00000000 		.word	_usb_ep0in
 3534 000c 00000000 		.word	_usb_ep0out
 3535 0010 4000     		.short	64
 3536 0012 4000     		.short	64
 3537 0014 00000000 		.word	ep0_state
 3538 0018 00000000 		.word	ep0_state
 3539 001c 0100     		.short	1
 3540 001e 0000     		.space	2
 3541 0020 00000000 		.word	ep0setup_buffer
 3542              		.section	.rodata.fsparams,"a",%progbits
 3543              		.align	2
 3544              		.set	.LANCHOR2,. + 0
 3545              		.type	fsparams, %object
 3546              		.size	fsparams, 12
 3547              	fsparams:
 3548 0000 80000000 		.word	128
 3549 0004 40010000 		.word	320
 3550 0008 03000000 		.word	3
 3551              		.section	.rodata.usb_lld_pump.str1.4,"aMS",%progbits,1
 3552              		.align	2
 3553              	.LC0:
 3554 0000 7573625F 		.ascii	"usb_lld_pump\000"
 3554      6C6C645F 
 3554      70756D70 
 3554      00
 3555              		.text
 3556              	.Letext0:
 3557              		.file 7 "c:\\users\\stoma\\desktop\\eclipse_e-puck2\\tools\\gcc-arm-none-eabi-7-2017-q4-major-win3
 3558              		.file 8 "c:\\users\\stoma\\desktop\\eclipse_e-puck2\\tools\\gcc-arm-none-eabi-7-2017-q4-major-win3
 3559              		.file 9 "c:\\users\\stoma\\desktop\\eclipse_e-puck2\\tools\\gcc-arm-none-eabi-7-2017-q4-major-win3
 3560              		.file 10 "c:\\users\\stoma\\desktop\\eclipse_e-puck2\\tools\\gcc-arm-none-eabi-7-2017-q4-major-win
 3561              		.file 11 "c:\\users\\stoma\\desktop\\eclipse_e-puck2\\tools\\gcc-arm-none-eabi-7-2017-q4-major-win
 3562              		.file 12 "c:\\users\\stoma\\desktop\\eclipse_e-puck2\\tools\\gcc-arm-none-eabi-7-2017-q4-major-win
 3563              		.file 13 "../../lib/ChibiOS/os/rt/ports/ARMCMx/compilers/GCC/chtypes.h"
 3564              		.file 14 "../../lib/ChibiOS/os/rt/include/chsystypes.h"
 3565              		.file 15 "../../lib/ChibiOS/os/rt/include/chschd.h"
 3566              		.file 16 "../../lib/ChibiOS/os/ext/CMSIS/include/core_cm4.h"
 3567              		.file 17 "../../lib/ChibiOS/os/ext/CMSIS/ST/system_stm32f4xx.h"
 3568              		.file 18 "../../lib/ChibiOS/os/ext/CMSIS/ST/stm32f407xx.h"
 3569              		.file 19 "../../lib/ChibiOS/os/rt/ports/ARMCMx/chcore.h"
 3570              		.file 20 "../../lib/ChibiOS/os/rt/ports/ARMCMx/chcore_v7m.h"
 3571              		.file 21 "../../lib/ChibiOS/os/rt/include/chdebug.h"
 3572              		.file 22 "../../lib/ChibiOS/os/rt/include/chtm.h"
ARM GAS  C:\Users\stoma\AppData\Local\Temp\ccLygOki.s 			page 64


 3573              		.file 23 "../../lib/ChibiOS/os/rt/include/chstats.h"
 3574              		.file 24 "../../lib/ChibiOS/os/rt/include/chsem.h"
 3575              		.file 25 "../../lib/ChibiOS/os/rt/include/chmtx.h"
 3576              		.file 26 "../../lib/ChibiOS/os/rt/include/chevents.h"
 3577              		.file 27 "../../lib/ChibiOS/os/rt/include/chqueues.h"
 3578              		.file 28 "../../lib/ChibiOS/os/hal/ports/STM32/STM32F4xx/stm32_dma.h"
 3579              		.file 29 "../../lib/ChibiOS/os/hal/ports/STM32/LLD/GPIOv2/pal_lld.h"
 3580              		.file 30 "../../lib/ChibiOS/os/hal/include/gpt.h"
 3581              		.file 31 "../../lib/ChibiOS/os/hal/ports/STM32/LLD/TIMv1/gpt_lld.h"
 3582              		.file 32 "../../lib/ChibiOS/os/hal/ports/STM32/LLD/TIMv1/stm32_tim.h"
 3583              		.file 33 "../../lib/ChibiOS/os/hal/include/i2c.h"
 3584              		.file 34 "../../lib/ChibiOS/os/hal/ports/STM32/LLD/I2Cv1/i2c_lld.h"
 3585              		.file 35 "../../lib/ChibiOS/os/hal/include/serial.h"
 3586              		.file 36 "../../lib/ChibiOS/os/hal/ports/STM32/LLD/USARTv1/serial_lld.h"
 3587              		.file 37 "../../lib/ChibiOS/os/hal/include/usb.h"
 3588              		.file 38 "../../lib/ChibiOS/os/hal/ports/STM32/LLD/OTGv1/usb_lld.h"
 3589              		.file 39 "../../lib/ChibiOS/os/hal/ports/STM32/LLD/OTGv1/stm32_otg.h"
 3590              		.file 40 "../../lib/ChibiOS/os/hal/ports/common/ARMCMx/nvic.h"
 3591              		.section	.debug_info,"",%progbits
 3592              	.Ldebug_info0:
 3593 0000 75490000 		.4byte	0x4975
 3594 0004 0400     		.2byte	0x4
 3595 0006 00000000 		.4byte	.Ldebug_abbrev0
 3596 000a 04       		.byte	0x4
 3597 000b 01       		.uleb128 0x1
 3598 000c 5E0B0000 		.4byte	.LASF698
 3599 0010 0C       		.byte	0xc
 3600 0011 CB110000 		.4byte	.LASF699
 3601 0015 B10E0000 		.4byte	.LASF700
 3602 0019 28030000 		.4byte	.Ldebug_ranges0+0x328
 3603 001d 00000000 		.4byte	0
 3604 0021 00000000 		.4byte	.Ldebug_line0
 3605 0025 02       		.uleb128 0x2
 3606 0026 04       		.byte	0x4
 3607 0027 07       		.byte	0x7
 3608 0028 19120000 		.4byte	.LASF0
 3609 002c 03       		.uleb128 0x3
 3610 002d 04       		.byte	0x4
 3611 002e 05       		.byte	0x5
 3612 002f 696E7400 		.ascii	"int\000"
 3613 0033 04       		.uleb128 0x4
 3614 0034 32000000 		.4byte	.LASF4
 3615 0038 07       		.byte	0x7
 3616 0039 D8       		.byte	0xd8
 3617 003a 25000000 		.4byte	0x25
 3618 003e 02       		.uleb128 0x2
 3619 003f 08       		.byte	0x8
 3620 0040 05       		.byte	0x5
 3621 0041 EB0F0000 		.4byte	.LASF1
 3622 0045 02       		.uleb128 0x2
 3623 0046 08       		.byte	0x8
 3624 0047 04       		.byte	0x4
 3625 0048 BE140000 		.4byte	.LASF2
 3626 004c 02       		.uleb128 0x2
 3627 004d 01       		.byte	0x1
 3628 004e 06       		.byte	0x6
 3629 004f 2E060000 		.4byte	.LASF3
ARM GAS  C:\Users\stoma\AppData\Local\Temp\ccLygOki.s 			page 65


 3630 0053 04       		.uleb128 0x4
 3631 0054 91030000 		.4byte	.LASF5
 3632 0058 08       		.byte	0x8
 3633 0059 2B       		.byte	0x2b
 3634 005a 5E000000 		.4byte	0x5e
 3635 005e 02       		.uleb128 0x2
 3636 005f 01       		.byte	0x1
 3637 0060 08       		.byte	0x8
 3638 0061 E7060000 		.4byte	.LASF6
 3639 0065 02       		.uleb128 0x2
 3640 0066 02       		.byte	0x2
 3641 0067 05       		.byte	0x5
 3642 0068 53190000 		.4byte	.LASF7
 3643 006c 04       		.uleb128 0x4
 3644 006d 8C080000 		.4byte	.LASF8
 3645 0071 08       		.byte	0x8
 3646 0072 39       		.byte	0x39
 3647 0073 77000000 		.4byte	0x77
 3648 0077 02       		.uleb128 0x2
 3649 0078 02       		.byte	0x2
 3650 0079 07       		.byte	0x7
 3651 007a 701C0000 		.4byte	.LASF9
 3652 007e 04       		.uleb128 0x4
 3653 007f 3D1D0000 		.4byte	.LASF10
 3654 0083 08       		.byte	0x8
 3655 0084 4D       		.byte	0x4d
 3656 0085 89000000 		.4byte	0x89
 3657 0089 02       		.uleb128 0x2
 3658 008a 04       		.byte	0x4
 3659 008b 05       		.byte	0x5
 3660 008c 65040000 		.4byte	.LASF11
 3661 0090 04       		.uleb128 0x4
 3662 0091 C40F0000 		.4byte	.LASF12
 3663 0095 08       		.byte	0x8
 3664 0096 4F       		.byte	0x4f
 3665 0097 9B000000 		.4byte	0x9b
 3666 009b 02       		.uleb128 0x2
 3667 009c 04       		.byte	0x4
 3668 009d 07       		.byte	0x7
 3669 009e 2C0D0000 		.4byte	.LASF13
 3670 00a2 04       		.uleb128 0x4
 3671 00a3 080D0000 		.4byte	.LASF14
 3672 00a7 08       		.byte	0x8
 3673 00a8 69       		.byte	0x69
 3674 00a9 AD000000 		.4byte	0xad
 3675 00ad 02       		.uleb128 0x2
 3676 00ae 08       		.byte	0x8
 3677 00af 07       		.byte	0x7
 3678 00b0 C8150000 		.4byte	.LASF15
 3679 00b4 04       		.uleb128 0x4
 3680 00b5 1D1B0000 		.4byte	.LASF16
 3681 00b9 09       		.byte	0x9
 3682 00ba 22       		.byte	0x22
 3683 00bb BF000000 		.4byte	0xbf
 3684 00bf 05       		.uleb128 0x5
 3685 00c0 04       		.byte	0x4
 3686 00c1 C5000000 		.4byte	0xc5
ARM GAS  C:\Users\stoma\AppData\Local\Temp\ccLygOki.s 			page 66


 3687 00c5 06       		.uleb128 0x6
 3688 00c6 E30A0000 		.4byte	.LASF123
 3689 00ca 04       		.uleb128 0x4
 3690 00cb 2E1C0000 		.4byte	.LASF17
 3691 00cf 0A       		.byte	0xa
 3692 00d0 2C       		.byte	0x2c
 3693 00d1 89000000 		.4byte	0x89
 3694 00d5 04       		.uleb128 0x4
 3695 00d6 4D150000 		.4byte	.LASF18
 3696 00da 0A       		.byte	0xa
 3697 00db 72       		.byte	0x72
 3698 00dc 89000000 		.4byte	0x89
 3699 00e0 07       		.uleb128 0x7
 3700 00e1 15180000 		.4byte	.LASF19
 3701 00e5 07       		.byte	0x7
 3702 00e6 6501     		.2byte	0x165
 3703 00e8 25000000 		.4byte	0x25
 3704 00ec 08       		.uleb128 0x8
 3705 00ed 04       		.byte	0x4
 3706 00ee 0A       		.byte	0xa
 3707 00ef A6       		.byte	0xa6
 3708 00f0 0B010000 		.4byte	0x10b
 3709 00f4 09       		.uleb128 0x9
 3710 00f5 82030000 		.4byte	.LASF20
 3711 00f9 0A       		.byte	0xa
 3712 00fa A8       		.byte	0xa8
 3713 00fb E0000000 		.4byte	0xe0
 3714 00ff 09       		.uleb128 0x9
 3715 0100 55150000 		.4byte	.LASF21
 3716 0104 0A       		.byte	0xa
 3717 0105 A9       		.byte	0xa9
 3718 0106 0B010000 		.4byte	0x10b
 3719 010a 00       		.byte	0
 3720 010b 0A       		.uleb128 0xa
 3721 010c 5E000000 		.4byte	0x5e
 3722 0110 1B010000 		.4byte	0x11b
 3723 0114 0B       		.uleb128 0xb
 3724 0115 25000000 		.4byte	0x25
 3725 0119 03       		.byte	0x3
 3726 011a 00       		.byte	0
 3727 011b 0C       		.uleb128 0xc
 3728 011c 08       		.byte	0x8
 3729 011d 0A       		.byte	0xa
 3730 011e A3       		.byte	0xa3
 3731 011f 3C010000 		.4byte	0x13c
 3732 0123 0D       		.uleb128 0xd
 3733 0124 44140000 		.4byte	.LASF22
 3734 0128 0A       		.byte	0xa
 3735 0129 A5       		.byte	0xa5
 3736 012a 2C000000 		.4byte	0x2c
 3737 012e 00       		.byte	0
 3738 012f 0D       		.uleb128 0xd
 3739 0130 44000000 		.4byte	.LASF23
 3740 0134 0A       		.byte	0xa
 3741 0135 AA       		.byte	0xaa
 3742 0136 EC000000 		.4byte	0xec
 3743 013a 04       		.byte	0x4
ARM GAS  C:\Users\stoma\AppData\Local\Temp\ccLygOki.s 			page 67


 3744 013b 00       		.byte	0
 3745 013c 04       		.uleb128 0x4
 3746 013d EA170000 		.4byte	.LASF24
 3747 0141 0A       		.byte	0xa
 3748 0142 AB       		.byte	0xab
 3749 0143 1B010000 		.4byte	0x11b
 3750 0147 04       		.uleb128 0x4
 3751 0148 91170000 		.4byte	.LASF25
 3752 014c 0A       		.byte	0xa
 3753 014d AF       		.byte	0xaf
 3754 014e B4000000 		.4byte	0xb4
 3755 0152 0E       		.uleb128 0xe
 3756 0153 04       		.byte	0x4
 3757 0154 05       		.uleb128 0x5
 3758 0155 04       		.byte	0x4
 3759 0156 5A010000 		.4byte	0x15a
 3760 015a 02       		.uleb128 0x2
 3761 015b 01       		.byte	0x1
 3762 015c 08       		.byte	0x8
 3763 015d 39080000 		.4byte	.LASF26
 3764 0161 0F       		.uleb128 0xf
 3765 0162 5A010000 		.4byte	0x15a
 3766 0166 04       		.uleb128 0x4
 3767 0167 A71B0000 		.4byte	.LASF27
 3768 016b 0B       		.byte	0xb
 3769 016c 16       		.byte	0x16
 3770 016d 9B000000 		.4byte	0x9b
 3771 0171 10       		.uleb128 0x10
 3772 0172 E80E0000 		.4byte	.LASF32
 3773 0176 18       		.byte	0x18
 3774 0177 0B       		.byte	0xb
 3775 0178 2F       		.byte	0x2f
 3776 0179 C4010000 		.4byte	0x1c4
 3777 017d 0D       		.uleb128 0xd
 3778 017e 43180000 		.4byte	.LASF28
 3779 0182 0B       		.byte	0xb
 3780 0183 31       		.byte	0x31
 3781 0184 C4010000 		.4byte	0x1c4
 3782 0188 00       		.byte	0
 3783 0189 11       		.uleb128 0x11
 3784 018a 5F6B00   		.ascii	"_k\000"
 3785 018d 0B       		.byte	0xb
 3786 018e 32       		.byte	0x32
 3787 018f 2C000000 		.4byte	0x2c
 3788 0193 04       		.byte	0x4
 3789 0194 0D       		.uleb128 0xd
 3790 0195 1A0F0000 		.4byte	.LASF29
 3791 0199 0B       		.byte	0xb
 3792 019a 32       		.byte	0x32
 3793 019b 2C000000 		.4byte	0x2c
 3794 019f 08       		.byte	0x8
 3795 01a0 0D       		.uleb128 0xd
 3796 01a1 52110000 		.4byte	.LASF30
 3797 01a5 0B       		.byte	0xb
 3798 01a6 32       		.byte	0x32
 3799 01a7 2C000000 		.4byte	0x2c
 3800 01ab 0C       		.byte	0xc
ARM GAS  C:\Users\stoma\AppData\Local\Temp\ccLygOki.s 			page 68


 3801 01ac 0D       		.uleb128 0xd
 3802 01ad AA0A0000 		.4byte	.LASF31
 3803 01b1 0B       		.byte	0xb
 3804 01b2 32       		.byte	0x32
 3805 01b3 2C000000 		.4byte	0x2c
 3806 01b7 10       		.byte	0x10
 3807 01b8 11       		.uleb128 0x11
 3808 01b9 5F7800   		.ascii	"_x\000"
 3809 01bc 0B       		.byte	0xb
 3810 01bd 33       		.byte	0x33
 3811 01be CA010000 		.4byte	0x1ca
 3812 01c2 14       		.byte	0x14
 3813 01c3 00       		.byte	0
 3814 01c4 05       		.uleb128 0x5
 3815 01c5 04       		.byte	0x4
 3816 01c6 71010000 		.4byte	0x171
 3817 01ca 0A       		.uleb128 0xa
 3818 01cb 66010000 		.4byte	0x166
 3819 01cf DA010000 		.4byte	0x1da
 3820 01d3 0B       		.uleb128 0xb
 3821 01d4 25000000 		.4byte	0x25
 3822 01d8 00       		.byte	0
 3823 01d9 00       		.byte	0
 3824 01da 10       		.uleb128 0x10
 3825 01db E1010000 		.4byte	.LASF33
 3826 01df 24       		.byte	0x24
 3827 01e0 0B       		.byte	0xb
 3828 01e1 37       		.byte	0x37
 3829 01e2 53020000 		.4byte	0x253
 3830 01e6 0D       		.uleb128 0xd
 3831 01e7 FD010000 		.4byte	.LASF34
 3832 01eb 0B       		.byte	0xb
 3833 01ec 39       		.byte	0x39
 3834 01ed 2C000000 		.4byte	0x2c
 3835 01f1 00       		.byte	0
 3836 01f2 0D       		.uleb128 0xd
 3837 01f3 0A1E0000 		.4byte	.LASF35
 3838 01f7 0B       		.byte	0xb
 3839 01f8 3A       		.byte	0x3a
 3840 01f9 2C000000 		.4byte	0x2c
 3841 01fd 04       		.byte	0x4
 3842 01fe 0D       		.uleb128 0xd
 3843 01ff 831C0000 		.4byte	.LASF36
 3844 0203 0B       		.byte	0xb
 3845 0204 3B       		.byte	0x3b
 3846 0205 2C000000 		.4byte	0x2c
 3847 0209 08       		.byte	0x8
 3848 020a 0D       		.uleb128 0xd
 3849 020b 09130000 		.4byte	.LASF37
 3850 020f 0B       		.byte	0xb
 3851 0210 3C       		.byte	0x3c
 3852 0211 2C000000 		.4byte	0x2c
 3853 0215 0C       		.byte	0xc
 3854 0216 0D       		.uleb128 0xd
 3855 0217 88050000 		.4byte	.LASF38
 3856 021b 0B       		.byte	0xb
 3857 021c 3D       		.byte	0x3d
ARM GAS  C:\Users\stoma\AppData\Local\Temp\ccLygOki.s 			page 69


 3858 021d 2C000000 		.4byte	0x2c
 3859 0221 10       		.byte	0x10
 3860 0222 0D       		.uleb128 0xd
 3861 0223 2F1A0000 		.4byte	.LASF39
 3862 0227 0B       		.byte	0xb
 3863 0228 3E       		.byte	0x3e
 3864 0229 2C000000 		.4byte	0x2c
 3865 022d 14       		.byte	0x14
 3866 022e 0D       		.uleb128 0xd
 3867 022f 7D140000 		.4byte	.LASF40
 3868 0233 0B       		.byte	0xb
 3869 0234 3F       		.byte	0x3f
 3870 0235 2C000000 		.4byte	0x2c
 3871 0239 18       		.byte	0x18
 3872 023a 0D       		.uleb128 0xd
 3873 023b DF140000 		.4byte	.LASF41
 3874 023f 0B       		.byte	0xb
 3875 0240 40       		.byte	0x40
 3876 0241 2C000000 		.4byte	0x2c
 3877 0245 1C       		.byte	0x1c
 3878 0246 0D       		.uleb128 0xd
 3879 0247 BF1D0000 		.4byte	.LASF42
 3880 024b 0B       		.byte	0xb
 3881 024c 41       		.byte	0x41
 3882 024d 2C000000 		.4byte	0x2c
 3883 0251 20       		.byte	0x20
 3884 0252 00       		.byte	0
 3885 0253 12       		.uleb128 0x12
 3886 0254 DF030000 		.4byte	.LASF43
 3887 0258 0801     		.2byte	0x108
 3888 025a 0B       		.byte	0xb
 3889 025b 4A       		.byte	0x4a
 3890 025c 93020000 		.4byte	0x293
 3891 0260 0D       		.uleb128 0xd
 3892 0261 B21D0000 		.4byte	.LASF44
 3893 0265 0B       		.byte	0xb
 3894 0266 4B       		.byte	0x4b
 3895 0267 93020000 		.4byte	0x293
 3896 026b 00       		.byte	0
 3897 026c 0D       		.uleb128 0xd
 3898 026d 48160000 		.4byte	.LASF45
 3899 0271 0B       		.byte	0xb
 3900 0272 4C       		.byte	0x4c
 3901 0273 93020000 		.4byte	0x293
 3902 0277 80       		.byte	0x80
 3903 0278 13       		.uleb128 0x13
 3904 0279 E6190000 		.4byte	.LASF46
 3905 027d 0B       		.byte	0xb
 3906 027e 4E       		.byte	0x4e
 3907 027f 66010000 		.4byte	0x166
 3908 0283 0001     		.2byte	0x100
 3909 0285 13       		.uleb128 0x13
 3910 0286 151B0000 		.4byte	.LASF47
 3911 028a 0B       		.byte	0xb
 3912 028b 51       		.byte	0x51
 3913 028c 66010000 		.4byte	0x166
 3914 0290 0401     		.2byte	0x104
ARM GAS  C:\Users\stoma\AppData\Local\Temp\ccLygOki.s 			page 70


 3915 0292 00       		.byte	0
 3916 0293 0A       		.uleb128 0xa
 3917 0294 52010000 		.4byte	0x152
 3918 0298 A3020000 		.4byte	0x2a3
 3919 029c 0B       		.uleb128 0xb
 3920 029d 25000000 		.4byte	0x25
 3921 02a1 1F       		.byte	0x1f
 3922 02a2 00       		.byte	0
 3923 02a3 12       		.uleb128 0x12
 3924 02a4 EC130000 		.4byte	.LASF48
 3925 02a8 9001     		.2byte	0x190
 3926 02aa 0B       		.byte	0xb
 3927 02ab 5D       		.byte	0x5d
 3928 02ac E1020000 		.4byte	0x2e1
 3929 02b0 0D       		.uleb128 0xd
 3930 02b1 43180000 		.4byte	.LASF28
 3931 02b5 0B       		.byte	0xb
 3932 02b6 5E       		.byte	0x5e
 3933 02b7 E1020000 		.4byte	0x2e1
 3934 02bb 00       		.byte	0
 3935 02bc 0D       		.uleb128 0xd
 3936 02bd E71A0000 		.4byte	.LASF49
 3937 02c1 0B       		.byte	0xb
 3938 02c2 5F       		.byte	0x5f
 3939 02c3 2C000000 		.4byte	0x2c
 3940 02c7 04       		.byte	0x4
 3941 02c8 0D       		.uleb128 0xd
 3942 02c9 44080000 		.4byte	.LASF50
 3943 02cd 0B       		.byte	0xb
 3944 02ce 61       		.byte	0x61
 3945 02cf E7020000 		.4byte	0x2e7
 3946 02d3 08       		.byte	0x8
 3947 02d4 0D       		.uleb128 0xd
 3948 02d5 DF030000 		.4byte	.LASF43
 3949 02d9 0B       		.byte	0xb
 3950 02da 62       		.byte	0x62
 3951 02db 53020000 		.4byte	0x253
 3952 02df 88       		.byte	0x88
 3953 02e0 00       		.byte	0
 3954 02e1 05       		.uleb128 0x5
 3955 02e2 04       		.byte	0x4
 3956 02e3 A3020000 		.4byte	0x2a3
 3957 02e7 0A       		.uleb128 0xa
 3958 02e8 F7020000 		.4byte	0x2f7
 3959 02ec F7020000 		.4byte	0x2f7
 3960 02f0 0B       		.uleb128 0xb
 3961 02f1 25000000 		.4byte	0x25
 3962 02f5 1F       		.byte	0x1f
 3963 02f6 00       		.byte	0
 3964 02f7 05       		.uleb128 0x5
 3965 02f8 04       		.byte	0x4
 3966 02f9 FD020000 		.4byte	0x2fd
 3967 02fd 14       		.uleb128 0x14
 3968 02fe 10       		.uleb128 0x10
 3969 02ff 0E1B0000 		.4byte	.LASF51
 3970 0303 08       		.byte	0x8
 3971 0304 0B       		.byte	0xb
ARM GAS  C:\Users\stoma\AppData\Local\Temp\ccLygOki.s 			page 71


 3972 0305 75       		.byte	0x75
 3973 0306 23030000 		.4byte	0x323
 3974 030a 0D       		.uleb128 0xd
 3975 030b 0D170000 		.4byte	.LASF52
 3976 030f 0B       		.byte	0xb
 3977 0310 76       		.byte	0x76
 3978 0311 23030000 		.4byte	0x323
 3979 0315 00       		.byte	0
 3980 0316 0D       		.uleb128 0xd
 3981 0317 D2040000 		.4byte	.LASF53
 3982 031b 0B       		.byte	0xb
 3983 031c 77       		.byte	0x77
 3984 031d 2C000000 		.4byte	0x2c
 3985 0321 04       		.byte	0x4
 3986 0322 00       		.byte	0
 3987 0323 05       		.uleb128 0x5
 3988 0324 04       		.byte	0x4
 3989 0325 5E000000 		.4byte	0x5e
 3990 0329 10       		.uleb128 0x10
 3991 032a 500D0000 		.4byte	.LASF54
 3992 032e 68       		.byte	0x68
 3993 032f 0B       		.byte	0xb
 3994 0330 B5       		.byte	0xb5
 3995 0331 53040000 		.4byte	0x453
 3996 0335 11       		.uleb128 0x11
 3997 0336 5F7000   		.ascii	"_p\000"
 3998 0339 0B       		.byte	0xb
 3999 033a B6       		.byte	0xb6
 4000 033b 23030000 		.4byte	0x323
 4001 033f 00       		.byte	0
 4002 0340 11       		.uleb128 0x11
 4003 0341 5F7200   		.ascii	"_r\000"
 4004 0344 0B       		.byte	0xb
 4005 0345 B7       		.byte	0xb7
 4006 0346 2C000000 		.4byte	0x2c
 4007 034a 04       		.byte	0x4
 4008 034b 11       		.uleb128 0x11
 4009 034c 5F7700   		.ascii	"_w\000"
 4010 034f 0B       		.byte	0xb
 4011 0350 B8       		.byte	0xb8
 4012 0351 2C000000 		.4byte	0x2c
 4013 0355 08       		.byte	0x8
 4014 0356 0D       		.uleb128 0xd
 4015 0357 B8130000 		.4byte	.LASF55
 4016 035b 0B       		.byte	0xb
 4017 035c B9       		.byte	0xb9
 4018 035d 65000000 		.4byte	0x65
 4019 0361 0C       		.byte	0xc
 4020 0362 0D       		.uleb128 0xd
 4021 0363 B2030000 		.4byte	.LASF56
 4022 0367 0B       		.byte	0xb
 4023 0368 BA       		.byte	0xba
 4024 0369 65000000 		.4byte	0x65
 4025 036d 0E       		.byte	0xe
 4026 036e 11       		.uleb128 0x11
 4027 036f 5F626600 		.ascii	"_bf\000"
 4028 0373 0B       		.byte	0xb
ARM GAS  C:\Users\stoma\AppData\Local\Temp\ccLygOki.s 			page 72


 4029 0374 BB       		.byte	0xbb
 4030 0375 FE020000 		.4byte	0x2fe
 4031 0379 10       		.byte	0x10
 4032 037a 0D       		.uleb128 0xd
 4033 037b BB1A0000 		.4byte	.LASF57
 4034 037f 0B       		.byte	0xb
 4035 0380 BC       		.byte	0xbc
 4036 0381 2C000000 		.4byte	0x2c
 4037 0385 18       		.byte	0x18
 4038 0386 0D       		.uleb128 0xd
 4039 0387 620A0000 		.4byte	.LASF58
 4040 038b 0B       		.byte	0xb
 4041 038c C3       		.byte	0xc3
 4042 038d 52010000 		.4byte	0x152
 4043 0391 1C       		.byte	0x1c
 4044 0392 0D       		.uleb128 0xd
 4045 0393 86000000 		.4byte	.LASF59
 4046 0397 0B       		.byte	0xb
 4047 0398 C5       		.byte	0xc5
 4048 0399 AE050000 		.4byte	0x5ae
 4049 039d 20       		.byte	0x20
 4050 039e 0D       		.uleb128 0xd
 4051 039f BC000000 		.4byte	.LASF60
 4052 03a3 0B       		.byte	0xb
 4053 03a4 C7       		.byte	0xc7
 4054 03a5 DD050000 		.4byte	0x5dd
 4055 03a9 24       		.byte	0x24
 4056 03aa 0D       		.uleb128 0xd
 4057 03ab 34150000 		.4byte	.LASF61
 4058 03af 0B       		.byte	0xb
 4059 03b0 CA       		.byte	0xca
 4060 03b1 01060000 		.4byte	0x601
 4061 03b5 28       		.byte	0x28
 4062 03b6 0D       		.uleb128 0xd
 4063 03b7 56080000 		.4byte	.LASF62
 4064 03bb 0B       		.byte	0xb
 4065 03bc CB       		.byte	0xcb
 4066 03bd 1B060000 		.4byte	0x61b
 4067 03c1 2C       		.byte	0x2c
 4068 03c2 11       		.uleb128 0x11
 4069 03c3 5F756200 		.ascii	"_ub\000"
 4070 03c7 0B       		.byte	0xb
 4071 03c8 CE       		.byte	0xce
 4072 03c9 FE020000 		.4byte	0x2fe
 4073 03cd 30       		.byte	0x30
 4074 03ce 11       		.uleb128 0x11
 4075 03cf 5F757000 		.ascii	"_up\000"
 4076 03d3 0B       		.byte	0xb
 4077 03d4 CF       		.byte	0xcf
 4078 03d5 23030000 		.4byte	0x323
 4079 03d9 38       		.byte	0x38
 4080 03da 11       		.uleb128 0x11
 4081 03db 5F757200 		.ascii	"_ur\000"
 4082 03df 0B       		.byte	0xb
 4083 03e0 D0       		.byte	0xd0
 4084 03e1 2C000000 		.4byte	0x2c
 4085 03e5 3C       		.byte	0x3c
ARM GAS  C:\Users\stoma\AppData\Local\Temp\ccLygOki.s 			page 73


 4086 03e6 0D       		.uleb128 0xd
 4087 03e7 39130000 		.4byte	.LASF63
 4088 03eb 0B       		.byte	0xb
 4089 03ec D3       		.byte	0xd3
 4090 03ed 21060000 		.4byte	0x621
 4091 03f1 40       		.byte	0x40
 4092 03f2 0D       		.uleb128 0xd
 4093 03f3 F7010000 		.4byte	.LASF64
 4094 03f7 0B       		.byte	0xb
 4095 03f8 D4       		.byte	0xd4
 4096 03f9 31060000 		.4byte	0x631
 4097 03fd 43       		.byte	0x43
 4098 03fe 11       		.uleb128 0x11
 4099 03ff 5F6C6200 		.ascii	"_lb\000"
 4100 0403 0B       		.byte	0xb
 4101 0404 D7       		.byte	0xd7
 4102 0405 FE020000 		.4byte	0x2fe
 4103 0409 44       		.byte	0x44
 4104 040a 0D       		.uleb128 0xd
 4105 040b 04170000 		.4byte	.LASF65
 4106 040f 0B       		.byte	0xb
 4107 0410 DA       		.byte	0xda
 4108 0411 2C000000 		.4byte	0x2c
 4109 0415 4C       		.byte	0x4c
 4110 0416 0D       		.uleb128 0xd
 4111 0417 170B0000 		.4byte	.LASF66
 4112 041b 0B       		.byte	0xb
 4113 041c DB       		.byte	0xdb
 4114 041d CA000000 		.4byte	0xca
 4115 0421 50       		.byte	0x50
 4116 0422 0D       		.uleb128 0xd
 4117 0423 4F180000 		.4byte	.LASF67
 4118 0427 0B       		.byte	0xb
 4119 0428 DE       		.byte	0xde
 4120 0429 71040000 		.4byte	0x471
 4121 042d 54       		.byte	0x54
 4122 042e 0D       		.uleb128 0xd
 4123 042f 70020000 		.4byte	.LASF68
 4124 0433 0B       		.byte	0xb
 4125 0434 E2       		.byte	0xe2
 4126 0435 47010000 		.4byte	0x147
 4127 0439 58       		.byte	0x58
 4128 043a 0D       		.uleb128 0xd
 4129 043b 83130000 		.4byte	.LASF69
 4130 043f 0B       		.byte	0xb
 4131 0440 E4       		.byte	0xe4
 4132 0441 3C010000 		.4byte	0x13c
 4133 0445 5C       		.byte	0x5c
 4134 0446 0D       		.uleb128 0xd
 4135 0447 630D0000 		.4byte	.LASF70
 4136 044b 0B       		.byte	0xb
 4137 044c E5       		.byte	0xe5
 4138 044d 2C000000 		.4byte	0x2c
 4139 0451 64       		.byte	0x64
 4140 0452 00       		.byte	0
 4141 0453 15       		.uleb128 0x15
 4142 0454 2C000000 		.4byte	0x2c
ARM GAS  C:\Users\stoma\AppData\Local\Temp\ccLygOki.s 			page 74


 4143 0458 71040000 		.4byte	0x471
 4144 045c 16       		.uleb128 0x16
 4145 045d 71040000 		.4byte	0x471
 4146 0461 16       		.uleb128 0x16
 4147 0462 52010000 		.4byte	0x152
 4148 0466 16       		.uleb128 0x16
 4149 0467 54010000 		.4byte	0x154
 4150 046b 16       		.uleb128 0x16
 4151 046c 2C000000 		.4byte	0x2c
 4152 0470 00       		.byte	0
 4153 0471 05       		.uleb128 0x5
 4154 0472 04       		.byte	0x4
 4155 0473 7C040000 		.4byte	0x47c
 4156 0477 0F       		.uleb128 0xf
 4157 0478 71040000 		.4byte	0x471
 4158 047c 17       		.uleb128 0x17
 4159 047d 4C070000 		.4byte	.LASF71
 4160 0481 2804     		.2byte	0x428
 4161 0483 0B       		.byte	0xb
 4162 0484 3902     		.2byte	0x239
 4163 0486 AE050000 		.4byte	0x5ae
 4164 048a 18       		.uleb128 0x18
 4165 048b 0C0E0000 		.4byte	.LASF72
 4166 048f 0B       		.byte	0xb
 4167 0490 3B02     		.2byte	0x23b
 4168 0492 2C000000 		.4byte	0x2c
 4169 0496 00       		.byte	0
 4170 0497 18       		.uleb128 0x18
 4171 0498 CC080000 		.4byte	.LASF73
 4172 049c 0B       		.byte	0xb
 4173 049d 4002     		.2byte	0x240
 4174 049f 88060000 		.4byte	0x688
 4175 04a3 04       		.byte	0x4
 4176 04a4 18       		.uleb128 0x18
 4177 04a5 B2160000 		.4byte	.LASF74
 4178 04a9 0B       		.byte	0xb
 4179 04aa 4002     		.2byte	0x240
 4180 04ac 88060000 		.4byte	0x688
 4181 04b0 08       		.byte	0x8
 4182 04b1 18       		.uleb128 0x18
 4183 04b2 50130000 		.4byte	.LASF75
 4184 04b6 0B       		.byte	0xb
 4185 04b7 4002     		.2byte	0x240
 4186 04b9 88060000 		.4byte	0x688
 4187 04bd 0C       		.byte	0xc
 4188 04be 18       		.uleb128 0x18
 4189 04bf E21A0000 		.4byte	.LASF76
 4190 04c3 0B       		.byte	0xb
 4191 04c4 4202     		.2byte	0x242
 4192 04c6 2C000000 		.4byte	0x2c
 4193 04ca 10       		.byte	0x10
 4194 04cb 18       		.uleb128 0x18
 4195 04cc CF0F0000 		.4byte	.LASF77
 4196 04d0 0B       		.byte	0xb
 4197 04d1 4302     		.2byte	0x243
 4198 04d3 6A080000 		.4byte	0x86a
 4199 04d7 14       		.byte	0x14
ARM GAS  C:\Users\stoma\AppData\Local\Temp\ccLygOki.s 			page 75


 4200 04d8 18       		.uleb128 0x18
 4201 04d9 2E070000 		.4byte	.LASF78
 4202 04dd 0B       		.byte	0xb
 4203 04de 4602     		.2byte	0x246
 4204 04e0 2C000000 		.4byte	0x2c
 4205 04e4 30       		.byte	0x30
 4206 04e5 18       		.uleb128 0x18
 4207 04e6 9F1B0000 		.4byte	.LASF79
 4208 04ea 0B       		.byte	0xb
 4209 04eb 4702     		.2byte	0x247
 4210 04ed 7F080000 		.4byte	0x87f
 4211 04f1 34       		.byte	0x34
 4212 04f2 18       		.uleb128 0x18
 4213 04f3 580D0000 		.4byte	.LASF80
 4214 04f7 0B       		.byte	0xb
 4215 04f8 4902     		.2byte	0x249
 4216 04fa 2C000000 		.4byte	0x2c
 4217 04fe 38       		.byte	0x38
 4218 04ff 18       		.uleb128 0x18
 4219 0500 4C0F0000 		.4byte	.LASF81
 4220 0504 0B       		.byte	0xb
 4221 0505 4B02     		.2byte	0x24b
 4222 0507 90080000 		.4byte	0x890
 4223 050b 3C       		.byte	0x3c
 4224 050c 18       		.uleb128 0x18
 4225 050d D31B0000 		.4byte	.LASF82
 4226 0511 0B       		.byte	0xb
 4227 0512 4E02     		.2byte	0x24e
 4228 0514 C4010000 		.4byte	0x1c4
 4229 0518 40       		.byte	0x40
 4230 0519 18       		.uleb128 0x18
 4231 051a A9040000 		.4byte	.LASF83
 4232 051e 0B       		.byte	0xb
 4233 051f 4F02     		.2byte	0x24f
 4234 0521 2C000000 		.4byte	0x2c
 4235 0525 44       		.byte	0x44
 4236 0526 18       		.uleb128 0x18
 4237 0527 270D0000 		.4byte	.LASF84
 4238 052b 0B       		.byte	0xb
 4239 052c 5002     		.2byte	0x250
 4240 052e C4010000 		.4byte	0x1c4
 4241 0532 48       		.byte	0x48
 4242 0533 18       		.uleb128 0x18
 4243 0534 F2100000 		.4byte	.LASF85
 4244 0538 0B       		.byte	0xb
 4245 0539 5102     		.2byte	0x251
 4246 053b 96080000 		.4byte	0x896
 4247 053f 4C       		.byte	0x4c
 4248 0540 18       		.uleb128 0x18
 4249 0541 0B010000 		.4byte	.LASF86
 4250 0545 0B       		.byte	0xb
 4251 0546 5402     		.2byte	0x254
 4252 0548 2C000000 		.4byte	0x2c
 4253 054c 50       		.byte	0x50
 4254 054d 18       		.uleb128 0x18
 4255 054e 2C0B0000 		.4byte	.LASF87
 4256 0552 0B       		.byte	0xb
ARM GAS  C:\Users\stoma\AppData\Local\Temp\ccLygOki.s 			page 76


 4257 0553 5502     		.2byte	0x255
 4258 0555 54010000 		.4byte	0x154
 4259 0559 54       		.byte	0x54
 4260 055a 18       		.uleb128 0x18
 4261 055b 34130000 		.4byte	.LASF88
 4262 055f 0B       		.byte	0xb
 4263 0560 7802     		.2byte	0x278
 4264 0562 48080000 		.4byte	0x848
 4265 0566 58       		.byte	0x58
 4266 0567 19       		.uleb128 0x19
 4267 0568 EC130000 		.4byte	.LASF48
 4268 056c 0B       		.byte	0xb
 4269 056d 7C02     		.2byte	0x27c
 4270 056f E1020000 		.4byte	0x2e1
 4271 0573 4801     		.2byte	0x148
 4272 0575 19       		.uleb128 0x19
 4273 0576 5E0F0000 		.4byte	.LASF89
 4274 057a 0B       		.byte	0xb
 4275 057b 7D02     		.2byte	0x27d
 4276 057d A3020000 		.4byte	0x2a3
 4277 0581 4C01     		.2byte	0x14c
 4278 0583 19       		.uleb128 0x19
 4279 0584 EA0A0000 		.4byte	.LASF90
 4280 0588 0B       		.byte	0xb
 4281 0589 8102     		.2byte	0x281
 4282 058b A7080000 		.4byte	0x8a7
 4283 058f DC02     		.2byte	0x2dc
 4284 0591 19       		.uleb128 0x19
 4285 0592 68100000 		.4byte	.LASF91
 4286 0596 0B       		.byte	0xb
 4287 0597 8602     		.2byte	0x286
 4288 0599 4D060000 		.4byte	0x64d
 4289 059d E002     		.2byte	0x2e0
 4290 059f 19       		.uleb128 0x19
 4291 05a0 62000000 		.4byte	.LASF92
 4292 05a4 0B       		.byte	0xb
 4293 05a5 8802     		.2byte	0x288
 4294 05a7 B3080000 		.4byte	0x8b3
 4295 05ab EC02     		.2byte	0x2ec
 4296 05ad 00       		.byte	0
 4297 05ae 05       		.uleb128 0x5
 4298 05af 04       		.byte	0x4
 4299 05b0 53040000 		.4byte	0x453
 4300 05b4 15       		.uleb128 0x15
 4301 05b5 2C000000 		.4byte	0x2c
 4302 05b9 D2050000 		.4byte	0x5d2
 4303 05bd 16       		.uleb128 0x16
 4304 05be 71040000 		.4byte	0x471
 4305 05c2 16       		.uleb128 0x16
 4306 05c3 52010000 		.4byte	0x152
 4307 05c7 16       		.uleb128 0x16
 4308 05c8 D2050000 		.4byte	0x5d2
 4309 05cc 16       		.uleb128 0x16
 4310 05cd 2C000000 		.4byte	0x2c
 4311 05d1 00       		.byte	0
 4312 05d2 05       		.uleb128 0x5
 4313 05d3 04       		.byte	0x4
ARM GAS  C:\Users\stoma\AppData\Local\Temp\ccLygOki.s 			page 77


 4314 05d4 61010000 		.4byte	0x161
 4315 05d8 1A       		.uleb128 0x1a
 4316 05d9 D2050000 		.4byte	0x5d2
 4317 05dd 05       		.uleb128 0x5
 4318 05de 04       		.byte	0x4
 4319 05df B4050000 		.4byte	0x5b4
 4320 05e3 15       		.uleb128 0x15
 4321 05e4 D5000000 		.4byte	0xd5
 4322 05e8 01060000 		.4byte	0x601
 4323 05ec 16       		.uleb128 0x16
 4324 05ed 71040000 		.4byte	0x471
 4325 05f1 16       		.uleb128 0x16
 4326 05f2 52010000 		.4byte	0x152
 4327 05f6 16       		.uleb128 0x16
 4328 05f7 D5000000 		.4byte	0xd5
 4329 05fb 16       		.uleb128 0x16
 4330 05fc 2C000000 		.4byte	0x2c
 4331 0600 00       		.byte	0
 4332 0601 05       		.uleb128 0x5
 4333 0602 04       		.byte	0x4
 4334 0603 E3050000 		.4byte	0x5e3
 4335 0607 15       		.uleb128 0x15
 4336 0608 2C000000 		.4byte	0x2c
 4337 060c 1B060000 		.4byte	0x61b
 4338 0610 16       		.uleb128 0x16
 4339 0611 71040000 		.4byte	0x471
 4340 0615 16       		.uleb128 0x16
 4341 0616 52010000 		.4byte	0x152
 4342 061a 00       		.byte	0
 4343 061b 05       		.uleb128 0x5
 4344 061c 04       		.byte	0x4
 4345 061d 07060000 		.4byte	0x607
 4346 0621 0A       		.uleb128 0xa
 4347 0622 5E000000 		.4byte	0x5e
 4348 0626 31060000 		.4byte	0x631
 4349 062a 0B       		.uleb128 0xb
 4350 062b 25000000 		.4byte	0x25
 4351 062f 02       		.byte	0x2
 4352 0630 00       		.byte	0
 4353 0631 0A       		.uleb128 0xa
 4354 0632 5E000000 		.4byte	0x5e
 4355 0636 41060000 		.4byte	0x641
 4356 063a 0B       		.uleb128 0xb
 4357 063b 25000000 		.4byte	0x25
 4358 063f 00       		.byte	0
 4359 0640 00       		.byte	0
 4360 0641 07       		.uleb128 0x7
 4361 0642 A7170000 		.4byte	.LASF93
 4362 0646 0B       		.byte	0xb
 4363 0647 1F01     		.2byte	0x11f
 4364 0649 29030000 		.4byte	0x329
 4365 064d 1B       		.uleb128 0x1b
 4366 064e 3F110000 		.4byte	.LASF94
 4367 0652 0C       		.byte	0xc
 4368 0653 0B       		.byte	0xb
 4369 0654 2301     		.2byte	0x123
 4370 0656 82060000 		.4byte	0x682
ARM GAS  C:\Users\stoma\AppData\Local\Temp\ccLygOki.s 			page 78


 4371 065a 18       		.uleb128 0x18
 4372 065b 43180000 		.4byte	.LASF28
 4373 065f 0B       		.byte	0xb
 4374 0660 2501     		.2byte	0x125
 4375 0662 82060000 		.4byte	0x682
 4376 0666 00       		.byte	0
 4377 0667 18       		.uleb128 0x18
 4378 0668 2B100000 		.4byte	.LASF95
 4379 066c 0B       		.byte	0xb
 4380 066d 2601     		.2byte	0x126
 4381 066f 2C000000 		.4byte	0x2c
 4382 0673 04       		.byte	0x4
 4383 0674 18       		.uleb128 0x18
 4384 0675 28110000 		.4byte	.LASF96
 4385 0679 0B       		.byte	0xb
 4386 067a 2701     		.2byte	0x127
 4387 067c 88060000 		.4byte	0x688
 4388 0680 08       		.byte	0x8
 4389 0681 00       		.byte	0
 4390 0682 05       		.uleb128 0x5
 4391 0683 04       		.byte	0x4
 4392 0684 4D060000 		.4byte	0x64d
 4393 0688 05       		.uleb128 0x5
 4394 0689 04       		.byte	0x4
 4395 068a 41060000 		.4byte	0x641
 4396 068e 1B       		.uleb128 0x1b
 4397 068f 82160000 		.4byte	.LASF97
 4398 0693 0E       		.byte	0xe
 4399 0694 0B       		.byte	0xb
 4400 0695 3F01     		.2byte	0x13f
 4401 0697 C3060000 		.4byte	0x6c3
 4402 069b 18       		.uleb128 0x18
 4403 069c 2E150000 		.4byte	.LASF98
 4404 06a0 0B       		.byte	0xb
 4405 06a1 4001     		.2byte	0x140
 4406 06a3 C3060000 		.4byte	0x6c3
 4407 06a7 00       		.byte	0
 4408 06a8 18       		.uleb128 0x18
 4409 06a9 8F020000 		.4byte	.LASF99
 4410 06ad 0B       		.byte	0xb
 4411 06ae 4101     		.2byte	0x141
 4412 06b0 C3060000 		.4byte	0x6c3
 4413 06b4 06       		.byte	0x6
 4414 06b5 18       		.uleb128 0x18
 4415 06b6 621C0000 		.4byte	.LASF100
 4416 06ba 0B       		.byte	0xb
 4417 06bb 4201     		.2byte	0x142
 4418 06bd 77000000 		.4byte	0x77
 4419 06c1 0C       		.byte	0xc
 4420 06c2 00       		.byte	0
 4421 06c3 0A       		.uleb128 0xa
 4422 06c4 77000000 		.4byte	0x77
 4423 06c8 D3060000 		.4byte	0x6d3
 4424 06cc 0B       		.uleb128 0xb
 4425 06cd 25000000 		.4byte	0x25
 4426 06d1 02       		.byte	0x2
 4427 06d2 00       		.byte	0
ARM GAS  C:\Users\stoma\AppData\Local\Temp\ccLygOki.s 			page 79


 4428 06d3 1C       		.uleb128 0x1c
 4429 06d4 D0       		.byte	0xd0
 4430 06d5 0B       		.byte	0xb
 4431 06d6 5902     		.2byte	0x259
 4432 06d8 D4070000 		.4byte	0x7d4
 4433 06dc 18       		.uleb128 0x18
 4434 06dd 1A060000 		.4byte	.LASF101
 4435 06e1 0B       		.byte	0xb
 4436 06e2 5B02     		.2byte	0x25b
 4437 06e4 25000000 		.4byte	0x25
 4438 06e8 00       		.byte	0
 4439 06e9 18       		.uleb128 0x18
 4440 06ea 3E170000 		.4byte	.LASF102
 4441 06ee 0B       		.byte	0xb
 4442 06ef 5C02     		.2byte	0x25c
 4443 06f1 54010000 		.4byte	0x154
 4444 06f5 04       		.byte	0x4
 4445 06f6 18       		.uleb128 0x18
 4446 06f7 F1000000 		.4byte	.LASF103
 4447 06fb 0B       		.byte	0xb
 4448 06fc 5D02     		.2byte	0x25d
 4449 06fe D4070000 		.4byte	0x7d4
 4450 0702 08       		.byte	0x8
 4451 0703 18       		.uleb128 0x18
 4452 0704 F9040000 		.4byte	.LASF104
 4453 0708 0B       		.byte	0xb
 4454 0709 5E02     		.2byte	0x25e
 4455 070b DA010000 		.4byte	0x1da
 4456 070f 24       		.byte	0x24
 4457 0710 18       		.uleb128 0x18
 4458 0711 AA100000 		.4byte	.LASF105
 4459 0715 0B       		.byte	0xb
 4460 0716 5F02     		.2byte	0x25f
 4461 0718 2C000000 		.4byte	0x2c
 4462 071c 48       		.byte	0x48
 4463 071d 18       		.uleb128 0x18
 4464 071e 96130000 		.4byte	.LASF106
 4465 0722 0B       		.byte	0xb
 4466 0723 6002     		.2byte	0x260
 4467 0725 AD000000 		.4byte	0xad
 4468 0729 50       		.byte	0x50
 4469 072a 18       		.uleb128 0x18
 4470 072b 10180000 		.4byte	.LASF107
 4471 072f 0B       		.byte	0xb
 4472 0730 6102     		.2byte	0x261
 4473 0732 8E060000 		.4byte	0x68e
 4474 0736 58       		.byte	0x58
 4475 0737 18       		.uleb128 0x18
 4476 0738 3D190000 		.4byte	.LASF108
 4477 073c 0B       		.byte	0xb
 4478 073d 6202     		.2byte	0x262
 4479 073f 3C010000 		.4byte	0x13c
 4480 0743 68       		.byte	0x68
 4481 0744 18       		.uleb128 0x18
 4482 0745 84150000 		.4byte	.LASF109
 4483 0749 0B       		.byte	0xb
 4484 074a 6302     		.2byte	0x263
ARM GAS  C:\Users\stoma\AppData\Local\Temp\ccLygOki.s 			page 80


 4485 074c 3C010000 		.4byte	0x13c
 4486 0750 70       		.byte	0x70
 4487 0751 18       		.uleb128 0x18
 4488 0752 75130000 		.4byte	.LASF110
 4489 0756 0B       		.byte	0xb
 4490 0757 6402     		.2byte	0x264
 4491 0759 3C010000 		.4byte	0x13c
 4492 075d 78       		.byte	0x78
 4493 075e 18       		.uleb128 0x18
 4494 075f 20020000 		.4byte	.LASF111
 4495 0763 0B       		.byte	0xb
 4496 0764 6502     		.2byte	0x265
 4497 0766 E4070000 		.4byte	0x7e4
 4498 076a 80       		.byte	0x80
 4499 076b 18       		.uleb128 0x18
 4500 076c 5C0E0000 		.4byte	.LASF112
 4501 0770 0B       		.byte	0xb
 4502 0771 6602     		.2byte	0x266
 4503 0773 F4070000 		.4byte	0x7f4
 4504 0777 88       		.byte	0x88
 4505 0778 18       		.uleb128 0x18
 4506 0779 251E0000 		.4byte	.LASF113
 4507 077d 0B       		.byte	0xb
 4508 077e 6702     		.2byte	0x267
 4509 0780 2C000000 		.4byte	0x2c
 4510 0784 A0       		.byte	0xa0
 4511 0785 18       		.uleb128 0x18
 4512 0786 57040000 		.4byte	.LASF114
 4513 078a 0B       		.byte	0xb
 4514 078b 6802     		.2byte	0x268
 4515 078d 3C010000 		.4byte	0x13c
 4516 0791 A4       		.byte	0xa4
 4517 0792 18       		.uleb128 0x18
 4518 0793 5F170000 		.4byte	.LASF115
 4519 0797 0B       		.byte	0xb
 4520 0798 6902     		.2byte	0x269
 4521 079a 3C010000 		.4byte	0x13c
 4522 079e AC       		.byte	0xac
 4523 079f 18       		.uleb128 0x18
 4524 07a0 ED1C0000 		.4byte	.LASF116
 4525 07a4 0B       		.byte	0xb
 4526 07a5 6A02     		.2byte	0x26a
 4527 07a7 3C010000 		.4byte	0x13c
 4528 07ab B4       		.byte	0xb4
 4529 07ac 18       		.uleb128 0x18
 4530 07ad F0120000 		.4byte	.LASF117
 4531 07b1 0B       		.byte	0xb
 4532 07b2 6B02     		.2byte	0x26b
 4533 07b4 3C010000 		.4byte	0x13c
 4534 07b8 BC       		.byte	0xbc
 4535 07b9 18       		.uleb128 0x18
 4536 07ba E6010000 		.4byte	.LASF118
 4537 07be 0B       		.byte	0xb
 4538 07bf 6C02     		.2byte	0x26c
 4539 07c1 3C010000 		.4byte	0x13c
 4540 07c5 C4       		.byte	0xc4
 4541 07c6 18       		.uleb128 0x18
ARM GAS  C:\Users\stoma\AppData\Local\Temp\ccLygOki.s 			page 81


 4542 07c7 7D120000 		.4byte	.LASF119
 4543 07cb 0B       		.byte	0xb
 4544 07cc 6D02     		.2byte	0x26d
 4545 07ce 2C000000 		.4byte	0x2c
 4546 07d2 CC       		.byte	0xcc
 4547 07d3 00       		.byte	0
 4548 07d4 0A       		.uleb128 0xa
 4549 07d5 5A010000 		.4byte	0x15a
 4550 07d9 E4070000 		.4byte	0x7e4
 4551 07dd 0B       		.uleb128 0xb
 4552 07de 25000000 		.4byte	0x25
 4553 07e2 19       		.byte	0x19
 4554 07e3 00       		.byte	0
 4555 07e4 0A       		.uleb128 0xa
 4556 07e5 5A010000 		.4byte	0x15a
 4557 07e9 F4070000 		.4byte	0x7f4
 4558 07ed 0B       		.uleb128 0xb
 4559 07ee 25000000 		.4byte	0x25
 4560 07f2 07       		.byte	0x7
 4561 07f3 00       		.byte	0
 4562 07f4 0A       		.uleb128 0xa
 4563 07f5 5A010000 		.4byte	0x15a
 4564 07f9 04080000 		.4byte	0x804
 4565 07fd 0B       		.uleb128 0xb
 4566 07fe 25000000 		.4byte	0x25
 4567 0802 17       		.byte	0x17
 4568 0803 00       		.byte	0
 4569 0804 1C       		.uleb128 0x1c
 4570 0805 F0       		.byte	0xf0
 4571 0806 0B       		.byte	0xb
 4572 0807 7202     		.2byte	0x272
 4573 0809 28080000 		.4byte	0x828
 4574 080d 18       		.uleb128 0x18
 4575 080e 351B0000 		.4byte	.LASF120
 4576 0812 0B       		.byte	0xb
 4577 0813 7502     		.2byte	0x275
 4578 0815 28080000 		.4byte	0x828
 4579 0819 00       		.byte	0
 4580 081a 18       		.uleb128 0x18
 4581 081b 88100000 		.4byte	.LASF121
 4582 081f 0B       		.byte	0xb
 4583 0820 7602     		.2byte	0x276
 4584 0822 38080000 		.4byte	0x838
 4585 0826 78       		.byte	0x78
 4586 0827 00       		.byte	0
 4587 0828 0A       		.uleb128 0xa
 4588 0829 23030000 		.4byte	0x323
 4589 082d 38080000 		.4byte	0x838
 4590 0831 0B       		.uleb128 0xb
 4591 0832 25000000 		.4byte	0x25
 4592 0836 1D       		.byte	0x1d
 4593 0837 00       		.byte	0
 4594 0838 0A       		.uleb128 0xa
 4595 0839 25000000 		.4byte	0x25
 4596 083d 48080000 		.4byte	0x848
 4597 0841 0B       		.uleb128 0xb
 4598 0842 25000000 		.4byte	0x25
ARM GAS  C:\Users\stoma\AppData\Local\Temp\ccLygOki.s 			page 82


 4599 0846 1D       		.byte	0x1d
 4600 0847 00       		.byte	0
 4601 0848 1D       		.uleb128 0x1d
 4602 0849 F0       		.byte	0xf0
 4603 084a 0B       		.byte	0xb
 4604 084b 5702     		.2byte	0x257
 4605 084d 6A080000 		.4byte	0x86a
 4606 0851 1E       		.uleb128 0x1e
 4607 0852 4C070000 		.4byte	.LASF71
 4608 0856 0B       		.byte	0xb
 4609 0857 6E02     		.2byte	0x26e
 4610 0859 D3060000 		.4byte	0x6d3
 4611 085d 1E       		.uleb128 0x1e
 4612 085e D9010000 		.4byte	.LASF122
 4613 0862 0B       		.byte	0xb
 4614 0863 7702     		.2byte	0x277
 4615 0865 04080000 		.4byte	0x804
 4616 0869 00       		.byte	0
 4617 086a 0A       		.uleb128 0xa
 4618 086b 5A010000 		.4byte	0x15a
 4619 086f 7A080000 		.4byte	0x87a
 4620 0873 0B       		.uleb128 0xb
 4621 0874 25000000 		.4byte	0x25
 4622 0878 18       		.byte	0x18
 4623 0879 00       		.byte	0
 4624 087a 06       		.uleb128 0x6
 4625 087b 39000000 		.4byte	.LASF124
 4626 087f 05       		.uleb128 0x5
 4627 0880 04       		.byte	0x4
 4628 0881 7A080000 		.4byte	0x87a
 4629 0885 1F       		.uleb128 0x1f
 4630 0886 90080000 		.4byte	0x890
 4631 088a 16       		.uleb128 0x16
 4632 088b 71040000 		.4byte	0x471
 4633 088f 00       		.byte	0
 4634 0890 05       		.uleb128 0x5
 4635 0891 04       		.byte	0x4
 4636 0892 85080000 		.4byte	0x885
 4637 0896 05       		.uleb128 0x5
 4638 0897 04       		.byte	0x4
 4639 0898 C4010000 		.4byte	0x1c4
 4640 089c 1F       		.uleb128 0x1f
 4641 089d A7080000 		.4byte	0x8a7
 4642 08a1 16       		.uleb128 0x16
 4643 08a2 2C000000 		.4byte	0x2c
 4644 08a6 00       		.byte	0
 4645 08a7 05       		.uleb128 0x5
 4646 08a8 04       		.byte	0x4
 4647 08a9 AD080000 		.4byte	0x8ad
 4648 08ad 05       		.uleb128 0x5
 4649 08ae 04       		.byte	0x4
 4650 08af 9C080000 		.4byte	0x89c
 4651 08b3 0A       		.uleb128 0xa
 4652 08b4 41060000 		.4byte	0x641
 4653 08b8 C3080000 		.4byte	0x8c3
 4654 08bc 0B       		.uleb128 0xb
 4655 08bd 25000000 		.4byte	0x25
ARM GAS  C:\Users\stoma\AppData\Local\Temp\ccLygOki.s 			page 83


 4656 08c1 02       		.byte	0x2
 4657 08c2 00       		.byte	0
 4658 08c3 20       		.uleb128 0x20
 4659 08c4 95040000 		.4byte	.LASF125
 4660 08c8 0B       		.byte	0xb
 4661 08c9 0703     		.2byte	0x307
 4662 08cb 71040000 		.4byte	0x471
 4663 08cf 20       		.uleb128 0x20
 4664 08d0 5B070000 		.4byte	.LASF126
 4665 08d4 0B       		.byte	0xb
 4666 08d5 0803     		.2byte	0x308
 4667 08d7 77040000 		.4byte	0x477
 4668 08db 04       		.uleb128 0x4
 4669 08dc 44060000 		.4byte	.LASF127
 4670 08e0 0C       		.byte	0xc
 4671 08e1 18       		.byte	0x18
 4672 08e2 53000000 		.4byte	0x53
 4673 08e6 0F       		.uleb128 0xf
 4674 08e7 DB080000 		.4byte	0x8db
 4675 08eb 04       		.uleb128 0x4
 4676 08ec 32160000 		.4byte	.LASF128
 4677 08f0 0C       		.byte	0xc
 4678 08f1 24       		.byte	0x24
 4679 08f2 6C000000 		.4byte	0x6c
 4680 08f6 04       		.uleb128 0x4
 4681 08f7 D1000000 		.4byte	.LASF129
 4682 08fb 0C       		.byte	0xc
 4683 08fc 2C       		.byte	0x2c
 4684 08fd 7E000000 		.4byte	0x7e
 4685 0901 1A       		.uleb128 0x1a
 4686 0902 F6080000 		.4byte	0x8f6
 4687 0906 04       		.uleb128 0x4
 4688 0907 C21B0000 		.4byte	.LASF130
 4689 090b 0C       		.byte	0xc
 4690 090c 30       		.byte	0x30
 4691 090d 90000000 		.4byte	0x90
 4692 0911 1A       		.uleb128 0x1a
 4693 0912 06090000 		.4byte	0x906
 4694 0916 04       		.uleb128 0x4
 4695 0917 77190000 		.4byte	.LASF131
 4696 091b 0C       		.byte	0xc
 4697 091c 3C       		.byte	0x3c
 4698 091d A2000000 		.4byte	0xa2
 4699 0921 04       		.uleb128 0x4
 4700 0922 63120000 		.4byte	.LASF132
 4701 0926 0D       		.byte	0xd
 4702 0927 45       		.byte	0x45
 4703 0928 06090000 		.4byte	0x906
 4704 092c 04       		.uleb128 0x4
 4705 092d 11050000 		.4byte	.LASF133
 4706 0931 0D       		.byte	0xd
 4707 0932 46       		.byte	0x46
 4708 0933 16090000 		.4byte	0x916
 4709 0937 04       		.uleb128 0x4
 4710 0938 65180000 		.4byte	.LASF134
 4711 093c 0D       		.byte	0xd
 4712 093d 48       		.byte	0x48
ARM GAS  C:\Users\stoma\AppData\Local\Temp\ccLygOki.s 			page 84


 4713 093e DB080000 		.4byte	0x8db
 4714 0942 04       		.uleb128 0x4
 4715 0943 08050000 		.4byte	.LASF135
 4716 0947 0D       		.byte	0xd
 4717 0948 49       		.byte	0x49
 4718 0949 DB080000 		.4byte	0x8db
 4719 094d 04       		.uleb128 0x4
 4720 094e 2D1B0000 		.4byte	.LASF136
 4721 0952 0D       		.byte	0xd
 4722 0953 4A       		.byte	0x4a
 4723 0954 DB080000 		.4byte	0x8db
 4724 0958 04       		.uleb128 0x4
 4725 0959 C9160000 		.4byte	.LASF137
 4726 095d 0D       		.byte	0xd
 4727 095e 4B       		.byte	0x4b
 4728 095f DB080000 		.4byte	0x8db
 4729 0963 04       		.uleb128 0x4
 4730 0964 8C000000 		.4byte	.LASF138
 4731 0968 0D       		.byte	0xd
 4732 0969 4C       		.byte	0x4c
 4733 096a 06090000 		.4byte	0x906
 4734 096e 04       		.uleb128 0x4
 4735 096f 54160000 		.4byte	.LASF139
 4736 0973 0D       		.byte	0xd
 4737 0974 4D       		.byte	0x4d
 4738 0975 F6080000 		.4byte	0x8f6
 4739 0979 04       		.uleb128 0x4
 4740 097a 8A060000 		.4byte	.LASF140
 4741 097e 0D       		.byte	0xd
 4742 097f 4F       		.byte	0x4f
 4743 0980 06090000 		.4byte	0x906
 4744 0984 04       		.uleb128 0x4
 4745 0985 8A160000 		.4byte	.LASF141
 4746 0989 0D       		.byte	0xd
 4747 098a 50       		.byte	0x50
 4748 098b 06090000 		.4byte	0x906
 4749 098f 04       		.uleb128 0x4
 4750 0990 320A0000 		.4byte	.LASF142
 4751 0994 0D       		.byte	0xd
 4752 0995 51       		.byte	0x51
 4753 0996 F6080000 		.4byte	0x8f6
 4754 099a 04       		.uleb128 0x4
 4755 099b 940E0000 		.4byte	.LASF143
 4756 099f 0D       		.byte	0xd
 4757 09a0 52       		.byte	0x52
 4758 09a1 06090000 		.4byte	0x906
 4759 09a5 04       		.uleb128 0x4
 4760 09a6 58000000 		.4byte	.LASF144
 4761 09aa 0E       		.byte	0xe
 4762 09ab 33       		.byte	0x33
 4763 09ac 06090000 		.4byte	0x906
 4764 09b0 1A       		.uleb128 0x1a
 4765 09b1 A5090000 		.4byte	0x9a5
 4766 09b5 04       		.uleb128 0x4
 4767 09b6 B5140000 		.4byte	.LASF145
 4768 09ba 0E       		.byte	0xe
 4769 09bb 3F       		.byte	0x3f
ARM GAS  C:\Users\stoma\AppData\Local\Temp\ccLygOki.s 			page 85


 4770 09bc C0090000 		.4byte	0x9c0
 4771 09c0 10       		.uleb128 0x10
 4772 09c1 AA0D0000 		.4byte	.LASF146
 4773 09c5 68       		.byte	0x68
 4774 09c6 0F       		.byte	0xf
 4775 09c7 C2       		.byte	0xc2
 4776 09c8 DE0A0000 		.4byte	0xade
 4777 09cc 0D       		.uleb128 0xd
 4778 09cd 6E040000 		.4byte	.LASF147
 4779 09d1 0F       		.byte	0xf
 4780 09d2 C3       		.byte	0xc3
 4781 09d3 E90A0000 		.4byte	0xae9
 4782 09d7 00       		.byte	0
 4783 09d8 0D       		.uleb128 0xd
 4784 09d9 D8040000 		.4byte	.LASF148
 4785 09dd 0F       		.byte	0xf
 4786 09de C5       		.byte	0xc5
 4787 09df E90A0000 		.4byte	0xae9
 4788 09e3 04       		.byte	0x4
 4789 09e4 0D       		.uleb128 0xd
 4790 09e5 7B080000 		.4byte	.LASF149
 4791 09e9 0F       		.byte	0xf
 4792 09ea C7       		.byte	0xc7
 4793 09eb 63090000 		.4byte	0x963
 4794 09ef 08       		.byte	0x8
 4795 09f0 0D       		.uleb128 0xd
 4796 09f1 80000000 		.4byte	.LASF150
 4797 09f5 0F       		.byte	0xf
 4798 09f6 C8       		.byte	0xc8
 4799 09f7 B3100000 		.4byte	0x10b3
 4800 09fb 0C       		.byte	0xc
 4801 09fc 0D       		.uleb128 0xd
 4802 09fd 3C040000 		.4byte	.LASF151
 4803 0a01 0F       		.byte	0xf
 4804 0a02 CA       		.byte	0xca
 4805 0a03 E90A0000 		.4byte	0xae9
 4806 0a07 10       		.byte	0x10
 4807 0a08 0D       		.uleb128 0xd
 4808 0a09 12160000 		.4byte	.LASF152
 4809 0a0d 0F       		.byte	0xf
 4810 0a0e CB       		.byte	0xcb
 4811 0a0f E90A0000 		.4byte	0xae9
 4812 0a13 14       		.byte	0x14
 4813 0a14 0D       		.uleb128 0xd
 4814 0a15 DB1D0000 		.4byte	.LASF153
 4815 0a19 0F       		.byte	0xf
 4816 0a1a D2       		.byte	0xd2
 4817 0a1b D2050000 		.4byte	0x5d2
 4818 0a1f 18       		.byte	0x18
 4819 0a20 0D       		.uleb128 0xd
 4820 0a21 181D0000 		.4byte	.LASF154
 4821 0a25 0F       		.byte	0xf
 4822 0a26 D8       		.byte	0xd8
 4823 0a27 29140000 		.4byte	0x1429
 4824 0a2b 1C       		.byte	0x1c
 4825 0a2c 0D       		.uleb128 0xd
 4826 0a2d 881E0000 		.4byte	.LASF155
ARM GAS  C:\Users\stoma\AppData\Local\Temp\ccLygOki.s 			page 86


 4827 0a31 0F       		.byte	0xf
 4828 0a32 DD       		.byte	0xdd
 4829 0a33 42090000 		.4byte	0x942
 4830 0a37 20       		.byte	0x20
 4831 0a38 0D       		.uleb128 0xd
 4832 0a39 7A030000 		.4byte	.LASF156
 4833 0a3d 0F       		.byte	0xf
 4834 0a3e E1       		.byte	0xe1
 4835 0a3f 37090000 		.4byte	0x937
 4836 0a43 21       		.byte	0x21
 4837 0a44 0D       		.uleb128 0xd
 4838 0a45 CC120000 		.4byte	.LASF157
 4839 0a49 0F       		.byte	0xf
 4840 0a4a E6       		.byte	0xe6
 4841 0a4b 4D090000 		.4byte	0x94d
 4842 0a4f 22       		.byte	0x22
 4843 0a50 0D       		.uleb128 0xd
 4844 0a51 3A060000 		.4byte	.LASF158
 4845 0a55 0F       		.byte	0xf
 4846 0a56 EC       		.byte	0xec
 4847 0a57 58090000 		.4byte	0x958
 4848 0a5b 23       		.byte	0x23
 4849 0a5c 0D       		.uleb128 0xd
 4850 0a5d 21140000 		.4byte	.LASF159
 4851 0a61 0F       		.byte	0xf
 4852 0a62 F3       		.byte	0xf3
 4853 0a63 B0090000 		.4byte	0x9b0
 4854 0a67 24       		.byte	0x24
 4855 0a68 21       		.uleb128 0x21
 4856 0a69 705F7500 		.ascii	"p_u\000"
 4857 0a6d 0F       		.byte	0xf
 4858 0a6e 3101     		.2byte	0x131
 4859 0a70 58130000 		.4byte	0x1358
 4860 0a74 28       		.byte	0x28
 4861 0a75 18       		.uleb128 0x18
 4862 0a76 98110000 		.4byte	.LASF160
 4863 0a7a 0F       		.byte	0xf
 4864 0a7b 3601     		.2byte	0x136
 4865 0a7d EF0A0000 		.4byte	0xaef
 4866 0a81 2C       		.byte	0x2c
 4867 0a82 18       		.uleb128 0x18
 4868 0a83 B1000000 		.4byte	.LASF161
 4869 0a87 0F       		.byte	0xf
 4870 0a88 3C01     		.2byte	0x13c
 4871 0a8a 130B0000 		.4byte	0xb13
 4872 0a8e 30       		.byte	0x30
 4873 0a8f 18       		.uleb128 0x18
 4874 0a90 601E0000 		.4byte	.LASF162
 4875 0a94 0F       		.byte	0xf
 4876 0a95 4001     		.2byte	0x140
 4877 0a97 6E090000 		.4byte	0x96e
 4878 0a9b 38       		.byte	0x38
 4879 0a9c 18       		.uleb128 0x18
 4880 0a9d 980A0000 		.4byte	.LASF163
 4881 0aa1 0F       		.byte	0xf
 4882 0aa2 4601     		.2byte	0x146
 4883 0aa4 79090000 		.4byte	0x979
ARM GAS  C:\Users\stoma\AppData\Local\Temp\ccLygOki.s 			page 87


 4884 0aa8 3C       		.byte	0x3c
 4885 0aa9 18       		.uleb128 0x18
 4886 0aaa 2A050000 		.4byte	.LASF164
 4887 0aae 0F       		.byte	0xf
 4888 0aaf 4D01     		.2byte	0x14d
 4889 0ab1 23140000 		.4byte	0x1423
 4890 0ab5 40       		.byte	0x40
 4891 0ab6 18       		.uleb128 0x18
 4892 0ab7 F3140000 		.4byte	.LASF165
 4893 0abb 0F       		.byte	0xf
 4894 0abc 5101     		.2byte	0x151
 4895 0abe 63090000 		.4byte	0x963
 4896 0ac2 44       		.byte	0x44
 4897 0ac3 18       		.uleb128 0x18
 4898 0ac4 75120000 		.4byte	.LASF166
 4899 0ac8 0F       		.byte	0xf
 4900 0ac9 5801     		.2byte	0x158
 4901 0acb 52010000 		.4byte	0x152
 4902 0acf 48       		.byte	0x48
 4903 0ad0 18       		.uleb128 0x18
 4904 0ad1 17000000 		.4byte	.LASF167
 4905 0ad5 0F       		.byte	0xf
 4906 0ad6 5E01     		.2byte	0x15e
 4907 0ad8 09130000 		.4byte	0x1309
 4908 0adc 50       		.byte	0x50
 4909 0add 00       		.byte	0
 4910 0ade 04       		.uleb128 0x4
 4911 0adf D9130000 		.4byte	.LASF168
 4912 0ae3 0E       		.byte	0xe
 4913 0ae4 44       		.byte	0x44
 4914 0ae5 E90A0000 		.4byte	0xae9
 4915 0ae9 05       		.uleb128 0x5
 4916 0aea 04       		.byte	0x4
 4917 0aeb B5090000 		.4byte	0x9b5
 4918 0aef 04       		.uleb128 0x4
 4919 0af0 4C1B0000 		.4byte	.LASF169
 4920 0af4 0E       		.byte	0xe
 4921 0af5 49       		.byte	0x49
 4922 0af6 FA0A0000 		.4byte	0xafa
 4923 0afa 10       		.uleb128 0x10
 4924 0afb FB0E0000 		.4byte	.LASF170
 4925 0aff 04       		.byte	0x4
 4926 0b00 0F       		.byte	0xf
 4927 0b01 B0       		.byte	0xb0
 4928 0b02 130B0000 		.4byte	0xb13
 4929 0b06 0D       		.uleb128 0xd
 4930 0b07 6E040000 		.4byte	.LASF147
 4931 0b0b 0F       		.byte	0xf
 4932 0b0c B1       		.byte	0xb1
 4933 0b0d E90A0000 		.4byte	0xae9
 4934 0b11 00       		.byte	0
 4935 0b12 00       		.byte	0
 4936 0b13 04       		.uleb128 0x4
 4937 0b14 1A050000 		.4byte	.LASF171
 4938 0b18 0E       		.byte	0xe
 4939 0b19 50       		.byte	0x50
 4940 0b1a 1E0B0000 		.4byte	0xb1e
ARM GAS  C:\Users\stoma\AppData\Local\Temp\ccLygOki.s 			page 88


 4941 0b1e 10       		.uleb128 0x10
 4942 0b1f 5F160000 		.4byte	.LASF172
 4943 0b23 08       		.byte	0x8
 4944 0b24 0F       		.byte	0xf
 4945 0b25 B7       		.byte	0xb7
 4946 0b26 430B0000 		.4byte	0xb43
 4947 0b2a 0D       		.uleb128 0xd
 4948 0b2b 6E040000 		.4byte	.LASF147
 4949 0b2f 0F       		.byte	0xf
 4950 0b30 B8       		.byte	0xb8
 4951 0b31 E90A0000 		.4byte	0xae9
 4952 0b35 00       		.byte	0
 4953 0b36 0D       		.uleb128 0xd
 4954 0b37 D8040000 		.4byte	.LASF148
 4955 0b3b 0F       		.byte	0xf
 4956 0b3c B9       		.byte	0xb9
 4957 0b3d E90A0000 		.4byte	0xae9
 4958 0b41 04       		.byte	0x4
 4959 0b42 00       		.byte	0
 4960 0b43 04       		.uleb128 0x4
 4961 0b44 470E0000 		.4byte	.LASF173
 4962 0b48 0E       		.byte	0xe
 4963 0b49 57       		.byte	0x57
 4964 0b4a 4E0B0000 		.4byte	0xb4e
 4965 0b4e 1B       		.uleb128 0x1b
 4966 0b4f D50A0000 		.4byte	.LASF174
 4967 0b53 1C       		.byte	0x1c
 4968 0b54 0F       		.byte	0xf
 4969 0b55 9001     		.2byte	0x190
 4970 0b57 AA0B0000 		.4byte	0xbaa
 4971 0b5b 18       		.uleb128 0x18
 4972 0b5c FA170000 		.4byte	.LASF175
 4973 0b60 0F       		.byte	0xf
 4974 0b61 9101     		.2byte	0x191
 4975 0b63 130B0000 		.4byte	0xb13
 4976 0b67 00       		.byte	0
 4977 0b68 18       		.uleb128 0x18
 4978 0b69 EF190000 		.4byte	.LASF176
 4979 0b6d 0F       		.byte	0xf
 4980 0b6e 9201     		.2byte	0x192
 4981 0b70 63090000 		.4byte	0x963
 4982 0b74 08       		.byte	0x8
 4983 0b75 18       		.uleb128 0x18
 4984 0b76 C3000000 		.4byte	.LASF177
 4985 0b7a 0F       		.byte	0xf
 4986 0b7b 9401     		.2byte	0x194
 4987 0b7d B3100000 		.4byte	0x10b3
 4988 0b81 0C       		.byte	0xc
 4989 0b82 18       		.uleb128 0x18
 4990 0b83 53070000 		.4byte	.LASF178
 4991 0b87 0F       		.byte	0xf
 4992 0b88 9701     		.2byte	0x197
 4993 0b8a E90A0000 		.4byte	0xae9
 4994 0b8e 10       		.byte	0x10
 4995 0b8f 18       		.uleb128 0x18
 4996 0b90 DB180000 		.4byte	.LASF179
 4997 0b94 0F       		.byte	0xf
ARM GAS  C:\Users\stoma\AppData\Local\Temp\ccLygOki.s 			page 89


 4998 0b95 9801     		.2byte	0x198
 4999 0b97 E90A0000 		.4byte	0xae9
 5000 0b9b 14       		.byte	0x14
 5001 0b9c 18       		.uleb128 0x18
 5002 0b9d 951D0000 		.4byte	.LASF180
 5003 0ba1 0F       		.byte	0xf
 5004 0ba2 9B01     		.2byte	0x19b
 5005 0ba4 E90A0000 		.4byte	0xae9
 5006 0ba8 18       		.byte	0x18
 5007 0ba9 00       		.byte	0
 5008 0baa 04       		.uleb128 0x4
 5009 0bab 25010000 		.4byte	.LASF181
 5010 0baf 0E       		.byte	0xe
 5011 0bb0 5C       		.byte	0x5c
 5012 0bb1 B50B0000 		.4byte	0xbb5
 5013 0bb5 05       		.uleb128 0x5
 5014 0bb6 04       		.byte	0x4
 5015 0bb7 BB0B0000 		.4byte	0xbbb
 5016 0bbb 1F       		.uleb128 0x1f
 5017 0bbc C60B0000 		.4byte	0xbc6
 5018 0bc0 16       		.uleb128 0x16
 5019 0bc1 52010000 		.4byte	0x152
 5020 0bc5 00       		.byte	0
 5021 0bc6 04       		.uleb128 0x4
 5022 0bc7 370E0000 		.4byte	.LASF182
 5023 0bcb 0E       		.byte	0xe
 5024 0bcc 61       		.byte	0x61
 5025 0bcd D10B0000 		.4byte	0xbd1
 5026 0bd1 1B       		.uleb128 0x1b
 5027 0bd2 65150000 		.4byte	.LASF183
 5028 0bd6 14       		.byte	0x14
 5029 0bd7 0F       		.byte	0xf
 5030 0bd8 6B01     		.2byte	0x16b
 5031 0bda 200C0000 		.4byte	0xc20
 5032 0bde 18       		.uleb128 0x18
 5033 0bdf 4B100000 		.4byte	.LASF184
 5034 0be3 0F       		.byte	0xf
 5035 0be4 6C01     		.2byte	0x16c
 5036 0be6 2F140000 		.4byte	0x142f
 5037 0bea 00       		.byte	0
 5038 0beb 18       		.uleb128 0x18
 5039 0bec 91100000 		.4byte	.LASF185
 5040 0bf0 0F       		.byte	0xf
 5041 0bf1 6D01     		.2byte	0x16d
 5042 0bf3 2F140000 		.4byte	0x142f
 5043 0bf7 04       		.byte	0x4
 5044 0bf8 18       		.uleb128 0x18
 5045 0bf9 3A150000 		.4byte	.LASF186
 5046 0bfd 0F       		.byte	0xf
 5047 0bfe 6E01     		.2byte	0x16e
 5048 0c00 A5090000 		.4byte	0x9a5
 5049 0c04 08       		.byte	0x8
 5050 0c05 18       		.uleb128 0x18
 5051 0c06 4C0A0000 		.4byte	.LASF187
 5052 0c0a 0F       		.byte	0xf
 5053 0c0b 6F01     		.2byte	0x16f
 5054 0c0d AA0B0000 		.4byte	0xbaa
ARM GAS  C:\Users\stoma\AppData\Local\Temp\ccLygOki.s 			page 90


 5055 0c11 0C       		.byte	0xc
 5056 0c12 18       		.uleb128 0x18
 5057 0c13 73030000 		.4byte	.LASF188
 5058 0c17 0F       		.byte	0xf
 5059 0c18 7101     		.2byte	0x171
 5060 0c1a 52010000 		.4byte	0x152
 5061 0c1e 10       		.byte	0x10
 5062 0c1f 00       		.byte	0
 5063 0c20 04       		.uleb128 0x4
 5064 0c21 CD0D0000 		.4byte	.LASF189
 5065 0c25 0E       		.byte	0xe
 5066 0c26 66       		.byte	0x66
 5067 0c27 2B0C0000 		.4byte	0xc2b
 5068 0c2b 1B       		.uleb128 0x1b
 5069 0c2c 3E010000 		.4byte	.LASF190
 5070 0c30 10       		.byte	0x10
 5071 0c31 0F       		.byte	0xf
 5072 0c32 7B01     		.2byte	0x17b
 5073 0c34 6D0C0000 		.4byte	0xc6d
 5074 0c38 18       		.uleb128 0x18
 5075 0c39 4B100000 		.4byte	.LASF184
 5076 0c3d 0F       		.byte	0xf
 5077 0c3e 7C01     		.2byte	0x17c
 5078 0c40 2F140000 		.4byte	0x142f
 5079 0c44 00       		.byte	0
 5080 0c45 18       		.uleb128 0x18
 5081 0c46 91100000 		.4byte	.LASF185
 5082 0c4a 0F       		.byte	0xf
 5083 0c4b 7E01     		.2byte	0x17e
 5084 0c4d 2F140000 		.4byte	0x142f
 5085 0c51 04       		.byte	0x4
 5086 0c52 18       		.uleb128 0x18
 5087 0c53 3A150000 		.4byte	.LASF186
 5088 0c57 0F       		.byte	0xf
 5089 0c58 8001     		.2byte	0x180
 5090 0c5a A5090000 		.4byte	0x9a5
 5091 0c5e 08       		.byte	0x8
 5092 0c5f 18       		.uleb128 0x18
 5093 0c60 AD180000 		.4byte	.LASF191
 5094 0c64 0F       		.byte	0xf
 5095 0c65 8201     		.2byte	0x182
 5096 0c67 B0090000 		.4byte	0x9b0
 5097 0c6b 0C       		.byte	0xc
 5098 0c6c 00       		.byte	0
 5099 0c6d 04       		.uleb128 0x4
 5100 0c6e 77070000 		.4byte	.LASF192
 5101 0c72 0E       		.byte	0xe
 5102 0c73 6B       		.byte	0x6b
 5103 0c74 780C0000 		.4byte	0xc78
 5104 0c78 17       		.uleb128 0x17
 5105 0c79 081A0000 		.4byte	.LASF193
 5106 0c7d 1404     		.2byte	0x414
 5107 0c7f 0F       		.byte	0xf
 5108 0c80 A201     		.2byte	0x1a2
 5109 0c82 BB0C0000 		.4byte	0xcbb
 5110 0c86 18       		.uleb128 0x18
 5111 0c87 24070000 		.4byte	.LASF194
ARM GAS  C:\Users\stoma\AppData\Local\Temp\ccLygOki.s 			page 91


 5112 0c8b 0F       		.byte	0xf
 5113 0c8c AA01     		.2byte	0x1aa
 5114 0c8e D8050000 		.4byte	0x5d8
 5115 0c92 00       		.byte	0
 5116 0c93 18       		.uleb128 0x18
 5117 0c94 560B0000 		.4byte	.LASF195
 5118 0c98 0F       		.byte	0xf
 5119 0c99 AF01     		.2byte	0x1af
 5120 0c9b 8F090000 		.4byte	0x98f
 5121 0c9f 04       		.byte	0x4
 5122 0ca0 18       		.uleb128 0x18
 5123 0ca1 76020000 		.4byte	.LASF196
 5124 0ca5 0F       		.byte	0xf
 5125 0ca6 B301     		.2byte	0x1b3
 5126 0ca8 8F090000 		.4byte	0x98f
 5127 0cac 08       		.byte	0x8
 5128 0cad 18       		.uleb128 0x18
 5129 0cae 3F0A0000 		.4byte	.LASF197
 5130 0cb2 0F       		.byte	0xf
 5131 0cb3 B901     		.2byte	0x1b9
 5132 0cb5 9B120000 		.4byte	0x129b
 5133 0cb9 0C       		.byte	0xc
 5134 0cba 00       		.byte	0
 5135 0cbb 04       		.uleb128 0x4
 5136 0cbc B01C0000 		.4byte	.LASF198
 5137 0cc0 0E       		.byte	0xe
 5138 0cc1 70       		.byte	0x70
 5139 0cc2 C60C0000 		.4byte	0xcc6
 5140 0cc6 17       		.uleb128 0x17
 5141 0cc7 851B0000 		.4byte	.LASF199
 5142 0ccb 7006     		.2byte	0x670
 5143 0ccd 0F       		.byte	0xf
 5144 0cce C201     		.2byte	0x1c2
 5145 0cd0 330D0000 		.4byte	0xd33
 5146 0cd4 18       		.uleb128 0x18
 5147 0cd5 5F180000 		.4byte	.LASF200
 5148 0cd9 0F       		.byte	0xf
 5149 0cda C601     		.2byte	0x1c6
 5150 0cdc 430B0000 		.4byte	0xb43
 5151 0ce0 00       		.byte	0
 5152 0ce1 18       		.uleb128 0x18
 5153 0ce2 DB1A0000 		.4byte	.LASF201
 5154 0ce6 0F       		.byte	0xf
 5155 0ce7 CA01     		.2byte	0x1ca
 5156 0ce9 200C0000 		.4byte	0xc20
 5157 0ced 1C       		.byte	0x1c
 5158 0cee 21       		.uleb128 0x21
 5159 0cef 64626700 		.ascii	"dbg\000"
 5160 0cf3 0F       		.byte	0xf
 5161 0cf4 CE01     		.2byte	0x1ce
 5162 0cf6 6D0C0000 		.4byte	0xc6d
 5163 0cfa 2C       		.byte	0x2c
 5164 0cfb 19       		.uleb128 0x19
 5165 0cfc 7D170000 		.4byte	.LASF202
 5166 0d00 0F       		.byte	0xf
 5167 0d01 D201     		.2byte	0x1d2
 5168 0d03 B5090000 		.4byte	0x9b5
ARM GAS  C:\Users\stoma\AppData\Local\Temp\ccLygOki.s 			page 92


 5169 0d07 4004     		.2byte	0x440
 5170 0d09 22       		.uleb128 0x22
 5171 0d0a 746D00   		.ascii	"tm\000"
 5172 0d0d 0F       		.byte	0xf
 5173 0d0e D701     		.2byte	0x1d7
 5174 0d10 BB120000 		.4byte	0x12bb
 5175 0d14 A804     		.2byte	0x4a8
 5176 0d16 19       		.uleb128 0x19
 5177 0d17 92150000 		.4byte	.LASF203
 5178 0d1b 0F       		.byte	0xf
 5179 0d1c DD01     		.2byte	0x1dd
 5180 0d1e 4D130000 		.4byte	0x134d
 5181 0d22 B004     		.2byte	0x4b0
 5182 0d24 19       		.uleb128 0x19
 5183 0d25 04120000 		.4byte	.LASF204
 5184 0d29 0F       		.byte	0xf
 5185 0d2a E301     		.2byte	0x1e3
 5186 0d2c 35140000 		.4byte	0x1435
 5187 0d30 E804     		.2byte	0x4e8
 5188 0d32 00       		.byte	0
 5189 0d33 0A       		.uleb128 0xa
 5190 0d34 06090000 		.4byte	0x906
 5191 0d38 430D0000 		.4byte	0xd43
 5192 0d3c 0B       		.uleb128 0xb
 5193 0d3d 25000000 		.4byte	0x25
 5194 0d41 01       		.byte	0x1
 5195 0d42 00       		.byte	0
 5196 0d43 20       		.uleb128 0x20
 5197 0d44 45110000 		.4byte	.LASF205
 5198 0d48 10       		.byte	0x10
 5199 0d49 A706     		.2byte	0x6a7
 5200 0d4b 01090000 		.4byte	0x901
 5201 0d4f 23       		.uleb128 0x23
 5202 0d50 7A0D0000 		.4byte	.LASF206
 5203 0d54 11       		.byte	0x11
 5204 0d55 4C       		.byte	0x4c
 5205 0d56 06090000 		.4byte	0x906
 5206 0d5a 1C       		.uleb128 0x1c
 5207 0d5b 18       		.byte	0x18
 5208 0d5c 12       		.byte	0x12
 5209 0d5d 6B01     		.2byte	0x16b
 5210 0d5f B10D0000 		.4byte	0xdb1
 5211 0d63 21       		.uleb128 0x21
 5212 0d64 435200   		.ascii	"CR\000"
 5213 0d67 12       		.byte	0x12
 5214 0d68 6D01     		.2byte	0x16d
 5215 0d6a 11090000 		.4byte	0x911
 5216 0d6e 00       		.byte	0
 5217 0d6f 18       		.uleb128 0x18
 5218 0d70 661D0000 		.4byte	.LASF207
 5219 0d74 12       		.byte	0x12
 5220 0d75 6E01     		.2byte	0x16e
 5221 0d77 11090000 		.4byte	0x911
 5222 0d7b 04       		.byte	0x4
 5223 0d7c 21       		.uleb128 0x21
 5224 0d7d 50415200 		.ascii	"PAR\000"
 5225 0d81 12       		.byte	0x12
ARM GAS  C:\Users\stoma\AppData\Local\Temp\ccLygOki.s 			page 93


 5226 0d82 6F01     		.2byte	0x16f
 5227 0d84 11090000 		.4byte	0x911
 5228 0d88 08       		.byte	0x8
 5229 0d89 18       		.uleb128 0x18
 5230 0d8a 04190000 		.4byte	.LASF208
 5231 0d8e 12       		.byte	0x12
 5232 0d8f 7001     		.2byte	0x170
 5233 0d91 11090000 		.4byte	0x911
 5234 0d95 0C       		.byte	0xc
 5235 0d96 18       		.uleb128 0x18
 5236 0d97 00000000 		.4byte	.LASF209
 5237 0d9b 12       		.byte	0x12
 5238 0d9c 7101     		.2byte	0x171
 5239 0d9e 11090000 		.4byte	0x911
 5240 0da2 10       		.byte	0x10
 5241 0da3 21       		.uleb128 0x21
 5242 0da4 46435200 		.ascii	"FCR\000"
 5243 0da8 12       		.byte	0x12
 5244 0da9 7201     		.2byte	0x172
 5245 0dab 11090000 		.4byte	0x911
 5246 0daf 14       		.byte	0x14
 5247 0db0 00       		.byte	0
 5248 0db1 07       		.uleb128 0x7
 5249 0db2 0E140000 		.4byte	.LASF210
 5250 0db6 12       		.byte	0x12
 5251 0db7 7301     		.2byte	0x173
 5252 0db9 5A0D0000 		.4byte	0xd5a
 5253 0dbd 0A       		.uleb128 0xa
 5254 0dbe 11090000 		.4byte	0x911
 5255 0dc2 CD0D0000 		.4byte	0xdcd
 5256 0dc6 0B       		.uleb128 0xb
 5257 0dc7 25000000 		.4byte	0x25
 5258 0dcb 01       		.byte	0x1
 5259 0dcc 00       		.byte	0
 5260 0dcd 1A       		.uleb128 0x1a
 5261 0dce BD0D0000 		.4byte	0xdbd
 5262 0dd2 0A       		.uleb128 0xa
 5263 0dd3 11090000 		.4byte	0x911
 5264 0dd7 E20D0000 		.4byte	0xde2
 5265 0ddb 0B       		.uleb128 0xb
 5266 0ddc 25000000 		.4byte	0x25
 5267 0de0 03       		.byte	0x3
 5268 0de1 00       		.byte	0
 5269 0de2 1A       		.uleb128 0x1a
 5270 0de3 D20D0000 		.4byte	0xdd2
 5271 0de7 1C       		.uleb128 0x1c
 5272 0de8 28       		.byte	0x28
 5273 0de9 12       		.byte	0x12
 5274 0dea 3F02     		.2byte	0x23f
 5275 0dec 720E0000 		.4byte	0xe72
 5276 0df0 21       		.uleb128 0x21
 5277 0df1 43523100 		.ascii	"CR1\000"
 5278 0df5 12       		.byte	0x12
 5279 0df6 4102     		.2byte	0x241
 5280 0df8 11090000 		.4byte	0x911
 5281 0dfc 00       		.byte	0
 5282 0dfd 21       		.uleb128 0x21
ARM GAS  C:\Users\stoma\AppData\Local\Temp\ccLygOki.s 			page 94


 5283 0dfe 43523200 		.ascii	"CR2\000"
 5284 0e02 12       		.byte	0x12
 5285 0e03 4202     		.2byte	0x242
 5286 0e05 11090000 		.4byte	0x911
 5287 0e09 04       		.byte	0x4
 5288 0e0a 18       		.uleb128 0x18
 5289 0e0b 6D180000 		.4byte	.LASF211
 5290 0e0f 12       		.byte	0x12
 5291 0e10 4302     		.2byte	0x243
 5292 0e12 11090000 		.4byte	0x911
 5293 0e16 08       		.byte	0x8
 5294 0e17 18       		.uleb128 0x18
 5295 0e18 72180000 		.4byte	.LASF212
 5296 0e1c 12       		.byte	0x12
 5297 0e1d 4402     		.2byte	0x244
 5298 0e1f 11090000 		.4byte	0x911
 5299 0e23 0C       		.byte	0xc
 5300 0e24 21       		.uleb128 0x21
 5301 0e25 445200   		.ascii	"DR\000"
 5302 0e28 12       		.byte	0x12
 5303 0e29 4502     		.2byte	0x245
 5304 0e2b 11090000 		.4byte	0x911
 5305 0e2f 10       		.byte	0x10
 5306 0e30 21       		.uleb128 0x21
 5307 0e31 53523100 		.ascii	"SR1\000"
 5308 0e35 12       		.byte	0x12
 5309 0e36 4602     		.2byte	0x246
 5310 0e38 11090000 		.4byte	0x911
 5311 0e3c 14       		.byte	0x14
 5312 0e3d 21       		.uleb128 0x21
 5313 0e3e 53523200 		.ascii	"SR2\000"
 5314 0e42 12       		.byte	0x12
 5315 0e43 4702     		.2byte	0x247
 5316 0e45 11090000 		.4byte	0x911
 5317 0e49 18       		.byte	0x18
 5318 0e4a 21       		.uleb128 0x21
 5319 0e4b 43435200 		.ascii	"CCR\000"
 5320 0e4f 12       		.byte	0x12
 5321 0e50 4802     		.2byte	0x248
 5322 0e52 11090000 		.4byte	0x911
 5323 0e56 1C       		.byte	0x1c
 5324 0e57 18       		.uleb128 0x18
 5325 0e58 130E0000 		.4byte	.LASF213
 5326 0e5c 12       		.byte	0x12
 5327 0e5d 4902     		.2byte	0x249
 5328 0e5f 11090000 		.4byte	0x911
 5329 0e63 20       		.byte	0x20
 5330 0e64 18       		.uleb128 0x18
 5331 0e65 05110000 		.4byte	.LASF214
 5332 0e69 12       		.byte	0x12
 5333 0e6a 4A02     		.2byte	0x24a
 5334 0e6c 11090000 		.4byte	0x911
 5335 0e70 24       		.byte	0x24
 5336 0e71 00       		.byte	0
 5337 0e72 07       		.uleb128 0x7
 5338 0e73 4B170000 		.4byte	.LASF215
 5339 0e77 12       		.byte	0x12
ARM GAS  C:\Users\stoma\AppData\Local\Temp\ccLygOki.s 			page 95


 5340 0e78 4B02     		.2byte	0x24b
 5341 0e7a E70D0000 		.4byte	0xde7
 5342 0e7e 1C       		.uleb128 0x1c
 5343 0e7f 88       		.byte	0x88
 5344 0e80 12       		.byte	0x12
 5345 0e81 6702     		.2byte	0x267
 5346 0e83 0D100000 		.4byte	0x100d
 5347 0e87 21       		.uleb128 0x21
 5348 0e88 435200   		.ascii	"CR\000"
 5349 0e8b 12       		.byte	0x12
 5350 0e8c 6902     		.2byte	0x269
 5351 0e8e 11090000 		.4byte	0x911
 5352 0e92 00       		.byte	0
 5353 0e93 18       		.uleb128 0x18
 5354 0e94 80100000 		.4byte	.LASF216
 5355 0e98 12       		.byte	0x12
 5356 0e99 6A02     		.2byte	0x26a
 5357 0e9b 11090000 		.4byte	0x911
 5358 0e9f 04       		.byte	0x4
 5359 0ea0 18       		.uleb128 0x18
 5360 0ea1 0A0B0000 		.4byte	.LASF217
 5361 0ea5 12       		.byte	0x12
 5362 0ea6 6B02     		.2byte	0x26b
 5363 0ea8 11090000 		.4byte	0x911
 5364 0eac 08       		.byte	0x8
 5365 0ead 21       		.uleb128 0x21
 5366 0eae 43495200 		.ascii	"CIR\000"
 5367 0eb2 12       		.byte	0x12
 5368 0eb3 6C02     		.2byte	0x26c
 5369 0eb5 11090000 		.4byte	0x911
 5370 0eb9 0C       		.byte	0xc
 5371 0eba 18       		.uleb128 0x18
 5372 0ebb 62080000 		.4byte	.LASF218
 5373 0ebf 12       		.byte	0x12
 5374 0ec0 6D02     		.2byte	0x26d
 5375 0ec2 11090000 		.4byte	0x911
 5376 0ec6 10       		.byte	0x10
 5377 0ec7 18       		.uleb128 0x18
 5378 0ec8 F4180000 		.4byte	.LASF219
 5379 0ecc 12       		.byte	0x12
 5380 0ecd 6E02     		.2byte	0x26e
 5381 0ecf 11090000 		.4byte	0x911
 5382 0ed3 14       		.byte	0x14
 5383 0ed4 18       		.uleb128 0x18
 5384 0ed5 AC140000 		.4byte	.LASF220
 5385 0ed9 12       		.byte	0x12
 5386 0eda 6F02     		.2byte	0x26f
 5387 0edc 11090000 		.4byte	0x911
 5388 0ee0 18       		.byte	0x18
 5389 0ee1 18       		.uleb128 0x18
 5390 0ee2 D3060000 		.4byte	.LASF221
 5391 0ee6 12       		.byte	0x12
 5392 0ee7 7002     		.2byte	0x270
 5393 0ee9 06090000 		.4byte	0x906
 5394 0eed 1C       		.byte	0x1c
 5395 0eee 18       		.uleb128 0x18
 5396 0eef 5C150000 		.4byte	.LASF222
ARM GAS  C:\Users\stoma\AppData\Local\Temp\ccLygOki.s 			page 96


 5397 0ef3 12       		.byte	0x12
 5398 0ef4 7102     		.2byte	0x271
 5399 0ef6 11090000 		.4byte	0x911
 5400 0efa 20       		.byte	0x20
 5401 0efb 18       		.uleb128 0x18
 5402 0efc B9100000 		.4byte	.LASF223
 5403 0f00 12       		.byte	0x12
 5404 0f01 7202     		.2byte	0x272
 5405 0f03 11090000 		.4byte	0x911
 5406 0f07 24       		.byte	0x24
 5407 0f08 18       		.uleb128 0x18
 5408 0f09 DD060000 		.4byte	.LASF224
 5409 0f0d 12       		.byte	0x12
 5410 0f0e 7302     		.2byte	0x273
 5411 0f10 330D0000 		.4byte	0xd33
 5412 0f14 28       		.byte	0x28
 5413 0f15 18       		.uleb128 0x18
 5414 0f16 81180000 		.4byte	.LASF225
 5415 0f1a 12       		.byte	0x12
 5416 0f1b 7402     		.2byte	0x274
 5417 0f1d 11090000 		.4byte	0x911
 5418 0f21 30       		.byte	0x30
 5419 0f22 18       		.uleb128 0x18
 5420 0f23 97080000 		.4byte	.LASF226
 5421 0f27 12       		.byte	0x12
 5422 0f28 7502     		.2byte	0x275
 5423 0f2a 11090000 		.4byte	0x911
 5424 0f2e 34       		.byte	0x34
 5425 0f2f 18       		.uleb128 0x18
 5426 0f30 C1180000 		.4byte	.LASF227
 5427 0f34 12       		.byte	0x12
 5428 0f35 7602     		.2byte	0x276
 5429 0f37 11090000 		.4byte	0x911
 5430 0f3b 38       		.byte	0x38
 5431 0f3c 18       		.uleb128 0x18
 5432 0f3d F3070000 		.4byte	.LASF228
 5433 0f41 12       		.byte	0x12
 5434 0f42 7702     		.2byte	0x277
 5435 0f44 06090000 		.4byte	0x906
 5436 0f48 3C       		.byte	0x3c
 5437 0f49 18       		.uleb128 0x18
 5438 0f4a 76150000 		.4byte	.LASF229
 5439 0f4e 12       		.byte	0x12
 5440 0f4f 7802     		.2byte	0x278
 5441 0f51 11090000 		.4byte	0x911
 5442 0f55 40       		.byte	0x40
 5443 0f56 18       		.uleb128 0x18
 5444 0f57 A6050000 		.4byte	.LASF230
 5445 0f5b 12       		.byte	0x12
 5446 0f5c 7902     		.2byte	0x279
 5447 0f5e 11090000 		.4byte	0x911
 5448 0f62 44       		.byte	0x44
 5449 0f63 18       		.uleb128 0x18
 5450 0f64 F5060000 		.4byte	.LASF231
 5451 0f68 12       		.byte	0x12
 5452 0f69 7A02     		.2byte	0x27a
 5453 0f6b 330D0000 		.4byte	0xd33
ARM GAS  C:\Users\stoma\AppData\Local\Temp\ccLygOki.s 			page 97


 5454 0f6f 48       		.byte	0x48
 5455 0f70 18       		.uleb128 0x18
 5456 0f71 D2050000 		.4byte	.LASF232
 5457 0f75 12       		.byte	0x12
 5458 0f76 7B02     		.2byte	0x27b
 5459 0f78 11090000 		.4byte	0x911
 5460 0f7c 50       		.byte	0x50
 5461 0f7d 18       		.uleb128 0x18
 5462 0f7e C6030000 		.4byte	.LASF233
 5463 0f82 12       		.byte	0x12
 5464 0f83 7C02     		.2byte	0x27c
 5465 0f85 11090000 		.4byte	0x911
 5466 0f89 54       		.byte	0x54
 5467 0f8a 18       		.uleb128 0x18
 5468 0f8b AE170000 		.4byte	.LASF234
 5469 0f8f 12       		.byte	0x12
 5470 0f90 7D02     		.2byte	0x27d
 5471 0f92 11090000 		.4byte	0x911
 5472 0f96 58       		.byte	0x58
 5473 0f97 18       		.uleb128 0x18
 5474 0f98 FF060000 		.4byte	.LASF235
 5475 0f9c 12       		.byte	0x12
 5476 0f9d 7E02     		.2byte	0x27e
 5477 0f9f 06090000 		.4byte	0x906
 5478 0fa3 5C       		.byte	0x5c
 5479 0fa4 18       		.uleb128 0x18
 5480 0fa5 C6130000 		.4byte	.LASF236
 5481 0fa9 12       		.byte	0x12
 5482 0faa 7F02     		.2byte	0x27f
 5483 0fac 11090000 		.4byte	0x911
 5484 0fb0 60       		.byte	0x60
 5485 0fb1 18       		.uleb128 0x18
 5486 0fb2 73110000 		.4byte	.LASF237
 5487 0fb6 12       		.byte	0x12
 5488 0fb7 8002     		.2byte	0x280
 5489 0fb9 11090000 		.4byte	0x911
 5490 0fbd 64       		.byte	0x64
 5491 0fbe 18       		.uleb128 0x18
 5492 0fbf 09070000 		.4byte	.LASF238
 5493 0fc3 12       		.byte	0x12
 5494 0fc4 8102     		.2byte	0x281
 5495 0fc6 330D0000 		.4byte	0xd33
 5496 0fca 68       		.byte	0x68
 5497 0fcb 18       		.uleb128 0x18
 5498 0fcc F4090000 		.4byte	.LASF239
 5499 0fd0 12       		.byte	0x12
 5500 0fd1 8202     		.2byte	0x282
 5501 0fd3 11090000 		.4byte	0x911
 5502 0fd7 70       		.byte	0x70
 5503 0fd8 21       		.uleb128 0x21
 5504 0fd9 43535200 		.ascii	"CSR\000"
 5505 0fdd 12       		.byte	0x12
 5506 0fde 8302     		.2byte	0x283
 5507 0fe0 11090000 		.4byte	0x911
 5508 0fe4 74       		.byte	0x74
 5509 0fe5 18       		.uleb128 0x18
 5510 0fe6 13070000 		.4byte	.LASF240
ARM GAS  C:\Users\stoma\AppData\Local\Temp\ccLygOki.s 			page 98


 5511 0fea 12       		.byte	0x12
 5512 0feb 8402     		.2byte	0x284
 5513 0fed 330D0000 		.4byte	0xd33
 5514 0ff1 78       		.byte	0x78
 5515 0ff2 18       		.uleb128 0x18
 5516 0ff3 45100000 		.4byte	.LASF241
 5517 0ff7 12       		.byte	0x12
 5518 0ff8 8502     		.2byte	0x285
 5519 0ffa 11090000 		.4byte	0x911
 5520 0ffe 80       		.byte	0x80
 5521 0fff 18       		.uleb128 0x18
 5522 1000 67000000 		.4byte	.LASF242
 5523 1004 12       		.byte	0x12
 5524 1005 8602     		.2byte	0x286
 5525 1007 11090000 		.4byte	0x911
 5526 100b 84       		.byte	0x84
 5527 100c 00       		.byte	0
 5528 100d 07       		.uleb128 0x7
 5529 100e 31190000 		.4byte	.LASF243
 5530 1012 12       		.byte	0x12
 5531 1013 8802     		.2byte	0x288
 5532 1015 7E0E0000 		.4byte	0xe7e
 5533 1019 1C       		.uleb128 0x1c
 5534 101a 1C       		.byte	0x1c
 5535 101b 12       		.byte	0x12
 5536 101c 0903     		.2byte	0x309
 5537 101e 7C100000 		.4byte	0x107c
 5538 1022 21       		.uleb128 0x21
 5539 1023 535200   		.ascii	"SR\000"
 5540 1026 12       		.byte	0x12
 5541 1027 0B03     		.2byte	0x30b
 5542 1029 11090000 		.4byte	0x911
 5543 102d 00       		.byte	0
 5544 102e 21       		.uleb128 0x21
 5545 102f 445200   		.ascii	"DR\000"
 5546 1032 12       		.byte	0x12
 5547 1033 0C03     		.2byte	0x30c
 5548 1035 11090000 		.4byte	0x911
 5549 1039 04       		.byte	0x4
 5550 103a 21       		.uleb128 0x21
 5551 103b 42525200 		.ascii	"BRR\000"
 5552 103f 12       		.byte	0x12
 5553 1040 0D03     		.2byte	0x30d
 5554 1042 11090000 		.4byte	0x911
 5555 1046 08       		.byte	0x8
 5556 1047 21       		.uleb128 0x21
 5557 1048 43523100 		.ascii	"CR1\000"
 5558 104c 12       		.byte	0x12
 5559 104d 0E03     		.2byte	0x30e
 5560 104f 11090000 		.4byte	0x911
 5561 1053 0C       		.byte	0xc
 5562 1054 21       		.uleb128 0x21
 5563 1055 43523200 		.ascii	"CR2\000"
 5564 1059 12       		.byte	0x12
 5565 105a 0F03     		.2byte	0x30f
 5566 105c 11090000 		.4byte	0x911
 5567 1060 10       		.byte	0x10
ARM GAS  C:\Users\stoma\AppData\Local\Temp\ccLygOki.s 			page 99


 5568 1061 21       		.uleb128 0x21
 5569 1062 43523300 		.ascii	"CR3\000"
 5570 1066 12       		.byte	0x12
 5571 1067 1003     		.2byte	0x310
 5572 1069 11090000 		.4byte	0x911
 5573 106d 14       		.byte	0x14
 5574 106e 18       		.uleb128 0x18
 5575 106f 99100000 		.4byte	.LASF244
 5576 1073 12       		.byte	0x12
 5577 1074 1103     		.2byte	0x311
 5578 1076 11090000 		.4byte	0x911
 5579 107a 18       		.byte	0x18
 5580 107b 00       		.byte	0
 5581 107c 07       		.uleb128 0x7
 5582 107d FD080000 		.4byte	.LASF245
 5583 1081 12       		.byte	0x12
 5584 1082 1203     		.2byte	0x312
 5585 1084 19100000 		.4byte	0x1019
 5586 1088 0A       		.uleb128 0xa
 5587 1089 11090000 		.4byte	0x911
 5588 108d 98100000 		.4byte	0x1098
 5589 1091 0B       		.uleb128 0xb
 5590 1092 25000000 		.4byte	0x25
 5591 1096 0E       		.byte	0xe
 5592 1097 00       		.byte	0
 5593 1098 1A       		.uleb128 0x1a
 5594 1099 88100000 		.4byte	0x1088
 5595 109d 04       		.uleb128 0x4
 5596 109e 41050000 		.4byte	.LASF246
 5597 10a2 13       		.byte	0x13
 5598 10a3 65       		.byte	0x65
 5599 10a4 52010000 		.4byte	0x152
 5600 10a8 04       		.uleb128 0x4
 5601 10a9 F2080000 		.4byte	.LASF247
 5602 10ad 13       		.byte	0x13
 5603 10ae 6D       		.byte	0x6d
 5604 10af 16090000 		.4byte	0x916
 5605 10b3 10       		.uleb128 0x10
 5606 10b4 96060000 		.4byte	.LASF248
 5607 10b8 04       		.byte	0x4
 5608 10b9 13       		.byte	0x13
 5609 10ba 89       		.byte	0x89
 5610 10bb CC100000 		.4byte	0x10cc
 5611 10bf 11       		.uleb128 0x11
 5612 10c0 72313300 		.ascii	"r13\000"
 5613 10c4 13       		.byte	0x13
 5614 10c5 8A       		.byte	0x8a
 5615 10c6 0D120000 		.4byte	0x120d
 5616 10ca 00       		.byte	0
 5617 10cb 00       		.byte	0
 5618 10cc 10       		.uleb128 0x10
 5619 10cd 18150000 		.4byte	.LASF249
 5620 10d1 64       		.byte	0x64
 5621 10d2 14       		.byte	0x14
 5622 10d3 F4       		.byte	0xf4
 5623 10d4 0D120000 		.4byte	0x120d
 5624 10d8 11       		.uleb128 0x11
ARM GAS  C:\Users\stoma\AppData\Local\Temp\ccLygOki.s 			page 100


 5625 10d9 73313600 		.ascii	"s16\000"
 5626 10dd 14       		.byte	0x14
 5627 10de F6       		.byte	0xf6
 5628 10df 9D100000 		.4byte	0x109d
 5629 10e3 00       		.byte	0
 5630 10e4 11       		.uleb128 0x11
 5631 10e5 73313700 		.ascii	"s17\000"
 5632 10e9 14       		.byte	0x14
 5633 10ea F7       		.byte	0xf7
 5634 10eb 9D100000 		.4byte	0x109d
 5635 10ef 04       		.byte	0x4
 5636 10f0 11       		.uleb128 0x11
 5637 10f1 73313800 		.ascii	"s18\000"
 5638 10f5 14       		.byte	0x14
 5639 10f6 F8       		.byte	0xf8
 5640 10f7 9D100000 		.4byte	0x109d
 5641 10fb 08       		.byte	0x8
 5642 10fc 11       		.uleb128 0x11
 5643 10fd 73313900 		.ascii	"s19\000"
 5644 1101 14       		.byte	0x14
 5645 1102 F9       		.byte	0xf9
 5646 1103 9D100000 		.4byte	0x109d
 5647 1107 0C       		.byte	0xc
 5648 1108 11       		.uleb128 0x11
 5649 1109 73323000 		.ascii	"s20\000"
 5650 110d 14       		.byte	0x14
 5651 110e FA       		.byte	0xfa
 5652 110f 9D100000 		.4byte	0x109d
 5653 1113 10       		.byte	0x10
 5654 1114 11       		.uleb128 0x11
 5655 1115 73323100 		.ascii	"s21\000"
 5656 1119 14       		.byte	0x14
 5657 111a FB       		.byte	0xfb
 5658 111b 9D100000 		.4byte	0x109d
 5659 111f 14       		.byte	0x14
 5660 1120 11       		.uleb128 0x11
 5661 1121 73323200 		.ascii	"s22\000"
 5662 1125 14       		.byte	0x14
 5663 1126 FC       		.byte	0xfc
 5664 1127 9D100000 		.4byte	0x109d
 5665 112b 18       		.byte	0x18
 5666 112c 11       		.uleb128 0x11
 5667 112d 73323300 		.ascii	"s23\000"
 5668 1131 14       		.byte	0x14
 5669 1132 FD       		.byte	0xfd
 5670 1133 9D100000 		.4byte	0x109d
 5671 1137 1C       		.byte	0x1c
 5672 1138 11       		.uleb128 0x11
 5673 1139 73323400 		.ascii	"s24\000"
 5674 113d 14       		.byte	0x14
 5675 113e FE       		.byte	0xfe
 5676 113f 9D100000 		.4byte	0x109d
 5677 1143 20       		.byte	0x20
 5678 1144 11       		.uleb128 0x11
 5679 1145 73323500 		.ascii	"s25\000"
 5680 1149 14       		.byte	0x14
 5681 114a FF       		.byte	0xff
ARM GAS  C:\Users\stoma\AppData\Local\Temp\ccLygOki.s 			page 101


 5682 114b 9D100000 		.4byte	0x109d
 5683 114f 24       		.byte	0x24
 5684 1150 21       		.uleb128 0x21
 5685 1151 73323600 		.ascii	"s26\000"
 5686 1155 14       		.byte	0x14
 5687 1156 0001     		.2byte	0x100
 5688 1158 9D100000 		.4byte	0x109d
 5689 115c 28       		.byte	0x28
 5690 115d 21       		.uleb128 0x21
 5691 115e 73323700 		.ascii	"s27\000"
 5692 1162 14       		.byte	0x14
 5693 1163 0101     		.2byte	0x101
 5694 1165 9D100000 		.4byte	0x109d
 5695 1169 2C       		.byte	0x2c
 5696 116a 21       		.uleb128 0x21
 5697 116b 73323800 		.ascii	"s28\000"
 5698 116f 14       		.byte	0x14
 5699 1170 0201     		.2byte	0x102
 5700 1172 9D100000 		.4byte	0x109d
 5701 1176 30       		.byte	0x30
 5702 1177 21       		.uleb128 0x21
 5703 1178 73323900 		.ascii	"s29\000"
 5704 117c 14       		.byte	0x14
 5705 117d 0301     		.2byte	0x103
 5706 117f 9D100000 		.4byte	0x109d
 5707 1183 34       		.byte	0x34
 5708 1184 21       		.uleb128 0x21
 5709 1185 73333000 		.ascii	"s30\000"
 5710 1189 14       		.byte	0x14
 5711 118a 0401     		.2byte	0x104
 5712 118c 9D100000 		.4byte	0x109d
 5713 1190 38       		.byte	0x38
 5714 1191 21       		.uleb128 0x21
 5715 1192 73333100 		.ascii	"s31\000"
 5716 1196 14       		.byte	0x14
 5717 1197 0501     		.2byte	0x105
 5718 1199 9D100000 		.4byte	0x109d
 5719 119d 3C       		.byte	0x3c
 5720 119e 21       		.uleb128 0x21
 5721 119f 723400   		.ascii	"r4\000"
 5722 11a2 14       		.byte	0x14
 5723 11a3 0701     		.2byte	0x107
 5724 11a5 9D100000 		.4byte	0x109d
 5725 11a9 40       		.byte	0x40
 5726 11aa 21       		.uleb128 0x21
 5727 11ab 723500   		.ascii	"r5\000"
 5728 11ae 14       		.byte	0x14
 5729 11af 0801     		.2byte	0x108
 5730 11b1 9D100000 		.4byte	0x109d
 5731 11b5 44       		.byte	0x44
 5732 11b6 21       		.uleb128 0x21
 5733 11b7 723600   		.ascii	"r6\000"
 5734 11ba 14       		.byte	0x14
 5735 11bb 0901     		.2byte	0x109
 5736 11bd 9D100000 		.4byte	0x109d
 5737 11c1 48       		.byte	0x48
 5738 11c2 21       		.uleb128 0x21
ARM GAS  C:\Users\stoma\AppData\Local\Temp\ccLygOki.s 			page 102


 5739 11c3 723700   		.ascii	"r7\000"
 5740 11c6 14       		.byte	0x14
 5741 11c7 0A01     		.2byte	0x10a
 5742 11c9 9D100000 		.4byte	0x109d
 5743 11cd 4C       		.byte	0x4c
 5744 11ce 21       		.uleb128 0x21
 5745 11cf 723800   		.ascii	"r8\000"
 5746 11d2 14       		.byte	0x14
 5747 11d3 0B01     		.2byte	0x10b
 5748 11d5 9D100000 		.4byte	0x109d
 5749 11d9 50       		.byte	0x50
 5750 11da 21       		.uleb128 0x21
 5751 11db 723900   		.ascii	"r9\000"
 5752 11de 14       		.byte	0x14
 5753 11df 0C01     		.2byte	0x10c
 5754 11e1 9D100000 		.4byte	0x109d
 5755 11e5 54       		.byte	0x54
 5756 11e6 21       		.uleb128 0x21
 5757 11e7 72313000 		.ascii	"r10\000"
 5758 11eb 14       		.byte	0x14
 5759 11ec 0D01     		.2byte	0x10d
 5760 11ee 9D100000 		.4byte	0x109d
 5761 11f2 58       		.byte	0x58
 5762 11f3 21       		.uleb128 0x21
 5763 11f4 72313100 		.ascii	"r11\000"
 5764 11f8 14       		.byte	0x14
 5765 11f9 0E01     		.2byte	0x10e
 5766 11fb 9D100000 		.4byte	0x109d
 5767 11ff 5C       		.byte	0x5c
 5768 1200 21       		.uleb128 0x21
 5769 1201 6C7200   		.ascii	"lr\000"
 5770 1204 14       		.byte	0x14
 5771 1205 0F01     		.2byte	0x10f
 5772 1207 9D100000 		.4byte	0x109d
 5773 120b 60       		.byte	0x60
 5774 120c 00       		.byte	0
 5775 120d 05       		.uleb128 0x5
 5776 120e 04       		.byte	0x4
 5777 120f CC100000 		.4byte	0x10cc
 5778 1213 0C       		.uleb128 0xc
 5779 1214 10       		.byte	0x10
 5780 1215 15       		.byte	0x15
 5781 1216 51       		.byte	0x51
 5782 1217 4C120000 		.4byte	0x124c
 5783 121b 0D       		.uleb128 0xd
 5784 121c CA1D0000 		.4byte	.LASF250
 5785 1220 15       		.byte	0x15
 5786 1221 55       		.byte	0x55
 5787 1222 A5090000 		.4byte	0x9a5
 5788 1226 00       		.byte	0
 5789 1227 0D       		.uleb128 0xd
 5790 1228 AB020000 		.4byte	.LASF251
 5791 122c 15       		.byte	0x15
 5792 122d 59       		.byte	0x59
 5793 122e E90A0000 		.4byte	0xae9
 5794 1232 04       		.byte	0x4
 5795 1233 0D       		.uleb128 0xd
ARM GAS  C:\Users\stoma\AppData\Local\Temp\ccLygOki.s 			page 103


 5796 1234 B3110000 		.4byte	.LASF252
 5797 1238 15       		.byte	0x15
 5798 1239 5D       		.byte	0x5d
 5799 123a 52010000 		.4byte	0x152
 5800 123e 08       		.byte	0x8
 5801 123f 0D       		.uleb128 0xd
 5802 1240 CC0C0000 		.4byte	.LASF253
 5803 1244 15       		.byte	0x15
 5804 1245 61       		.byte	0x61
 5805 1246 DB080000 		.4byte	0x8db
 5806 124a 0C       		.byte	0xc
 5807 124b 00       		.byte	0
 5808 124c 04       		.uleb128 0x4
 5809 124d 0B0F0000 		.4byte	.LASF254
 5810 1251 15       		.byte	0x15
 5811 1252 62       		.byte	0x62
 5812 1253 13120000 		.4byte	0x1213
 5813 1257 24       		.uleb128 0x24
 5814 1258 0804     		.2byte	0x408
 5815 125a 15       		.byte	0x15
 5816 125b 67       		.byte	0x67
 5817 125c 85120000 		.4byte	0x1285
 5818 1260 0D       		.uleb128 0xd
 5819 1261 C2100000 		.4byte	.LASF255
 5820 1265 15       		.byte	0x15
 5821 1266 6B       		.byte	0x6b
 5822 1267 25000000 		.4byte	0x25
 5823 126b 00       		.byte	0
 5824 126c 0D       		.uleb128 0xd
 5825 126d EE1D0000 		.4byte	.LASF256
 5826 1271 15       		.byte	0x15
 5827 1272 6F       		.byte	0x6f
 5828 1273 85120000 		.4byte	0x1285
 5829 1277 04       		.byte	0x4
 5830 1278 0D       		.uleb128 0xd
 5831 1279 DE0C0000 		.4byte	.LASF257
 5832 127d 15       		.byte	0x15
 5833 127e 73       		.byte	0x73
 5834 127f 8B120000 		.4byte	0x128b
 5835 1283 08       		.byte	0x8
 5836 1284 00       		.byte	0
 5837 1285 05       		.uleb128 0x5
 5838 1286 04       		.byte	0x4
 5839 1287 4C120000 		.4byte	0x124c
 5840 128b 0A       		.uleb128 0xa
 5841 128c 4C120000 		.4byte	0x124c
 5842 1290 9B120000 		.4byte	0x129b
 5843 1294 0B       		.uleb128 0xb
 5844 1295 25000000 		.4byte	0x25
 5845 1299 3F       		.byte	0x3f
 5846 129a 00       		.byte	0
 5847 129b 04       		.uleb128 0x4
 5848 129c 700A0000 		.4byte	.LASF258
 5849 12a0 15       		.byte	0x15
 5850 12a1 74       		.byte	0x74
 5851 12a2 57120000 		.4byte	0x1257
 5852 12a6 0C       		.uleb128 0xc
ARM GAS  C:\Users\stoma\AppData\Local\Temp\ccLygOki.s 			page 104


 5853 12a7 04       		.byte	0x4
 5854 12a8 16       		.byte	0x16
 5855 12a9 38       		.byte	0x38
 5856 12aa BB120000 		.4byte	0x12bb
 5857 12ae 0D       		.uleb128 0xd
 5858 12af BF130000 		.4byte	.LASF259
 5859 12b3 16       		.byte	0x16
 5860 12b4 3C       		.byte	0x3c
 5861 12b5 21090000 		.4byte	0x921
 5862 12b9 00       		.byte	0
 5863 12ba 00       		.byte	0
 5864 12bb 04       		.uleb128 0x4
 5865 12bc E3180000 		.4byte	.LASF260
 5866 12c0 16       		.byte	0x16
 5867 12c1 3D       		.byte	0x3d
 5868 12c2 A6120000 		.4byte	0x12a6
 5869 12c6 0C       		.uleb128 0xc
 5870 12c7 18       		.byte	0x18
 5871 12c8 16       		.byte	0x16
 5872 12c9 48       		.byte	0x48
 5873 12ca 09130000 		.4byte	0x1309
 5874 12ce 0D       		.uleb128 0xd
 5875 12cf E5170000 		.4byte	.LASF261
 5876 12d3 16       		.byte	0x16
 5877 12d4 49       		.byte	0x49
 5878 12d5 21090000 		.4byte	0x921
 5879 12d9 00       		.byte	0
 5880 12da 0D       		.uleb128 0xd
 5881 12db 82090000 		.4byte	.LASF262
 5882 12df 16       		.byte	0x16
 5883 12e0 4A       		.byte	0x4a
 5884 12e1 21090000 		.4byte	0x921
 5885 12e5 04       		.byte	0x4
 5886 12e6 0D       		.uleb128 0xd
 5887 12e7 5B1E0000 		.4byte	.LASF263
 5888 12eb 16       		.byte	0x16
 5889 12ec 4B       		.byte	0x4b
 5890 12ed 21090000 		.4byte	0x921
 5891 12f1 08       		.byte	0x8
 5892 12f2 11       		.uleb128 0x11
 5893 12f3 6E00     		.ascii	"n\000"
 5894 12f5 16       		.byte	0x16
 5895 12f6 4C       		.byte	0x4c
 5896 12f7 9A090000 		.4byte	0x99a
 5897 12fb 0C       		.byte	0xc
 5898 12fc 0D       		.uleb128 0xd
 5899 12fd E5120000 		.4byte	.LASF264
 5900 1301 16       		.byte	0x16
 5901 1302 4D       		.byte	0x4d
 5902 1303 2C090000 		.4byte	0x92c
 5903 1307 10       		.byte	0x10
 5904 1308 00       		.byte	0
 5905 1309 04       		.uleb128 0x4
 5906 130a B1020000 		.4byte	.LASF265
 5907 130e 16       		.byte	0x16
 5908 130f 4E       		.byte	0x4e
 5909 1310 C6120000 		.4byte	0x12c6
ARM GAS  C:\Users\stoma\AppData\Local\Temp\ccLygOki.s 			page 105


 5910 1314 0C       		.uleb128 0xc
 5911 1315 38       		.byte	0x38
 5912 1316 17       		.byte	0x17
 5913 1317 38       		.byte	0x38
 5914 1318 4D130000 		.4byte	0x134d
 5915 131c 0D       		.uleb128 0xd
 5916 131d 290F0000 		.4byte	.LASF266
 5917 1321 17       		.byte	0x17
 5918 1322 39       		.byte	0x39
 5919 1323 9A090000 		.4byte	0x99a
 5920 1327 00       		.byte	0
 5921 1328 0D       		.uleb128 0xd
 5922 1329 C3080000 		.4byte	.LASF267
 5923 132d 17       		.byte	0x17
 5924 132e 3A       		.byte	0x3a
 5925 132f 9A090000 		.4byte	0x99a
 5926 1333 04       		.byte	0x4
 5927 1334 0D       		.uleb128 0xd
 5928 1335 E80C0000 		.4byte	.LASF268
 5929 1339 17       		.byte	0x17
 5930 133a 3B       		.byte	0x3b
 5931 133b 09130000 		.4byte	0x1309
 5932 133f 08       		.byte	0x8
 5933 1340 0D       		.uleb128 0xd
 5934 1341 910C0000 		.4byte	.LASF269
 5935 1345 17       		.byte	0x17
 5936 1346 3D       		.byte	0x3d
 5937 1347 09130000 		.4byte	0x1309
 5938 134b 20       		.byte	0x20
 5939 134c 00       		.byte	0
 5940 134d 04       		.uleb128 0x4
 5941 134e 1D130000 		.4byte	.LASF270
 5942 1352 17       		.byte	0x17
 5943 1353 3F       		.byte	0x3f
 5944 1354 14130000 		.4byte	0x1314
 5945 1358 08       		.uleb128 0x8
 5946 1359 04       		.byte	0x4
 5947 135a 0F       		.byte	0xf
 5948 135b FA       		.byte	0xfa
 5949 135c B5130000 		.4byte	0x13b5
 5950 1360 1E       		.uleb128 0x1e
 5951 1361 5B1C0000 		.4byte	.LASF271
 5952 1365 0F       		.byte	0xf
 5953 1366 0101     		.2byte	0x101
 5954 1368 6E090000 		.4byte	0x96e
 5955 136c 1E       		.uleb128 0x1e
 5956 136d 88030000 		.4byte	.LASF272
 5957 1371 0F       		.byte	0xf
 5958 1372 0801     		.2byte	0x108
 5959 1374 6E090000 		.4byte	0x96e
 5960 1378 1E       		.uleb128 0x1e
 5961 1379 B0080000 		.4byte	.LASF273
 5962 137d 0F       		.byte	0xf
 5963 137e 0F01     		.2byte	0x10f
 5964 1380 52010000 		.4byte	0x152
 5965 1384 1E       		.uleb128 0x1e
 5966 1385 AF060000 		.4byte	.LASF274
ARM GAS  C:\Users\stoma\AppData\Local\Temp\ccLygOki.s 			page 106


 5967 1389 0F       		.byte	0xf
 5968 138a 1601     		.2byte	0x116
 5969 138c B5130000 		.4byte	0x13b5
 5970 1390 1E       		.uleb128 0x1e
 5971 1391 541E0000 		.4byte	.LASF275
 5972 1395 0F       		.byte	0xf
 5973 1396 1E01     		.2byte	0x11e
 5974 1398 E0130000 		.4byte	0x13e0
 5975 139c 1E       		.uleb128 0x1e
 5976 139d A30A0000 		.4byte	.LASF276
 5977 13a1 0F       		.byte	0xf
 5978 13a2 2701     		.2byte	0x127
 5979 13a4 23140000 		.4byte	0x1423
 5980 13a8 1E       		.uleb128 0x1e
 5981 13a9 AB030000 		.4byte	.LASF277
 5982 13ad 0F       		.byte	0xf
 5983 13ae 2F01     		.2byte	0x12f
 5984 13b0 79090000 		.4byte	0x979
 5985 13b4 00       		.byte	0
 5986 13b5 05       		.uleb128 0x5
 5987 13b6 04       		.byte	0x4
 5988 13b7 DE0A0000 		.4byte	0xade
 5989 13bb 10       		.uleb128 0x10
 5990 13bc 8A0D0000 		.4byte	.LASF278
 5991 13c0 0C       		.byte	0xc
 5992 13c1 18       		.byte	0x18
 5993 13c2 34       		.byte	0x34
 5994 13c3 E0130000 		.4byte	0x13e0
 5995 13c7 0D       		.uleb128 0xd
 5996 13c8 29190000 		.4byte	.LASF279
 5997 13cc 18       		.byte	0x18
 5998 13cd 35       		.byte	0x35
 5999 13ce 130B0000 		.4byte	0xb13
 6000 13d2 00       		.byte	0
 6001 13d3 0D       		.uleb128 0xd
 6002 13d4 7E150000 		.4byte	.LASF280
 6003 13d8 18       		.byte	0x18
 6004 13d9 37       		.byte	0x37
 6005 13da 8F090000 		.4byte	0x98f
 6006 13de 08       		.byte	0x8
 6007 13df 00       		.byte	0
 6008 13e0 05       		.uleb128 0x5
 6009 13e1 04       		.byte	0x4
 6010 13e2 BB130000 		.4byte	0x13bb
 6011 13e6 10       		.uleb128 0x10
 6012 13e7 85190000 		.4byte	.LASF281
 6013 13eb 14       		.byte	0x14
 6014 13ec 19       		.byte	0x19
 6015 13ed 39       		.byte	0x39
 6016 13ee 23140000 		.4byte	0x1423
 6017 13f2 0D       		.uleb128 0xd
 6018 13f3 19100000 		.4byte	.LASF282
 6019 13f7 19       		.byte	0x19
 6020 13f8 3A       		.byte	0x3a
 6021 13f9 130B0000 		.4byte	0xb13
 6022 13fd 00       		.byte	0
 6023 13fe 0D       		.uleb128 0xd
ARM GAS  C:\Users\stoma\AppData\Local\Temp\ccLygOki.s 			page 107


 6024 13ff 6B030000 		.4byte	.LASF283
 6025 1403 19       		.byte	0x19
 6026 1404 3C       		.byte	0x3c
 6027 1405 E90A0000 		.4byte	0xae9
 6028 1409 08       		.byte	0x8
 6029 140a 0D       		.uleb128 0xd
 6030 140b E71D0000 		.4byte	.LASF284
 6031 140f 19       		.byte	0x19
 6032 1410 3E       		.byte	0x3e
 6033 1411 67150000 		.4byte	0x1567
 6034 1415 0C       		.byte	0xc
 6035 1416 0D       		.uleb128 0xd
 6036 1417 3E080000 		.4byte	.LASF285
 6037 141b 19       		.byte	0x19
 6038 141c 41       		.byte	0x41
 6039 141d 8F090000 		.4byte	0x98f
 6040 1421 10       		.byte	0x10
 6041 1422 00       		.byte	0
 6042 1423 05       		.uleb128 0x5
 6043 1424 04       		.byte	0x4
 6044 1425 E6130000 		.4byte	0x13e6
 6045 1429 05       		.uleb128 0x5
 6046 142a 04       		.byte	0x4
 6047 142b A8100000 		.4byte	0x10a8
 6048 142f 05       		.uleb128 0x5
 6049 1430 04       		.byte	0x4
 6050 1431 C60B0000 		.4byte	0xbc6
 6051 1435 0A       		.uleb128 0xa
 6052 1436 A8100000 		.4byte	0x10a8
 6053 143a 45140000 		.4byte	0x1445
 6054 143e 0B       		.uleb128 0xb
 6055 143f 25000000 		.4byte	0x25
 6056 1443 30       		.byte	0x30
 6057 1444 00       		.byte	0
 6058 1445 25       		.uleb128 0x25
 6059 1446 636800   		.ascii	"ch\000"
 6060 1449 0F       		.byte	0xf
 6061 144a 0902     		.2byte	0x209
 6062 144c BB0C0000 		.4byte	0xcbb
 6063 1450 0C       		.uleb128 0xc
 6064 1451 16       		.byte	0x16
 6065 1452 02       		.byte	0x2
 6066 1453 34       		.byte	0x34
 6067 1454 31150000 		.4byte	0x1531
 6068 1458 0D       		.uleb128 0xd
 6069 1459 72000000 		.4byte	.LASF286
 6070 145d 02       		.byte	0x2
 6071 145e 35       		.byte	0x35
 6072 145f 31150000 		.4byte	0x1531
 6073 1463 00       		.byte	0
 6074 1464 0D       		.uleb128 0xd
 6075 1465 3E0D0000 		.4byte	.LASF287
 6076 1469 02       		.byte	0x2
 6077 146a 36       		.byte	0x36
 6078 146b DB080000 		.4byte	0x8db
 6079 146f 04       		.byte	0x4
 6080 1470 0D       		.uleb128 0xd
ARM GAS  C:\Users\stoma\AppData\Local\Temp\ccLygOki.s 			page 108


 6081 1471 E51C0000 		.4byte	.LASF288
 6082 1475 02       		.byte	0x2
 6083 1476 37       		.byte	0x37
 6084 1477 DB080000 		.4byte	0x8db
 6085 147b 05       		.byte	0x5
 6086 147c 0D       		.uleb128 0xd
 6087 147d 0E100000 		.4byte	.LASF289
 6088 1481 02       		.byte	0x2
 6089 1482 38       		.byte	0x38
 6090 1483 EB080000 		.4byte	0x8eb
 6091 1487 06       		.byte	0x6
 6092 1488 0D       		.uleb128 0xd
 6093 1489 84020000 		.4byte	.LASF290
 6094 148d 02       		.byte	0x2
 6095 148e 39       		.byte	0x39
 6096 148f DB080000 		.4byte	0x8db
 6097 1493 08       		.byte	0x8
 6098 1494 0D       		.uleb128 0xd
 6099 1495 9E100000 		.4byte	.LASF291
 6100 1499 02       		.byte	0x2
 6101 149a 3A       		.byte	0x3a
 6102 149b DB080000 		.4byte	0x8db
 6103 149f 09       		.byte	0x9
 6104 14a0 0D       		.uleb128 0xd
 6105 14a1 B8030000 		.4byte	.LASF292
 6106 14a5 02       		.byte	0x2
 6107 14a6 3B       		.byte	0x3b
 6108 14a7 DB080000 		.4byte	0x8db
 6109 14ab 0A       		.byte	0xa
 6110 14ac 0D       		.uleb128 0xd
 6111 14ad 5A090000 		.4byte	.LASF293
 6112 14b1 02       		.byte	0x2
 6113 14b2 3C       		.byte	0x3c
 6114 14b3 DB080000 		.4byte	0x8db
 6115 14b7 0B       		.byte	0xb
 6116 14b8 0D       		.uleb128 0xd
 6117 14b9 1A010000 		.4byte	.LASF294
 6118 14bd 02       		.byte	0x2
 6119 14be 3D       		.byte	0x3d
 6120 14bf DB080000 		.4byte	0x8db
 6121 14c3 0C       		.byte	0xc
 6122 14c4 0D       		.uleb128 0xd
 6123 14c5 DA080000 		.4byte	.LASF295
 6124 14c9 02       		.byte	0x2
 6125 14ca 3E       		.byte	0x3e
 6126 14cb DB080000 		.4byte	0x8db
 6127 14cf 0D       		.byte	0xd
 6128 14d0 0D       		.uleb128 0xd
 6129 14d1 521A0000 		.4byte	.LASF296
 6130 14d5 02       		.byte	0x2
 6131 14d6 3F       		.byte	0x3f
 6132 14d7 DB080000 		.4byte	0x8db
 6133 14db 0E       		.byte	0xe
 6134 14dc 0D       		.uleb128 0xd
 6135 14dd 4C000000 		.4byte	.LASF297
 6136 14e1 02       		.byte	0x2
 6137 14e2 40       		.byte	0x40
ARM GAS  C:\Users\stoma\AppData\Local\Temp\ccLygOki.s 			page 109


 6138 14e3 DB080000 		.4byte	0x8db
 6139 14e7 0F       		.byte	0xf
 6140 14e8 0D       		.uleb128 0xd
 6141 14e9 3C1B0000 		.4byte	.LASF298
 6142 14ed 02       		.byte	0x2
 6143 14ee 41       		.byte	0x41
 6144 14ef DB080000 		.4byte	0x8db
 6145 14f3 10       		.byte	0x10
 6146 14f4 0D       		.uleb128 0xd
 6147 14f5 C5040000 		.4byte	.LASF299
 6148 14f9 02       		.byte	0x2
 6149 14fa 43       		.byte	0x43
 6150 14fb DB080000 		.4byte	0x8db
 6151 14ff 11       		.byte	0x11
 6152 1500 0D       		.uleb128 0xd
 6153 1501 A0160000 		.4byte	.LASF300
 6154 1505 02       		.byte	0x2
 6155 1506 44       		.byte	0x44
 6156 1507 DB080000 		.4byte	0x8db
 6157 150b 12       		.byte	0x12
 6158 150c 0D       		.uleb128 0xd
 6159 150d 28140000 		.4byte	.LASF301
 6160 1511 02       		.byte	0x2
 6161 1512 45       		.byte	0x45
 6162 1513 DB080000 		.4byte	0x8db
 6163 1517 13       		.byte	0x13
 6164 1518 0D       		.uleb128 0xd
 6165 1519 790F0000 		.4byte	.LASF302
 6166 151d 02       		.byte	0x2
 6167 151e 46       		.byte	0x46
 6168 151f DB080000 		.4byte	0x8db
 6169 1523 14       		.byte	0x14
 6170 1524 0D       		.uleb128 0xd
 6171 1525 B7080000 		.4byte	.LASF303
 6172 1529 02       		.byte	0x2
 6173 152a 48       		.byte	0x48
 6174 152b DB080000 		.4byte	0x8db
 6175 152f 15       		.byte	0x15
 6176 1530 00       		.byte	0
 6177 1531 0A       		.uleb128 0xa
 6178 1532 5A010000 		.4byte	0x15a
 6179 1536 41150000 		.4byte	0x1541
 6180 153a 0B       		.uleb128 0xb
 6181 153b 25000000 		.4byte	0x25
 6182 153f 03       		.byte	0x3
 6183 1540 00       		.byte	0
 6184 1541 04       		.uleb128 0x4
 6185 1542 BC1C0000 		.4byte	.LASF304
 6186 1546 02       		.byte	0x2
 6187 1547 49       		.byte	0x49
 6188 1548 50140000 		.4byte	0x1450
 6189 154c 0F       		.uleb128 0xf
 6190 154d 41150000 		.4byte	0x1541
 6191 1551 23       		.uleb128 0x23
 6192 1552 A8000000 		.4byte	.LASF305
 6193 1556 02       		.byte	0x2
 6194 1557 6E       		.byte	0x6e
ARM GAS  C:\Users\stoma\AppData\Local\Temp\ccLygOki.s 			page 110


 6195 1558 4C150000 		.4byte	0x154c
 6196 155c 04       		.uleb128 0x4
 6197 155d 251B0000 		.4byte	.LASF306
 6198 1561 19       		.byte	0x19
 6199 1562 34       		.byte	0x34
 6200 1563 E6130000 		.4byte	0x13e6
 6201 1567 05       		.uleb128 0x5
 6202 1568 04       		.byte	0x4
 6203 1569 5C150000 		.4byte	0x155c
 6204 156d 04       		.uleb128 0x4
 6205 156e 88090000 		.4byte	.LASF307
 6206 1572 1A       		.byte	0x1a
 6207 1573 34       		.byte	0x34
 6208 1574 78150000 		.4byte	0x1578
 6209 1578 10       		.uleb128 0x10
 6210 1579 351C0000 		.4byte	.LASF308
 6211 157d 14       		.byte	0x14
 6212 157e 1A       		.byte	0x1a
 6213 157f 39       		.byte	0x39
 6214 1580 C1150000 		.4byte	0x15c1
 6215 1584 0D       		.uleb128 0xd
 6216 1585 040E0000 		.4byte	.LASF309
 6217 1589 1A       		.byte	0x1a
 6218 158a 3A       		.byte	0x3a
 6219 158b C1150000 		.4byte	0x15c1
 6220 158f 00       		.byte	0
 6221 1590 0D       		.uleb128 0xd
 6222 1591 661E0000 		.4byte	.LASF310
 6223 1595 1A       		.byte	0x1a
 6224 1596 3D       		.byte	0x3d
 6225 1597 E90A0000 		.4byte	0xae9
 6226 159b 04       		.byte	0x4
 6227 159c 0D       		.uleb128 0xd
 6228 159d 58130000 		.4byte	.LASF311
 6229 15a1 1A       		.byte	0x1a
 6230 15a2 3F       		.byte	0x3f
 6231 15a3 79090000 		.4byte	0x979
 6232 15a7 08       		.byte	0x8
 6233 15a8 0D       		.uleb128 0xd
 6234 15a9 3A020000 		.4byte	.LASF312
 6235 15ad 1A       		.byte	0x1a
 6236 15ae 41       		.byte	0x41
 6237 15af 84090000 		.4byte	0x984
 6238 15b3 0C       		.byte	0xc
 6239 15b4 0D       		.uleb128 0xd
 6240 15b5 13130000 		.4byte	.LASF313
 6241 15b9 1A       		.byte	0x1a
 6242 15ba 43       		.byte	0x43
 6243 15bb 84090000 		.4byte	0x984
 6244 15bf 10       		.byte	0x10
 6245 15c0 00       		.byte	0
 6246 15c1 05       		.uleb128 0x5
 6247 15c2 04       		.byte	0x4
 6248 15c3 6D150000 		.4byte	0x156d
 6249 15c7 10       		.uleb128 0x10
 6250 15c8 5D190000 		.4byte	.LASF314
 6251 15cc 04       		.byte	0x4
ARM GAS  C:\Users\stoma\AppData\Local\Temp\ccLygOki.s 			page 111


 6252 15cd 1A       		.byte	0x1a
 6253 15ce 4A       		.byte	0x4a
 6254 15cf E0150000 		.4byte	0x15e0
 6255 15d3 0D       		.uleb128 0xd
 6256 15d4 A20C0000 		.4byte	.LASF315
 6257 15d8 1A       		.byte	0x1a
 6258 15d9 4B       		.byte	0x4b
 6259 15da C1150000 		.4byte	0x15c1
 6260 15de 00       		.byte	0
 6261 15df 00       		.byte	0
 6262 15e0 04       		.uleb128 0x4
 6263 15e1 CA100000 		.4byte	.LASF316
 6264 15e5 1A       		.byte	0x1a
 6265 15e6 4E       		.byte	0x4e
 6266 15e7 C7150000 		.4byte	0x15c7
 6267 15eb 04       		.uleb128 0x4
 6268 15ec 671A0000 		.4byte	.LASF317
 6269 15f0 1B       		.byte	0x1b
 6270 15f1 3F       		.byte	0x3f
 6271 15f2 F6150000 		.4byte	0x15f6
 6272 15f6 10       		.uleb128 0x10
 6273 15f7 C9050000 		.4byte	.LASF318
 6274 15fb 24       		.byte	0x24
 6275 15fc 1B       		.byte	0x1b
 6276 15fd 4D       		.byte	0x4d
 6277 15fe 63160000 		.4byte	0x1663
 6278 1602 0D       		.uleb128 0xd
 6279 1603 55180000 		.4byte	.LASF319
 6280 1607 1B       		.byte	0x1b
 6281 1608 4E       		.byte	0x4e
 6282 1609 130B0000 		.4byte	0xb13
 6283 160d 00       		.byte	0
 6284 160e 0D       		.uleb128 0xd
 6285 160f AA0C0000 		.4byte	.LASF320
 6286 1613 1B       		.byte	0x1b
 6287 1614 4F       		.byte	0x4f
 6288 1615 33000000 		.4byte	0x33
 6289 1619 08       		.byte	0x8
 6290 161a 0D       		.uleb128 0xd
 6291 161b 0F040000 		.4byte	.LASF321
 6292 161f 1B       		.byte	0x1b
 6293 1620 50       		.byte	0x50
 6294 1621 85160000 		.4byte	0x1685
 6295 1625 0C       		.byte	0xc
 6296 1626 0D       		.uleb128 0xd
 6297 1627 A5030000 		.4byte	.LASF322
 6298 162b 1B       		.byte	0x1b
 6299 162c 51       		.byte	0x51
 6300 162d 85160000 		.4byte	0x1685
 6301 1631 10       		.byte	0x10
 6302 1632 0D       		.uleb128 0xd
 6303 1633 540E0000 		.4byte	.LASF323
 6304 1637 1B       		.byte	0x1b
 6305 1638 53       		.byte	0x53
 6306 1639 85160000 		.4byte	0x1685
 6307 163d 14       		.byte	0x14
 6308 163e 0D       		.uleb128 0xd
ARM GAS  C:\Users\stoma\AppData\Local\Temp\ccLygOki.s 			page 112


 6309 163f A1040000 		.4byte	.LASF324
 6310 1643 1B       		.byte	0x1b
 6311 1644 54       		.byte	0x54
 6312 1645 85160000 		.4byte	0x1685
 6313 1649 18       		.byte	0x18
 6314 164a 0D       		.uleb128 0xd
 6315 164b 33040000 		.4byte	.LASF325
 6316 164f 1B       		.byte	0x1b
 6317 1650 55       		.byte	0x55
 6318 1651 63160000 		.4byte	0x1663
 6319 1655 1C       		.byte	0x1c
 6320 1656 0D       		.uleb128 0xd
 6321 1657 27060000 		.4byte	.LASF326
 6322 165b 1B       		.byte	0x1b
 6323 165c 56       		.byte	0x56
 6324 165d 52010000 		.4byte	0x152
 6325 1661 20       		.byte	0x20
 6326 1662 00       		.byte	0
 6327 1663 04       		.uleb128 0x4
 6328 1664 82110000 		.4byte	.LASF327
 6329 1668 1B       		.byte	0x1b
 6330 1669 42       		.byte	0x42
 6331 166a 6E160000 		.4byte	0x166e
 6332 166e 05       		.uleb128 0x5
 6333 166f 04       		.byte	0x4
 6334 1670 74160000 		.4byte	0x1674
 6335 1674 1F       		.uleb128 0x1f
 6336 1675 7F160000 		.4byte	0x167f
 6337 1679 16       		.uleb128 0x16
 6338 167a 7F160000 		.4byte	0x167f
 6339 167e 00       		.byte	0
 6340 167f 05       		.uleb128 0x5
 6341 1680 04       		.byte	0x4
 6342 1681 EB150000 		.4byte	0x15eb
 6343 1685 05       		.uleb128 0x5
 6344 1686 04       		.byte	0x4
 6345 1687 DB080000 		.4byte	0x8db
 6346 168b 04       		.uleb128 0x4
 6347 168c DB1B0000 		.4byte	.LASF328
 6348 1690 1B       		.byte	0x1b
 6349 1691 64       		.byte	0x64
 6350 1692 EB150000 		.4byte	0x15eb
 6351 1696 04       		.uleb128 0x4
 6352 1697 FE1C0000 		.4byte	.LASF329
 6353 169b 1B       		.byte	0x1b
 6354 169c 71       		.byte	0x71
 6355 169d EB150000 		.4byte	0x15eb
 6356 16a1 15       		.uleb128 0x15
 6357 16a2 33000000 		.4byte	0x33
 6358 16a6 BA160000 		.4byte	0x16ba
 6359 16aa 16       		.uleb128 0x16
 6360 16ab 52010000 		.4byte	0x152
 6361 16af 16       		.uleb128 0x16
 6362 16b0 BA160000 		.4byte	0x16ba
 6363 16b4 16       		.uleb128 0x16
 6364 16b5 33000000 		.4byte	0x33
 6365 16b9 00       		.byte	0
ARM GAS  C:\Users\stoma\AppData\Local\Temp\ccLygOki.s 			page 113


 6366 16ba 05       		.uleb128 0x5
 6367 16bb 04       		.byte	0x4
 6368 16bc E6080000 		.4byte	0x8e6
 6369 16c0 05       		.uleb128 0x5
 6370 16c1 04       		.byte	0x4
 6371 16c2 A1160000 		.4byte	0x16a1
 6372 16c6 15       		.uleb128 0x15
 6373 16c7 33000000 		.4byte	0x33
 6374 16cb DF160000 		.4byte	0x16df
 6375 16cf 16       		.uleb128 0x16
 6376 16d0 52010000 		.4byte	0x152
 6377 16d4 16       		.uleb128 0x16
 6378 16d5 85160000 		.4byte	0x1685
 6379 16d9 16       		.uleb128 0x16
 6380 16da 33000000 		.4byte	0x33
 6381 16de 00       		.byte	0
 6382 16df 05       		.uleb128 0x5
 6383 16e0 04       		.byte	0x4
 6384 16e1 C6160000 		.4byte	0x16c6
 6385 16e5 15       		.uleb128 0x15
 6386 16e6 6E090000 		.4byte	0x96e
 6387 16ea F9160000 		.4byte	0x16f9
 6388 16ee 16       		.uleb128 0x16
 6389 16ef 52010000 		.4byte	0x152
 6390 16f3 16       		.uleb128 0x16
 6391 16f4 DB080000 		.4byte	0x8db
 6392 16f8 00       		.byte	0
 6393 16f9 05       		.uleb128 0x5
 6394 16fa 04       		.byte	0x4
 6395 16fb E5160000 		.4byte	0x16e5
 6396 16ff 15       		.uleb128 0x15
 6397 1700 6E090000 		.4byte	0x96e
 6398 1704 0E170000 		.4byte	0x170e
 6399 1708 16       		.uleb128 0x16
 6400 1709 52010000 		.4byte	0x152
 6401 170d 00       		.byte	0
 6402 170e 05       		.uleb128 0x5
 6403 170f 04       		.byte	0x4
 6404 1710 FF160000 		.4byte	0x16ff
 6405 1714 0C       		.uleb128 0xc
 6406 1715 0C       		.byte	0xc
 6407 1716 1C       		.byte	0x1c
 6408 1717 DA       		.byte	0xda
 6409 1718 59170000 		.4byte	0x1759
 6410 171c 0D       		.uleb128 0xd
 6411 171d 66090000 		.4byte	.LASF330
 6412 1721 1C       		.byte	0x1c
 6413 1722 DB       		.byte	0xdb
 6414 1723 59170000 		.4byte	0x1759
 6415 1727 00       		.byte	0
 6416 1728 0D       		.uleb128 0xd
 6417 1729 6B1D0000 		.4byte	.LASF331
 6418 172d 1C       		.byte	0x1c
 6419 172e DC       		.byte	0xdc
 6420 172f 5F170000 		.4byte	0x175f
 6421 1733 04       		.byte	0x4
 6422 1734 0D       		.uleb128 0xd
ARM GAS  C:\Users\stoma\AppData\Local\Temp\ccLygOki.s 			page 114


 6423 1735 4F080000 		.4byte	.LASF332
 6424 1739 1C       		.byte	0x1c
 6425 173a DD       		.byte	0xdd
 6426 173b DB080000 		.4byte	0x8db
 6427 173f 08       		.byte	0x8
 6428 1740 0D       		.uleb128 0xd
 6429 1741 9F150000 		.4byte	.LASF333
 6430 1745 1C       		.byte	0x1c
 6431 1746 DF       		.byte	0xdf
 6432 1747 DB080000 		.4byte	0x8db
 6433 174b 09       		.byte	0x9
 6434 174c 0D       		.uleb128 0xd
 6435 174d 37170000 		.4byte	.LASF334
 6436 1751 1C       		.byte	0x1c
 6437 1752 E0       		.byte	0xe0
 6438 1753 DB080000 		.4byte	0x8db
 6439 1757 0A       		.byte	0xa
 6440 1758 00       		.byte	0
 6441 1759 05       		.uleb128 0x5
 6442 175a 04       		.byte	0x4
 6443 175b B10D0000 		.4byte	0xdb1
 6444 175f 05       		.uleb128 0x5
 6445 1760 04       		.byte	0x4
 6446 1761 11090000 		.4byte	0x911
 6447 1765 04       		.uleb128 0x4
 6448 1766 1F000000 		.4byte	.LASF335
 6449 176a 1C       		.byte	0x1c
 6450 176b E1       		.byte	0xe1
 6451 176c 14170000 		.4byte	0x1714
 6452 1770 0F       		.uleb128 0xf
 6453 1771 65170000 		.4byte	0x1765
 6454 1775 0A       		.uleb128 0xa
 6455 1776 70170000 		.4byte	0x1770
 6456 177a 85170000 		.4byte	0x1785
 6457 177e 0B       		.uleb128 0xb
 6458 177f 25000000 		.4byte	0x25
 6459 1783 0F       		.byte	0xf
 6460 1784 00       		.byte	0
 6461 1785 0F       		.uleb128 0xf
 6462 1786 75170000 		.4byte	0x1775
 6463 178a 20       		.uleb128 0x20
 6464 178b F10D0000 		.4byte	.LASF336
 6465 178f 1C       		.byte	0x1c
 6466 1790 BB01     		.2byte	0x1bb
 6467 1792 85170000 		.4byte	0x1785
 6468 1796 15       		.uleb128 0x15
 6469 1797 6E090000 		.4byte	0x96e
 6470 179b AF170000 		.4byte	0x17af
 6471 179f 16       		.uleb128 0x16
 6472 17a0 52010000 		.4byte	0x152
 6473 17a4 16       		.uleb128 0x16
 6474 17a5 DB080000 		.4byte	0x8db
 6475 17a9 16       		.uleb128 0x16
 6476 17aa A5090000 		.4byte	0x9a5
 6477 17ae 00       		.byte	0
 6478 17af 05       		.uleb128 0x5
 6479 17b0 04       		.byte	0x4
ARM GAS  C:\Users\stoma\AppData\Local\Temp\ccLygOki.s 			page 115


 6480 17b1 96170000 		.4byte	0x1796
 6481 17b5 15       		.uleb128 0x15
 6482 17b6 6E090000 		.4byte	0x96e
 6483 17ba C9170000 		.4byte	0x17c9
 6484 17be 16       		.uleb128 0x16
 6485 17bf 52010000 		.4byte	0x152
 6486 17c3 16       		.uleb128 0x16
 6487 17c4 A5090000 		.4byte	0x9a5
 6488 17c8 00       		.byte	0
 6489 17c9 05       		.uleb128 0x5
 6490 17ca 04       		.byte	0x4
 6491 17cb B5170000 		.4byte	0x17b5
 6492 17cf 15       		.uleb128 0x15
 6493 17d0 33000000 		.4byte	0x33
 6494 17d4 ED170000 		.4byte	0x17ed
 6495 17d8 16       		.uleb128 0x16
 6496 17d9 52010000 		.4byte	0x152
 6497 17dd 16       		.uleb128 0x16
 6498 17de BA160000 		.4byte	0x16ba
 6499 17e2 16       		.uleb128 0x16
 6500 17e3 33000000 		.4byte	0x33
 6501 17e7 16       		.uleb128 0x16
 6502 17e8 A5090000 		.4byte	0x9a5
 6503 17ec 00       		.byte	0
 6504 17ed 05       		.uleb128 0x5
 6505 17ee 04       		.byte	0x4
 6506 17ef CF170000 		.4byte	0x17cf
 6507 17f3 15       		.uleb128 0x15
 6508 17f4 33000000 		.4byte	0x33
 6509 17f8 11180000 		.4byte	0x1811
 6510 17fc 16       		.uleb128 0x16
 6511 17fd 52010000 		.4byte	0x152
 6512 1801 16       		.uleb128 0x16
 6513 1802 85160000 		.4byte	0x1685
 6514 1806 16       		.uleb128 0x16
 6515 1807 33000000 		.4byte	0x33
 6516 180b 16       		.uleb128 0x16
 6517 180c A5090000 		.4byte	0x9a5
 6518 1810 00       		.byte	0
 6519 1811 05       		.uleb128 0x5
 6520 1812 04       		.byte	0x4
 6521 1813 F3170000 		.4byte	0x17f3
 6522 1817 02       		.uleb128 0x2
 6523 1818 01       		.byte	0x1
 6524 1819 02       		.byte	0x2
 6525 181a D2070000 		.4byte	.LASF337
 6526 181e 0C       		.uleb128 0xc
 6527 181f 1C       		.byte	0x1c
 6528 1820 1D       		.byte	0x1d
 6529 1821 C1       		.byte	0xc1
 6530 1822 7B180000 		.4byte	0x187b
 6531 1826 0D       		.uleb128 0xd
 6532 1827 49080000 		.4byte	.LASF338
 6533 182b 1D       		.byte	0x1d
 6534 182c C3       		.byte	0xc3
 6535 182d 06090000 		.4byte	0x906
 6536 1831 00       		.byte	0
ARM GAS  C:\Users\stoma\AppData\Local\Temp\ccLygOki.s 			page 116


 6537 1832 0D       		.uleb128 0xd
 6538 1833 730D0000 		.4byte	.LASF339
 6539 1837 1D       		.byte	0x1d
 6540 1838 C5       		.byte	0xc5
 6541 1839 06090000 		.4byte	0x906
 6542 183d 04       		.byte	0x4
 6543 183e 0D       		.uleb128 0xd
 6544 183f 0F0B0000 		.4byte	.LASF340
 6545 1843 1D       		.byte	0x1d
 6546 1844 C7       		.byte	0xc7
 6547 1845 06090000 		.4byte	0x906
 6548 1849 08       		.byte	0x8
 6549 184a 0D       		.uleb128 0xd
 6550 184b 460F0000 		.4byte	.LASF341
 6551 184f 1D       		.byte	0x1d
 6552 1850 C9       		.byte	0xc9
 6553 1851 06090000 		.4byte	0x906
 6554 1855 0C       		.byte	0xc
 6555 1856 11       		.uleb128 0x11
 6556 1857 6F647200 		.ascii	"odr\000"
 6557 185b 1D       		.byte	0x1d
 6558 185c CB       		.byte	0xcb
 6559 185d 06090000 		.4byte	0x906
 6560 1861 10       		.byte	0x10
 6561 1862 0D       		.uleb128 0xd
 6562 1863 56140000 		.4byte	.LASF342
 6563 1867 1D       		.byte	0x1d
 6564 1868 CD       		.byte	0xcd
 6565 1869 06090000 		.4byte	0x906
 6566 186d 14       		.byte	0x14
 6567 186e 0D       		.uleb128 0xd
 6568 186f F30C0000 		.4byte	.LASF343
 6569 1873 1D       		.byte	0x1d
 6570 1874 CF       		.byte	0xcf
 6571 1875 06090000 		.4byte	0x906
 6572 1879 18       		.byte	0x18
 6573 187a 00       		.byte	0
 6574 187b 04       		.uleb128 0x4
 6575 187c 46030000 		.4byte	.LASF344
 6576 1880 1D       		.byte	0x1d
 6577 1881 D0       		.byte	0xd0
 6578 1882 1E180000 		.4byte	0x181e
 6579 1886 0C       		.uleb128 0xc
 6580 1887 FC       		.byte	0xfc
 6581 1888 1D       		.byte	0x1d
 6582 1889 D9       		.byte	0xd9
 6583 188a FB180000 		.4byte	0x18fb
 6584 188e 0D       		.uleb128 0xd
 6585 188f 0B160000 		.4byte	.LASF345
 6586 1893 1D       		.byte	0x1d
 6587 1894 DC       		.byte	0xdc
 6588 1895 7B180000 		.4byte	0x187b
 6589 1899 00       		.byte	0
 6590 189a 0D       		.uleb128 0xd
 6591 189b 62110000 		.4byte	.LASF346
 6592 189f 1D       		.byte	0x1d
 6593 18a0 E0       		.byte	0xe0
ARM GAS  C:\Users\stoma\AppData\Local\Temp\ccLygOki.s 			page 117


 6594 18a1 7B180000 		.4byte	0x187b
 6595 18a5 1C       		.byte	0x1c
 6596 18a6 0D       		.uleb128 0xd
 6597 18a7 340B0000 		.4byte	.LASF347
 6598 18ab 1D       		.byte	0x1d
 6599 18ac E4       		.byte	0xe4
 6600 18ad 7B180000 		.4byte	0x187b
 6601 18b1 38       		.byte	0x38
 6602 18b2 0D       		.uleb128 0xd
 6603 18b3 1D070000 		.4byte	.LASF348
 6604 18b7 1D       		.byte	0x1d
 6605 18b8 E8       		.byte	0xe8
 6606 18b9 7B180000 		.4byte	0x187b
 6607 18bd 54       		.byte	0x54
 6608 18be 0D       		.uleb128 0xd
 6609 18bf 69020000 		.4byte	.LASF349
 6610 18c3 1D       		.byte	0x1d
 6611 18c4 EC       		.byte	0xec
 6612 18c5 7B180000 		.4byte	0x187b
 6613 18c9 70       		.byte	0x70
 6614 18ca 0D       		.uleb128 0xd
 6615 18cb 271C0000 		.4byte	.LASF350
 6616 18cf 1D       		.byte	0x1d
 6617 18d0 F0       		.byte	0xf0
 6618 18d1 7B180000 		.4byte	0x187b
 6619 18d5 8C       		.byte	0x8c
 6620 18d6 0D       		.uleb128 0xd
 6621 18d7 721E0000 		.4byte	.LASF351
 6622 18db 1D       		.byte	0x1d
 6623 18dc F4       		.byte	0xf4
 6624 18dd 7B180000 		.4byte	0x187b
 6625 18e1 A8       		.byte	0xa8
 6626 18e2 0D       		.uleb128 0xd
 6627 18e3 F4130000 		.4byte	.LASF352
 6628 18e7 1D       		.byte	0x1d
 6629 18e8 F8       		.byte	0xf8
 6630 18e9 7B180000 		.4byte	0x187b
 6631 18ed C4       		.byte	0xc4
 6632 18ee 0D       		.uleb128 0xd
 6633 18ef 8D0E0000 		.4byte	.LASF353
 6634 18f3 1D       		.byte	0x1d
 6635 18f4 FC       		.byte	0xfc
 6636 18f5 7B180000 		.4byte	0x187b
 6637 18f9 E0       		.byte	0xe0
 6638 18fa 00       		.byte	0
 6639 18fb 04       		.uleb128 0x4
 6640 18fc 8A1A0000 		.4byte	.LASF354
 6641 1900 1D       		.byte	0x1d
 6642 1901 FE       		.byte	0xfe
 6643 1902 86180000 		.4byte	0x1886
 6644 1906 0F       		.uleb128 0xf
 6645 1907 FB180000 		.4byte	0x18fb
 6646 190b 20       		.uleb128 0x20
 6647 190c 07060000 		.4byte	.LASF355
 6648 1910 1D       		.byte	0x1d
 6649 1911 DA01     		.2byte	0x1da
 6650 1913 06190000 		.4byte	0x1906
ARM GAS  C:\Users\stoma\AppData\Local\Temp\ccLygOki.s 			page 118


 6651 1917 26       		.uleb128 0x26
 6652 1918 07       		.byte	0x7
 6653 1919 01       		.byte	0x1
 6654 191a 5E000000 		.4byte	0x5e
 6655 191e 1E       		.byte	0x1e
 6656 191f 31       		.byte	0x31
 6657 1920 43190000 		.4byte	0x1943
 6658 1924 27       		.uleb128 0x27
 6659 1925 6B080000 		.4byte	.LASF356
 6660 1929 00       		.byte	0
 6661 192a 27       		.uleb128 0x27
 6662 192b 671C0000 		.4byte	.LASF357
 6663 192f 01       		.byte	0x1
 6664 1930 27       		.uleb128 0x27
 6665 1931 D3160000 		.4byte	.LASF358
 6666 1935 02       		.byte	0x2
 6667 1936 27       		.uleb128 0x27
 6668 1937 DD160000 		.4byte	.LASF359
 6669 193b 03       		.byte	0x3
 6670 193c 27       		.uleb128 0x27
 6671 193d 8C110000 		.4byte	.LASF360
 6672 1941 04       		.byte	0x4
 6673 1942 00       		.byte	0
 6674 1943 04       		.uleb128 0x4
 6675 1944 49020000 		.4byte	.LASF361
 6676 1948 1E       		.byte	0x1e
 6677 1949 37       		.byte	0x37
 6678 194a 17190000 		.4byte	0x1917
 6679 194e 04       		.uleb128 0x4
 6680 194f 21100000 		.4byte	.LASF362
 6681 1953 1E       		.byte	0x1e
 6682 1954 3C       		.byte	0x3c
 6683 1955 59190000 		.4byte	0x1959
 6684 1959 1B       		.uleb128 0x1b
 6685 195a 21100000 		.4byte	.LASF362
 6686 195e 10       		.byte	0x10
 6687 195f 1F       		.byte	0x1f
 6688 1960 9701     		.2byte	0x197
 6689 1962 9B190000 		.4byte	0x199b
 6690 1966 18       		.uleb128 0x18
 6691 1967 5B020000 		.4byte	.LASF363
 6692 196b 1F       		.byte	0x1f
 6693 196c 9B01     		.2byte	0x19b
 6694 196e 43190000 		.4byte	0x1943
 6695 1972 00       		.byte	0
 6696 1973 18       		.uleb128 0x18
 6697 1974 54020000 		.4byte	.LASF364
 6698 1978 1F       		.byte	0x1f
 6699 1979 9F01     		.2byte	0x19f
 6700 197b 301B0000 		.4byte	0x1b30
 6701 197f 04       		.byte	0x4
 6702 1980 18       		.uleb128 0x18
 6703 1981 9B0E0000 		.4byte	.LASF365
 6704 1985 1F       		.byte	0x1f
 6705 1986 A701     		.2byte	0x1a7
 6706 1988 06090000 		.4byte	0x906
 6707 198c 08       		.byte	0x8
ARM GAS  C:\Users\stoma\AppData\Local\Temp\ccLygOki.s 			page 119


 6708 198d 21       		.uleb128 0x21
 6709 198e 74696D00 		.ascii	"tim\000"
 6710 1992 1F       		.byte	0x1f
 6711 1993 AB01     		.2byte	0x1ab
 6712 1995 361B0000 		.4byte	0x1b36
 6713 1999 0C       		.byte	0xc
 6714 199a 00       		.byte	0
 6715 199b 04       		.uleb128 0x4
 6716 199c 321E0000 		.4byte	.LASF366
 6717 19a0 1E       		.byte	0x1e
 6718 19a1 43       		.byte	0x43
 6719 19a2 A6190000 		.4byte	0x19a6
 6720 19a6 05       		.uleb128 0x5
 6721 19a7 04       		.byte	0x4
 6722 19a8 AC190000 		.4byte	0x19ac
 6723 19ac 1F       		.uleb128 0x1f
 6724 19ad B7190000 		.4byte	0x19b7
 6725 19b1 16       		.uleb128 0x16
 6726 19b2 B7190000 		.4byte	0x19b7
 6727 19b6 00       		.byte	0
 6728 19b7 05       		.uleb128 0x5
 6729 19b8 04       		.byte	0x4
 6730 19b9 4E190000 		.4byte	0x194e
 6731 19bd 1C       		.uleb128 0x1c
 6732 19be 60       		.byte	0x60
 6733 19bf 20       		.byte	0x20
 6734 19c0 9E01     		.2byte	0x19e
 6735 19c2 C91A0000 		.4byte	0x1ac9
 6736 19c6 21       		.uleb128 0x21
 6737 19c7 43523100 		.ascii	"CR1\000"
 6738 19cb 20       		.byte	0x20
 6739 19cc 9F01     		.2byte	0x19f
 6740 19ce 11090000 		.4byte	0x911
 6741 19d2 00       		.byte	0
 6742 19d3 21       		.uleb128 0x21
 6743 19d4 43523200 		.ascii	"CR2\000"
 6744 19d8 20       		.byte	0x20
 6745 19d9 A001     		.2byte	0x1a0
 6746 19db 11090000 		.4byte	0x911
 6747 19df 04       		.byte	0x4
 6748 19e0 18       		.uleb128 0x18
 6749 19e1 4C060000 		.4byte	.LASF367
 6750 19e5 20       		.byte	0x20
 6751 19e6 A101     		.2byte	0x1a1
 6752 19e8 11090000 		.4byte	0x911
 6753 19ec 08       		.byte	0x8
 6754 19ed 18       		.uleb128 0x18
 6755 19ee 490B0000 		.4byte	.LASF368
 6756 19f2 20       		.byte	0x20
 6757 19f3 A201     		.2byte	0x1a2
 6758 19f5 11090000 		.4byte	0x911
 6759 19f9 0C       		.byte	0xc
 6760 19fa 21       		.uleb128 0x21
 6761 19fb 535200   		.ascii	"SR\000"
 6762 19fe 20       		.byte	0x20
 6763 19ff A301     		.2byte	0x1a3
 6764 1a01 11090000 		.4byte	0x911
ARM GAS  C:\Users\stoma\AppData\Local\Temp\ccLygOki.s 			page 120


 6765 1a05 10       		.byte	0x10
 6766 1a06 21       		.uleb128 0x21
 6767 1a07 45475200 		.ascii	"EGR\000"
 6768 1a0b 20       		.byte	0x20
 6769 1a0c A401     		.2byte	0x1a4
 6770 1a0e 11090000 		.4byte	0x911
 6771 1a12 14       		.byte	0x14
 6772 1a13 18       		.uleb128 0x18
 6773 1a14 09080000 		.4byte	.LASF369
 6774 1a18 20       		.byte	0x20
 6775 1a19 A501     		.2byte	0x1a5
 6776 1a1b 11090000 		.4byte	0x911
 6777 1a1f 18       		.byte	0x18
 6778 1a20 18       		.uleb128 0x18
 6779 1a21 0F080000 		.4byte	.LASF370
 6780 1a25 20       		.byte	0x20
 6781 1a26 A601     		.2byte	0x1a6
 6782 1a28 11090000 		.4byte	0x911
 6783 1a2c 1C       		.byte	0x1c
 6784 1a2d 18       		.uleb128 0x18
 6785 1a2e AD160000 		.4byte	.LASF371
 6786 1a32 20       		.byte	0x20
 6787 1a33 A701     		.2byte	0x1a7
 6788 1a35 11090000 		.4byte	0x911
 6789 1a39 20       		.byte	0x20
 6790 1a3a 21       		.uleb128 0x21
 6791 1a3b 434E5400 		.ascii	"CNT\000"
 6792 1a3f 20       		.byte	0x20
 6793 1a40 A801     		.2byte	0x1a8
 6794 1a42 11090000 		.4byte	0x911
 6795 1a46 24       		.byte	0x24
 6796 1a47 21       		.uleb128 0x21
 6797 1a48 50534300 		.ascii	"PSC\000"
 6798 1a4c 20       		.byte	0x20
 6799 1a4d A901     		.2byte	0x1a9
 6800 1a4f 11090000 		.4byte	0x911
 6801 1a53 28       		.byte	0x28
 6802 1a54 21       		.uleb128 0x21
 6803 1a55 41525200 		.ascii	"ARR\000"
 6804 1a59 20       		.byte	0x20
 6805 1a5a AA01     		.2byte	0x1aa
 6806 1a5c 11090000 		.4byte	0x911
 6807 1a60 2C       		.byte	0x2c
 6808 1a61 21       		.uleb128 0x21
 6809 1a62 52435200 		.ascii	"RCR\000"
 6810 1a66 20       		.byte	0x20
 6811 1a67 AB01     		.2byte	0x1ab
 6812 1a69 11090000 		.4byte	0x911
 6813 1a6d 30       		.byte	0x30
 6814 1a6e 21       		.uleb128 0x21
 6815 1a6f 43435200 		.ascii	"CCR\000"
 6816 1a73 20       		.byte	0x20
 6817 1a74 AC01     		.2byte	0x1ac
 6818 1a76 E20D0000 		.4byte	0xde2
 6819 1a7a 34       		.byte	0x34
 6820 1a7b 18       		.uleb128 0x18
 6821 1a7c AF1B0000 		.4byte	.LASF372
ARM GAS  C:\Users\stoma\AppData\Local\Temp\ccLygOki.s 			page 121


 6822 1a80 20       		.byte	0x20
 6823 1a81 AD01     		.2byte	0x1ad
 6824 1a83 11090000 		.4byte	0x911
 6825 1a87 44       		.byte	0x44
 6826 1a88 21       		.uleb128 0x21
 6827 1a89 44435200 		.ascii	"DCR\000"
 6828 1a8d 20       		.byte	0x20
 6829 1a8e AE01     		.2byte	0x1ae
 6830 1a90 11090000 		.4byte	0x911
 6831 1a94 48       		.byte	0x48
 6832 1a95 18       		.uleb128 0x18
 6833 1a96 D3170000 		.4byte	.LASF373
 6834 1a9a 20       		.byte	0x20
 6835 1a9b AF01     		.2byte	0x1af
 6836 1a9d 11090000 		.4byte	0x911
 6837 1aa1 4C       		.byte	0x4c
 6838 1aa2 21       		.uleb128 0x21
 6839 1aa3 4F5200   		.ascii	"OR\000"
 6840 1aa6 20       		.byte	0x20
 6841 1aa7 B001     		.2byte	0x1b0
 6842 1aa9 11090000 		.4byte	0x911
 6843 1aad 50       		.byte	0x50
 6844 1aae 18       		.uleb128 0x18
 6845 1aaf 15080000 		.4byte	.LASF374
 6846 1ab3 20       		.byte	0x20
 6847 1ab4 B101     		.2byte	0x1b1
 6848 1ab6 11090000 		.4byte	0x911
 6849 1aba 54       		.byte	0x54
 6850 1abb 18       		.uleb128 0x18
 6851 1abc AB090000 		.4byte	.LASF375
 6852 1ac0 20       		.byte	0x20
 6853 1ac1 B201     		.2byte	0x1b2
 6854 1ac3 CD0D0000 		.4byte	0xdcd
 6855 1ac7 58       		.byte	0x58
 6856 1ac8 00       		.byte	0
 6857 1ac9 07       		.uleb128 0x7
 6858 1aca 810E0000 		.4byte	.LASF376
 6859 1ace 20       		.byte	0x20
 6860 1acf B301     		.2byte	0x1b3
 6861 1ad1 BD190000 		.4byte	0x19bd
 6862 1ad5 07       		.uleb128 0x7
 6863 1ad6 970D0000 		.4byte	.LASF377
 6864 1ada 1F       		.byte	0x1f
 6865 1adb 6D01     		.2byte	0x16d
 6866 1add 06090000 		.4byte	0x906
 6867 1ae1 1C       		.uleb128 0x1c
 6868 1ae2 10       		.byte	0x10
 6869 1ae3 1F       		.byte	0x1f
 6870 1ae4 7801     		.2byte	0x178
 6871 1ae6 1F1B0000 		.4byte	0x1b1f
 6872 1aea 18       		.uleb128 0x18
 6873 1aeb 58110000 		.4byte	.LASF378
 6874 1aef 1F       		.byte	0x1f
 6875 1af0 7E01     		.2byte	0x17e
 6876 1af2 D51A0000 		.4byte	0x1ad5
 6877 1af6 00       		.byte	0
 6878 1af7 18       		.uleb128 0x18
ARM GAS  C:\Users\stoma\AppData\Local\Temp\ccLygOki.s 			page 122


 6879 1af8 FC020000 		.4byte	.LASF379
 6880 1afc 1F       		.byte	0x1f
 6881 1afd 8501     		.2byte	0x185
 6882 1aff 9B190000 		.4byte	0x199b
 6883 1b03 04       		.byte	0x4
 6884 1b04 21       		.uleb128 0x21
 6885 1b05 63723200 		.ascii	"cr2\000"
 6886 1b09 1F       		.byte	0x1f
 6887 1b0a 8B01     		.2byte	0x18b
 6888 1b0c 06090000 		.4byte	0x906
 6889 1b10 08       		.byte	0x8
 6890 1b11 18       		.uleb128 0x18
 6891 1b12 E4020000 		.4byte	.LASF380
 6892 1b16 1F       		.byte	0x1f
 6893 1b17 9101     		.2byte	0x191
 6894 1b19 06090000 		.4byte	0x906
 6895 1b1d 0C       		.byte	0xc
 6896 1b1e 00       		.byte	0
 6897 1b1f 07       		.uleb128 0x7
 6898 1b20 A10E0000 		.4byte	.LASF381
 6899 1b24 1F       		.byte	0x1f
 6900 1b25 9201     		.2byte	0x192
 6901 1b27 E11A0000 		.4byte	0x1ae1
 6902 1b2b 0F       		.uleb128 0xf
 6903 1b2c 1F1B0000 		.4byte	0x1b1f
 6904 1b30 05       		.uleb128 0x5
 6905 1b31 04       		.byte	0x4
 6906 1b32 2B1B0000 		.4byte	0x1b2b
 6907 1b36 05       		.uleb128 0x5
 6908 1b37 04       		.byte	0x4
 6909 1b38 C91A0000 		.4byte	0x1ac9
 6910 1b3c 20       		.uleb128 0x20
 6911 1b3d EC1A0000 		.4byte	.LASF382
 6912 1b41 1F       		.byte	0x1f
 6913 1b42 0202     		.2byte	0x202
 6914 1b44 4E190000 		.4byte	0x194e
 6915 1b48 26       		.uleb128 0x26
 6916 1b49 07       		.byte	0x7
 6917 1b4a 01       		.byte	0x1
 6918 1b4b 5E000000 		.4byte	0x5e
 6919 1b4f 21       		.byte	0x21
 6920 1b50 4C       		.byte	0x4c
 6921 1b51 7A1B0000 		.4byte	0x1b7a
 6922 1b55 27       		.uleb128 0x27
 6923 1b56 03100000 		.4byte	.LASF383
 6924 1b5a 00       		.byte	0
 6925 1b5b 27       		.uleb128 0x27
 6926 1b5c D21D0000 		.4byte	.LASF384
 6927 1b60 01       		.byte	0x1
 6928 1b61 27       		.uleb128 0x27
 6929 1b62 FB1B0000 		.4byte	.LASF385
 6930 1b66 02       		.byte	0x2
 6931 1b67 27       		.uleb128 0x27
 6932 1b68 32090000 		.4byte	.LASF386
 6933 1b6c 03       		.byte	0x3
 6934 1b6d 27       		.uleb128 0x27
 6935 1b6e AE070000 		.4byte	.LASF387
ARM GAS  C:\Users\stoma\AppData\Local\Temp\ccLygOki.s 			page 123


 6936 1b72 04       		.byte	0x4
 6937 1b73 27       		.uleb128 0x27
 6938 1b74 F40A0000 		.4byte	.LASF388
 6939 1b78 05       		.byte	0x5
 6940 1b79 00       		.byte	0
 6941 1b7a 04       		.uleb128 0x4
 6942 1b7b 2E110000 		.4byte	.LASF389
 6943 1b7f 21       		.byte	0x21
 6944 1b80 53       		.byte	0x53
 6945 1b81 481B0000 		.4byte	0x1b48
 6946 1b85 07       		.uleb128 0x7
 6947 1b86 9B030000 		.4byte	.LASF390
 6948 1b8a 22       		.byte	0x22
 6949 1b8b 6A01     		.2byte	0x16a
 6950 1b8d EB080000 		.4byte	0x8eb
 6951 1b91 07       		.uleb128 0x7
 6952 1b92 5B1B0000 		.4byte	.LASF391
 6953 1b96 22       		.byte	0x22
 6954 1b97 6F01     		.2byte	0x16f
 6955 1b99 06090000 		.4byte	0x906
 6956 1b9d 28       		.uleb128 0x28
 6957 1b9e 07       		.byte	0x7
 6958 1b9f 01       		.byte	0x1
 6959 1ba0 5E000000 		.4byte	0x5e
 6960 1ba4 22       		.byte	0x22
 6961 1ba5 7401     		.2byte	0x174
 6962 1ba7 BE1B0000 		.4byte	0x1bbe
 6963 1bab 27       		.uleb128 0x27
 6964 1bac 2E080000 		.4byte	.LASF392
 6965 1bb0 01       		.byte	0x1
 6966 1bb1 27       		.uleb128 0x27
 6967 1bb2 94000000 		.4byte	.LASF393
 6968 1bb6 02       		.byte	0x2
 6969 1bb7 27       		.uleb128 0x27
 6970 1bb8 F6190000 		.4byte	.LASF394
 6971 1bbc 03       		.byte	0x3
 6972 1bbd 00       		.byte	0
 6973 1bbe 07       		.uleb128 0x7
 6974 1bbf 1A160000 		.4byte	.LASF395
 6975 1bc3 22       		.byte	0x22
 6976 1bc4 7801     		.2byte	0x178
 6977 1bc6 9D1B0000 		.4byte	0x1b9d
 6978 1bca 28       		.uleb128 0x28
 6979 1bcb 07       		.byte	0x7
 6980 1bcc 01       		.byte	0x1
 6981 1bcd 5E000000 		.4byte	0x5e
 6982 1bd1 22       		.byte	0x22
 6983 1bd2 7D01     		.2byte	0x17d
 6984 1bd4 EB1B0000 		.4byte	0x1beb
 6985 1bd8 27       		.uleb128 0x27
 6986 1bd9 6E170000 		.4byte	.LASF396
 6987 1bdd 01       		.byte	0x1
 6988 1bde 27       		.uleb128 0x27
 6989 1bdf 70010000 		.4byte	.LASF397
 6990 1be3 02       		.byte	0x2
 6991 1be4 27       		.uleb128 0x27
 6992 1be5 CA140000 		.4byte	.LASF398
ARM GAS  C:\Users\stoma\AppData\Local\Temp\ccLygOki.s 			page 124


 6993 1be9 03       		.byte	0x3
 6994 1bea 00       		.byte	0
 6995 1beb 07       		.uleb128 0x7
 6996 1bec D0030000 		.4byte	.LASF399
 6997 1bf0 22       		.byte	0x22
 6998 1bf1 8101     		.2byte	0x181
 6999 1bf3 CA1B0000 		.4byte	0x1bca
 7000 1bf7 1C       		.uleb128 0x1c
 7001 1bf8 0C       		.byte	0xc
 7002 1bf9 22       		.byte	0x22
 7003 1bfa 8601     		.2byte	0x186
 7004 1bfc 281C0000 		.4byte	0x1c28
 7005 1c00 18       		.uleb128 0x18
 7006 1c01 8F1B0000 		.4byte	.LASF400
 7007 1c05 22       		.byte	0x22
 7008 1c06 8801     		.2byte	0x188
 7009 1c08 BE1B0000 		.4byte	0x1bbe
 7010 1c0c 00       		.byte	0
 7011 1c0d 18       		.uleb128 0x18
 7012 1c0e A41C0000 		.4byte	.LASF401
 7013 1c12 22       		.byte	0x22
 7014 1c13 8901     		.2byte	0x189
 7015 1c15 06090000 		.4byte	0x906
 7016 1c19 04       		.byte	0x4
 7017 1c1a 18       		.uleb128 0x18
 7018 1c1b FF0A0000 		.4byte	.LASF402
 7019 1c1f 22       		.byte	0x22
 7020 1c20 8C01     		.2byte	0x18c
 7021 1c22 EB1B0000 		.4byte	0x1beb
 7022 1c26 08       		.byte	0x8
 7023 1c27 00       		.byte	0
 7024 1c28 07       		.uleb128 0x7
 7025 1c29 43150000 		.4byte	.LASF403
 7026 1c2d 22       		.byte	0x22
 7027 1c2e 8E01     		.2byte	0x18e
 7028 1c30 F71B0000 		.4byte	0x1bf7
 7029 1c34 0F       		.uleb128 0xf
 7030 1c35 281C0000 		.4byte	0x1c28
 7031 1c39 07       		.uleb128 0x7
 7032 1c3a AE050000 		.4byte	.LASF404
 7033 1c3e 22       		.byte	0x22
 7034 1c3f 9301     		.2byte	0x193
 7035 1c41 451C0000 		.4byte	0x1c45
 7036 1c45 1B       		.uleb128 0x1b
 7037 1c46 AE050000 		.4byte	.LASF404
 7038 1c4a 3C       		.byte	0x3c
 7039 1c4b 22       		.byte	0x22
 7040 1c4c 9801     		.2byte	0x198
 7041 1c4e E21C0000 		.4byte	0x1ce2
 7042 1c52 18       		.uleb128 0x18
 7043 1c53 5B020000 		.4byte	.LASF363
 7044 1c57 22       		.byte	0x22
 7045 1c58 9C01     		.2byte	0x19c
 7046 1c5a 7A1B0000 		.4byte	0x1b7a
 7047 1c5e 00       		.byte	0
 7048 1c5f 18       		.uleb128 0x18
 7049 1c60 54020000 		.4byte	.LASF364
ARM GAS  C:\Users\stoma\AppData\Local\Temp\ccLygOki.s 			page 125


 7050 1c64 22       		.byte	0x22
 7051 1c65 A001     		.2byte	0x1a0
 7052 1c67 E21C0000 		.4byte	0x1ce2
 7053 1c6b 04       		.byte	0x4
 7054 1c6c 18       		.uleb128 0x18
 7055 1c6d D3080000 		.4byte	.LASF405
 7056 1c71 22       		.byte	0x22
 7057 1c72 A401     		.2byte	0x1a4
 7058 1c74 911B0000 		.4byte	0x1b91
 7059 1c78 08       		.byte	0x8
 7060 1c79 18       		.uleb128 0x18
 7061 1c7a 39110000 		.4byte	.LASF406
 7062 1c7e 22       		.byte	0x22
 7063 1c7f A901     		.2byte	0x1a9
 7064 1c81 5C150000 		.4byte	0x155c
 7065 1c85 0C       		.byte	0xc
 7066 1c86 18       		.uleb128 0x18
 7067 1c87 FD180000 		.4byte	.LASF407
 7068 1c8b 22       		.byte	0x22
 7069 1c8c B201     		.2byte	0x1b2
 7070 1c8e DE0A0000 		.4byte	0xade
 7071 1c92 20       		.byte	0x20
 7072 1c93 18       		.uleb128 0x18
 7073 1c94 A8110000 		.4byte	.LASF408
 7074 1c98 22       		.byte	0x22
 7075 1c99 B601     		.2byte	0x1b6
 7076 1c9b 851B0000 		.4byte	0x1b85
 7077 1c9f 24       		.byte	0x24
 7078 1ca0 18       		.uleb128 0x18
 7079 1ca1 69110000 		.4byte	.LASF409
 7080 1ca5 22       		.byte	0x22
 7081 1ca6 BA01     		.2byte	0x1ba
 7082 1ca8 06090000 		.4byte	0x906
 7083 1cac 28       		.byte	0x28
 7084 1cad 18       		.uleb128 0x18
 7085 1cae 131E0000 		.4byte	.LASF410
 7086 1cb2 22       		.byte	0x22
 7087 1cb3 BE01     		.2byte	0x1be
 7088 1cb5 06090000 		.4byte	0x906
 7089 1cb9 2C       		.byte	0x2c
 7090 1cba 18       		.uleb128 0x18
 7091 1cbb 880F0000 		.4byte	.LASF411
 7092 1cbf 22       		.byte	0x22
 7093 1cc0 C201     		.2byte	0x1c2
 7094 1cc2 E81C0000 		.4byte	0x1ce8
 7095 1cc6 30       		.byte	0x30
 7096 1cc7 18       		.uleb128 0x18
 7097 1cc8 AD110000 		.4byte	.LASF412
 7098 1ccc 22       		.byte	0x22
 7099 1ccd C601     		.2byte	0x1c6
 7100 1ccf E81C0000 		.4byte	0x1ce8
 7101 1cd3 34       		.byte	0x34
 7102 1cd4 21       		.uleb128 0x21
 7103 1cd5 69326300 		.ascii	"i2c\000"
 7104 1cd9 22       		.byte	0x22
 7105 1cda CA01     		.2byte	0x1ca
 7106 1cdc EE1C0000 		.4byte	0x1cee
ARM GAS  C:\Users\stoma\AppData\Local\Temp\ccLygOki.s 			page 126


 7107 1ce0 38       		.byte	0x38
 7108 1ce1 00       		.byte	0
 7109 1ce2 05       		.uleb128 0x5
 7110 1ce3 04       		.byte	0x4
 7111 1ce4 341C0000 		.4byte	0x1c34
 7112 1ce8 05       		.uleb128 0x5
 7113 1ce9 04       		.byte	0x4
 7114 1cea 70170000 		.4byte	0x1770
 7115 1cee 05       		.uleb128 0x5
 7116 1cef 04       		.byte	0x4
 7117 1cf0 720E0000 		.4byte	0xe72
 7118 1cf4 20       		.uleb128 0x20
 7119 1cf5 A5090000 		.4byte	.LASF413
 7120 1cf9 22       		.byte	0x22
 7121 1cfa E001     		.2byte	0x1e0
 7122 1cfc 391C0000 		.4byte	0x1c39
 7123 1d00 26       		.uleb128 0x26
 7124 1d01 07       		.byte	0x7
 7125 1d02 01       		.byte	0x1
 7126 1d03 5E000000 		.4byte	0x5e
 7127 1d07 23       		.byte	0x23
 7128 1d08 55       		.byte	0x55
 7129 1d09 201D0000 		.4byte	0x1d20
 7130 1d0d 27       		.uleb128 0x27
 7131 1d0e 9B070000 		.4byte	.LASF414
 7132 1d12 00       		.byte	0
 7133 1d13 27       		.uleb128 0x27
 7134 1d14 471D0000 		.4byte	.LASF415
 7135 1d18 01       		.byte	0x1
 7136 1d19 27       		.uleb128 0x27
 7137 1d1a B8180000 		.4byte	.LASF416
 7138 1d1e 02       		.byte	0x2
 7139 1d1f 00       		.byte	0
 7140 1d20 04       		.uleb128 0x4
 7141 1d21 77180000 		.4byte	.LASF417
 7142 1d25 23       		.byte	0x23
 7143 1d26 59       		.byte	0x59
 7144 1d27 001D0000 		.4byte	0x1d00
 7145 1d2b 04       		.uleb128 0x4
 7146 1d2c 1C180000 		.4byte	.LASF418
 7147 1d30 23       		.byte	0x23
 7148 1d31 5E       		.byte	0x5e
 7149 1d32 361D0000 		.4byte	0x1d36
 7150 1d36 10       		.uleb128 0x10
 7151 1d37 1C180000 		.4byte	.LASF418
 7152 1d3b 78       		.byte	0x78
 7153 1d3c 23       		.byte	0x23
 7154 1d3d 78       		.byte	0x78
 7155 1d3e A11D0000 		.4byte	0x1da1
 7156 1d42 11       		.uleb128 0x11
 7157 1d43 766D7400 		.ascii	"vmt\000"
 7158 1d47 23       		.byte	0x23
 7159 1d48 7A       		.byte	0x7a
 7160 1d49 1F1E0000 		.4byte	0x1e1f
 7161 1d4d 00       		.byte	0
 7162 1d4e 0D       		.uleb128 0xd
 7163 1d4f A2110000 		.4byte	.LASF419
ARM GAS  C:\Users\stoma\AppData\Local\Temp\ccLygOki.s 			page 127


 7164 1d53 23       		.byte	0x23
 7165 1d54 7B       		.byte	0x7b
 7166 1d55 E0150000 		.4byte	0x15e0
 7167 1d59 04       		.byte	0x4
 7168 1d5a 0D       		.uleb128 0xd
 7169 1d5b 5B020000 		.4byte	.LASF363
 7170 1d5f 23       		.byte	0x23
 7171 1d60 7B       		.byte	0x7b
 7172 1d61 201D0000 		.4byte	0x1d20
 7173 1d65 08       		.byte	0x8
 7174 1d66 0D       		.uleb128 0xd
 7175 1d67 BC190000 		.4byte	.LASF420
 7176 1d6b 23       		.byte	0x23
 7177 1d6c 7B       		.byte	0x7b
 7178 1d6d 8B160000 		.4byte	0x168b
 7179 1d71 0C       		.byte	0xc
 7180 1d72 0D       		.uleb128 0xd
 7181 1d73 34050000 		.4byte	.LASF421
 7182 1d77 23       		.byte	0x23
 7183 1d78 7B       		.byte	0x7b
 7184 1d79 96160000 		.4byte	0x1696
 7185 1d7d 30       		.byte	0x30
 7186 1d7e 11       		.uleb128 0x11
 7187 1d7f 696200   		.ascii	"ib\000"
 7188 1d82 23       		.byte	0x23
 7189 1d83 7B       		.byte	0x7b
 7190 1d84 251E0000 		.4byte	0x1e25
 7191 1d88 54       		.byte	0x54
 7192 1d89 11       		.uleb128 0x11
 7193 1d8a 6F6200   		.ascii	"ob\000"
 7194 1d8d 23       		.byte	0x23
 7195 1d8e 7B       		.byte	0x7b
 7196 1d8f 251E0000 		.4byte	0x1e25
 7197 1d93 64       		.byte	0x64
 7198 1d94 0D       		.uleb128 0xd
 7199 1d95 01060000 		.4byte	.LASF422
 7200 1d99 23       		.byte	0x23
 7201 1d9a 7B       		.byte	0x7b
 7202 1d9b 351E0000 		.4byte	0x1e35
 7203 1d9f 74       		.byte	0x74
 7204 1da0 00       		.byte	0
 7205 1da1 25       		.uleb128 0x25
 7206 1da2 53443300 		.ascii	"SD3\000"
 7207 1da6 24       		.byte	0x24
 7208 1da7 1501     		.2byte	0x115
 7209 1da9 2B1D0000 		.4byte	0x1d2b
 7210 1dad 10       		.uleb128 0x10
 7211 1dae 680E0000 		.4byte	.LASF423
 7212 1db2 20       		.byte	0x20
 7213 1db3 23       		.byte	0x23
 7214 1db4 6D       		.byte	0x6d
 7215 1db5 1A1E0000 		.4byte	0x1e1a
 7216 1db9 0D       		.uleb128 0xd
 7217 1dba AB0E0000 		.4byte	.LASF424
 7218 1dbe 23       		.byte	0x23
 7219 1dbf 6E       		.byte	0x6e
 7220 1dc0 C0160000 		.4byte	0x16c0
ARM GAS  C:\Users\stoma\AppData\Local\Temp\ccLygOki.s 			page 128


 7221 1dc4 00       		.byte	0
 7222 1dc5 0D       		.uleb128 0xd
 7223 1dc6 C6110000 		.4byte	.LASF425
 7224 1dca 23       		.byte	0x23
 7225 1dcb 6E       		.byte	0x6e
 7226 1dcc DF160000 		.4byte	0x16df
 7227 1dd0 04       		.byte	0x4
 7228 1dd1 11       		.uleb128 0x11
 7229 1dd2 70757400 		.ascii	"put\000"
 7230 1dd6 23       		.byte	0x23
 7231 1dd7 6E       		.byte	0x6e
 7232 1dd8 F9160000 		.4byte	0x16f9
 7233 1ddc 08       		.byte	0x8
 7234 1ddd 11       		.uleb128 0x11
 7235 1dde 67657400 		.ascii	"get\000"
 7236 1de2 23       		.byte	0x23
 7237 1de3 6E       		.byte	0x6e
 7238 1de4 0E170000 		.4byte	0x170e
 7239 1de8 0C       		.byte	0xc
 7240 1de9 0D       		.uleb128 0xd
 7241 1dea 7F020000 		.4byte	.LASF426
 7242 1dee 23       		.byte	0x23
 7243 1def 6E       		.byte	0x6e
 7244 1df0 AF170000 		.4byte	0x17af
 7245 1df4 10       		.byte	0x10
 7246 1df5 0D       		.uleb128 0xd
 7247 1df6 ED080000 		.4byte	.LASF427
 7248 1dfa 23       		.byte	0x23
 7249 1dfb 6E       		.byte	0x6e
 7250 1dfc C9170000 		.4byte	0x17c9
 7251 1e00 14       		.byte	0x14
 7252 1e01 0D       		.uleb128 0xd
 7253 1e02 D9000000 		.4byte	.LASF428
 7254 1e06 23       		.byte	0x23
 7255 1e07 6E       		.byte	0x6e
 7256 1e08 ED170000 		.4byte	0x17ed
 7257 1e0c 18       		.byte	0x18
 7258 1e0d 0D       		.uleb128 0xd
 7259 1e0e ED030000 		.4byte	.LASF429
 7260 1e12 23       		.byte	0x23
 7261 1e13 6E       		.byte	0x6e
 7262 1e14 11180000 		.4byte	0x1811
 7263 1e18 1C       		.byte	0x1c
 7264 1e19 00       		.byte	0
 7265 1e1a 0F       		.uleb128 0xf
 7266 1e1b AD1D0000 		.4byte	0x1dad
 7267 1e1f 05       		.uleb128 0x5
 7268 1e20 04       		.byte	0x4
 7269 1e21 1A1E0000 		.4byte	0x1e1a
 7270 1e25 0A       		.uleb128 0xa
 7271 1e26 DB080000 		.4byte	0x8db
 7272 1e2a 351E0000 		.4byte	0x1e35
 7273 1e2e 0B       		.uleb128 0xb
 7274 1e2f 25000000 		.4byte	0x25
 7275 1e33 0F       		.byte	0xf
 7276 1e34 00       		.byte	0
 7277 1e35 05       		.uleb128 0x5
ARM GAS  C:\Users\stoma\AppData\Local\Temp\ccLygOki.s 			page 129


 7278 1e36 04       		.byte	0x4
 7279 1e37 7C100000 		.4byte	0x107c
 7280 1e3b 04       		.uleb128 0x4
 7281 1e3c 9F080000 		.4byte	.LASF430
 7282 1e40 25       		.byte	0x25
 7283 1e41 FA       		.byte	0xfa
 7284 1e42 461E0000 		.4byte	0x1e46
 7285 1e46 17       		.uleb128 0x17
 7286 1e47 9F080000 		.4byte	.LASF430
 7287 1e4b 6002     		.2byte	0x260
 7288 1e4d 26       		.byte	0x26
 7289 1e4e 7701     		.2byte	0x177
 7290 1e50 721F0000 		.4byte	0x1f72
 7291 1e54 18       		.uleb128 0x18
 7292 1e55 5B020000 		.4byte	.LASF363
 7293 1e59 26       		.byte	0x26
 7294 1e5a 7B01     		.2byte	0x17b
 7295 1e5c AA1F0000 		.4byte	0x1faa
 7296 1e60 00       		.byte	0
 7297 1e61 18       		.uleb128 0x18
 7298 1e62 54020000 		.4byte	.LASF364
 7299 1e66 26       		.byte	0x26
 7300 1e67 7F01     		.2byte	0x17f
 7301 1e69 FA280000 		.4byte	0x28fa
 7302 1e6d 04       		.byte	0x4
 7303 1e6e 18       		.uleb128 0x18
 7304 1e6f D81C0000 		.4byte	.LASF431
 7305 1e73 26       		.byte	0x26
 7306 1e74 8301     		.2byte	0x183
 7307 1e76 EB080000 		.4byte	0x8eb
 7308 1e7a 08       		.byte	0x8
 7309 1e7b 18       		.uleb128 0x18
 7310 1e7c 82080000 		.4byte	.LASF432
 7311 1e80 26       		.byte	0x26
 7312 1e81 8701     		.2byte	0x187
 7313 1e83 EB080000 		.4byte	0x8eb
 7314 1e87 0A       		.byte	0xa
 7315 1e88 21       		.uleb128 0x21
 7316 1e89 65706300 		.ascii	"epc\000"
 7317 1e8d 26       		.byte	0x26
 7318 1e8e 8B01     		.2byte	0x18b
 7319 1e90 00290000 		.4byte	0x2900
 7320 1e94 0C       		.byte	0xc
 7321 1e95 18       		.uleb128 0x18
 7322 1e96 82010000 		.4byte	.LASF433
 7323 1e9a 26       		.byte	0x26
 7324 1e9b 9201     		.2byte	0x192
 7325 1e9d 16290000 		.4byte	0x2916
 7326 1ea1 1C       		.byte	0x1c
 7327 1ea2 18       		.uleb128 0x18
 7328 1ea3 0D1D0000 		.4byte	.LASF434
 7329 1ea7 26       		.byte	0x26
 7330 1ea8 9901     		.2byte	0x199
 7331 1eaa 16290000 		.4byte	0x2916
 7332 1eae 28       		.byte	0x28
 7333 1eaf 18       		.uleb128 0x18
 7334 1eb0 6E070000 		.4byte	.LASF435
ARM GAS  C:\Users\stoma\AppData\Local\Temp\ccLygOki.s 			page 130


 7335 1eb4 26       		.byte	0x26
 7336 1eb5 9D01     		.2byte	0x19d
 7337 1eb7 1C200000 		.4byte	0x201c
 7338 1ebb 34       		.byte	0x34
 7339 1ebc 18       		.uleb128 0x18
 7340 1ebd 70100000 		.4byte	.LASF436
 7341 1ec1 26       		.byte	0x26
 7342 1ec2 A101     		.2byte	0x1a1
 7343 1ec4 85160000 		.4byte	0x1685
 7344 1ec8 38       		.byte	0x38
 7345 1ec9 18       		.uleb128 0x18
 7346 1eca 5D080000 		.4byte	.LASF437
 7347 1ece 26       		.byte	0x26
 7348 1ecf A501     		.2byte	0x1a5
 7349 1ed1 33000000 		.4byte	0x33
 7350 1ed5 3C       		.byte	0x3c
 7351 1ed6 18       		.uleb128 0x18
 7352 1ed7 A10D0000 		.4byte	.LASF438
 7353 1edb 26       		.byte	0x26
 7354 1edc A901     		.2byte	0x1a9
 7355 1ede 9C200000 		.4byte	0x209c
 7356 1ee2 40       		.byte	0x40
 7357 1ee3 18       		.uleb128 0x18
 7358 1ee4 6A0A0000 		.4byte	.LASF439
 7359 1ee8 26       		.byte	0x26
 7360 1ee9 AD01     		.2byte	0x1ad
 7361 1eeb 26290000 		.4byte	0x2926
 7362 1eef 44       		.byte	0x44
 7363 1ef0 18       		.uleb128 0x18
 7364 1ef1 6D1B0000 		.4byte	.LASF440
 7365 1ef5 26       		.byte	0x26
 7366 1ef6 B101     		.2byte	0x1b1
 7367 1ef8 EB080000 		.4byte	0x8eb
 7368 1efc 4C       		.byte	0x4c
 7369 1efd 18       		.uleb128 0x18
 7370 1efe 6B0D0000 		.4byte	.LASF441
 7371 1f02 26       		.byte	0x26
 7372 1f03 B501     		.2byte	0x1b5
 7373 1f05 DB080000 		.4byte	0x8db
 7374 1f09 4E       		.byte	0x4e
 7375 1f0a 18       		.uleb128 0x18
 7376 1f0b 3B0B0000 		.4byte	.LASF442
 7377 1f0f 26       		.byte	0x26
 7378 1f10 B901     		.2byte	0x1b9
 7379 1f12 DB080000 		.4byte	0x8db
 7380 1f16 4F       		.byte	0x4f
 7381 1f17 21       		.uleb128 0x21
 7382 1f18 6F746700 		.ascii	"otg\000"
 7383 1f1c 26       		.byte	0x26
 7384 1f1d C101     		.2byte	0x1c1
 7385 1f1f 36290000 		.4byte	0x2936
 7386 1f23 50       		.byte	0x50
 7387 1f24 18       		.uleb128 0x18
 7388 1f25 24150000 		.4byte	.LASF443
 7389 1f29 26       		.byte	0x26
 7390 1f2a C501     		.2byte	0x1c5
 7391 1f2c 3C290000 		.4byte	0x293c
ARM GAS  C:\Users\stoma\AppData\Local\Temp\ccLygOki.s 			page 131


 7392 1f30 54       		.byte	0x54
 7393 1f31 18       		.uleb128 0x18
 7394 1f32 F51D0000 		.4byte	.LASF444
 7395 1f36 26       		.byte	0x26
 7396 1f37 C901     		.2byte	0x1c9
 7397 1f39 06090000 		.4byte	0x906
 7398 1f3d 58       		.byte	0x58
 7399 1f3e 18       		.uleb128 0x18
 7400 1f3f 6B120000 		.4byte	.LASF445
 7401 1f43 26       		.byte	0x26
 7402 1f44 CD01     		.2byte	0x1cd
 7403 1f46 06090000 		.4byte	0x906
 7404 1f4a 5C       		.byte	0x5c
 7405 1f4b 18       		.uleb128 0x18
 7406 1f4c 7D110000 		.4byte	.LASF446
 7407 1f50 26       		.byte	0x26
 7408 1f51 D101     		.2byte	0x1d1
 7409 1f53 DE0A0000 		.4byte	0xade
 7410 1f57 60       		.byte	0x60
 7411 1f58 21       		.uleb128 0x21
 7412 1f59 747200   		.ascii	"tr\000"
 7413 1f5c 26       		.byte	0x26
 7414 1f5d D601     		.2byte	0x1d6
 7415 1f5f DE0A0000 		.4byte	0xade
 7416 1f63 64       		.byte	0x64
 7417 1f64 18       		.uleb128 0x18
 7418 1f65 A5180000 		.4byte	.LASF447
 7419 1f69 26       		.byte	0x26
 7420 1f6a DA01     		.2byte	0x1da
 7421 1f6c 42290000 		.4byte	0x2942
 7422 1f70 68       		.byte	0x68
 7423 1f71 00       		.byte	0
 7424 1f72 04       		.uleb128 0x4
 7425 1f73 CB1B0000 		.4byte	.LASF448
 7426 1f77 25       		.byte	0x25
 7427 1f78 FF       		.byte	0xff
 7428 1f79 DB080000 		.4byte	0x8db
 7429 1f7d 28       		.uleb128 0x28
 7430 1f7e 07       		.byte	0x7
 7431 1f7f 01       		.byte	0x1
 7432 1f80 5E000000 		.4byte	0x5e
 7433 1f84 25       		.byte	0x25
 7434 1f85 0401     		.2byte	0x104
 7435 1f87 AA1F0000 		.4byte	0x1faa
 7436 1f8b 27       		.uleb128 0x27
 7437 1f8c 210A0000 		.4byte	.LASF449
 7438 1f90 00       		.byte	0
 7439 1f91 27       		.uleb128 0x27
 7440 1f92 780E0000 		.4byte	.LASF450
 7441 1f96 01       		.byte	0x1
 7442 1f97 27       		.uleb128 0x27
 7443 1f98 F90F0000 		.4byte	.LASF451
 7444 1f9c 02       		.byte	0x2
 7445 1f9d 27       		.uleb128 0x27
 7446 1f9e 1F0B0000 		.4byte	.LASF452
 7447 1fa2 03       		.byte	0x3
 7448 1fa3 27       		.uleb128 0x27
ARM GAS  C:\Users\stoma\AppData\Local\Temp\ccLygOki.s 			page 132


 7449 1fa4 1E0E0000 		.4byte	.LASF453
 7450 1fa8 04       		.byte	0x4
 7451 1fa9 00       		.byte	0
 7452 1faa 07       		.uleb128 0x7
 7453 1fab F00E0000 		.4byte	.LASF454
 7454 1faf 25       		.byte	0x25
 7455 1fb0 0A01     		.2byte	0x10a
 7456 1fb2 7D1F0000 		.4byte	0x1f7d
 7457 1fb6 28       		.uleb128 0x28
 7458 1fb7 07       		.byte	0x7
 7459 1fb8 01       		.byte	0x1
 7460 1fb9 5E000000 		.4byte	0x5e
 7461 1fbd 25       		.byte	0x25
 7462 1fbe 0F01     		.2byte	0x10f
 7463 1fc0 D71F0000 		.4byte	0x1fd7
 7464 1fc4 27       		.uleb128 0x27
 7465 1fc5 2A1D0000 		.4byte	.LASF455
 7466 1fc9 00       		.byte	0
 7467 1fca 27       		.uleb128 0x27
 7468 1fcb 7F0C0000 		.4byte	.LASF456
 7469 1fcf 01       		.byte	0x1
 7470 1fd0 27       		.uleb128 0x27
 7471 1fd1 71060000 		.4byte	.LASF457
 7472 1fd5 02       		.byte	0x2
 7473 1fd6 00       		.byte	0
 7474 1fd7 07       		.uleb128 0x7
 7475 1fd8 01040000 		.4byte	.LASF458
 7476 1fdc 25       		.byte	0x25
 7477 1fdd 1301     		.2byte	0x113
 7478 1fdf B61F0000 		.4byte	0x1fb6
 7479 1fe3 28       		.uleb128 0x28
 7480 1fe4 07       		.byte	0x7
 7481 1fe5 01       		.byte	0x1
 7482 1fe6 5E000000 		.4byte	0x5e
 7483 1fea 25       		.byte	0x25
 7484 1feb 1801     		.2byte	0x118
 7485 1fed 1C200000 		.4byte	0x201c
 7486 1ff1 27       		.uleb128 0x27
 7487 1ff2 6A050000 		.4byte	.LASF459
 7488 1ff6 00       		.byte	0
 7489 1ff7 27       		.uleb128 0x27
 7490 1ff8 E0090000 		.4byte	.LASF460
 7491 1ffc 01       		.byte	0x1
 7492 1ffd 27       		.uleb128 0x27
 7493 1ffe 04150000 		.4byte	.LASF461
 7494 2002 02       		.byte	0x2
 7495 2003 27       		.uleb128 0x27
 7496 2004 25030000 		.4byte	.LASF462
 7497 2008 03       		.byte	0x3
 7498 2009 27       		.uleb128 0x27
 7499 200a 401E0000 		.4byte	.LASF463
 7500 200e 04       		.byte	0x4
 7501 200f 27       		.uleb128 0x27
 7502 2010 781D0000 		.4byte	.LASF464
 7503 2014 05       		.byte	0x5
 7504 2015 27       		.uleb128 0x27
 7505 2016 2F0F0000 		.4byte	.LASF465
ARM GAS  C:\Users\stoma\AppData\Local\Temp\ccLygOki.s 			page 133


 7506 201a 06       		.byte	0x6
 7507 201b 00       		.byte	0
 7508 201c 07       		.uleb128 0x7
 7509 201d 02180000 		.4byte	.LASF466
 7510 2021 25       		.byte	0x25
 7511 2022 2001     		.2byte	0x120
 7512 2024 E31F0000 		.4byte	0x1fe3
 7513 2028 28       		.uleb128 0x28
 7514 2029 07       		.byte	0x7
 7515 202a 01       		.byte	0x1
 7516 202b 5E000000 		.4byte	0x5e
 7517 202f 25       		.byte	0x25
 7518 2030 2501     		.2byte	0x125
 7519 2032 5B200000 		.4byte	0x205b
 7520 2036 27       		.uleb128 0x27
 7521 2037 9F190000 		.4byte	.LASF467
 7522 203b 00       		.byte	0
 7523 203c 27       		.uleb128 0x27
 7524 203d 18040000 		.4byte	.LASF468
 7525 2041 01       		.byte	0x1
 7526 2042 27       		.uleb128 0x27
 7527 2043 29180000 		.4byte	.LASF469
 7528 2047 02       		.byte	0x2
 7529 2048 27       		.uleb128 0x27
 7530 2049 C61C0000 		.4byte	.LASF470
 7531 204d 03       		.byte	0x3
 7532 204e 27       		.uleb128 0x27
 7533 204f 9F0F0000 		.4byte	.LASF471
 7534 2053 04       		.byte	0x4
 7535 2054 27       		.uleb128 0x27
 7536 2055 5F060000 		.4byte	.LASF472
 7537 2059 05       		.byte	0x5
 7538 205a 00       		.byte	0
 7539 205b 07       		.uleb128 0x7
 7540 205c CA0A0000 		.4byte	.LASF473
 7541 2060 25       		.byte	0x25
 7542 2061 2C01     		.2byte	0x12c
 7543 2063 28200000 		.4byte	0x2028
 7544 2067 1C       		.uleb128 0x1c
 7545 2068 08       		.byte	0x8
 7546 2069 25       		.byte	0x25
 7547 206a 3101     		.2byte	0x131
 7548 206c 8B200000 		.4byte	0x208b
 7549 2070 18       		.uleb128 0x18
 7550 2071 2C130000 		.4byte	.LASF474
 7551 2075 25       		.byte	0x25
 7552 2076 3501     		.2byte	0x135
 7553 2078 33000000 		.4byte	0x33
 7554 207c 00       		.byte	0
 7555 207d 18       		.uleb128 0x18
 7556 207e E9140000 		.4byte	.LASF475
 7557 2082 25       		.byte	0x25
 7558 2083 3901     		.2byte	0x139
 7559 2085 BA160000 		.4byte	0x16ba
 7560 2089 04       		.byte	0x4
 7561 208a 00       		.byte	0
 7562 208b 07       		.uleb128 0x7
ARM GAS  C:\Users\stoma\AppData\Local\Temp\ccLygOki.s 			page 134


 7563 208c 540A0000 		.4byte	.LASF476
 7564 2090 25       		.byte	0x25
 7565 2091 3A01     		.2byte	0x13a
 7566 2093 67200000 		.4byte	0x2067
 7567 2097 0F       		.uleb128 0xf
 7568 2098 8B200000 		.4byte	0x208b
 7569 209c 07       		.uleb128 0x7
 7570 209d 941A0000 		.4byte	.LASF477
 7571 20a1 25       		.byte	0x25
 7572 20a2 4201     		.2byte	0x142
 7573 20a4 A8200000 		.4byte	0x20a8
 7574 20a8 05       		.uleb128 0x5
 7575 20a9 04       		.byte	0x4
 7576 20aa AE200000 		.4byte	0x20ae
 7577 20ae 1F       		.uleb128 0x1f
 7578 20af B9200000 		.4byte	0x20b9
 7579 20b3 16       		.uleb128 0x16
 7580 20b4 B9200000 		.4byte	0x20b9
 7581 20b8 00       		.byte	0
 7582 20b9 05       		.uleb128 0x5
 7583 20ba 04       		.byte	0x4
 7584 20bb 3B1E0000 		.4byte	0x1e3b
 7585 20bf 07       		.uleb128 0x7
 7586 20c0 E2100000 		.4byte	.LASF478
 7587 20c4 25       		.byte	0x25
 7588 20c5 4B01     		.2byte	0x14b
 7589 20c7 CB200000 		.4byte	0x20cb
 7590 20cb 05       		.uleb128 0x5
 7591 20cc 04       		.byte	0x4
 7592 20cd D1200000 		.4byte	0x20d1
 7593 20d1 1F       		.uleb128 0x1f
 7594 20d2 E1200000 		.4byte	0x20e1
 7595 20d6 16       		.uleb128 0x16
 7596 20d7 B9200000 		.4byte	0x20b9
 7597 20db 16       		.uleb128 0x16
 7598 20dc 721F0000 		.4byte	0x1f72
 7599 20e0 00       		.byte	0
 7600 20e1 07       		.uleb128 0x7
 7601 20e2 40090000 		.4byte	.LASF479
 7602 20e6 25       		.byte	0x25
 7603 20e7 5401     		.2byte	0x154
 7604 20e9 ED200000 		.4byte	0x20ed
 7605 20ed 05       		.uleb128 0x5
 7606 20ee 04       		.byte	0x4
 7607 20ef F3200000 		.4byte	0x20f3
 7608 20f3 1F       		.uleb128 0x1f
 7609 20f4 03210000 		.4byte	0x2103
 7610 20f8 16       		.uleb128 0x16
 7611 20f9 B9200000 		.4byte	0x20b9
 7612 20fd 16       		.uleb128 0x16
 7613 20fe 5B200000 		.4byte	0x205b
 7614 2102 00       		.byte	0
 7615 2103 07       		.uleb128 0x7
 7616 2104 721A0000 		.4byte	.LASF480
 7617 2108 25       		.byte	0x25
 7618 2109 6001     		.2byte	0x160
 7619 210b 0F210000 		.4byte	0x210f
ARM GAS  C:\Users\stoma\AppData\Local\Temp\ccLygOki.s 			page 135


 7620 210f 05       		.uleb128 0x5
 7621 2110 04       		.byte	0x4
 7622 2111 15210000 		.4byte	0x2115
 7623 2115 15       		.uleb128 0x15
 7624 2116 17180000 		.4byte	0x1817
 7625 211a 24210000 		.4byte	0x2124
 7626 211e 16       		.uleb128 0x16
 7627 211f B9200000 		.4byte	0x20b9
 7628 2123 00       		.byte	0
 7629 2124 07       		.uleb128 0x7
 7630 2125 92180000 		.4byte	.LASF481
 7631 2129 25       		.byte	0x25
 7632 212a 6501     		.2byte	0x165
 7633 212c 30210000 		.4byte	0x2130
 7634 2130 05       		.uleb128 0x5
 7635 2131 04       		.byte	0x4
 7636 2132 36210000 		.4byte	0x2136
 7637 2136 15       		.uleb128 0x15
 7638 2137 54210000 		.4byte	0x2154
 7639 213b 54210000 		.4byte	0x2154
 7640 213f 16       		.uleb128 0x16
 7641 2140 B9200000 		.4byte	0x20b9
 7642 2144 16       		.uleb128 0x16
 7643 2145 DB080000 		.4byte	0x8db
 7644 2149 16       		.uleb128 0x16
 7645 214a DB080000 		.4byte	0x8db
 7646 214e 16       		.uleb128 0x16
 7647 214f EB080000 		.4byte	0x8eb
 7648 2153 00       		.byte	0
 7649 2154 05       		.uleb128 0x5
 7650 2155 04       		.byte	0x4
 7651 2156 97200000 		.4byte	0x2097
 7652 215a 0C       		.uleb128 0xc
 7653 215b 20       		.byte	0x20
 7654 215c 27       		.byte	0x27
 7655 215d 35       		.byte	0x35
 7656 215e C3210000 		.4byte	0x21c3
 7657 2162 0D       		.uleb128 0xd
 7658 2163 02080000 		.4byte	.LASF482
 7659 2167 27       		.byte	0x27
 7660 2168 36       		.byte	0x36
 7661 2169 11090000 		.4byte	0x911
 7662 216d 00       		.byte	0
 7663 216e 0D       		.uleb128 0xd
 7664 216f 13010000 		.4byte	.LASF483
 7665 2173 27       		.byte	0x27
 7666 2174 38       		.byte	0x38
 7667 2175 11090000 		.4byte	0x911
 7668 2179 04       		.byte	0x4
 7669 217a 0D       		.uleb128 0xd
 7670 217b 3B160000 		.4byte	.LASF484
 7671 217f 27       		.byte	0x27
 7672 2180 39       		.byte	0x39
 7673 2181 11090000 		.4byte	0x911
 7674 2185 08       		.byte	0x8
 7675 2186 0D       		.uleb128 0xd
 7676 2187 97160000 		.4byte	.LASF485
ARM GAS  C:\Users\stoma\AppData\Local\Temp\ccLygOki.s 			page 136


 7677 218b 27       		.byte	0x27
 7678 218c 3A       		.byte	0x3a
 7679 218d 11090000 		.4byte	0x911
 7680 2191 0C       		.byte	0xc
 7681 2192 0D       		.uleb128 0xd
 7682 2193 2A020000 		.4byte	.LASF486
 7683 2197 27       		.byte	0x27
 7684 2198 3C       		.byte	0x3c
 7685 2199 11090000 		.4byte	0x911
 7686 219d 10       		.byte	0x10
 7687 219e 0D       		.uleb128 0xd
 7688 219f AF190000 		.4byte	.LASF487
 7689 21a3 27       		.byte	0x27
 7690 21a4 3E       		.byte	0x3e
 7691 21a5 11090000 		.4byte	0x911
 7692 21a9 14       		.byte	0x14
 7693 21aa 0D       		.uleb128 0xd
 7694 21ab C9000000 		.4byte	.LASF488
 7695 21af 27       		.byte	0x27
 7696 21b0 3F       		.byte	0x3f
 7697 21b1 11090000 		.4byte	0x911
 7698 21b5 18       		.byte	0x18
 7699 21b6 0D       		.uleb128 0xd
 7700 21b7 5F1A0000 		.4byte	.LASF489
 7701 21bb 27       		.byte	0x27
 7702 21bc 40       		.byte	0x40
 7703 21bd 11090000 		.4byte	0x911
 7704 21c1 1C       		.byte	0x1c
 7705 21c2 00       		.byte	0
 7706 21c3 04       		.uleb128 0x4
 7707 21c4 6D090000 		.4byte	.LASF490
 7708 21c8 27       		.byte	0x27
 7709 21c9 41       		.byte	0x41
 7710 21ca 5A210000 		.4byte	0x215a
 7711 21ce 0C       		.uleb128 0xc
 7712 21cf 20       		.byte	0x20
 7713 21d0 27       		.byte	0x27
 7714 21d1 46       		.byte	0x46
 7715 21d2 37220000 		.4byte	0x2237
 7716 21d6 0D       		.uleb128 0xd
 7717 21d7 821A0000 		.4byte	.LASF491
 7718 21db 27       		.byte	0x27
 7719 21dc 47       		.byte	0x47
 7720 21dd 11090000 		.4byte	0x911
 7721 21e1 00       		.byte	0
 7722 21e2 0D       		.uleb128 0xd
 7723 21e3 19020000 		.4byte	.LASF492
 7724 21e7 27       		.byte	0x27
 7725 21e8 49       		.byte	0x49
 7726 21e9 11090000 		.4byte	0x911
 7727 21ed 04       		.byte	0x4
 7728 21ee 0D       		.uleb128 0xd
 7729 21ef F31A0000 		.4byte	.LASF493
 7730 21f3 27       		.byte	0x27
 7731 21f4 4A       		.byte	0x4a
 7732 21f5 11090000 		.4byte	0x911
 7733 21f9 08       		.byte	0x8
ARM GAS  C:\Users\stoma\AppData\Local\Temp\ccLygOki.s 			page 137


 7734 21fa 0D       		.uleb128 0xd
 7735 21fb 37010000 		.4byte	.LASF494
 7736 21ff 27       		.byte	0x27
 7737 2200 4C       		.byte	0x4c
 7738 2201 11090000 		.4byte	0x911
 7739 2205 0C       		.byte	0xc
 7740 2206 0D       		.uleb128 0xd
 7741 2207 A5070000 		.4byte	.LASF495
 7742 220b 27       		.byte	0x27
 7743 220c 4D       		.byte	0x4d
 7744 220d 11090000 		.4byte	0x911
 7745 2211 10       		.byte	0x10
 7746 2212 0D       		.uleb128 0xd
 7747 2213 AF190000 		.4byte	.LASF487
 7748 2217 27       		.byte	0x27
 7749 2218 4F       		.byte	0x4f
 7750 2219 11090000 		.4byte	0x911
 7751 221d 14       		.byte	0x14
 7752 221e 0D       		.uleb128 0xd
 7753 221f C3190000 		.4byte	.LASF496
 7754 2223 27       		.byte	0x27
 7755 2224 50       		.byte	0x50
 7756 2225 11090000 		.4byte	0x911
 7757 2229 18       		.byte	0x18
 7758 222a 0D       		.uleb128 0xd
 7759 222b DE190000 		.4byte	.LASF497
 7760 222f 27       		.byte	0x27
 7761 2230 52       		.byte	0x52
 7762 2231 11090000 		.4byte	0x911
 7763 2235 1C       		.byte	0x1c
 7764 2236 00       		.byte	0
 7765 2237 04       		.uleb128 0x4
 7766 2238 C1170000 		.4byte	.LASF498
 7767 223c 27       		.byte	0x27
 7768 223d 53       		.byte	0x53
 7769 223e CE210000 		.4byte	0x21ce
 7770 2242 0C       		.uleb128 0xc
 7771 2243 20       		.byte	0x20
 7772 2244 27       		.byte	0x27
 7773 2245 58       		.byte	0x58
 7774 2246 AB220000 		.4byte	0x22ab
 7775 224a 0D       		.uleb128 0xd
 7776 224b F9050000 		.4byte	.LASF499
 7777 224f 27       		.byte	0x27
 7778 2250 59       		.byte	0x59
 7779 2251 11090000 		.4byte	0x911
 7780 2255 00       		.byte	0
 7781 2256 0D       		.uleb128 0xd
 7782 2257 19020000 		.4byte	.LASF492
 7783 225b 27       		.byte	0x27
 7784 225c 5B       		.byte	0x5b
 7785 225d 11090000 		.4byte	0x911
 7786 2261 04       		.byte	0x4
 7787 2262 0D       		.uleb128 0xd
 7788 2263 82060000 		.4byte	.LASF500
 7789 2267 27       		.byte	0x27
 7790 2268 5C       		.byte	0x5c
ARM GAS  C:\Users\stoma\AppData\Local\Temp\ccLygOki.s 			page 138


 7791 2269 11090000 		.4byte	0x911
 7792 226d 08       		.byte	0x8
 7793 226e 0D       		.uleb128 0xd
 7794 226f 37010000 		.4byte	.LASF494
 7795 2273 27       		.byte	0x27
 7796 2274 5E       		.byte	0x5e
 7797 2275 11090000 		.4byte	0x911
 7798 2279 0C       		.byte	0xc
 7799 227a 0D       		.uleb128 0xd
 7800 227b BD110000 		.4byte	.LASF501
 7801 227f 27       		.byte	0x27
 7802 2280 5F       		.byte	0x5f
 7803 2281 11090000 		.4byte	0x911
 7804 2285 10       		.byte	0x10
 7805 2286 0D       		.uleb128 0xd
 7806 2287 AF190000 		.4byte	.LASF487
 7807 228b 27       		.byte	0x27
 7808 228c 61       		.byte	0x61
 7809 228d 11090000 		.4byte	0x911
 7810 2291 14       		.byte	0x14
 7811 2292 0D       		.uleb128 0xd
 7812 2293 C9000000 		.4byte	.LASF488
 7813 2297 27       		.byte	0x27
 7814 2298 62       		.byte	0x62
 7815 2299 11090000 		.4byte	0x911
 7816 229d 18       		.byte	0x18
 7817 229e 0D       		.uleb128 0xd
 7818 229f DE190000 		.4byte	.LASF497
 7819 22a3 27       		.byte	0x27
 7820 22a4 63       		.byte	0x63
 7821 22a5 11090000 		.4byte	0x911
 7822 22a9 1C       		.byte	0x1c
 7823 22aa 00       		.byte	0
 7824 22ab 04       		.uleb128 0x4
 7825 22ac 26120000 		.4byte	.LASF502
 7826 22b0 27       		.byte	0x27
 7827 22b1 64       		.byte	0x64
 7828 22b2 42220000 		.4byte	0x2242
 7829 22b6 29       		.uleb128 0x29
 7830 22b7 00100100 		.4byte	0x11000
 7831 22bb 27       		.byte	0x27
 7832 22bc 69       		.byte	0x69
 7833 22bd 93250000 		.4byte	0x2593
 7834 22c1 0D       		.uleb128 0xd
 7835 22c2 560F0000 		.4byte	.LASF503
 7836 22c6 27       		.byte	0x27
 7837 22c7 6A       		.byte	0x6a
 7838 22c8 11090000 		.4byte	0x911
 7839 22cc 00       		.byte	0
 7840 22cd 0D       		.uleb128 0xd
 7841 22ce E30F0000 		.4byte	.LASF504
 7842 22d2 27       		.byte	0x27
 7843 22d3 6B       		.byte	0x6b
 7844 22d4 11090000 		.4byte	0x911
 7845 22d8 04       		.byte	0x4
 7846 22d9 0D       		.uleb128 0xd
 7847 22da C50D0000 		.4byte	.LASF505
ARM GAS  C:\Users\stoma\AppData\Local\Temp\ccLygOki.s 			page 139


 7848 22de 27       		.byte	0x27
 7849 22df 6C       		.byte	0x6c
 7850 22e0 11090000 		.4byte	0x911
 7851 22e4 08       		.byte	0x8
 7852 22e5 0D       		.uleb128 0xd
 7853 22e6 1D1E0000 		.4byte	.LASF506
 7854 22ea 27       		.byte	0x27
 7855 22eb 6D       		.byte	0x6d
 7856 22ec 11090000 		.4byte	0x911
 7857 22f0 0C       		.byte	0xc
 7858 22f1 0D       		.uleb128 0xd
 7859 22f2 A21A0000 		.4byte	.LASF507
 7860 22f6 27       		.byte	0x27
 7861 22f7 6E       		.byte	0x6e
 7862 22f8 11090000 		.4byte	0x911
 7863 22fc 10       		.byte	0x10
 7864 22fd 0D       		.uleb128 0xd
 7865 22fe B31A0000 		.4byte	.LASF508
 7866 2302 27       		.byte	0x27
 7867 2303 6F       		.byte	0x6f
 7868 2304 11090000 		.4byte	0x911
 7869 2308 14       		.byte	0x14
 7870 2309 0D       		.uleb128 0xd
 7871 230a 06140000 		.4byte	.LASF509
 7872 230e 27       		.byte	0x27
 7873 230f 70       		.byte	0x70
 7874 2310 11090000 		.4byte	0x911
 7875 2314 18       		.byte	0x18
 7876 2315 0D       		.uleb128 0xd
 7877 2316 970F0000 		.4byte	.LASF510
 7878 231a 27       		.byte	0x27
 7879 231b 71       		.byte	0x71
 7880 231c 11090000 		.4byte	0x911
 7881 2320 1C       		.byte	0x1c
 7882 2321 0D       		.uleb128 0xd
 7883 2322 78100000 		.4byte	.LASF511
 7884 2326 27       		.byte	0x27
 7885 2327 73       		.byte	0x73
 7886 2328 11090000 		.4byte	0x911
 7887 232c 20       		.byte	0x20
 7888 232d 0D       		.uleb128 0xd
 7889 232e 770C0000 		.4byte	.LASF512
 7890 2332 27       		.byte	0x27
 7891 2333 75       		.byte	0x75
 7892 2334 11090000 		.4byte	0x911
 7893 2338 24       		.byte	0x24
 7894 2339 0D       		.uleb128 0xd
 7895 233a 2A040000 		.4byte	.LASF513
 7896 233e 27       		.byte	0x27
 7897 233f 76       		.byte	0x76
 7898 2340 11090000 		.4byte	0x911
 7899 2344 28       		.byte	0x28
 7900 2345 0D       		.uleb128 0xd
 7901 2346 FB1A0000 		.4byte	.LASF514
 7902 234a 27       		.byte	0x27
 7903 234b 78       		.byte	0x78
 7904 234c 11090000 		.4byte	0x911
ARM GAS  C:\Users\stoma\AppData\Local\Temp\ccLygOki.s 			page 140


 7905 2350 2C       		.byte	0x2c
 7906 2351 0D       		.uleb128 0xd
 7907 2352 7D1B0000 		.4byte	.LASF515
 7908 2356 27       		.byte	0x27
 7909 2357 7A       		.byte	0x7a
 7910 2358 11090000 		.4byte	0x911
 7911 235c 30       		.byte	0x30
 7912 235d 0D       		.uleb128 0xd
 7913 235e 971B0000 		.4byte	.LASF516
 7914 2362 27       		.byte	0x27
 7915 2363 7B       		.byte	0x7b
 7916 2364 11090000 		.4byte	0x911
 7917 2368 34       		.byte	0x34
 7918 2369 0D       		.uleb128 0xd
 7919 236a D1090000 		.4byte	.LASF517
 7920 236e 27       		.byte	0x27
 7921 236f 7C       		.byte	0x7c
 7922 2370 11090000 		.4byte	0x911
 7923 2374 38       		.byte	0x38
 7924 2375 11       		.uleb128 0x11
 7925 2376 43494400 		.ascii	"CID\000"
 7926 237a 27       		.byte	0x27
 7927 237b 7D       		.byte	0x7d
 7928 237c 11090000 		.4byte	0x911
 7929 2380 3C       		.byte	0x3c
 7930 2381 0D       		.uleb128 0xd
 7931 2382 701D0000 		.4byte	.LASF518
 7932 2386 27       		.byte	0x27
 7933 2387 7E       		.byte	0x7e
 7934 2388 A3250000 		.4byte	0x25a3
 7935 238c 40       		.byte	0x40
 7936 238d 13       		.uleb128 0x13
 7937 238e DF150000 		.4byte	.LASF519
 7938 2392 27       		.byte	0x27
 7939 2393 7F       		.byte	0x7f
 7940 2394 11090000 		.4byte	0x911
 7941 2398 0001     		.2byte	0x100
 7942 239a 13       		.uleb128 0x13
 7943 239b 130D0000 		.4byte	.LASF520
 7944 239f 27       		.byte	0x27
 7945 23a0 81       		.byte	0x81
 7946 23a1 98100000 		.4byte	0x1098
 7947 23a5 0401     		.2byte	0x104
 7948 23a7 13       		.uleb128 0x13
 7949 23a8 4B1E0000 		.4byte	.LASF521
 7950 23ac 27       		.byte	0x27
 7951 23ad 83       		.byte	0x83
 7952 23ae B8250000 		.4byte	0x25b8
 7953 23b2 4001     		.2byte	0x140
 7954 23b4 13       		.uleb128 0x13
 7955 23b5 FD070000 		.4byte	.LASF522
 7956 23b9 27       		.byte	0x27
 7957 23ba 84       		.byte	0x84
 7958 23bb 11090000 		.4byte	0x911
 7959 23bf 0004     		.2byte	0x400
 7960 23c1 13       		.uleb128 0x13
 7961 23c2 BA1D0000 		.4byte	.LASF523
ARM GAS  C:\Users\stoma\AppData\Local\Temp\ccLygOki.s 			page 141


 7962 23c6 27       		.byte	0x27
 7963 23c7 85       		.byte	0x85
 7964 23c8 11090000 		.4byte	0x911
 7965 23cc 0404     		.2byte	0x404
 7966 23ce 13       		.uleb128 0x13
 7967 23cf 2C090000 		.4byte	.LASF524
 7968 23d3 27       		.byte	0x27
 7969 23d4 86       		.byte	0x86
 7970 23d5 11090000 		.4byte	0x911
 7971 23d9 0804     		.2byte	0x408
 7972 23db 13       		.uleb128 0x13
 7973 23dc 3D0F0000 		.4byte	.LASF525
 7974 23e0 27       		.byte	0x27
 7975 23e1 88       		.byte	0x88
 7976 23e2 11090000 		.4byte	0x911
 7977 23e6 0C04     		.2byte	0x40c
 7978 23e8 13       		.uleb128 0x13
 7979 23e9 5E1D0000 		.4byte	.LASF526
 7980 23ed 27       		.byte	0x27
 7981 23ee 89       		.byte	0x89
 7982 23ef 11090000 		.4byte	0x911
 7983 23f3 1004     		.2byte	0x410
 7984 23f5 13       		.uleb128 0x13
 7985 23f6 13120000 		.4byte	.LASF527
 7986 23fa 27       		.byte	0x27
 7987 23fb 8B       		.byte	0x8b
 7988 23fc 11090000 		.4byte	0x911
 7989 2400 1404     		.2byte	0x414
 7990 2402 13       		.uleb128 0x13
 7991 2403 D0130000 		.4byte	.LASF528
 7992 2407 27       		.byte	0x27
 7993 2408 8D       		.byte	0x8d
 7994 2409 11090000 		.4byte	0x911
 7995 240d 1804     		.2byte	0x418
 7996 240f 13       		.uleb128 0x13
 7997 2410 89180000 		.4byte	.LASF529
 7998 2414 27       		.byte	0x27
 7999 2415 8F       		.byte	0x8f
 8000 2416 CD250000 		.4byte	0x25cd
 8001 241a 1C04     		.2byte	0x41c
 8002 241c 13       		.uleb128 0x13
 8003 241d 76080000 		.4byte	.LASF530
 8004 2421 27       		.byte	0x27
 8005 2422 90       		.byte	0x90
 8006 2423 11090000 		.4byte	0x911
 8007 2427 4004     		.2byte	0x440
 8008 2429 13       		.uleb128 0x13
 8009 242a 8C1D0000 		.4byte	.LASF531
 8010 242e 27       		.byte	0x27
 8011 242f 92       		.byte	0x92
 8012 2430 E2250000 		.4byte	0x25e2
 8013 2434 4404     		.2byte	0x444
 8014 2436 2A       		.uleb128 0x2a
 8015 2437 686300   		.ascii	"hc\000"
 8016 243a 27       		.byte	0x27
 8017 243b 93       		.byte	0x93
 8018 243c E7250000 		.4byte	0x25e7
ARM GAS  C:\Users\stoma\AppData\Local\Temp\ccLygOki.s 			page 142


 8019 2440 0005     		.2byte	0x500
 8020 2442 13       		.uleb128 0x13
 8021 2443 31020000 		.4byte	.LASF532
 8022 2447 27       		.byte	0x27
 8023 2448 94       		.byte	0x94
 8024 2449 07260000 		.4byte	0x2607
 8025 244d 0007     		.2byte	0x700
 8026 244f 13       		.uleb128 0x13
 8027 2450 47070000 		.4byte	.LASF533
 8028 2454 27       		.byte	0x27
 8029 2455 95       		.byte	0x95
 8030 2456 11090000 		.4byte	0x911
 8031 245a 0008     		.2byte	0x800
 8032 245c 13       		.uleb128 0x13
 8033 245d 5A160000 		.4byte	.LASF534
 8034 2461 27       		.byte	0x27
 8035 2462 96       		.byte	0x96
 8036 2463 11090000 		.4byte	0x911
 8037 2467 0408     		.2byte	0x804
 8038 2469 13       		.uleb128 0x13
 8039 246a 8D1C0000 		.4byte	.LASF535
 8040 246e 27       		.byte	0x27
 8041 246f 97       		.byte	0x97
 8042 2470 11090000 		.4byte	0x911
 8043 2474 0808     		.2byte	0x808
 8044 2476 13       		.uleb128 0x13
 8045 2477 EB090000 		.4byte	.LASF536
 8046 247b 27       		.byte	0x27
 8047 247c 98       		.byte	0x98
 8048 247d 11090000 		.4byte	0x911
 8049 2481 0C08     		.2byte	0x80c
 8050 2483 13       		.uleb128 0x13
 8051 2484 D8070000 		.4byte	.LASF537
 8052 2488 27       		.byte	0x27
 8053 2489 99       		.byte	0x99
 8054 248a 11090000 		.4byte	0x911
 8055 248e 1008     		.2byte	0x810
 8056 2490 13       		.uleb128 0x13
 8057 2491 80050000 		.4byte	.LASF538
 8058 2495 27       		.byte	0x27
 8059 2496 9B       		.byte	0x9b
 8060 2497 11090000 		.4byte	0x911
 8061 249b 1408     		.2byte	0x814
 8062 249d 13       		.uleb128 0x13
 8063 249e 64050000 		.4byte	.LASF539
 8064 24a2 27       		.byte	0x27
 8065 24a3 9D       		.byte	0x9d
 8066 24a4 11090000 		.4byte	0x911
 8067 24a8 1808     		.2byte	0x818
 8068 24aa 13       		.uleb128 0x13
 8069 24ab 88170000 		.4byte	.LASF540
 8070 24af 27       		.byte	0x27
 8071 24b0 9F       		.byte	0x9f
 8072 24b1 11090000 		.4byte	0x911
 8073 24b5 1C08     		.2byte	0x81c
 8074 24b7 13       		.uleb128 0x13
 8075 24b8 5A120000 		.4byte	.LASF541
ARM GAS  C:\Users\stoma\AppData\Local\Temp\ccLygOki.s 			page 143


 8076 24bc 27       		.byte	0x27
 8077 24bd A1       		.byte	0xa1
 8078 24be 11090000 		.4byte	0x911
 8079 24c2 2008     		.2byte	0x820
 8080 24c4 13       		.uleb128 0x13
 8081 24c5 D7090000 		.4byte	.LASF542
 8082 24c9 27       		.byte	0x27
 8083 24ca A2       		.byte	0xa2
 8084 24cb 11090000 		.4byte	0x911
 8085 24cf 2408     		.2byte	0x824
 8086 24d1 13       		.uleb128 0x13
 8087 24d2 B8170000 		.4byte	.LASF543
 8088 24d6 27       		.byte	0x27
 8089 24d7 A3       		.byte	0xa3
 8090 24d8 11090000 		.4byte	0x911
 8091 24dc 2808     		.2byte	0x828
 8092 24de 13       		.uleb128 0x13
 8093 24df F9090000 		.4byte	.LASF544
 8094 24e3 27       		.byte	0x27
 8095 24e4 A5       		.byte	0xa5
 8096 24e5 11090000 		.4byte	0x911
 8097 24e9 2C08     		.2byte	0x82c
 8098 24eb 13       		.uleb128 0x13
 8099 24ec 4A190000 		.4byte	.LASF545
 8100 24f0 27       		.byte	0x27
 8101 24f1 A7       		.byte	0xa7
 8102 24f2 11090000 		.4byte	0x911
 8103 24f6 3008     		.2byte	0x830
 8104 24f8 13       		.uleb128 0x13
 8105 24f9 471A0000 		.4byte	.LASF546
 8106 24fd 27       		.byte	0x27
 8107 24fe A8       		.byte	0xa8
 8108 24ff 11090000 		.4byte	0x911
 8109 2503 3408     		.2byte	0x834
 8110 2505 13       		.uleb128 0x13
 8111 2506 D9100000 		.4byte	.LASF547
 8112 250a 27       		.byte	0x27
 8113 250b AA       		.byte	0xaa
 8114 250c 11090000 		.4byte	0x911
 8115 2510 3808     		.2byte	0x838
 8116 2512 13       		.uleb128 0x13
 8117 2513 02160000 		.4byte	.LASF548
 8118 2517 27       		.byte	0x27
 8119 2518 AB       		.byte	0xab
 8120 2519 11090000 		.4byte	0x911
 8121 251d 3C08     		.2byte	0x83c
 8122 251f 13       		.uleb128 0x13
 8123 2520 D50C0000 		.4byte	.LASF549
 8124 2524 27       		.byte	0x27
 8125 2525 AC       		.byte	0xac
 8126 2526 1C260000 		.4byte	0x261c
 8127 252a 4008     		.2byte	0x840
 8128 252c 13       		.uleb128 0x13
 8129 252d DF040000 		.4byte	.LASF550
 8130 2531 27       		.byte	0x27
 8131 2532 AD       		.byte	0xad
 8132 2533 1C260000 		.4byte	0x261c
ARM GAS  C:\Users\stoma\AppData\Local\Temp\ccLygOki.s 			page 144


 8133 2537 8008     		.2byte	0x880
 8134 2539 13       		.uleb128 0x13
 8135 253a 1E1C0000 		.4byte	.LASF551
 8136 253e 27       		.byte	0x27
 8137 253f AE       		.byte	0xae
 8138 2540 1C260000 		.4byte	0x261c
 8139 2544 C008     		.2byte	0x8c0
 8140 2546 2A       		.uleb128 0x2a
 8141 2547 696500   		.ascii	"ie\000"
 8142 254a 27       		.byte	0x27
 8143 254b AF       		.byte	0xaf
 8144 254c 21260000 		.4byte	0x2621
 8145 2550 0009     		.2byte	0x900
 8146 2552 2A       		.uleb128 0x2a
 8147 2553 6F6500   		.ascii	"oe\000"
 8148 2556 27       		.byte	0x27
 8149 2557 B0       		.byte	0xb0
 8150 2558 31260000 		.4byte	0x2631
 8151 255c 000B     		.2byte	0xb00
 8152 255e 13       		.uleb128 0x13
 8153 255f BF150000 		.4byte	.LASF552
 8154 2563 27       		.byte	0x27
 8155 2564 B1       		.byte	0xb1
 8156 2565 07260000 		.4byte	0x2607
 8157 2569 000D     		.2byte	0xd00
 8158 256b 13       		.uleb128 0x13
 8159 256c B00F0000 		.4byte	.LASF553
 8160 2570 27       		.byte	0x27
 8161 2571 B2       		.byte	0xb2
 8162 2572 11090000 		.4byte	0x911
 8163 2576 000E     		.2byte	0xe00
 8164 2578 13       		.uleb128 0x13
 8165 2579 741B0000 		.4byte	.LASF554
 8166 257d 27       		.byte	0x27
 8167 257e B4       		.byte	0xb4
 8168 257f 51260000 		.4byte	0x2651
 8169 2583 040E     		.2byte	0xe04
 8170 2585 13       		.uleb128 0x13
 8171 2586 3E180000 		.4byte	.LASF555
 8172 258a 27       		.byte	0x27
 8173 258b B5       		.byte	0xb5
 8174 258c 6D260000 		.4byte	0x266d
 8175 2590 0010     		.2byte	0x1000
 8176 2592 00       		.byte	0
 8177 2593 0A       		.uleb128 0xa
 8178 2594 11090000 		.4byte	0x911
 8179 2598 A3250000 		.4byte	0x25a3
 8180 259c 0B       		.uleb128 0xb
 8181 259d 25000000 		.4byte	0x25
 8182 25a1 2F       		.byte	0x2f
 8183 25a2 00       		.byte	0
 8184 25a3 1A       		.uleb128 0x1a
 8185 25a4 93250000 		.4byte	0x2593
 8186 25a8 0A       		.uleb128 0xa
 8187 25a9 11090000 		.4byte	0x911
 8188 25ad B8250000 		.4byte	0x25b8
 8189 25b1 0B       		.uleb128 0xb
ARM GAS  C:\Users\stoma\AppData\Local\Temp\ccLygOki.s 			page 145


 8190 25b2 25000000 		.4byte	0x25
 8191 25b6 AF       		.byte	0xaf
 8192 25b7 00       		.byte	0
 8193 25b8 1A       		.uleb128 0x1a
 8194 25b9 A8250000 		.4byte	0x25a8
 8195 25bd 0A       		.uleb128 0xa
 8196 25be 11090000 		.4byte	0x911
 8197 25c2 CD250000 		.4byte	0x25cd
 8198 25c6 0B       		.uleb128 0xb
 8199 25c7 25000000 		.4byte	0x25
 8200 25cb 08       		.byte	0x8
 8201 25cc 00       		.byte	0
 8202 25cd 1A       		.uleb128 0x1a
 8203 25ce BD250000 		.4byte	0x25bd
 8204 25d2 0A       		.uleb128 0xa
 8205 25d3 11090000 		.4byte	0x911
 8206 25d7 E2250000 		.4byte	0x25e2
 8207 25db 0B       		.uleb128 0xb
 8208 25dc 25000000 		.4byte	0x25
 8209 25e0 2E       		.byte	0x2e
 8210 25e1 00       		.byte	0
 8211 25e2 1A       		.uleb128 0x1a
 8212 25e3 D2250000 		.4byte	0x25d2
 8213 25e7 0A       		.uleb128 0xa
 8214 25e8 C3210000 		.4byte	0x21c3
 8215 25ec F7250000 		.4byte	0x25f7
 8216 25f0 0B       		.uleb128 0xb
 8217 25f1 25000000 		.4byte	0x25
 8218 25f5 0F       		.byte	0xf
 8219 25f6 00       		.byte	0
 8220 25f7 0A       		.uleb128 0xa
 8221 25f8 11090000 		.4byte	0x911
 8222 25fc 07260000 		.4byte	0x2607
 8223 2600 0B       		.uleb128 0xb
 8224 2601 25000000 		.4byte	0x25
 8225 2605 3F       		.byte	0x3f
 8226 2606 00       		.byte	0
 8227 2607 1A       		.uleb128 0x1a
 8228 2608 F7250000 		.4byte	0x25f7
 8229 260c 0A       		.uleb128 0xa
 8230 260d 11090000 		.4byte	0x911
 8231 2611 1C260000 		.4byte	0x261c
 8232 2615 0B       		.uleb128 0xb
 8233 2616 25000000 		.4byte	0x25
 8234 261a 0F       		.byte	0xf
 8235 261b 00       		.byte	0
 8236 261c 1A       		.uleb128 0x1a
 8237 261d 0C260000 		.4byte	0x260c
 8238 2621 0A       		.uleb128 0xa
 8239 2622 37220000 		.4byte	0x2237
 8240 2626 31260000 		.4byte	0x2631
 8241 262a 0B       		.uleb128 0xb
 8242 262b 25000000 		.4byte	0x25
 8243 262f 0F       		.byte	0xf
 8244 2630 00       		.byte	0
 8245 2631 0A       		.uleb128 0xa
 8246 2632 AB220000 		.4byte	0x22ab
ARM GAS  C:\Users\stoma\AppData\Local\Temp\ccLygOki.s 			page 146


 8247 2636 41260000 		.4byte	0x2641
 8248 263a 0B       		.uleb128 0xb
 8249 263b 25000000 		.4byte	0x25
 8250 263f 0F       		.byte	0xf
 8251 2640 00       		.byte	0
 8252 2641 0A       		.uleb128 0xa
 8253 2642 11090000 		.4byte	0x911
 8254 2646 51260000 		.4byte	0x2651
 8255 264a 0B       		.uleb128 0xb
 8256 264b 25000000 		.4byte	0x25
 8257 264f 7E       		.byte	0x7e
 8258 2650 00       		.byte	0
 8259 2651 1A       		.uleb128 0x1a
 8260 2652 41260000 		.4byte	0x2641
 8261 2656 0A       		.uleb128 0xa
 8262 2657 11090000 		.4byte	0x911
 8263 265b 6D260000 		.4byte	0x266d
 8264 265f 0B       		.uleb128 0xb
 8265 2660 25000000 		.4byte	0x25
 8266 2664 0F       		.byte	0xf
 8267 2665 2B       		.uleb128 0x2b
 8268 2666 25000000 		.4byte	0x25
 8269 266a FF03     		.2byte	0x3ff
 8270 266c 00       		.byte	0
 8271 266d 1A       		.uleb128 0x1a
 8272 266e 56260000 		.4byte	0x2656
 8273 2672 04       		.uleb128 0x4
 8274 2673 C0120000 		.4byte	.LASF556
 8275 2677 27       		.byte	0x27
 8276 2678 B6       		.byte	0xb6
 8277 2679 B6220000 		.4byte	0x22b6
 8278 267d 0C       		.uleb128 0xc
 8279 267e 0C       		.byte	0xc
 8280 267f 26       		.byte	0x26
 8281 2680 C6       		.byte	0xc6
 8282 2681 AA260000 		.4byte	0x26aa
 8283 2685 0D       		.uleb128 0xd
 8284 2686 6A190000 		.4byte	.LASF557
 8285 268a 26       		.byte	0x26
 8286 268b C7       		.byte	0xc7
 8287 268c 06090000 		.4byte	0x906
 8288 2690 00       		.byte	0
 8289 2691 0D       		.uleb128 0xd
 8290 2692 D8170000 		.4byte	.LASF558
 8291 2696 26       		.byte	0x26
 8292 2697 C8       		.byte	0xc8
 8293 2698 06090000 		.4byte	0x906
 8294 269c 04       		.byte	0x4
 8295 269d 0D       		.uleb128 0xd
 8296 269e 290E0000 		.4byte	.LASF559
 8297 26a2 26       		.byte	0x26
 8298 26a3 C9       		.byte	0xc9
 8299 26a4 06090000 		.4byte	0x906
 8300 26a8 08       		.byte	0x8
 8301 26a9 00       		.byte	0
 8302 26aa 04       		.uleb128 0x4
 8303 26ab 44040000 		.4byte	.LASF560
ARM GAS  C:\Users\stoma\AppData\Local\Temp\ccLygOki.s 			page 147


 8304 26af 26       		.byte	0x26
 8305 26b0 CA       		.byte	0xca
 8306 26b1 7D260000 		.4byte	0x267d
 8307 26b5 0F       		.uleb128 0xf
 8308 26b6 AA260000 		.4byte	0x26aa
 8309 26ba 0C       		.uleb128 0xc
 8310 26bb 04       		.byte	0x4
 8311 26bc 26       		.byte	0x26
 8312 26bd DD       		.byte	0xdd
 8313 26be CF260000 		.4byte	0x26cf
 8314 26c2 0D       		.uleb128 0xd
 8315 26c3 3B050000 		.4byte	.LASF561
 8316 26c7 26       		.byte	0x26
 8317 26c8 E1       		.byte	0xe1
 8318 26c9 BA160000 		.4byte	0x16ba
 8319 26cd 00       		.byte	0
 8320 26ce 00       		.byte	0
 8321 26cf 0C       		.uleb128 0xc
 8322 26d0 04       		.byte	0x4
 8323 26d1 26       		.byte	0x26
 8324 26d2 E3       		.byte	0xe3
 8325 26d3 E4260000 		.4byte	0x26e4
 8326 26d7 0D       		.uleb128 0xd
 8327 26d8 CB190000 		.4byte	.LASF562
 8328 26dc 26       		.byte	0x26
 8329 26dd E7       		.byte	0xe7
 8330 26de E4260000 		.4byte	0x26e4
 8331 26e2 00       		.byte	0
 8332 26e3 00       		.byte	0
 8333 26e4 05       		.uleb128 0x5
 8334 26e5 04       		.byte	0x4
 8335 26e6 96160000 		.4byte	0x1696
 8336 26ea 08       		.uleb128 0x8
 8337 26eb 04       		.byte	0x4
 8338 26ec 26       		.byte	0x26
 8339 26ed DC       		.byte	0xdc
 8340 26ee 09270000 		.4byte	0x2709
 8341 26f2 09       		.uleb128 0x9
 8342 26f3 380A0000 		.4byte	.LASF563
 8343 26f7 26       		.byte	0x26
 8344 26f8 E2       		.byte	0xe2
 8345 26f9 BA260000 		.4byte	0x26ba
 8346 26fd 09       		.uleb128 0x9
 8347 26fe 13170000 		.4byte	.LASF564
 8348 2702 26       		.byte	0x26
 8349 2703 E8       		.byte	0xe8
 8350 2704 CF260000 		.4byte	0x26cf
 8351 2708 00       		.byte	0
 8352 2709 0C       		.uleb128 0xc
 8353 270a 14       		.byte	0x14
 8354 270b 26       		.byte	0x26
 8355 270c CF       		.byte	0xcf
 8356 270d 4E270000 		.4byte	0x274e
 8357 2711 0D       		.uleb128 0xd
 8358 2712 AA1A0000 		.4byte	.LASF565
 8359 2716 26       		.byte	0x26
 8360 2717 D3       		.byte	0xd3
ARM GAS  C:\Users\stoma\AppData\Local\Temp\ccLygOki.s 			page 148


 8361 2718 17180000 		.4byte	0x1817
 8362 271c 00       		.byte	0
 8363 271d 0D       		.uleb128 0xd
 8364 271e 220F0000 		.4byte	.LASF566
 8365 2722 26       		.byte	0x26
 8366 2723 D7       		.byte	0xd7
 8367 2724 33000000 		.4byte	0x33
 8368 2728 04       		.byte	0x4
 8369 2729 0D       		.uleb128 0xd
 8370 272a 9C0C0000 		.4byte	.LASF567
 8371 272e 26       		.byte	0x26
 8372 272f DB       		.byte	0xdb
 8373 2730 33000000 		.4byte	0x33
 8374 2734 08       		.byte	0x8
 8375 2735 0D       		.uleb128 0xd
 8376 2736 80190000 		.4byte	.LASF568
 8377 273a 26       		.byte	0x26
 8378 273b E9       		.byte	0xe9
 8379 273c EA260000 		.4byte	0x26ea
 8380 2740 0C       		.byte	0xc
 8381 2741 0D       		.uleb128 0xd
 8382 2742 4E0B0000 		.4byte	.LASF569
 8383 2746 26       		.byte	0x26
 8384 2747 ED       		.byte	0xed
 8385 2748 33000000 		.4byte	0x33
 8386 274c 10       		.byte	0x10
 8387 274d 00       		.byte	0
 8388 274e 04       		.uleb128 0x4
 8389 274f BE090000 		.4byte	.LASF570
 8390 2753 26       		.byte	0x26
 8391 2754 EE       		.byte	0xee
 8392 2755 09270000 		.4byte	0x2709
 8393 2759 1C       		.uleb128 0x1c
 8394 275a 04       		.byte	0x4
 8395 275b 26       		.byte	0x26
 8396 275c 0101     		.2byte	0x101
 8397 275e 70270000 		.4byte	0x2770
 8398 2762 18       		.uleb128 0x18
 8399 2763 FE140000 		.4byte	.LASF571
 8400 2767 26       		.byte	0x26
 8401 2768 0501     		.2byte	0x105
 8402 276a 85160000 		.4byte	0x1685
 8403 276e 00       		.byte	0
 8404 276f 00       		.byte	0
 8405 2770 1C       		.uleb128 0x1c
 8406 2771 04       		.byte	0x4
 8407 2772 26       		.byte	0x26
 8408 2773 0701     		.2byte	0x107
 8409 2775 87270000 		.4byte	0x2787
 8410 2779 18       		.uleb128 0x18
 8411 277a 57170000 		.4byte	.LASF572
 8412 277e 26       		.byte	0x26
 8413 277f 0B01     		.2byte	0x10b
 8414 2781 87270000 		.4byte	0x2787
 8415 2785 00       		.byte	0
 8416 2786 00       		.byte	0
 8417 2787 05       		.uleb128 0x5
ARM GAS  C:\Users\stoma\AppData\Local\Temp\ccLygOki.s 			page 149


 8418 2788 04       		.byte	0x4
 8419 2789 8B160000 		.4byte	0x168b
 8420 278d 1D       		.uleb128 0x1d
 8421 278e 04       		.byte	0x4
 8422 278f 26       		.byte	0x26
 8423 2790 0001     		.2byte	0x100
 8424 2792 AF270000 		.4byte	0x27af
 8425 2796 1E       		.uleb128 0x1e
 8426 2797 380A0000 		.4byte	.LASF563
 8427 279b 26       		.byte	0x26
 8428 279c 0601     		.2byte	0x106
 8429 279e 59270000 		.4byte	0x2759
 8430 27a2 1E       		.uleb128 0x1e
 8431 27a3 13170000 		.4byte	.LASF564
 8432 27a7 26       		.byte	0x26
 8433 27a8 0C01     		.2byte	0x10c
 8434 27aa 70270000 		.4byte	0x2770
 8435 27ae 00       		.byte	0
 8436 27af 0C       		.uleb128 0xc
 8437 27b0 14       		.byte	0x14
 8438 27b1 26       		.byte	0x26
 8439 27b2 F3       		.byte	0xf3
 8440 27b3 F6270000 		.4byte	0x27f6
 8441 27b7 0D       		.uleb128 0xd
 8442 27b8 C0160000 		.4byte	.LASF573
 8443 27bc 26       		.byte	0x26
 8444 27bd F7       		.byte	0xf7
 8445 27be 17180000 		.4byte	0x1817
 8446 27c2 00       		.byte	0
 8447 27c3 0D       		.uleb128 0xd
 8448 27c4 9E060000 		.4byte	.LASF574
 8449 27c8 26       		.byte	0x26
 8450 27c9 FB       		.byte	0xfb
 8451 27ca 33000000 		.4byte	0x33
 8452 27ce 04       		.byte	0x4
 8453 27cf 0D       		.uleb128 0xd
 8454 27d0 E20E0000 		.4byte	.LASF575
 8455 27d4 26       		.byte	0x26
 8456 27d5 FF       		.byte	0xff
 8457 27d6 33000000 		.4byte	0x33
 8458 27da 08       		.byte	0x8
 8459 27db 18       		.uleb128 0x18
 8460 27dc 80190000 		.4byte	.LASF568
 8461 27e0 26       		.byte	0x26
 8462 27e1 0D01     		.2byte	0x10d
 8463 27e3 8D270000 		.4byte	0x278d
 8464 27e7 0C       		.byte	0xc
 8465 27e8 18       		.uleb128 0x18
 8466 27e9 4E0B0000 		.4byte	.LASF569
 8467 27ed 26       		.byte	0x26
 8468 27ee 1101     		.2byte	0x111
 8469 27f0 33000000 		.4byte	0x33
 8470 27f4 10       		.byte	0x10
 8471 27f5 00       		.byte	0
 8472 27f6 07       		.uleb128 0x7
 8473 27f7 C4020000 		.4byte	.LASF576
 8474 27fb 26       		.byte	0x26
ARM GAS  C:\Users\stoma\AppData\Local\Temp\ccLygOki.s 			page 150


 8475 27fc 1201     		.2byte	0x112
 8476 27fe AF270000 		.4byte	0x27af
 8477 2802 1C       		.uleb128 0x1c
 8478 2803 24       		.byte	0x24
 8479 2804 26       		.byte	0x26
 8480 2805 1801     		.2byte	0x118
 8481 2807 8E280000 		.4byte	0x288e
 8482 280b 18       		.uleb128 0x18
 8483 280c 61020000 		.4byte	.LASF577
 8484 2810 26       		.byte	0x26
 8485 2811 1C01     		.2byte	0x11c
 8486 2813 06090000 		.4byte	0x906
 8487 2817 00       		.byte	0
 8488 2818 18       		.uleb128 0x18
 8489 2819 FC100000 		.4byte	.LASF578
 8490 281d 26       		.byte	0x26
 8491 281e 2701     		.2byte	0x127
 8492 2820 BF200000 		.4byte	0x20bf
 8493 2824 04       		.byte	0x4
 8494 2825 18       		.uleb128 0x18
 8495 2826 E7080000 		.4byte	.LASF579
 8496 282a 26       		.byte	0x26
 8497 282b 2D01     		.2byte	0x12d
 8498 282d BF200000 		.4byte	0x20bf
 8499 2831 08       		.byte	0x8
 8500 2832 18       		.uleb128 0x18
 8501 2833 A1130000 		.4byte	.LASF580
 8502 2837 26       		.byte	0x26
 8503 2838 3301     		.2byte	0x133
 8504 283a BF200000 		.4byte	0x20bf
 8505 283e 0C       		.byte	0xc
 8506 283f 18       		.uleb128 0x18
 8507 2840 FB130000 		.4byte	.LASF581
 8508 2844 26       		.byte	0x26
 8509 2845 3901     		.2byte	0x139
 8510 2847 EB080000 		.4byte	0x8eb
 8511 284b 10       		.byte	0x10
 8512 284c 18       		.uleb128 0x18
 8513 284d 99090000 		.4byte	.LASF582
 8514 2851 26       		.byte	0x26
 8515 2852 3F01     		.2byte	0x13f
 8516 2854 EB080000 		.4byte	0x8eb
 8517 2858 12       		.byte	0x12
 8518 2859 18       		.uleb128 0x18
 8519 285a 8E0F0000 		.4byte	.LASF583
 8520 285e 26       		.byte	0x26
 8521 285f 4401     		.2byte	0x144
 8522 2861 8E280000 		.4byte	0x288e
 8523 2865 14       		.byte	0x14
 8524 2866 18       		.uleb128 0x18
 8525 2867 4C140000 		.4byte	.LASF584
 8526 286b 26       		.byte	0x26
 8527 286c 4901     		.2byte	0x149
 8528 286e 94280000 		.4byte	0x2894
 8529 2872 18       		.byte	0x18
 8530 2873 18       		.uleb128 0x18
 8531 2874 E30D0000 		.4byte	.LASF585
ARM GAS  C:\Users\stoma\AppData\Local\Temp\ccLygOki.s 			page 151


 8532 2878 26       		.byte	0x26
 8533 2879 5001     		.2byte	0x150
 8534 287b EB080000 		.4byte	0x8eb
 8535 287f 1C       		.byte	0x1c
 8536 2880 18       		.uleb128 0x18
 8537 2881 FF120000 		.4byte	.LASF586
 8538 2885 26       		.byte	0x26
 8539 2886 5601     		.2byte	0x156
 8540 2888 85160000 		.4byte	0x1685
 8541 288c 20       		.byte	0x20
 8542 288d 00       		.byte	0
 8543 288e 05       		.uleb128 0x5
 8544 288f 04       		.byte	0x4
 8545 2890 4E270000 		.4byte	0x274e
 8546 2894 05       		.uleb128 0x5
 8547 2895 04       		.byte	0x4
 8548 2896 F6270000 		.4byte	0x27f6
 8549 289a 07       		.uleb128 0x7
 8550 289b 70160000 		.4byte	.LASF587
 8551 289f 26       		.byte	0x26
 8552 28a0 5701     		.2byte	0x157
 8553 28a2 02280000 		.4byte	0x2802
 8554 28a6 0F       		.uleb128 0xf
 8555 28a7 9A280000 		.4byte	0x289a
 8556 28ab 1C       		.uleb128 0x1c
 8557 28ac 10       		.byte	0x10
 8558 28ad 26       		.byte	0x26
 8559 28ae 5C01     		.2byte	0x15c
 8560 28b0 E9280000 		.4byte	0x28e9
 8561 28b4 18       		.uleb128 0x18
 8562 28b5 DA0F0000 		.4byte	.LASF588
 8563 28b9 26       		.byte	0x26
 8564 28ba 6101     		.2byte	0x161
 8565 28bc E1200000 		.4byte	0x20e1
 8566 28c0 00       		.byte	0
 8567 28c1 18       		.uleb128 0x18
 8568 28c2 921C0000 		.4byte	.LASF589
 8569 28c6 26       		.byte	0x26
 8570 28c7 6601     		.2byte	0x166
 8571 28c9 24210000 		.4byte	0x2124
 8572 28cd 04       		.byte	0x4
 8573 28ce 18       		.uleb128 0x18
 8574 28cf BC070000 		.4byte	.LASF590
 8575 28d3 26       		.byte	0x26
 8576 28d4 6C01     		.2byte	0x16c
 8577 28d6 03210000 		.4byte	0x2103
 8578 28da 08       		.byte	0x8
 8579 28db 18       		.uleb128 0x18
 8580 28dc 661B0000 		.4byte	.LASF591
 8581 28e0 26       		.byte	0x26
 8582 28e1 7001     		.2byte	0x170
 8583 28e3 9C200000 		.4byte	0x209c
 8584 28e7 0C       		.byte	0xc
 8585 28e8 00       		.byte	0
 8586 28e9 07       		.uleb128 0x7
 8587 28ea 46120000 		.4byte	.LASF592
 8588 28ee 26       		.byte	0x26
ARM GAS  C:\Users\stoma\AppData\Local\Temp\ccLygOki.s 			page 152


 8589 28ef 7201     		.2byte	0x172
 8590 28f1 AB280000 		.4byte	0x28ab
 8591 28f5 0F       		.uleb128 0xf
 8592 28f6 E9280000 		.4byte	0x28e9
 8593 28fa 05       		.uleb128 0x5
 8594 28fb 04       		.byte	0x4
 8595 28fc F5280000 		.4byte	0x28f5
 8596 2900 0A       		.uleb128 0xa
 8597 2901 10290000 		.4byte	0x2910
 8598 2905 10290000 		.4byte	0x2910
 8599 2909 0B       		.uleb128 0xb
 8600 290a 25000000 		.4byte	0x25
 8601 290e 03       		.byte	0x3
 8602 290f 00       		.byte	0
 8603 2910 05       		.uleb128 0x5
 8604 2911 04       		.byte	0x4
 8605 2912 A6280000 		.4byte	0x28a6
 8606 2916 0A       		.uleb128 0xa
 8607 2917 52010000 		.4byte	0x152
 8608 291b 26290000 		.4byte	0x2926
 8609 291f 0B       		.uleb128 0xb
 8610 2920 25000000 		.4byte	0x25
 8611 2924 02       		.byte	0x2
 8612 2925 00       		.byte	0
 8613 2926 0A       		.uleb128 0xa
 8614 2927 DB080000 		.4byte	0x8db
 8615 292b 36290000 		.4byte	0x2936
 8616 292f 0B       		.uleb128 0xb
 8617 2930 25000000 		.4byte	0x25
 8618 2934 07       		.byte	0x7
 8619 2935 00       		.byte	0
 8620 2936 05       		.uleb128 0x5
 8621 2937 04       		.byte	0x4
 8622 2938 72260000 		.4byte	0x2672
 8623 293c 05       		.uleb128 0x5
 8624 293d 04       		.byte	0x4
 8625 293e B5260000 		.4byte	0x26b5
 8626 2942 0A       		.uleb128 0xa
 8627 2943 A8100000 		.4byte	0x10a8
 8628 2947 52290000 		.4byte	0x2952
 8629 294b 0B       		.uleb128 0xb
 8630 294c 25000000 		.4byte	0x25
 8631 2950 3E       		.byte	0x3e
 8632 2951 00       		.byte	0
 8633 2952 20       		.uleb128 0x20
 8634 2953 49180000 		.4byte	.LASF593
 8635 2957 26       		.byte	0x26
 8636 2958 0602     		.2byte	0x206
 8637 295a 3B1E0000 		.4byte	0x1e3b
 8638 295e 2C       		.uleb128 0x2c
 8639 295f 52290000 		.4byte	0x2952
 8640 2963 01       		.byte	0x1
 8641 2964 2E       		.byte	0x2e
 8642 2965 05       		.uleb128 0x5
 8643 2966 03       		.byte	0x3
 8644 2967 00000000 		.4byte	USBD1
 8645 296b 08       		.uleb128 0x8
ARM GAS  C:\Users\stoma\AppData\Local\Temp\ccLygOki.s 			page 153


 8646 296c 14       		.byte	0x14
 8647 296d 01       		.byte	0x1
 8648 296e 3F       		.byte	0x3f
 8649 296f 89290000 		.4byte	0x2989
 8650 2973 2D       		.uleb128 0x2d
 8651 2974 696E00   		.ascii	"in\000"
 8652 2977 01       		.byte	0x1
 8653 2978 43       		.byte	0x43
 8654 2979 4E270000 		.4byte	0x274e
 8655 297d 2D       		.uleb128 0x2d
 8656 297e 6F757400 		.ascii	"out\000"
 8657 2982 01       		.byte	0x1
 8658 2983 47       		.byte	0x47
 8659 2984 F6270000 		.4byte	0x27f6
 8660 2988 00       		.byte	0
 8661 2989 2E       		.uleb128 0x2e
 8662 298a A5060000 		.4byte	.LASF594
 8663 298e 01       		.byte	0x1
 8664 298f 48       		.byte	0x48
 8665 2990 6B290000 		.4byte	0x296b
 8666 2994 05       		.uleb128 0x5
 8667 2995 03       		.byte	0x3
 8668 2996 00000000 		.4byte	ep0_state
 8669 299a 2E       		.uleb128 0x2e
 8670 299b 34140000 		.4byte	.LASF595
 8671 299f 01       		.byte	0x1
 8672 29a0 4D       		.byte	0x4d
 8673 29a1 26290000 		.4byte	0x2926
 8674 29a5 05       		.uleb128 0x5
 8675 29a6 03       		.byte	0x3
 8676 29a7 00000000 		.4byte	ep0setup_buffer
 8677 29ab 2E       		.uleb128 0x2e
 8678 29ac 8C130000 		.4byte	.LASF596
 8679 29b0 01       		.byte	0x1
 8680 29b1 52       		.byte	0x52
 8681 29b2 A6280000 		.4byte	0x28a6
 8682 29b6 05       		.uleb128 0x5
 8683 29b7 03       		.byte	0x3
 8684 29b8 00000000 		.4byte	ep0config
 8685 29bc 2E       		.uleb128 0x2e
 8686 29bd B5090000 		.4byte	.LASF597
 8687 29c1 01       		.byte	0x1
 8688 29c2 60       		.byte	0x60
 8689 29c3 B5260000 		.4byte	0x26b5
 8690 29c7 05       		.uleb128 0x5
 8691 29c8 03       		.byte	0x3
 8692 29c9 00000000 		.4byte	fsparams
 8693 29cd 2F       		.uleb128 0x2f
 8694 29ce 9F140000 		.4byte	.LASF601
 8695 29d2 01       		.byte	0x1
 8696 29d3 0E05     		.2byte	0x50e
 8697 29d5 00000000 		.4byte	.LFB292
 8698 29d9 84040000 		.4byte	.LFE292-.LFB292
 8699 29dd 01       		.uleb128 0x1
 8700 29de 9C       		.byte	0x9c
 8701 29df FA320000 		.4byte	0x32fa
 8702 29e3 30       		.uleb128 0x30
ARM GAS  C:\Users\stoma\AppData\Local\Temp\ccLygOki.s 			page 154


 8703 29e4 7000     		.ascii	"p\000"
 8704 29e6 01       		.byte	0x1
 8705 29e7 0E05     		.2byte	0x50e
 8706 29e9 52010000 		.4byte	0x152
 8707 29ed 00000000 		.4byte	.LLST1
 8708 29f1 31       		.uleb128 0x31
 8709 29f2 190E0000 		.4byte	.LASF598
 8710 29f6 01       		.byte	0x1
 8711 29f7 0F05     		.2byte	0x50f
 8712 29f9 B9200000 		.4byte	0x20b9
 8713 29fd 29000000 		.4byte	.LLST2
 8714 2a01 31       		.uleb128 0x31
 8715 2a02 F5170000 		.4byte	.LASF599
 8716 2a06 01       		.byte	0x1
 8717 2a07 1005     		.2byte	0x510
 8718 2a09 36290000 		.4byte	0x2936
 8719 2a0d 52000000 		.4byte	.LLST3
 8720 2a11 32       		.uleb128 0x32
 8721 2a12 26000000 		.4byte	.LBB431
 8722 2a16 5E040000 		.4byte	.LBE431-.LBB431
 8723 2a1a 7C320000 		.4byte	0x327c
 8724 2a1e 33       		.uleb128 0x33
 8725 2a1f 657000   		.ascii	"ep\000"
 8726 2a22 01       		.byte	0x1
 8727 2a23 1705     		.2byte	0x517
 8728 2a25 721F0000 		.4byte	0x1f72
 8729 2a29 65000000 		.4byte	.LLST5
 8730 2a2d 31       		.uleb128 0x31
 8731 2a2e A9080000 		.4byte	.LASF600
 8732 2a32 01       		.byte	0x1
 8733 2a33 1805     		.2byte	0x518
 8734 2a35 06090000 		.4byte	0x906
 8735 2a39 84000000 		.4byte	.LLST6
 8736 2a3d 32       		.uleb128 0x32
 8737 2a3e 24020000 		.4byte	.LBB491
 8738 2a42 60020000 		.4byte	.LBE491-.LBB491
 8739 2a46 C32E0000 		.4byte	0x2ec3
 8740 2a4a 34       		.uleb128 0x34
 8741 2a4b B0090000 		.4byte	.LASF623
 8742 2a4f 01       		.byte	0x1
 8743 2a50 2C05     		.2byte	0x52c
 8744 2a52 17180000 		.4byte	0x1817
 8745 2a56 35       		.uleb128 0x35
 8746 2a57 D5420000 		.4byte	0x42d5
 8747 2a5b 24020000 		.4byte	.LBB492
 8748 2a5f 0E000000 		.4byte	.LBE492-.LBB492
 8749 2a63 01       		.byte	0x1
 8750 2a64 2E05     		.2byte	0x52e
 8751 2a66 BD2A0000 		.4byte	0x2abd
 8752 2a6a 36       		.uleb128 0x36
 8753 2a6b 60430000 		.4byte	0x4360
 8754 2a6f 24020000 		.4byte	.LBB493
 8755 2a73 0E000000 		.4byte	.LBE493-.LBB493
 8756 2a77 05       		.byte	0x5
 8757 2a78 BF01     		.2byte	0x1bf
 8758 2a7a 35       		.uleb128 0x35
 8759 2a7b 84430000 		.4byte	0x4384
ARM GAS  C:\Users\stoma\AppData\Local\Temp\ccLygOki.s 			page 155


 8760 2a7f 24020000 		.4byte	.LBB495
 8761 2a83 06000000 		.4byte	.LBE495-.LBB495
 8762 2a87 04       		.byte	0x4
 8763 2a88 5C01     		.2byte	0x15c
 8764 2a8a A92A0000 		.4byte	0x2aa9
 8765 2a8e 36       		.uleb128 0x36
 8766 2a8f 8D430000 		.4byte	0x438d
 8767 2a93 24020000 		.4byte	.LBB496
 8768 2a97 06000000 		.4byte	.LBE496-.LBB496
 8769 2a9b 14       		.byte	0x14
 8770 2a9c BF01     		.2byte	0x1bf
 8771 2a9e 37       		.uleb128 0x37
 8772 2a9f 9A430000 		.4byte	0x439a
 8773 2aa3 C5000000 		.4byte	.LLST35
 8774 2aa7 00       		.byte	0
 8775 2aa8 00       		.byte	0
 8776 2aa9 38       		.uleb128 0x38
 8777 2aaa 2E020000 		.4byte	.LVL80
 8778 2aae 5E480000 		.4byte	0x485e
 8779 2ab2 38       		.uleb128 0x38
 8780 2ab3 32020000 		.4byte	.LVL81
 8781 2ab7 69480000 		.4byte	0x4869
 8782 2abb 00       		.byte	0
 8783 2abc 00       		.byte	0
 8784 2abd 35       		.uleb128 0x35
 8785 2abe CC420000 		.4byte	0x42cc
 8786 2ac2 46020000 		.4byte	.LBB498
 8787 2ac6 28000000 		.4byte	.LBE498-.LBB498
 8788 2aca 01       		.byte	0x1
 8789 2acb 3805     		.2byte	0x538
 8790 2acd 462B0000 		.4byte	0x2b46
 8791 2ad1 36       		.uleb128 0x36
 8792 2ad2 45430000 		.4byte	0x4345
 8793 2ad6 46020000 		.4byte	.LBB499
 8794 2ada 28000000 		.4byte	.LBE499-.LBB499
 8795 2ade 05       		.byte	0x5
 8796 2adf CA01     		.2byte	0x1ca
 8797 2ae1 39       		.uleb128 0x39
 8798 2ae2 46020000 		.4byte	.LBB500
 8799 2ae6 28000000 		.4byte	.LBE500-.LBB500
 8800 2aea 3A       		.uleb128 0x3a
 8801 2aeb 52430000 		.4byte	0x4352
 8802 2aef 35       		.uleb128 0x35
 8803 2af0 7B430000 		.4byte	0x437b
 8804 2af4 64020000 		.4byte	.LBB501
 8805 2af8 0A000000 		.4byte	.LBE501-.LBB501
 8806 2afc 04       		.byte	0x4
 8807 2afd 7301     		.2byte	0x173
 8808 2aff 1E2B0000 		.4byte	0x2b1e
 8809 2b03 36       		.uleb128 0x36
 8810 2b04 8D430000 		.4byte	0x438d
 8811 2b08 64020000 		.4byte	.LBB502
 8812 2b0c 0A000000 		.4byte	.LBE502-.LBB502
 8813 2b10 14       		.byte	0x14
 8814 2b11 CD01     		.2byte	0x1cd
 8815 2b13 37       		.uleb128 0x37
 8816 2b14 9A430000 		.4byte	0x439a
ARM GAS  C:\Users\stoma\AppData\Local\Temp\ccLygOki.s 			page 156


 8817 2b18 DA000000 		.4byte	.LLST36
 8818 2b1c 00       		.byte	0
 8819 2b1d 00       		.byte	0
 8820 2b1e 38       		.uleb128 0x38
 8821 2b1f 4A020000 		.4byte	.LVL82
 8822 2b23 74480000 		.4byte	0x4874
 8823 2b27 38       		.uleb128 0x38
 8824 2b28 4E020000 		.4byte	.LVL83
 8825 2b2c 7F480000 		.4byte	0x487f
 8826 2b30 3B       		.uleb128 0x3b
 8827 2b31 64020000 		.4byte	.LVL84
 8828 2b35 8A480000 		.4byte	0x488a
 8829 2b39 3C       		.uleb128 0x3c
 8830 2b3a 01       		.uleb128 0x1
 8831 2b3b 50       		.byte	0x50
 8832 2b3c 05       		.uleb128 0x5
 8833 2b3d 03       		.byte	0x3
 8834 2b3e 00000000 		.4byte	.LANCHOR0
 8835 2b42 00       		.byte	0
 8836 2b43 00       		.byte	0
 8837 2b44 00       		.byte	0
 8838 2b45 00       		.byte	0
 8839 2b46 3D       		.uleb128 0x3d
 8840 2b47 D73E0000 		.4byte	0x3ed7
 8841 2b4b 6E020000 		.4byte	.LBB504
 8842 2b4f E0000000 		.4byte	.Ldebug_ranges0+0xe0
 8843 2b53 01       		.byte	0x1
 8844 2b54 3A05     		.2byte	0x53a
 8845 2b56 B22D0000 		.4byte	0x2db2
 8846 2b5a 3E       		.uleb128 0x3e
 8847 2b5b F43E0000 		.4byte	0x3ef4
 8848 2b5f 3E       		.uleb128 0x3e
 8849 2b60 E83E0000 		.4byte	0x3ee8
 8850 2b64 3F       		.uleb128 0x3f
 8851 2b65 FF3E0000 		.4byte	0x3eff
 8852 2b69 E0000000 		.4byte	.Ldebug_ranges0+0xe0
 8853 2b6d 40       		.uleb128 0x40
 8854 2b6e 003F0000 		.4byte	0x3f00
 8855 2b72 EE000000 		.4byte	.LLST37
 8856 2b76 3D       		.uleb128 0x3d
 8857 2b77 48400000 		.4byte	0x4048
 8858 2b7b C2020000 		.4byte	.LBB506
 8859 2b7f F8000000 		.4byte	.Ldebug_ranges0+0xf8
 8860 2b83 01       		.byte	0x1
 8861 2b84 FB01     		.2byte	0x1fb
 8862 2b86 602D0000 		.4byte	0x2d60
 8863 2b8a 37       		.uleb128 0x37
 8864 2b8b 6D400000 		.4byte	0x406d
 8865 2b8f 51010000 		.4byte	.LLST38
 8866 2b93 37       		.uleb128 0x37
 8867 2b94 61400000 		.4byte	0x4061
 8868 2b98 88010000 		.4byte	.LLST39
 8869 2b9c 3E       		.uleb128 0x3e
 8870 2b9d 55400000 		.4byte	0x4055
 8871 2ba1 41       		.uleb128 0x41
 8872 2ba2 F8000000 		.4byte	.Ldebug_ranges0+0xf8
 8873 2ba6 40       		.uleb128 0x40
ARM GAS  C:\Users\stoma\AppData\Local\Temp\ccLygOki.s 			page 157


 8874 2ba7 77400000 		.4byte	0x4077
 8875 2bab 9C010000 		.4byte	.LLST40
 8876 2baf 42       		.uleb128 0x42
 8877 2bb0 83400000 		.4byte	0x4083
 8878 2bb4 18010000 		.4byte	.Ldebug_ranges0+0x118
 8879 2bb8 182C0000 		.4byte	0x2c18
 8880 2bbc 40       		.uleb128 0x40
 8881 2bbd 84400000 		.4byte	0x4084
 8882 2bc1 E8010000 		.4byte	.LLST41
 8883 2bc5 3A       		.uleb128 0x3a
 8884 2bc6 8E400000 		.4byte	0x408e
 8885 2bca 40       		.uleb128 0x40
 8886 2bcb 98400000 		.4byte	0x4098
 8887 2bcf FB010000 		.4byte	.LLST42
 8888 2bd3 3F       		.uleb128 0x3f
 8889 2bd4 A3400000 		.4byte	0x40a3
 8890 2bd8 38010000 		.4byte	.Ldebug_ranges0+0x138
 8891 2bdc 40       		.uleb128 0x40
 8892 2bdd A4400000 		.4byte	0x40a4
 8893 2be1 33020000 		.4byte	.LLST43
 8894 2be5 40       		.uleb128 0x40
 8895 2be6 B0400000 		.4byte	0x40b0
 8896 2bea A8020000 		.4byte	.LLST44
 8897 2bee 43       		.uleb128 0x43
 8898 2bef EB400000 		.4byte	0x40eb
 8899 2bf3 EA020000 		.4byte	.LBB510
 8900 2bf7 58010000 		.4byte	.Ldebug_ranges0+0x158
 8901 2bfb 01       		.byte	0x1
 8902 2bfc 1B01     		.2byte	0x11b
 8903 2bfe 37       		.uleb128 0x37
 8904 2bff 11410000 		.4byte	0x4111
 8905 2c03 E7020000 		.4byte	.LLST45
 8906 2c07 37       		.uleb128 0x37
 8907 2c08 06410000 		.4byte	0x4106
 8908 2c0c 05030000 		.4byte	.LLST46
 8909 2c10 3E       		.uleb128 0x3e
 8910 2c11 FB400000 		.4byte	0x40fb
 8911 2c15 00       		.byte	0
 8912 2c16 00       		.byte	0
 8913 2c17 00       		.byte	0
 8914 2c18 35       		.uleb128 0x35
 8915 2c19 D5420000 		.4byte	0x42d5
 8916 2c1d 0E030000 		.4byte	.LBB516
 8917 2c21 0E000000 		.4byte	.LBE516-.LBB516
 8918 2c25 01       		.byte	0x1
 8919 2c26 3501     		.2byte	0x135
 8920 2c28 7F2C0000 		.4byte	0x2c7f
 8921 2c2c 36       		.uleb128 0x36
 8922 2c2d 60430000 		.4byte	0x4360
 8923 2c31 0E030000 		.4byte	.LBB517
 8924 2c35 0E000000 		.4byte	.LBE517-.LBB517
 8925 2c39 05       		.byte	0x5
 8926 2c3a BF01     		.2byte	0x1bf
 8927 2c3c 35       		.uleb128 0x35
 8928 2c3d 84430000 		.4byte	0x4384
 8929 2c41 0E030000 		.4byte	.LBB519
 8930 2c45 06000000 		.4byte	.LBE519-.LBB519
ARM GAS  C:\Users\stoma\AppData\Local\Temp\ccLygOki.s 			page 158


 8931 2c49 04       		.byte	0x4
 8932 2c4a 5C01     		.2byte	0x15c
 8933 2c4c 6B2C0000 		.4byte	0x2c6b
 8934 2c50 36       		.uleb128 0x36
 8935 2c51 8D430000 		.4byte	0x438d
 8936 2c55 0E030000 		.4byte	.LBB520
 8937 2c59 06000000 		.4byte	.LBE520-.LBB520
 8938 2c5d 14       		.byte	0x14
 8939 2c5e BF01     		.2byte	0x1bf
 8940 2c60 37       		.uleb128 0x37
 8941 2c61 9A430000 		.4byte	0x439a
 8942 2c65 30030000 		.4byte	.LLST47
 8943 2c69 00       		.byte	0
 8944 2c6a 00       		.byte	0
 8945 2c6b 38       		.uleb128 0x38
 8946 2c6c 18030000 		.4byte	.LVL102
 8947 2c70 5E480000 		.4byte	0x485e
 8948 2c74 38       		.uleb128 0x38
 8949 2c75 1C030000 		.4byte	.LVL103
 8950 2c79 69480000 		.4byte	0x4869
 8951 2c7d 00       		.byte	0
 8952 2c7e 00       		.byte	0
 8953 2c7f 35       		.uleb128 0x35
 8954 2c80 27420000 		.4byte	0x4227
 8955 2c84 22030000 		.4byte	.LBB522
 8956 2c88 08000000 		.4byte	.LBE522-.LBB522
 8957 2c8c 01       		.byte	0x1
 8958 2c8d 3701     		.2byte	0x137
 8959 2c8f BB2C0000 		.4byte	0x2cbb
 8960 2c93 37       		.uleb128 0x37
 8961 2c94 40420000 		.4byte	0x4240
 8962 2c98 45030000 		.4byte	.LLST48
 8963 2c9c 37       		.uleb128 0x37
 8964 2c9d 34420000 		.4byte	0x4234
 8965 2ca1 59030000 		.4byte	.LLST49
 8966 2ca5 3B       		.uleb128 0x3b
 8967 2ca6 2A030000 		.4byte	.LVL105
 8968 2caa 96480000 		.4byte	0x4896
 8969 2cae 3C       		.uleb128 0x3c
 8970 2caf 01       		.uleb128 0x1
 8971 2cb0 50       		.byte	0x50
 8972 2cb1 02       		.uleb128 0x2
 8973 2cb2 74       		.byte	0x74
 8974 2cb3 00       		.sleb128 0
 8975 2cb4 3C       		.uleb128 0x3c
 8976 2cb5 01       		.uleb128 0x1
 8977 2cb6 51       		.byte	0x51
 8978 2cb7 01       		.uleb128 0x1
 8979 2cb8 30       		.byte	0x30
 8980 2cb9 00       		.byte	0
 8981 2cba 00       		.byte	0
 8982 2cbb 35       		.uleb128 0x35
 8983 2cbc 97420000 		.4byte	0x4297
 8984 2cc0 2A030000 		.4byte	.LBB524
 8985 2cc4 04000000 		.4byte	.LBE524-.LBB524
 8986 2cc8 01       		.byte	0x1
 8987 2cc9 3801     		.2byte	0x138
ARM GAS  C:\Users\stoma\AppData\Local\Temp\ccLygOki.s 			page 159


 8988 2ccb D92C0000 		.4byte	0x2cd9
 8989 2ccf 38       		.uleb128 0x38
 8990 2cd0 2E030000 		.4byte	.LVL106
 8991 2cd4 A1480000 		.4byte	0x48a1
 8992 2cd8 00       		.byte	0
 8993 2cd9 36       		.uleb128 0x36
 8994 2cda CC420000 		.4byte	0x42cc
 8995 2cde 2E030000 		.4byte	.LBB526
 8996 2ce2 28000000 		.4byte	.LBE526-.LBB526
 8997 2ce6 01       		.byte	0x1
 8998 2ce7 3901     		.2byte	0x139
 8999 2ce9 36       		.uleb128 0x36
 9000 2cea 45430000 		.4byte	0x4345
 9001 2cee 2E030000 		.4byte	.LBB527
 9002 2cf2 28000000 		.4byte	.LBE527-.LBB527
 9003 2cf6 05       		.byte	0x5
 9004 2cf7 CA01     		.2byte	0x1ca
 9005 2cf9 39       		.uleb128 0x39
 9006 2cfa 2E030000 		.4byte	.LBB528
 9007 2cfe 28000000 		.4byte	.LBE528-.LBB528
 9008 2d02 3A       		.uleb128 0x3a
 9009 2d03 52430000 		.4byte	0x4352
 9010 2d07 35       		.uleb128 0x35
 9011 2d08 7B430000 		.4byte	0x437b
 9012 2d0c 4C030000 		.4byte	.LBB529
 9013 2d10 0A000000 		.4byte	.LBE529-.LBB529
 9014 2d14 04       		.byte	0x4
 9015 2d15 7301     		.2byte	0x173
 9016 2d17 362D0000 		.4byte	0x2d36
 9017 2d1b 36       		.uleb128 0x36
 9018 2d1c 8D430000 		.4byte	0x438d
 9019 2d20 4C030000 		.4byte	.LBB530
 9020 2d24 0A000000 		.4byte	.LBE530-.LBB530
 9021 2d28 14       		.byte	0x14
 9022 2d29 CD01     		.2byte	0x1cd
 9023 2d2b 37       		.uleb128 0x37
 9024 2d2c 9A430000 		.4byte	0x439a
 9025 2d30 6C030000 		.4byte	.LLST50
 9026 2d34 00       		.byte	0
 9027 2d35 00       		.byte	0
 9028 2d36 38       		.uleb128 0x38
 9029 2d37 32030000 		.4byte	.LVL107
 9030 2d3b 74480000 		.4byte	0x4874
 9031 2d3f 38       		.uleb128 0x38
 9032 2d40 36030000 		.4byte	.LVL108
 9033 2d44 7F480000 		.4byte	0x487f
 9034 2d48 3B       		.uleb128 0x3b
 9035 2d49 4C030000 		.4byte	.LVL109
 9036 2d4d 8A480000 		.4byte	0x488a
 9037 2d51 3C       		.uleb128 0x3c
 9038 2d52 01       		.uleb128 0x1
 9039 2d53 50       		.byte	0x50
 9040 2d54 05       		.uleb128 0x5
 9041 2d55 03       		.byte	0x3
 9042 2d56 00000000 		.4byte	.LANCHOR0
 9043 2d5a 00       		.byte	0
 9044 2d5b 00       		.byte	0
ARM GAS  C:\Users\stoma\AppData\Local\Temp\ccLygOki.s 			page 160


 9045 2d5c 00       		.byte	0
 9046 2d5d 00       		.byte	0
 9047 2d5e 00       		.byte	0
 9048 2d5f 00       		.byte	0
 9049 2d60 36       		.uleb128 0x36
 9050 2d61 BF400000 		.4byte	0x40bf
 9051 2d65 0E040000 		.4byte	.LBB537
 9052 2d69 1C000000 		.4byte	.LBE537-.LBB537
 9053 2d6d 01       		.byte	0x1
 9054 2d6e 0102     		.2byte	0x201
 9055 2d70 37       		.uleb128 0x37
 9056 2d71 E1400000 		.4byte	0x40e1
 9057 2d75 80030000 		.4byte	.LLST51
 9058 2d79 37       		.uleb128 0x37
 9059 2d7a D6400000 		.4byte	0x40d6
 9060 2d7e 93030000 		.4byte	.LLST52
 9061 2d82 3E       		.uleb128 0x3e
 9062 2d83 CB400000 		.4byte	0x40cb
 9063 2d87 36       		.uleb128 0x36
 9064 2d88 EB400000 		.4byte	0x40eb
 9065 2d8c 10040000 		.4byte	.LBB539
 9066 2d90 1A000000 		.4byte	.LBE539-.LBB539
 9067 2d94 01       		.byte	0x1
 9068 2d95 0001     		.2byte	0x100
 9069 2d97 37       		.uleb128 0x37
 9070 2d98 11410000 		.4byte	0x4111
 9071 2d9c A7030000 		.4byte	.LLST53
 9072 2da0 37       		.uleb128 0x37
 9073 2da1 06410000 		.4byte	0x4106
 9074 2da5 C9030000 		.4byte	.LLST54
 9075 2da9 3E       		.uleb128 0x3e
 9076 2daa FB400000 		.4byte	0x40fb
 9077 2dae 00       		.byte	0
 9078 2daf 00       		.byte	0
 9079 2db0 00       		.byte	0
 9080 2db1 00       		.byte	0
 9081 2db2 3D       		.uleb128 0x3d
 9082 2db3 D5420000 		.4byte	0x42d5
 9083 2db7 86030000 		.4byte	.LBB543
 9084 2dbb 70010000 		.4byte	.Ldebug_ranges0+0x170
 9085 2dbf 01       		.byte	0x1
 9086 2dc0 3C05     		.2byte	0x53c
 9087 2dc2 3D2E0000 		.4byte	0x2e3d
 9088 2dc6 43       		.uleb128 0x43
 9089 2dc7 60430000 		.4byte	0x4360
 9090 2dcb 86030000 		.4byte	.LBB544
 9091 2dcf 70010000 		.4byte	.Ldebug_ranges0+0x170
 9092 2dd3 05       		.byte	0x5
 9093 2dd4 BF01     		.2byte	0x1bf
 9094 2dd6 3D       		.uleb128 0x3d
 9095 2dd7 84430000 		.4byte	0x4384
 9096 2ddb 86030000 		.4byte	.LBB546
 9097 2ddf 90010000 		.4byte	.Ldebug_ranges0+0x190
 9098 2de3 04       		.byte	0x4
 9099 2de4 5C01     		.2byte	0x15c
 9100 2de6 052E0000 		.4byte	0x2e05
 9101 2dea 43       		.uleb128 0x43
ARM GAS  C:\Users\stoma\AppData\Local\Temp\ccLygOki.s 			page 161


 9102 2deb 8D430000 		.4byte	0x438d
 9103 2def 86030000 		.4byte	.LBB547
 9104 2df3 90010000 		.4byte	.Ldebug_ranges0+0x190
 9105 2df7 14       		.byte	0x14
 9106 2df8 BF01     		.2byte	0x1bf
 9107 2dfa 37       		.uleb128 0x37
 9108 2dfb 9A430000 		.4byte	0x439a
 9109 2dff 00040000 		.4byte	.LLST55
 9110 2e03 00       		.byte	0
 9111 2e04 00       		.byte	0
 9112 2e05 38       		.uleb128 0x38
 9113 2e06 90030000 		.4byte	.LVL115
 9114 2e0a 5E480000 		.4byte	0x485e
 9115 2e0e 38       		.uleb128 0x38
 9116 2e0f 94030000 		.4byte	.LVL116
 9117 2e13 69480000 		.4byte	0x4869
 9118 2e17 38       		.uleb128 0x38
 9119 2e18 46040000 		.4byte	.LVL137
 9120 2e1c 5E480000 		.4byte	0x485e
 9121 2e20 38       		.uleb128 0x38
 9122 2e21 4A040000 		.4byte	.LVL138
 9123 2e25 69480000 		.4byte	0x4869
 9124 2e29 38       		.uleb128 0x38
 9125 2e2a 68040000 		.4byte	.LVL141
 9126 2e2e 5E480000 		.4byte	0x485e
 9127 2e32 38       		.uleb128 0x38
 9128 2e33 6C040000 		.4byte	.LVL142
 9129 2e37 69480000 		.4byte	0x4869
 9130 2e3b 00       		.byte	0
 9131 2e3c 00       		.byte	0
 9132 2e3d 36       		.uleb128 0x36
 9133 2e3e CC420000 		.4byte	0x42cc
 9134 2e42 AE030000 		.4byte	.LBB559
 9135 2e46 26000000 		.4byte	.LBE559-.LBB559
 9136 2e4a 01       		.byte	0x1
 9137 2e4b 4005     		.2byte	0x540
 9138 2e4d 36       		.uleb128 0x36
 9139 2e4e 45430000 		.4byte	0x4345
 9140 2e52 AE030000 		.4byte	.LBB560
 9141 2e56 26000000 		.4byte	.LBE560-.LBB560
 9142 2e5a 05       		.byte	0x5
 9143 2e5b CA01     		.2byte	0x1ca
 9144 2e5d 39       		.uleb128 0x39
 9145 2e5e AE030000 		.4byte	.LBB561
 9146 2e62 26000000 		.4byte	.LBE561-.LBB561
 9147 2e66 3A       		.uleb128 0x3a
 9148 2e67 52430000 		.4byte	0x4352
 9149 2e6b 35       		.uleb128 0x35
 9150 2e6c 7B430000 		.4byte	0x437b
 9151 2e70 CC030000 		.4byte	.LBB562
 9152 2e74 08000000 		.4byte	.LBE562-.LBB562
 9153 2e78 04       		.byte	0x4
 9154 2e79 7301     		.2byte	0x173
 9155 2e7b 9A2E0000 		.4byte	0x2e9a
 9156 2e7f 36       		.uleb128 0x36
 9157 2e80 8D430000 		.4byte	0x438d
 9158 2e84 CC030000 		.4byte	.LBB563
ARM GAS  C:\Users\stoma\AppData\Local\Temp\ccLygOki.s 			page 162


 9159 2e88 08000000 		.4byte	.LBE563-.LBB563
 9160 2e8c 14       		.byte	0x14
 9161 2e8d CD01     		.2byte	0x1cd
 9162 2e8f 37       		.uleb128 0x37
 9163 2e90 9A430000 		.4byte	0x439a
 9164 2e94 2F040000 		.4byte	.LLST56
 9165 2e98 00       		.byte	0
 9166 2e99 00       		.byte	0
 9167 2e9a 38       		.uleb128 0x38
 9168 2e9b B2030000 		.4byte	.LVL118
 9169 2e9f 74480000 		.4byte	0x4874
 9170 2ea3 38       		.uleb128 0x38
 9171 2ea4 B6030000 		.4byte	.LVL119
 9172 2ea8 7F480000 		.4byte	0x487f
 9173 2eac 3B       		.uleb128 0x3b
 9174 2ead CC030000 		.4byte	.LVL120
 9175 2eb1 8A480000 		.4byte	0x488a
 9176 2eb5 3C       		.uleb128 0x3c
 9177 2eb6 01       		.uleb128 0x1
 9178 2eb7 50       		.byte	0x50
 9179 2eb8 05       		.uleb128 0x5
 9180 2eb9 03       		.byte	0x3
 9181 2eba 00000000 		.4byte	.LANCHOR0
 9182 2ebe 00       		.byte	0
 9183 2ebf 00       		.byte	0
 9184 2ec0 00       		.byte	0
 9185 2ec1 00       		.byte	0
 9186 2ec2 00       		.byte	0
 9187 2ec3 3D       		.uleb128 0x3d
 9188 2ec4 CC420000 		.4byte	0x42cc
 9189 2ec8 26000000 		.4byte	.LBB432
 9190 2ecc 18000000 		.4byte	.Ldebug_ranges0+0x18
 9191 2ed0 01       		.byte	0x1
 9192 2ed1 2005     		.2byte	0x520
 9193 2ed3 482F0000 		.4byte	0x2f48
 9194 2ed7 43       		.uleb128 0x43
 9195 2ed8 45430000 		.4byte	0x4345
 9196 2edc 26000000 		.4byte	.LBB433
 9197 2ee0 18000000 		.4byte	.Ldebug_ranges0+0x18
 9198 2ee4 05       		.byte	0x5
 9199 2ee5 CA01     		.2byte	0x1ca
 9200 2ee7 41       		.uleb128 0x41
 9201 2ee8 18000000 		.4byte	.Ldebug_ranges0+0x18
 9202 2eec 3A       		.uleb128 0x3a
 9203 2eed 52430000 		.4byte	0x4352
 9204 2ef1 3D       		.uleb128 0x3d
 9205 2ef2 7B430000 		.4byte	0x437b
 9206 2ef6 26000000 		.4byte	.LBB435
 9207 2efa 30000000 		.4byte	.Ldebug_ranges0+0x30
 9208 2efe 04       		.byte	0x4
 9209 2eff 7301     		.2byte	0x173
 9210 2f01 202F0000 		.4byte	0x2f20
 9211 2f05 43       		.uleb128 0x43
 9212 2f06 8D430000 		.4byte	0x438d
 9213 2f0a 26000000 		.4byte	.LBB436
 9214 2f0e 30000000 		.4byte	.Ldebug_ranges0+0x30
 9215 2f12 14       		.byte	0x14
ARM GAS  C:\Users\stoma\AppData\Local\Temp\ccLygOki.s 			page 163


 9216 2f13 CD01     		.2byte	0x1cd
 9217 2f15 37       		.uleb128 0x37
 9218 2f16 9A430000 		.4byte	0x439a
 9219 2f1a 43040000 		.4byte	.LLST7
 9220 2f1e 00       		.byte	0
 9221 2f1f 00       		.byte	0
 9222 2f20 38       		.uleb128 0x38
 9223 2f21 54000000 		.4byte	.LVL11
 9224 2f25 74480000 		.4byte	0x4874
 9225 2f29 38       		.uleb128 0x38
 9226 2f2a 58000000 		.4byte	.LVL12
 9227 2f2e 7F480000 		.4byte	0x487f
 9228 2f32 3B       		.uleb128 0x3b
 9229 2f33 6E000000 		.4byte	.LVL13
 9230 2f37 8A480000 		.4byte	0x488a
 9231 2f3b 3C       		.uleb128 0x3c
 9232 2f3c 01       		.uleb128 0x1
 9233 2f3d 50       		.byte	0x50
 9234 2f3e 05       		.uleb128 0x5
 9235 2f3f 03       		.byte	0x3
 9236 2f40 00000000 		.4byte	.LANCHOR0
 9237 2f44 00       		.byte	0
 9238 2f45 00       		.byte	0
 9239 2f46 00       		.byte	0
 9240 2f47 00       		.byte	0
 9241 2f48 3D       		.uleb128 0x3d
 9242 2f49 79420000 		.4byte	0x4279
 9243 2f4d 42000000 		.4byte	.LBB443
 9244 2f51 48000000 		.4byte	.Ldebug_ranges0+0x48
 9245 2f55 01       		.byte	0x1
 9246 2f56 1E05     		.2byte	0x51e
 9247 2f58 732F0000 		.4byte	0x2f73
 9248 2f5c 3E       		.uleb128 0x3e
 9249 2f5d 8A420000 		.4byte	0x428a
 9250 2f61 3B       		.uleb128 0x3b
 9251 2f62 50000000 		.4byte	.LVL10
 9252 2f66 AD480000 		.4byte	0x48ad
 9253 2f6a 3C       		.uleb128 0x3c
 9254 2f6b 01       		.uleb128 0x1
 9255 2f6c 50       		.byte	0x50
 9256 2f6d 03       		.uleb128 0x3
 9257 2f6e 91       		.byte	0x91
 9258 2f6f 54       		.sleb128 -44
 9259 2f70 06       		.byte	0x6
 9260 2f71 00       		.byte	0
 9261 2f72 00       		.byte	0
 9262 2f73 3D       		.uleb128 0x3d
 9263 2f74 0C3F0000 		.4byte	0x3f0c
 9264 2f78 7E000000 		.4byte	.LBB448
 9265 2f7c 60000000 		.4byte	.Ldebug_ranges0+0x60
 9266 2f80 01       		.byte	0x1
 9267 2f81 2705     		.2byte	0x527
 9268 2f83 18320000 		.4byte	0x3218
 9269 2f87 37       		.uleb128 0x37
 9270 2f88 193F0000 		.4byte	0x3f19
 9271 2f8c 57040000 		.4byte	.LLST8
 9272 2f90 41       		.uleb128 0x41
ARM GAS  C:\Users\stoma\AppData\Local\Temp\ccLygOki.s 			page 164


 9273 2f91 60000000 		.4byte	.Ldebug_ranges0+0x60
 9274 2f95 40       		.uleb128 0x40
 9275 2f96 253F0000 		.4byte	0x3f25
 9276 2f9a 75040000 		.4byte	.LLST9
 9277 2f9e 40       		.uleb128 0x40
 9278 2f9f 313F0000 		.4byte	0x3f31
 9279 2fa3 93040000 		.4byte	.LLST10
 9280 2fa7 40       		.uleb128 0x40
 9281 2fa8 3D3F0000 		.4byte	0x3f3d
 9282 2fac C4040000 		.4byte	.LLST11
 9283 2fb0 3D       		.uleb128 0x3d
 9284 2fb1 C03F0000 		.4byte	0x3fc0
 9285 2fb5 A0000000 		.4byte	.LBB450
 9286 2fb9 78000000 		.4byte	.Ldebug_ranges0+0x78
 9287 2fbd 01       		.byte	0x1
 9288 2fbe BC01     		.2byte	0x1bc
 9289 2fc0 F82F0000 		.4byte	0x2ff8
 9290 2fc4 37       		.uleb128 0x37
 9291 2fc5 EF3F0000 		.4byte	0x3fef
 9292 2fc9 04050000 		.4byte	.LLST12
 9293 2fcd 3E       		.uleb128 0x3e
 9294 2fce E53F0000 		.4byte	0x3fe5
 9295 2fd2 37       		.uleb128 0x37
 9296 2fd3 D93F0000 		.4byte	0x3fd9
 9297 2fd7 3A050000 		.4byte	.LLST13
 9298 2fdb 37       		.uleb128 0x37
 9299 2fdc CD3F0000 		.4byte	0x3fcd
 9300 2fe0 4D050000 		.4byte	.LLST14
 9301 2fe4 3F       		.uleb128 0x3f
 9302 2fe5 FB3F0000 		.4byte	0x3ffb
 9303 2fe9 90000000 		.4byte	.Ldebug_ranges0+0x90
 9304 2fed 40       		.uleb128 0x40
 9305 2fee FC3F0000 		.4byte	0x3ffc
 9306 2ff2 6E050000 		.4byte	.LLST15
 9307 2ff6 00       		.byte	0
 9308 2ff7 00       		.byte	0
 9309 2ff8 3D       		.uleb128 0x3d
 9310 2ff9 C03F0000 		.4byte	0x3fc0
 9311 2ffd F4000000 		.4byte	.LBB457
 9312 3001 B0000000 		.4byte	.Ldebug_ranges0+0xb0
 9313 3005 01       		.byte	0x1
 9314 3006 C901     		.2byte	0x1c9
 9315 3008 44300000 		.4byte	0x3044
 9316 300c 37       		.uleb128 0x37
 9317 300d EF3F0000 		.4byte	0x3fef
 9318 3011 8C050000 		.4byte	.LLST16
 9319 3015 37       		.uleb128 0x37
 9320 3016 E53F0000 		.4byte	0x3fe5
 9321 301a C7050000 		.4byte	.LLST17
 9322 301e 37       		.uleb128 0x37
 9323 301f D93F0000 		.4byte	0x3fd9
 9324 3023 0A060000 		.4byte	.LLST18
 9325 3027 37       		.uleb128 0x37
 9326 3028 CD3F0000 		.4byte	0x3fcd
 9327 302c 34060000 		.4byte	.LLST19
 9328 3030 3F       		.uleb128 0x3f
 9329 3031 FB3F0000 		.4byte	0x3ffb
ARM GAS  C:\Users\stoma\AppData\Local\Temp\ccLygOki.s 			page 165


 9330 3035 C8000000 		.4byte	.Ldebug_ranges0+0xc8
 9331 3039 40       		.uleb128 0x40
 9332 303a FC3F0000 		.4byte	0x3ffc
 9333 303e 6B060000 		.4byte	.LLST20
 9334 3042 00       		.byte	0
 9335 3043 00       		.byte	0
 9336 3044 36       		.uleb128 0x36
 9337 3045 493F0000 		.4byte	0x3f49
 9338 3049 76010000 		.4byte	.LBB463
 9339 304d AE000000 		.4byte	.LBE463-.LBB463
 9340 3051 01       		.byte	0x1
 9341 3052 C401     		.2byte	0x1c4
 9342 3054 37       		.uleb128 0x37
 9343 3055 6E3F0000 		.4byte	0x3f6e
 9344 3059 89060000 		.4byte	.LLST21
 9345 305d 37       		.uleb128 0x37
 9346 305e 623F0000 		.4byte	0x3f62
 9347 3062 9C060000 		.4byte	.LLST22
 9348 3066 37       		.uleb128 0x37
 9349 3067 563F0000 		.4byte	0x3f56
 9350 306b B0060000 		.4byte	.LLST23
 9351 306f 39       		.uleb128 0x39
 9352 3070 76010000 		.4byte	.LBB464
 9353 3074 AE000000 		.4byte	.LBE464-.LBB464
 9354 3078 40       		.uleb128 0x40
 9355 3079 783F0000 		.4byte	0x3f78
 9356 307d D1060000 		.4byte	.LLST24
 9357 3081 44       		.uleb128 0x44
 9358 3082 843F0000 		.4byte	0x3f84
 9359 3086 80010000 		.4byte	.LBB465
 9360 308a 48000000 		.4byte	.LBE465-.LBB465
 9361 308e CE300000 		.4byte	0x30ce
 9362 3092 40       		.uleb128 0x40
 9363 3093 853F0000 		.4byte	0x3f85
 9364 3097 07070000 		.4byte	.LLST25
 9365 309b 40       		.uleb128 0x40
 9366 309c 8F3F0000 		.4byte	0x3f8f
 9367 30a0 1A070000 		.4byte	.LLST26
 9368 30a4 40       		.uleb128 0x40
 9369 30a5 993F0000 		.4byte	0x3f99
 9370 30a9 2E070000 		.4byte	.LLST27
 9371 30ad 45       		.uleb128 0x45
 9372 30ae A43F0000 		.4byte	0x3fa4
 9373 30b2 86010000 		.4byte	.LBB466
 9374 30b6 0A000000 		.4byte	.LBE466-.LBB466
 9375 30ba 40       		.uleb128 0x40
 9376 30bb A53F0000 		.4byte	0x3fa5
 9377 30bf 54070000 		.4byte	.LLST28
 9378 30c3 40       		.uleb128 0x40
 9379 30c4 B13F0000 		.4byte	0x3fb1
 9380 30c8 54070000 		.4byte	.LLST28
 9381 30cc 00       		.byte	0
 9382 30cd 00       		.byte	0
 9383 30ce 35       		.uleb128 0x35
 9384 30cf D5420000 		.4byte	0x42d5
 9385 30d3 C8010000 		.4byte	.LBB467
 9386 30d7 0E000000 		.4byte	.LBE467-.LBB467
ARM GAS  C:\Users\stoma\AppData\Local\Temp\ccLygOki.s 			page 166


 9387 30db 01       		.byte	0x1
 9388 30dc A401     		.2byte	0x1a4
 9389 30de 35310000 		.4byte	0x3135
 9390 30e2 36       		.uleb128 0x36
 9391 30e3 60430000 		.4byte	0x4360
 9392 30e7 C8010000 		.4byte	.LBB468
 9393 30eb 0E000000 		.4byte	.LBE468-.LBB468
 9394 30ef 05       		.byte	0x5
 9395 30f0 BF01     		.2byte	0x1bf
 9396 30f2 35       		.uleb128 0x35
 9397 30f3 84430000 		.4byte	0x4384
 9398 30f7 C8010000 		.4byte	.LBB470
 9399 30fb 06000000 		.4byte	.LBE470-.LBB470
 9400 30ff 04       		.byte	0x4
 9401 3100 5C01     		.2byte	0x15c
 9402 3102 21310000 		.4byte	0x3121
 9403 3106 36       		.uleb128 0x36
 9404 3107 8D430000 		.4byte	0x438d
 9405 310b C8010000 		.4byte	.LBB471
 9406 310f 06000000 		.4byte	.LBE471-.LBB471
 9407 3113 14       		.byte	0x14
 9408 3114 BF01     		.2byte	0x1bf
 9409 3116 37       		.uleb128 0x37
 9410 3117 9A430000 		.4byte	0x439a
 9411 311b 68070000 		.4byte	.LLST30
 9412 311f 00       		.byte	0
 9413 3120 00       		.byte	0
 9414 3121 38       		.uleb128 0x38
 9415 3122 D2010000 		.4byte	.LVL69
 9416 3126 5E480000 		.4byte	0x485e
 9417 312a 38       		.uleb128 0x38
 9418 312b D6010000 		.4byte	.LVL70
 9419 312f 69480000 		.4byte	0x4869
 9420 3133 00       		.byte	0
 9421 3134 00       		.byte	0
 9422 3135 35       		.uleb128 0x35
 9423 3136 27420000 		.4byte	0x4227
 9424 313a DC010000 		.4byte	.LBB473
 9425 313e 08000000 		.4byte	.LBE473-.LBB473
 9426 3142 01       		.byte	0x1
 9427 3143 A601     		.2byte	0x1a6
 9428 3145 71310000 		.4byte	0x3171
 9429 3149 37       		.uleb128 0x37
 9430 314a 40420000 		.4byte	0x4240
 9431 314e 7D070000 		.4byte	.LLST31
 9432 3152 37       		.uleb128 0x37
 9433 3153 34420000 		.4byte	0x4234
 9434 3157 91070000 		.4byte	.LLST32
 9435 315b 3B       		.uleb128 0x3b
 9436 315c E4010000 		.4byte	.LVL72
 9437 3160 96480000 		.4byte	0x4896
 9438 3164 3C       		.uleb128 0x3c
 9439 3165 01       		.uleb128 0x1
 9440 3166 50       		.byte	0x50
 9441 3167 02       		.uleb128 0x2
 9442 3168 75       		.byte	0x75
 9443 3169 00       		.sleb128 0
ARM GAS  C:\Users\stoma\AppData\Local\Temp\ccLygOki.s 			page 167


 9444 316a 3C       		.uleb128 0x3c
 9445 316b 01       		.uleb128 0x1
 9446 316c 51       		.byte	0x51
 9447 316d 01       		.uleb128 0x1
 9448 316e 30       		.byte	0x30
 9449 316f 00       		.byte	0
 9450 3170 00       		.byte	0
 9451 3171 35       		.uleb128 0x35
 9452 3172 97420000 		.4byte	0x4297
 9453 3176 E4010000 		.4byte	.LBB475
 9454 317a 04000000 		.4byte	.LBE475-.LBB475
 9455 317e 01       		.byte	0x1
 9456 317f A701     		.2byte	0x1a7
 9457 3181 8F310000 		.4byte	0x318f
 9458 3185 38       		.uleb128 0x38
 9459 3186 E8010000 		.4byte	.LVL73
 9460 318a A1480000 		.4byte	0x48a1
 9461 318e 00       		.byte	0
 9462 318f 36       		.uleb128 0x36
 9463 3190 CC420000 		.4byte	0x42cc
 9464 3194 E8010000 		.4byte	.LBB477
 9465 3198 3C000000 		.4byte	.LBE477-.LBB477
 9466 319c 01       		.byte	0x1
 9467 319d A801     		.2byte	0x1a8
 9468 319f 36       		.uleb128 0x36
 9469 31a0 45430000 		.4byte	0x4345
 9470 31a4 E8010000 		.4byte	.LBB478
 9471 31a8 3C000000 		.4byte	.LBE478-.LBB478
 9472 31ac 05       		.byte	0x5
 9473 31ad CA01     		.2byte	0x1ca
 9474 31af 39       		.uleb128 0x39
 9475 31b0 E8010000 		.4byte	.LBB479
 9476 31b4 3C000000 		.4byte	.LBE479-.LBB479
 9477 31b8 3A       		.uleb128 0x3a
 9478 31b9 52430000 		.4byte	0x4352
 9479 31bd 35       		.uleb128 0x35
 9480 31be 7B430000 		.4byte	0x437b
 9481 31c2 06020000 		.4byte	.LBB480
 9482 31c6 1E000000 		.4byte	.LBE480-.LBB480
 9483 31ca 04       		.byte	0x4
 9484 31cb 7301     		.2byte	0x173
 9485 31cd EC310000 		.4byte	0x31ec
 9486 31d1 36       		.uleb128 0x36
 9487 31d2 8D430000 		.4byte	0x438d
 9488 31d6 06020000 		.4byte	.LBB481
 9489 31da 1E000000 		.4byte	.LBE481-.LBB481
 9490 31de 14       		.byte	0x14
 9491 31df CD01     		.2byte	0x1cd
 9492 31e1 37       		.uleb128 0x37
 9493 31e2 9A430000 		.4byte	0x439a
 9494 31e6 A4070000 		.4byte	.LLST33
 9495 31ea 00       		.byte	0
 9496 31eb 00       		.byte	0
 9497 31ec 38       		.uleb128 0x38
 9498 31ed EC010000 		.4byte	.LVL74
 9499 31f1 74480000 		.4byte	0x4874
 9500 31f5 38       		.uleb128 0x38
ARM GAS  C:\Users\stoma\AppData\Local\Temp\ccLygOki.s 			page 168


 9501 31f6 F0010000 		.4byte	.LVL75
 9502 31fa 7F480000 		.4byte	0x487f
 9503 31fe 3B       		.uleb128 0x3b
 9504 31ff 06020000 		.4byte	.LVL76
 9505 3203 8A480000 		.4byte	0x488a
 9506 3207 3C       		.uleb128 0x3c
 9507 3208 01       		.uleb128 0x1
 9508 3209 50       		.byte	0x50
 9509 320a 05       		.uleb128 0x5
 9510 320b 03       		.byte	0x3
 9511 320c 00000000 		.4byte	.LANCHOR0
 9512 3210 00       		.byte	0
 9513 3211 00       		.byte	0
 9514 3212 00       		.byte	0
 9515 3213 00       		.byte	0
 9516 3214 00       		.byte	0
 9517 3215 00       		.byte	0
 9518 3216 00       		.byte	0
 9519 3217 00       		.byte	0
 9520 3218 36       		.uleb128 0x36
 9521 3219 D5420000 		.4byte	0x42d5
 9522 321d 56010000 		.4byte	.LBB484
 9523 3221 10000000 		.4byte	.LBE484-.LBB484
 9524 3225 01       		.byte	0x1
 9525 3226 4305     		.2byte	0x543
 9526 3228 36       		.uleb128 0x36
 9527 3229 60430000 		.4byte	0x4360
 9528 322d 56010000 		.4byte	.LBB485
 9529 3231 10000000 		.4byte	.LBE485-.LBB485
 9530 3235 05       		.byte	0x5
 9531 3236 BF01     		.2byte	0x1bf
 9532 3238 35       		.uleb128 0x35
 9533 3239 84430000 		.4byte	0x4384
 9534 323d 56010000 		.4byte	.LBB487
 9535 3241 06000000 		.4byte	.LBE487-.LBB487
 9536 3245 04       		.byte	0x4
 9537 3246 5C01     		.2byte	0x15c
 9538 3248 67320000 		.4byte	0x3267
 9539 324c 36       		.uleb128 0x36
 9540 324d 8D430000 		.4byte	0x438d
 9541 3251 56010000 		.4byte	.LBB488
 9542 3255 06000000 		.4byte	.LBE488-.LBB488
 9543 3259 14       		.byte	0x14
 9544 325a BF01     		.2byte	0x1bf
 9545 325c 37       		.uleb128 0x37
 9546 325d 9A430000 		.4byte	0x439a
 9547 3261 B8070000 		.4byte	.LLST34
 9548 3265 00       		.byte	0
 9549 3266 00       		.byte	0
 9550 3267 38       		.uleb128 0x38
 9551 3268 60010000 		.4byte	.LVL53
 9552 326c 5E480000 		.4byte	0x485e
 9553 3270 38       		.uleb128 0x38
 9554 3271 64010000 		.4byte	.LVL54
 9555 3275 69480000 		.4byte	0x4869
 9556 3279 00       		.byte	0
 9557 327a 00       		.byte	0
ARM GAS  C:\Users\stoma\AppData\Local\Temp\ccLygOki.s 			page 169


 9558 327b 00       		.byte	0
 9559 327c 3D       		.uleb128 0x3d
 9560 327d DE420000 		.4byte	0x42de
 9561 3281 04000000 		.4byte	.LBB421
 9562 3285 00000000 		.4byte	.Ldebug_ranges0+0
 9563 3289 01       		.byte	0x1
 9564 328a 1305     		.2byte	0x513
 9565 328c 96320000 		.4byte	0x3296
 9566 3290 3E       		.uleb128 0x3e
 9567 3291 EA420000 		.4byte	0x42ea
 9568 3295 00       		.byte	0
 9569 3296 36       		.uleb128 0x36
 9570 3297 D5420000 		.4byte	0x42d5
 9571 329b 14000000 		.4byte	.LBB425
 9572 329f 12000000 		.4byte	.LBE425-.LBB425
 9573 32a3 01       		.byte	0x1
 9574 32a4 1505     		.2byte	0x515
 9575 32a6 36       		.uleb128 0x36
 9576 32a7 60430000 		.4byte	0x4360
 9577 32ab 14000000 		.4byte	.LBB426
 9578 32af 12000000 		.4byte	.LBE426-.LBB426
 9579 32b3 05       		.byte	0x5
 9580 32b4 BF01     		.2byte	0x1bf
 9581 32b6 35       		.uleb128 0x35
 9582 32b7 84430000 		.4byte	0x4384
 9583 32bb 14000000 		.4byte	.LBB428
 9584 32bf 06000000 		.4byte	.LBE428-.LBB428
 9585 32c3 04       		.byte	0x4
 9586 32c4 5C01     		.2byte	0x15c
 9587 32c6 E5320000 		.4byte	0x32e5
 9588 32ca 36       		.uleb128 0x36
 9589 32cb 8D430000 		.4byte	0x438d
 9590 32cf 14000000 		.4byte	.LBB429
 9591 32d3 06000000 		.4byte	.LBE429-.LBB429
 9592 32d7 14       		.byte	0x14
 9593 32d8 BF01     		.2byte	0x1bf
 9594 32da 37       		.uleb128 0x37
 9595 32db 9A430000 		.4byte	0x439a
 9596 32df CD070000 		.4byte	.LLST4
 9597 32e3 00       		.byte	0
 9598 32e4 00       		.byte	0
 9599 32e5 38       		.uleb128 0x38
 9600 32e6 1E000000 		.4byte	.LVL7
 9601 32ea 5E480000 		.4byte	0x485e
 9602 32ee 38       		.uleb128 0x38
 9603 32ef 22000000 		.4byte	.LVL8
 9604 32f3 69480000 		.4byte	0x4869
 9605 32f7 00       		.byte	0
 9606 32f8 00       		.byte	0
 9607 32f9 00       		.byte	0
 9608 32fa 2F       		.uleb128 0x2f
 9609 32fb B40D0000 		.4byte	.LASF602
 9610 32ff 01       		.byte	0x1
 9611 3300 FE04     		.2byte	0x4fe
 9612 3302 00000000 		.4byte	.LFB291
 9613 3306 14000000 		.4byte	.LFE291-.LFB291
 9614 330a 01       		.uleb128 0x1
ARM GAS  C:\Users\stoma\AppData\Local\Temp\ccLygOki.s 			page 170


 9615 330b 9C       		.byte	0x9c
 9616 330c 2E330000 		.4byte	0x332e
 9617 3310 46       		.uleb128 0x46
 9618 3311 190E0000 		.4byte	.LASF598
 9619 3315 01       		.byte	0x1
 9620 3316 FE04     		.2byte	0x4fe
 9621 3318 B9200000 		.4byte	0x20b9
 9622 331c 01       		.uleb128 0x1
 9623 331d 50       		.byte	0x50
 9624 331e 30       		.uleb128 0x30
 9625 331f 657000   		.ascii	"ep\000"
 9626 3322 01       		.byte	0x1
 9627 3323 FE04     		.2byte	0x4fe
 9628 3325 721F0000 		.4byte	0x1f72
 9629 3329 E2070000 		.4byte	.LLST145
 9630 332d 00       		.byte	0
 9631 332e 2F       		.uleb128 0x2f
 9632 332f B1010000 		.4byte	.LASF603
 9633 3333 01       		.byte	0x1
 9634 3334 F104     		.2byte	0x4f1
 9635 3336 00000000 		.4byte	.LFB290
 9636 333a 14000000 		.4byte	.LFE290-.LFB290
 9637 333e 01       		.uleb128 0x1
 9638 333f 9C       		.byte	0x9c
 9639 3340 62330000 		.4byte	0x3362
 9640 3344 46       		.uleb128 0x46
 9641 3345 190E0000 		.4byte	.LASF598
 9642 3349 01       		.byte	0x1
 9643 334a F104     		.2byte	0x4f1
 9644 334c B9200000 		.4byte	0x20b9
 9645 3350 01       		.uleb128 0x1
 9646 3351 50       		.byte	0x50
 9647 3352 30       		.uleb128 0x30
 9648 3353 657000   		.ascii	"ep\000"
 9649 3356 01       		.byte	0x1
 9650 3357 F104     		.2byte	0x4f1
 9651 3359 721F0000 		.4byte	0x1f72
 9652 335d 03080000 		.4byte	.LLST144
 9653 3361 00       		.byte	0
 9654 3362 2F       		.uleb128 0x2f
 9655 3363 AF120000 		.4byte	.LASF604
 9656 3367 01       		.byte	0x1
 9657 3368 E404     		.2byte	0x4e4
 9658 336a 00000000 		.4byte	.LFB289
 9659 336e 14000000 		.4byte	.LFE289-.LFB289
 9660 3372 01       		.uleb128 0x1
 9661 3373 9C       		.byte	0x9c
 9662 3374 96330000 		.4byte	0x3396
 9663 3378 46       		.uleb128 0x46
 9664 3379 190E0000 		.4byte	.LASF598
 9665 337d 01       		.byte	0x1
 9666 337e E404     		.2byte	0x4e4
 9667 3380 B9200000 		.4byte	0x20b9
 9668 3384 01       		.uleb128 0x1
 9669 3385 50       		.byte	0x50
 9670 3386 30       		.uleb128 0x30
 9671 3387 657000   		.ascii	"ep\000"
ARM GAS  C:\Users\stoma\AppData\Local\Temp\ccLygOki.s 			page 171


 9672 338a 01       		.byte	0x1
 9673 338b E404     		.2byte	0x4e4
 9674 338d 721F0000 		.4byte	0x1f72
 9675 3391 24080000 		.4byte	.LLST143
 9676 3395 00       		.byte	0
 9677 3396 2F       		.uleb128 0x2f
 9678 3397 670F0000 		.4byte	.LASF605
 9679 339b 01       		.byte	0x1
 9680 339c D704     		.2byte	0x4d7
 9681 339e 00000000 		.4byte	.LFB288
 9682 33a2 14000000 		.4byte	.LFE288-.LFB288
 9683 33a6 01       		.uleb128 0x1
 9684 33a7 9C       		.byte	0x9c
 9685 33a8 CA330000 		.4byte	0x33ca
 9686 33ac 46       		.uleb128 0x46
 9687 33ad 190E0000 		.4byte	.LASF598
 9688 33b1 01       		.byte	0x1
 9689 33b2 D704     		.2byte	0x4d7
 9690 33b4 B9200000 		.4byte	0x20b9
 9691 33b8 01       		.uleb128 0x1
 9692 33b9 50       		.byte	0x50
 9693 33ba 30       		.uleb128 0x30
 9694 33bb 657000   		.ascii	"ep\000"
 9695 33be 01       		.byte	0x1
 9696 33bf D704     		.2byte	0x4d7
 9697 33c1 721F0000 		.4byte	0x1f72
 9698 33c5 45080000 		.4byte	.LLST142
 9699 33c9 00       		.byte	0
 9700 33ca 47       		.uleb128 0x47
 9701 33cb A9150000 		.4byte	.LASF606
 9702 33cf 01       		.byte	0x1
 9703 33d0 C904     		.2byte	0x4c9
 9704 33d2 01       		.byte	0x1
 9705 33d3 EF330000 		.4byte	0x33ef
 9706 33d7 48       		.uleb128 0x48
 9707 33d8 190E0000 		.4byte	.LASF598
 9708 33dc 01       		.byte	0x1
 9709 33dd C904     		.2byte	0x4c9
 9710 33df B9200000 		.4byte	0x20b9
 9711 33e3 49       		.uleb128 0x49
 9712 33e4 657000   		.ascii	"ep\000"
 9713 33e7 01       		.byte	0x1
 9714 33e8 C904     		.2byte	0x4c9
 9715 33ea 721F0000 		.4byte	0x1f72
 9716 33ee 00       		.byte	0
 9717 33ef 47       		.uleb128 0x47
 9718 33f0 D3120000 		.4byte	.LASF607
 9719 33f4 01       		.byte	0x1
 9720 33f5 BC04     		.2byte	0x4bc
 9721 33f7 01       		.byte	0x1
 9722 33f8 14340000 		.4byte	0x3414
 9723 33fc 48       		.uleb128 0x48
 9724 33fd 190E0000 		.4byte	.LASF598
 9725 3401 01       		.byte	0x1
 9726 3402 BC04     		.2byte	0x4bc
 9727 3404 B9200000 		.4byte	0x20b9
 9728 3408 49       		.uleb128 0x49
ARM GAS  C:\Users\stoma\AppData\Local\Temp\ccLygOki.s 			page 172


 9729 3409 657000   		.ascii	"ep\000"
 9730 340c 01       		.byte	0x1
 9731 340d BC04     		.2byte	0x4bc
 9732 340f 721F0000 		.4byte	0x1f72
 9733 3413 00       		.byte	0
 9734 3414 2F       		.uleb128 0x2f
 9735 3415 8C010000 		.4byte	.LASF608
 9736 3419 01       		.byte	0x1
 9737 341a 9F04     		.2byte	0x49f
 9738 341c 00000000 		.4byte	.LFB285
 9739 3420 4C000000 		.4byte	.LFE285-.LFB285
 9740 3424 01       		.uleb128 0x1
 9741 3425 9C       		.byte	0x9c
 9742 3426 70340000 		.4byte	0x3470
 9743 342a 4A       		.uleb128 0x4a
 9744 342b 190E0000 		.4byte	.LASF598
 9745 342f 01       		.byte	0x1
 9746 3430 9F04     		.2byte	0x49f
 9747 3432 B9200000 		.4byte	0x20b9
 9748 3436 66080000 		.4byte	.LLST117
 9749 343a 30       		.uleb128 0x30
 9750 343b 657000   		.ascii	"ep\000"
 9751 343e 01       		.byte	0x1
 9752 343f 9F04     		.2byte	0x49f
 9753 3441 721F0000 		.4byte	0x1f72
 9754 3445 87080000 		.4byte	.LLST118
 9755 3449 33       		.uleb128 0x33
 9756 344a 69737000 		.ascii	"isp\000"
 9757 344e 01       		.byte	0x1
 9758 344f A004     		.2byte	0x4a0
 9759 3451 8E280000 		.4byte	0x288e
 9760 3455 B3080000 		.4byte	.LLST119
 9761 3459 41       		.uleb128 0x41
 9762 345a 90020000 		.4byte	.Ldebug_ranges0+0x290
 9763 345e 31       		.uleb128 0x31
 9764 345f CD070000 		.4byte	.LASF609
 9765 3463 01       		.byte	0x1
 9766 3464 AD04     		.2byte	0x4ad
 9767 3466 06090000 		.4byte	0x906
 9768 346a F4080000 		.4byte	.LLST120
 9769 346e 00       		.byte	0
 9770 346f 00       		.byte	0
 9771 3470 2F       		.uleb128 0x2f
 9772 3471 EC160000 		.4byte	.LASF610
 9773 3475 01       		.byte	0x1
 9774 3476 8704     		.2byte	0x487
 9775 3478 00000000 		.4byte	.LFB284
 9776 347c 40000000 		.4byte	.LFE284-.LFB284
 9777 3480 01       		.uleb128 0x1
 9778 3481 9C       		.byte	0x9c
 9779 3482 C6340000 		.4byte	0x34c6
 9780 3486 4A       		.uleb128 0x4a
 9781 3487 190E0000 		.4byte	.LASF598
 9782 348b 01       		.byte	0x1
 9783 348c 8704     		.2byte	0x487
 9784 348e B9200000 		.4byte	0x20b9
 9785 3492 17090000 		.4byte	.LLST105
ARM GAS  C:\Users\stoma\AppData\Local\Temp\ccLygOki.s 			page 173


 9786 3496 30       		.uleb128 0x30
 9787 3497 657000   		.ascii	"ep\000"
 9788 349a 01       		.byte	0x1
 9789 349b 8704     		.2byte	0x487
 9790 349d 721F0000 		.4byte	0x1f72
 9791 34a1 38090000 		.4byte	.LLST106
 9792 34a5 31       		.uleb128 0x31
 9793 34a6 CD070000 		.4byte	.LASF609
 9794 34aa 01       		.byte	0x1
 9795 34ab 8804     		.2byte	0x488
 9796 34ad 06090000 		.4byte	0x906
 9797 34b1 59090000 		.4byte	.LLST107
 9798 34b5 33       		.uleb128 0x33
 9799 34b6 6F737000 		.ascii	"osp\000"
 9800 34ba 01       		.byte	0x1
 9801 34bb 8904     		.2byte	0x489
 9802 34bd 94280000 		.4byte	0x2894
 9803 34c1 7C090000 		.4byte	.LLST108
 9804 34c5 00       		.byte	0
 9805 34c6 2F       		.uleb128 0x2f
 9806 34c7 1B080000 		.4byte	.LASF611
 9807 34cb 01       		.byte	0x1
 9808 34cc 7A04     		.2byte	0x47a
 9809 34ce 00000000 		.4byte	.LFB283
 9810 34d2 12000000 		.4byte	.LFE283-.LFB283
 9811 34d6 01       		.uleb128 0x1
 9812 34d7 9C       		.byte	0x9c
 9813 34d8 08350000 		.4byte	0x3508
 9814 34dc 46       		.uleb128 0x46
 9815 34dd 190E0000 		.4byte	.LASF598
 9816 34e1 01       		.byte	0x1
 9817 34e2 7A04     		.2byte	0x47a
 9818 34e4 B9200000 		.4byte	0x20b9
 9819 34e8 01       		.uleb128 0x1
 9820 34e9 50       		.byte	0x50
 9821 34ea 30       		.uleb128 0x30
 9822 34eb 657000   		.ascii	"ep\000"
 9823 34ee 01       		.byte	0x1
 9824 34ef 7A04     		.2byte	0x47a
 9825 34f1 721F0000 		.4byte	0x1f72
 9826 34f5 9B090000 		.4byte	.LLST104
 9827 34f9 4B       		.uleb128 0x4b
 9828 34fa 62756600 		.ascii	"buf\000"
 9829 34fe 01       		.byte	0x1
 9830 34ff 7A04     		.2byte	0x47a
 9831 3501 85160000 		.4byte	0x1685
 9832 3505 01       		.uleb128 0x1
 9833 3506 52       		.byte	0x52
 9834 3507 00       		.byte	0
 9835 3508 4C       		.uleb128 0x4c
 9836 3509 C3010000 		.4byte	.LASF612
 9837 350d 01       		.byte	0x1
 9838 350e 5F04     		.2byte	0x45f
 9839 3510 D71F0000 		.4byte	0x1fd7
 9840 3514 00000000 		.4byte	.LFB282
 9841 3518 1A000000 		.4byte	.LFE282-.LFB282
 9842 351c 01       		.uleb128 0x1
ARM GAS  C:\Users\stoma\AppData\Local\Temp\ccLygOki.s 			page 174


 9843 351d 9C       		.byte	0x9c
 9844 351e 50350000 		.4byte	0x3550
 9845 3522 4A       		.uleb128 0x4a
 9846 3523 190E0000 		.4byte	.LASF598
 9847 3527 01       		.byte	0x1
 9848 3528 5F04     		.2byte	0x45f
 9849 352a B9200000 		.4byte	0x20b9
 9850 352e BC090000 		.4byte	.LLST102
 9851 3532 30       		.uleb128 0x30
 9852 3533 657000   		.ascii	"ep\000"
 9853 3536 01       		.byte	0x1
 9854 3537 5F04     		.2byte	0x45f
 9855 3539 721F0000 		.4byte	0x1f72
 9856 353d DD090000 		.4byte	.LLST103
 9857 3541 4D       		.uleb128 0x4d
 9858 3542 63746C00 		.ascii	"ctl\000"
 9859 3546 01       		.byte	0x1
 9860 3547 6004     		.2byte	0x460
 9861 3549 06090000 		.4byte	0x906
 9862 354d 01       		.uleb128 0x1
 9863 354e 53       		.byte	0x53
 9864 354f 00       		.byte	0
 9865 3550 4C       		.uleb128 0x4c
 9866 3551 181A0000 		.4byte	.LASF613
 9867 3555 01       		.byte	0x1
 9868 3556 4604     		.2byte	0x446
 9869 3558 D71F0000 		.4byte	0x1fd7
 9870 355c 00000000 		.4byte	.LFB281
 9871 3560 1A000000 		.4byte	.LFE281-.LFB281
 9872 3564 01       		.uleb128 0x1
 9873 3565 9C       		.byte	0x9c
 9874 3566 98350000 		.4byte	0x3598
 9875 356a 4A       		.uleb128 0x4a
 9876 356b 190E0000 		.4byte	.LASF598
 9877 356f 01       		.byte	0x1
 9878 3570 4604     		.2byte	0x446
 9879 3572 B9200000 		.4byte	0x20b9
 9880 3576 FE090000 		.4byte	.LLST100
 9881 357a 30       		.uleb128 0x30
 9882 357b 657000   		.ascii	"ep\000"
 9883 357e 01       		.byte	0x1
 9884 357f 4604     		.2byte	0x446
 9885 3581 721F0000 		.4byte	0x1f72
 9886 3585 1F0A0000 		.4byte	.LLST101
 9887 3589 4D       		.uleb128 0x4d
 9888 358a 63746C00 		.ascii	"ctl\000"
 9889 358e 01       		.byte	0x1
 9890 358f 4704     		.2byte	0x447
 9891 3591 06090000 		.4byte	0x906
 9892 3595 01       		.uleb128 0x1
 9893 3596 53       		.byte	0x53
 9894 3597 00       		.byte	0
 9895 3598 2F       		.uleb128 0x2f
 9896 3599 E8150000 		.4byte	.LASF614
 9897 359d 01       		.byte	0x1
 9898 359e 3104     		.2byte	0x431
 9899 35a0 00000000 		.4byte	.LFB280
ARM GAS  C:\Users\stoma\AppData\Local\Temp\ccLygOki.s 			page 175


 9900 35a4 0E000000 		.4byte	.LFE280-.LFB280
 9901 35a8 01       		.uleb128 0x1
 9902 35a9 9C       		.byte	0x9c
 9903 35aa F7350000 		.4byte	0x35f7
 9904 35ae 4A       		.uleb128 0x4a
 9905 35af 190E0000 		.4byte	.LASF598
 9906 35b3 01       		.byte	0x1
 9907 35b4 3104     		.2byte	0x431
 9908 35b6 B9200000 		.4byte	0x20b9
 9909 35ba 400A0000 		.4byte	.LLST99
 9910 35be 35       		.uleb128 0x35
 9911 35bf 6F410000 		.4byte	0x416f
 9912 35c3 06000000 		.4byte	.LBB625
 9913 35c7 04000000 		.4byte	.LBE625-.LBB625
 9914 35cb 01       		.byte	0x1
 9915 35cc 3404     		.2byte	0x434
 9916 35ce DD350000 		.4byte	0x35dd
 9917 35d2 3E       		.uleb128 0x3e
 9918 35d3 7B410000 		.4byte	0x417b
 9919 35d7 3E       		.uleb128 0x3e
 9920 35d8 7B410000 		.4byte	0x417b
 9921 35dc 00       		.byte	0
 9922 35dd 4E       		.uleb128 0x4e
 9923 35de 0E000000 		.4byte	.LVL214
 9924 35e2 A7430000 		.4byte	0x43a7
 9925 35e6 3C       		.uleb128 0x3c
 9926 35e7 01       		.uleb128 0x1
 9927 35e8 50       		.byte	0x50
 9928 35e9 02       		.uleb128 0x2
 9929 35ea 70       		.byte	0x70
 9930 35eb 00       		.sleb128 0
 9931 35ec 4F       		.uleb128 0x4f
 9932 35ed E4410000 		.4byte	0x41e4
 9933 35f1 03       		.uleb128 0x3
 9934 35f2 F3       		.byte	0xf3
 9935 35f3 01       		.uleb128 0x1
 9936 35f4 50       		.byte	0x50
 9937 35f5 00       		.byte	0
 9938 35f6 00       		.byte	0
 9939 35f7 2F       		.uleb128 0x2f
 9940 35f8 95020000 		.4byte	.LASF615
 9941 35fc 01       		.byte	0x1
 9942 35fd F103     		.2byte	0x3f1
 9943 35ff 00000000 		.4byte	.LFB279
 9944 3603 84010000 		.4byte	.LFE279-.LFB279
 9945 3607 01       		.uleb128 0x1
 9946 3608 9C       		.byte	0x9c
 9947 3609 74370000 		.4byte	0x3774
 9948 360d 4A       		.uleb128 0x4a
 9949 360e 190E0000 		.4byte	.LASF598
 9950 3612 01       		.byte	0x1
 9951 3613 F103     		.2byte	0x3f1
 9952 3615 B9200000 		.4byte	0x20b9
 9953 3619 6C0A0000 		.4byte	.LLST82
 9954 361d 30       		.uleb128 0x30
 9955 361e 657000   		.ascii	"ep\000"
 9956 3621 01       		.byte	0x1
ARM GAS  C:\Users\stoma\AppData\Local\Temp\ccLygOki.s 			page 176


 9957 3622 F103     		.2byte	0x3f1
 9958 3624 721F0000 		.4byte	0x1f72
 9959 3628 A00A0000 		.4byte	.LLST83
 9960 362c 33       		.uleb128 0x33
 9961 362d 63746C00 		.ascii	"ctl\000"
 9962 3631 01       		.byte	0x1
 9963 3632 F203     		.2byte	0x3f2
 9964 3634 06090000 		.4byte	0x906
 9965 3638 DA0A0000 		.4byte	.LLST84
 9966 363c 31       		.uleb128 0x31
 9967 363d 43020000 		.4byte	.LASF616
 9968 3641 01       		.byte	0x1
 9969 3642 F203     		.2byte	0x3f2
 9970 3644 06090000 		.4byte	0x906
 9971 3648 180B0000 		.4byte	.LLST85
 9972 364c 31       		.uleb128 0x31
 9973 364d F5170000 		.4byte	.LASF599
 9974 3651 01       		.byte	0x1
 9975 3652 F303     		.2byte	0x3f3
 9976 3654 36290000 		.4byte	0x2936
 9977 3658 2B0B0000 		.4byte	.LLST86
 9978 365c 3D       		.uleb128 0x3d
 9979 365d 1B410000 		.4byte	0x411b
 9980 3661 96000000 		.4byte	.LBB611
 9981 3665 58020000 		.4byte	.Ldebug_ranges0+0x258
 9982 3669 01       		.byte	0x1
 9983 366a 1A04     		.2byte	0x41a
 9984 366c B3360000 		.4byte	0x36b3
 9985 3670 37       		.uleb128 0x37
 9986 3671 2B410000 		.4byte	0x412b
 9987 3675 810B0000 		.4byte	.LLST87
 9988 3679 37       		.uleb128 0x37
 9989 367a 2B410000 		.4byte	0x412b
 9990 367e 810B0000 		.4byte	.LLST87
 9991 3682 37       		.uleb128 0x37
 9992 3683 36410000 		.4byte	0x4136
 9993 3687 9F0B0000 		.4byte	.LLST89
 9994 368b 41       		.uleb128 0x41
 9995 368c 58020000 		.4byte	.Ldebug_ranges0+0x258
 9996 3690 40       		.uleb128 0x40
 9997 3691 41410000 		.4byte	0x4141
 9998 3695 B20B0000 		.4byte	.LLST90
 9999 3699 3A       		.uleb128 0x3a
 10000 369a 4C410000 		.4byte	0x414c
 10001 369e 3B       		.uleb128 0x3b
 10002 369f 68010000 		.4byte	.LVL211
 10003 36a3 8A480000 		.4byte	0x488a
 10004 36a7 3C       		.uleb128 0x3c
 10005 36a8 01       		.uleb128 0x1
 10006 36a9 50       		.byte	0x50
 10007 36aa 05       		.uleb128 0x5
 10008 36ab 03       		.byte	0x3
 10009 36ac 00000000 		.4byte	.LANCHOR5
 10010 36b0 00       		.byte	0
 10011 36b1 00       		.byte	0
 10012 36b2 00       		.byte	0
 10013 36b3 35       		.uleb128 0x35
ARM GAS  C:\Users\stoma\AppData\Local\Temp\ccLygOki.s 			page 177


 10014 36b4 87410000 		.4byte	0x4187
 10015 36b8 B4000000 		.4byte	.LBB616
 10016 36bc 10000000 		.4byte	.LBE616-.LBB616
 10017 36c0 01       		.byte	0x1
 10018 36c1 1B04     		.2byte	0x41b
 10019 36c3 15370000 		.4byte	0x3715
 10020 36c7 37       		.uleb128 0x37
 10021 36c8 93410000 		.4byte	0x4193
 10022 36cc DC0B0000 		.4byte	.LLST91
 10023 36d0 37       		.uleb128 0x37
 10024 36d1 9E410000 		.4byte	0x419e
 10025 36d5 EF0B0000 		.4byte	.LLST92
 10026 36d9 39       		.uleb128 0x39
 10027 36da B4000000 		.4byte	.LBB617
 10028 36de 10000000 		.4byte	.LBE617-.LBB617
 10029 36e2 40       		.uleb128 0x40
 10030 36e3 A9410000 		.4byte	0x41a9
 10031 36e7 070C0000 		.4byte	.LLST93
 10032 36eb 50       		.uleb128 0x50
 10033 36ec A0420000 		.4byte	0x42a0
 10034 36f0 BE000000 		.4byte	.LBB618
 10035 36f4 06000000 		.4byte	.LBE618-.LBB618
 10036 36f8 01       		.byte	0x1
 10037 36f9 BA       		.byte	0xba
 10038 36fa 37       		.uleb128 0x37
 10039 36fb AD420000 		.4byte	0x42ad
 10040 36ff 1A0C0000 		.4byte	.LLST94
 10041 3703 3B       		.uleb128 0x3b
 10042 3704 C4000000 		.4byte	.LVL202
 10043 3708 B8480000 		.4byte	0x48b8
 10044 370c 3C       		.uleb128 0x3c
 10045 370d 01       		.uleb128 0x1
 10046 370e 50       		.byte	0x50
 10047 370f 01       		.uleb128 0x1
 10048 3710 3C       		.byte	0x3c
 10049 3711 00       		.byte	0
 10050 3712 00       		.byte	0
 10051 3713 00       		.byte	0
 10052 3714 00       		.byte	0
 10053 3715 36       		.uleb128 0x36
 10054 3716 87410000 		.4byte	0x4187
 10055 371a FE000000 		.4byte	.LBB620
 10056 371e 14000000 		.4byte	.LBE620-.LBB620
 10057 3722 01       		.byte	0x1
 10058 3723 2404     		.2byte	0x424
 10059 3725 37       		.uleb128 0x37
 10060 3726 93410000 		.4byte	0x4193
 10061 372a 2E0C0000 		.4byte	.LLST95
 10062 372e 37       		.uleb128 0x37
 10063 372f 9E410000 		.4byte	0x419e
 10064 3733 410C0000 		.4byte	.LLST96
 10065 3737 39       		.uleb128 0x39
 10066 3738 FE000000 		.4byte	.LBB621
 10067 373c 14000000 		.4byte	.LBE621-.LBB621
 10068 3740 40       		.uleb128 0x40
 10069 3741 A9410000 		.4byte	0x41a9
 10070 3745 590C0000 		.4byte	.LLST97
ARM GAS  C:\Users\stoma\AppData\Local\Temp\ccLygOki.s 			page 178


 10071 3749 50       		.uleb128 0x50
 10072 374a A0420000 		.4byte	0x42a0
 10073 374e 0C010000 		.4byte	.LBB622
 10074 3752 06000000 		.4byte	.LBE622-.LBB622
 10075 3756 01       		.byte	0x1
 10076 3757 BA       		.byte	0xba
 10077 3758 37       		.uleb128 0x37
 10078 3759 AD420000 		.4byte	0x42ad
 10079 375d 6C0C0000 		.4byte	.LLST98
 10080 3761 3B       		.uleb128 0x3b
 10081 3762 12010000 		.4byte	.LVL206
 10082 3766 B8480000 		.4byte	0x48b8
 10083 376a 3C       		.uleb128 0x3c
 10084 376b 01       		.uleb128 0x1
 10085 376c 50       		.byte	0x50
 10086 376d 01       		.uleb128 0x1
 10087 376e 3C       		.byte	0x3c
 10088 376f 00       		.byte	0
 10089 3770 00       		.byte	0
 10090 3771 00       		.byte	0
 10091 3772 00       		.byte	0
 10092 3773 00       		.byte	0
 10093 3774 2F       		.uleb128 0x2f
 10094 3775 69140000 		.4byte	.LASF617
 10095 3779 01       		.byte	0x1
 10096 377a E303     		.2byte	0x3e3
 10097 377c 00000000 		.4byte	.LFB278
 10098 3780 18000000 		.4byte	.LFE278-.LFB278
 10099 3784 01       		.uleb128 0x1
 10100 3785 9C       		.byte	0x9c
 10101 3786 A7370000 		.4byte	0x37a7
 10102 378a 46       		.uleb128 0x46
 10103 378b 190E0000 		.4byte	.LASF598
 10104 378f 01       		.byte	0x1
 10105 3790 E303     		.2byte	0x3e3
 10106 3792 B9200000 		.4byte	0x20b9
 10107 3796 01       		.uleb128 0x1
 10108 3797 50       		.byte	0x50
 10109 3798 51       		.uleb128 0x51
 10110 3799 F5170000 		.4byte	.LASF599
 10111 379d 01       		.byte	0x1
 10112 379e E403     		.2byte	0x3e4
 10113 37a0 36290000 		.4byte	0x2936
 10114 37a4 01       		.uleb128 0x1
 10115 37a5 52       		.byte	0x52
 10116 37a6 00       		.byte	0
 10117 37a7 2F       		.uleb128 0x2f
 10118 37a8 5B140000 		.4byte	.LASF618
 10119 37ac 01       		.byte	0x1
 10120 37ad AD03     		.2byte	0x3ad
 10121 37af 00000000 		.4byte	.LFB277
 10122 37b3 D0000000 		.4byte	.LFE277-.LFB277
 10123 37b7 01       		.uleb128 0x1
 10124 37b8 9C       		.byte	0x9c
 10125 37b9 21390000 		.4byte	0x3921
 10126 37bd 4A       		.uleb128 0x4a
 10127 37be 190E0000 		.4byte	.LASF598
ARM GAS  C:\Users\stoma\AppData\Local\Temp\ccLygOki.s 			page 179


 10128 37c2 01       		.byte	0x1
 10129 37c3 AD03     		.2byte	0x3ad
 10130 37c5 B9200000 		.4byte	0x20b9
 10131 37c9 800C0000 		.4byte	.LLST66
 10132 37cd 33       		.uleb128 0x33
 10133 37ce 6900     		.ascii	"i\000"
 10134 37d0 01       		.byte	0x1
 10135 37d1 AE03     		.2byte	0x3ae
 10136 37d3 25000000 		.4byte	0x25
 10137 37d7 AC0C0000 		.4byte	.LLST67
 10138 37db 31       		.uleb128 0x31
 10139 37dc F5170000 		.4byte	.LASF599
 10140 37e0 01       		.byte	0x1
 10141 37e1 AF03     		.2byte	0x3af
 10142 37e3 36290000 		.4byte	0x2936
 10143 37e7 CB0C0000 		.4byte	.LLST68
 10144 37eb 3D       		.uleb128 0x3d
 10145 37ec 87410000 		.4byte	0x4187
 10146 37f0 04000000 		.4byte	.LBB595
 10147 37f4 28020000 		.4byte	.Ldebug_ranges0+0x228
 10148 37f8 01       		.byte	0x1
 10149 37f9 B203     		.2byte	0x3b2
 10150 37fb 49380000 		.4byte	0x3849
 10151 37ff 37       		.uleb128 0x37
 10152 3800 93410000 		.4byte	0x4193
 10153 3804 DE0C0000 		.4byte	.LLST69
 10154 3808 37       		.uleb128 0x37
 10155 3809 9E410000 		.4byte	0x419e
 10156 380d 0A0D0000 		.4byte	.LLST70
 10157 3811 41       		.uleb128 0x41
 10158 3812 28020000 		.4byte	.Ldebug_ranges0+0x228
 10159 3816 40       		.uleb128 0x40
 10160 3817 A9410000 		.4byte	0x41a9
 10161 381b 1E0D0000 		.4byte	.LLST71
 10162 381f 50       		.uleb128 0x50
 10163 3820 A0420000 		.4byte	0x42a0
 10164 3824 12000000 		.4byte	.LBB597
 10165 3828 06000000 		.4byte	.LBE597-.LBB597
 10166 382c 01       		.byte	0x1
 10167 382d BA       		.byte	0xba
 10168 382e 37       		.uleb128 0x37
 10169 382f AD420000 		.4byte	0x42ad
 10170 3833 310D0000 		.4byte	.LLST72
 10171 3837 3B       		.uleb128 0x3b
 10172 3838 18000000 		.4byte	.LVL177
 10173 383c B8480000 		.4byte	0x48b8
 10174 3840 3C       		.uleb128 0x3c
 10175 3841 01       		.uleb128 0x1
 10176 3842 50       		.byte	0x50
 10177 3843 01       		.uleb128 0x1
 10178 3844 3C       		.byte	0x3c
 10179 3845 00       		.byte	0
 10180 3846 00       		.byte	0
 10181 3847 00       		.byte	0
 10182 3848 00       		.byte	0
 10183 3849 3D       		.uleb128 0x3d
 10184 384a 6F410000 		.4byte	0x416f
ARM GAS  C:\Users\stoma\AppData\Local\Temp\ccLygOki.s 			page 180


 10185 384e 40000000 		.4byte	.LBB601
 10186 3852 40020000 		.4byte	.Ldebug_ranges0+0x240
 10187 3856 01       		.byte	0x1
 10188 3857 C103     		.2byte	0x3c1
 10189 3859 70380000 		.4byte	0x3870
 10190 385d 37       		.uleb128 0x37
 10191 385e 7B410000 		.4byte	0x417b
 10192 3862 450D0000 		.4byte	.LLST73
 10193 3866 37       		.uleb128 0x37
 10194 3867 7B410000 		.4byte	0x417b
 10195 386b 660D0000 		.4byte	.LLST74
 10196 386f 00       		.byte	0
 10197 3870 35       		.uleb128 0x35
 10198 3871 B5410000 		.4byte	0x41b5
 10199 3875 5A000000 		.4byte	.LBB605
 10200 3879 12000000 		.4byte	.LBE605-.LBB605
 10201 387d 01       		.byte	0x1
 10202 387e C503     		.2byte	0x3c5
 10203 3880 C9380000 		.4byte	0x38c9
 10204 3884 37       		.uleb128 0x37
 10205 3885 C1410000 		.4byte	0x41c1
 10206 3889 870D0000 		.4byte	.LLST75
 10207 388d 39       		.uleb128 0x39
 10208 388e 5A000000 		.4byte	.LBB606
 10209 3892 12000000 		.4byte	.LBE606-.LBB606
 10210 3896 40       		.uleb128 0x40
 10211 3897 CC410000 		.4byte	0x41cc
 10212 389b A80D0000 		.4byte	.LLST76
 10213 389f 50       		.uleb128 0x50
 10214 38a0 A0420000 		.4byte	0x42a0
 10215 38a4 66000000 		.4byte	.LBB607
 10216 38a8 06000000 		.4byte	.LBE607-.LBB607
 10217 38ac 01       		.byte	0x1
 10218 38ad B0       		.byte	0xb0
 10219 38ae 37       		.uleb128 0x37
 10220 38af AD420000 		.4byte	0x42ad
 10221 38b3 BB0D0000 		.4byte	.LLST77
 10222 38b7 3B       		.uleb128 0x3b
 10223 38b8 6C000000 		.4byte	.LVL184
 10224 38bc B8480000 		.4byte	0x48b8
 10225 38c0 3C       		.uleb128 0x3c
 10226 38c1 01       		.uleb128 0x1
 10227 38c2 50       		.byte	0x50
 10228 38c3 01       		.uleb128 0x1
 10229 38c4 3C       		.byte	0x3c
 10230 38c5 00       		.byte	0
 10231 38c6 00       		.byte	0
 10232 38c7 00       		.byte	0
 10233 38c8 00       		.byte	0
 10234 38c9 36       		.uleb128 0x36
 10235 38ca 1B410000 		.4byte	0x411b
 10236 38ce A8000000 		.4byte	.LBB609
 10237 38d2 12000000 		.4byte	.LBE609-.LBB609
 10238 38d6 01       		.byte	0x1
 10239 38d7 D803     		.2byte	0x3d8
 10240 38d9 37       		.uleb128 0x37
 10241 38da 2B410000 		.4byte	0x412b
ARM GAS  C:\Users\stoma\AppData\Local\Temp\ccLygOki.s 			page 181


 10242 38de CF0D0000 		.4byte	.LLST78
 10243 38e2 37       		.uleb128 0x37
 10244 38e3 2B410000 		.4byte	0x412b
 10245 38e7 F00D0000 		.4byte	.LLST79
 10246 38eb 37       		.uleb128 0x37
 10247 38ec 36410000 		.4byte	0x4136
 10248 38f0 110E0000 		.4byte	.LLST80
 10249 38f4 39       		.uleb128 0x39
 10250 38f5 A8000000 		.4byte	.LBB610
 10251 38f9 12000000 		.4byte	.LBE610-.LBB610
 10252 38fd 40       		.uleb128 0x40
 10253 38fe 41410000 		.4byte	0x4141
 10254 3902 250E0000 		.4byte	.LLST81
 10255 3906 3A       		.uleb128 0x3a
 10256 3907 4C410000 		.4byte	0x414c
 10257 390b 3B       		.uleb128 0x3b
 10258 390c BA000000 		.4byte	.LVL186
 10259 3910 8A480000 		.4byte	0x488a
 10260 3914 3C       		.uleb128 0x3c
 10261 3915 01       		.uleb128 0x1
 10262 3916 50       		.byte	0x50
 10263 3917 05       		.uleb128 0x5
 10264 3918 03       		.byte	0x3
 10265 3919 00000000 		.4byte	.LANCHOR5
 10266 391d 00       		.byte	0
 10267 391e 00       		.byte	0
 10268 391f 00       		.byte	0
 10269 3920 00       		.byte	0
 10270 3921 2F       		.uleb128 0x2f
 10271 3922 39030000 		.4byte	.LASF619
 10272 3926 01       		.byte	0x1
 10273 3927 8603     		.2byte	0x386
 10274 3929 00000000 		.4byte	.LFB276
 10275 392d 44000000 		.4byte	.LFE276-.LFB276
 10276 3931 01       		.uleb128 0x1
 10277 3932 9C       		.byte	0x9c
 10278 3933 7C390000 		.4byte	0x397c
 10279 3937 4A       		.uleb128 0x4a
 10280 3938 190E0000 		.4byte	.LASF598
 10281 393c 01       		.byte	0x1
 10282 393d 8603     		.2byte	0x386
 10283 393f B9200000 		.4byte	0x20b9
 10284 3943 380E0000 		.4byte	.LLST64
 10285 3947 31       		.uleb128 0x31
 10286 3948 F5170000 		.4byte	.LASF599
 10287 394c 01       		.byte	0x1
 10288 394d 8703     		.2byte	0x387
 10289 394f 36290000 		.4byte	0x2936
 10290 3953 7D0E0000 		.4byte	.LLST65
 10291 3957 52       		.uleb128 0x52
 10292 3958 14000000 		.4byte	.LVL167
 10293 395c A7430000 		.4byte	0x43a7
 10294 3960 6B390000 		.4byte	0x396b
 10295 3964 3C       		.uleb128 0x3c
 10296 3965 01       		.uleb128 0x1
 10297 3966 50       		.byte	0x50
 10298 3967 02       		.uleb128 0x2
ARM GAS  C:\Users\stoma\AppData\Local\Temp\ccLygOki.s 			page 182


 10299 3968 70       		.byte	0x70
 10300 3969 00       		.sleb128 0
 10301 396a 00       		.byte	0
 10302 396b 3B       		.uleb128 0x3b
 10303 396c 2E000000 		.4byte	.LVL170
 10304 3970 C4480000 		.4byte	0x48c4
 10305 3974 3C       		.uleb128 0x3c
 10306 3975 01       		.uleb128 0x1
 10307 3976 50       		.byte	0x50
 10308 3977 02       		.uleb128 0x2
 10309 3978 08       		.byte	0x8
 10310 3979 43       		.byte	0x43
 10311 397a 00       		.byte	0
 10312 397b 00       		.byte	0
 10313 397c 2F       		.uleb128 0x2f
 10314 397d 391A0000 		.4byte	.LASF620
 10315 3981 01       		.byte	0x1
 10316 3982 2603     		.2byte	0x326
 10317 3984 00000000 		.4byte	.LFB275
 10318 3988 F8000000 		.4byte	.LFE275-.LFB275
 10319 398c 01       		.uleb128 0x1
 10320 398d 9C       		.byte	0x9c
 10321 398e F43A0000 		.4byte	0x3af4
 10322 3992 4A       		.uleb128 0x4a
 10323 3993 190E0000 		.4byte	.LASF598
 10324 3997 01       		.byte	0x1
 10325 3998 2603     		.2byte	0x326
 10326 399a B9200000 		.4byte	0x20b9
 10327 399e 9F0E0000 		.4byte	.LLST57
 10328 39a2 31       		.uleb128 0x31
 10329 39a3 F5170000 		.4byte	.LASF599
 10330 39a7 01       		.byte	0x1
 10331 39a8 2703     		.2byte	0x327
 10332 39aa 36290000 		.4byte	0x2936
 10333 39ae D30E0000 		.4byte	.LLST58
 10334 39b2 3D       		.uleb128 0x3d
 10335 39b3 04420000 		.4byte	0x4204
 10336 39b7 2A000000 		.4byte	.LBB581
 10337 39bb E0010000 		.4byte	.Ldebug_ranges0+0x1e0
 10338 39bf 01       		.byte	0x1
 10339 39c0 5A03     		.2byte	0x35a
 10340 39c2 343A0000 		.4byte	0x3a34
 10341 39c6 37       		.uleb128 0x37
 10342 39c7 10420000 		.4byte	0x4210
 10343 39cb 020F0000 		.4byte	.LLST59
 10344 39cf 41       		.uleb128 0x41
 10345 39d0 E0010000 		.4byte	.Ldebug_ranges0+0x1e0
 10346 39d4 40       		.uleb128 0x40
 10347 39d5 1B420000 		.4byte	0x421b
 10348 39d9 200F0000 		.4byte	.LLST60
 10349 39dd 53       		.uleb128 0x53
 10350 39de A0420000 		.4byte	0x42a0
 10351 39e2 2A000000 		.4byte	.LBB583
 10352 39e6 F8010000 		.4byte	.Ldebug_ranges0+0x1f8
 10353 39ea 01       		.byte	0x1
 10354 39eb 76       		.byte	0x76
 10355 39ec 0A3A0000 		.4byte	0x3a0a
ARM GAS  C:\Users\stoma\AppData\Local\Temp\ccLygOki.s 			page 183


 10356 39f0 37       		.uleb128 0x37
 10357 39f1 AD420000 		.4byte	0x42ad
 10358 39f5 350F0000 		.4byte	.LLST61
 10359 39f9 3B       		.uleb128 0x3b
 10360 39fa 36000000 		.4byte	.LVL150
 10361 39fe B8480000 		.4byte	0x48b8
 10362 3a02 3C       		.uleb128 0x3c
 10363 3a03 01       		.uleb128 0x1
 10364 3a04 50       		.byte	0x50
 10365 3a05 02       		.uleb128 0x2
 10366 3a06 08       		.byte	0x8
 10367 3a07 20       		.byte	0x20
 10368 3a08 00       		.byte	0
 10369 3a09 00       		.byte	0
 10370 3a0a 50       		.uleb128 0x50
 10371 3a0b A0420000 		.4byte	0x42a0
 10372 3a0f 40000000 		.4byte	.LBB587
 10373 3a13 06000000 		.4byte	.LBE587-.LBB587
 10374 3a17 01       		.byte	0x1
 10375 3a18 7D       		.byte	0x7d
 10376 3a19 37       		.uleb128 0x37
 10377 3a1a AD420000 		.4byte	0x42ad
 10378 3a1e 4A0F0000 		.4byte	.LLST62
 10379 3a22 3B       		.uleb128 0x3b
 10380 3a23 46000000 		.4byte	.LVL152
 10381 3a27 B8480000 		.4byte	0x48b8
 10382 3a2b 3C       		.uleb128 0x3c
 10383 3a2c 01       		.uleb128 0x1
 10384 3a2d 50       		.byte	0x50
 10385 3a2e 01       		.uleb128 0x1
 10386 3a2f 3C       		.byte	0x3c
 10387 3a30 00       		.byte	0
 10388 3a31 00       		.byte	0
 10389 3a32 00       		.byte	0
 10390 3a33 00       		.byte	0
 10391 3a34 3D       		.uleb128 0x3d
 10392 3a35 F6420000 		.4byte	0x42f6
 10393 3a39 C4000000 		.4byte	.LBB591
 10394 3a3d 10020000 		.4byte	.Ldebug_ranges0+0x210
 10395 3a41 01       		.byte	0x1
 10396 3a42 7503     		.2byte	0x375
 10397 3a44 843A0000 		.4byte	0x3a84
 10398 3a48 37       		.uleb128 0x37
 10399 3a49 06430000 		.4byte	0x4306
 10400 3a4d 6A0F0000 		.4byte	.LLST63
 10401 3a51 41       		.uleb128 0x41
 10402 3a52 10020000 		.4byte	.Ldebug_ranges0+0x210
 10403 3a56 3A       		.uleb128 0x3a
 10404 3a57 10430000 		.4byte	0x4310
 10405 3a5b 52       		.uleb128 0x52
 10406 3a5c D4000000 		.4byte	.LVL162
 10407 3a60 8A480000 		.4byte	0x488a
 10408 3a64 723A0000 		.4byte	0x3a72
 10409 3a68 3C       		.uleb128 0x3c
 10410 3a69 01       		.uleb128 0x1
 10411 3a6a 50       		.byte	0x50
 10412 3a6b 05       		.uleb128 0x5
ARM GAS  C:\Users\stoma\AppData\Local\Temp\ccLygOki.s 			page 184


 10413 3a6c 03       		.byte	0x3
 10414 3a6d 00000000 		.4byte	.LANCHOR3
 10415 3a71 00       		.byte	0
 10416 3a72 3B       		.uleb128 0x3b
 10417 3a73 DA000000 		.4byte	.LVL163
 10418 3a77 CF480000 		.4byte	0x48cf
 10419 3a7b 3C       		.uleb128 0x3c
 10420 3a7c 01       		.uleb128 0x1
 10421 3a7d 50       		.byte	0x50
 10422 3a7e 02       		.uleb128 0x2
 10423 3a7f 74       		.byte	0x74
 10424 3a80 00       		.sleb128 0
 10425 3a81 00       		.byte	0
 10426 3a82 00       		.byte	0
 10427 3a83 00       		.byte	0
 10428 3a84 52       		.uleb128 0x52
 10429 3a85 58000000 		.4byte	.LVL153
 10430 3a89 A7430000 		.4byte	0x43a7
 10431 3a8d A03A0000 		.4byte	0x3aa0
 10432 3a91 3C       		.uleb128 0x3c
 10433 3a92 01       		.uleb128 0x1
 10434 3a93 50       		.byte	0x50
 10435 3a94 02       		.uleb128 0x2
 10436 3a95 70       		.byte	0x70
 10437 3a96 00       		.sleb128 0
 10438 3a97 4F       		.uleb128 0x4f
 10439 3a98 E4410000 		.4byte	0x41e4
 10440 3a9c 02       		.uleb128 0x2
 10441 3a9d 75       		.byte	0x75
 10442 3a9e 00       		.sleb128 0
 10443 3a9f 00       		.byte	0
 10444 3aa0 52       		.uleb128 0x52
 10445 3aa1 AC000000 		.4byte	.LVL157
 10446 3aa5 DB480000 		.4byte	0x48db
 10447 3aa9 B93A0000 		.4byte	0x3ab9
 10448 3aad 3C       		.uleb128 0x3c
 10449 3aae 01       		.uleb128 0x1
 10450 3aaf 50       		.byte	0x50
 10451 3ab0 02       		.uleb128 0x2
 10452 3ab1 08       		.byte	0x8
 10453 3ab2 43       		.byte	0x43
 10454 3ab3 3C       		.uleb128 0x3c
 10455 3ab4 01       		.uleb128 0x1
 10456 3ab5 51       		.byte	0x51
 10457 3ab6 01       		.uleb128 0x1
 10458 3ab7 3E       		.byte	0x3e
 10459 3ab8 00       		.byte	0
 10460 3ab9 52       		.uleb128 0x52
 10461 3aba C2000000 		.4byte	.LVL159
 10462 3abe E6480000 		.4byte	0x48e6
 10463 3ac2 EA3A0000 		.4byte	0x3aea
 10464 3ac6 3C       		.uleb128 0x3c
 10465 3ac7 01       		.uleb128 0x1
 10466 3ac8 50       		.byte	0x50
 10467 3ac9 03       		.uleb128 0x3
 10468 3aca 75       		.byte	0x75
 10469 3acb E800     		.sleb128 104
ARM GAS  C:\Users\stoma\AppData\Local\Temp\ccLygOki.s 			page 185


 10470 3acd 3C       		.uleb128 0x3c
 10471 3ace 01       		.uleb128 0x1
 10472 3acf 51       		.byte	0x51
 10473 3ad0 03       		.uleb128 0x3
 10474 3ad1 0A       		.byte	0xa
 10475 3ad2 F801     		.2byte	0x1f8
 10476 3ad4 3C       		.uleb128 0x3c
 10477 3ad5 01       		.uleb128 0x1
 10478 3ad6 52       		.byte	0x52
 10479 3ad7 01       		.uleb128 0x1
 10480 3ad8 32       		.byte	0x32
 10481 3ad9 3C       		.uleb128 0x3c
 10482 3ada 01       		.uleb128 0x1
 10483 3adb 53       		.byte	0x53
 10484 3adc 05       		.uleb128 0x5
 10485 3add 03       		.byte	0x3
 10486 3ade 00000000 		.4byte	usb_lld_pump
 10487 3ae2 3C       		.uleb128 0x3c
 10488 3ae3 02       		.uleb128 0x2
 10489 3ae4 7D       		.byte	0x7d
 10490 3ae5 00       		.sleb128 0
 10491 3ae6 02       		.uleb128 0x2
 10492 3ae7 75       		.byte	0x75
 10493 3ae8 00       		.sleb128 0
 10494 3ae9 00       		.byte	0
 10495 3aea 38       		.uleb128 0x38
 10496 3aeb DE000000 		.4byte	.LVL164
 10497 3aef A1480000 		.4byte	0x48a1
 10498 3af3 00       		.byte	0
 10499 3af4 2F       		.uleb128 0x2f
 10500 3af5 39120000 		.4byte	.LASF621
 10501 3af9 01       		.byte	0x1
 10502 3afa E802     		.2byte	0x2e8
 10503 3afc 00000000 		.4byte	.LFB274
 10504 3b00 44000000 		.4byte	.LFE274-.LFB274
 10505 3b04 01       		.uleb128 0x1
 10506 3b05 9C       		.byte	0x9c
 10507 3b06 7B3B0000 		.4byte	0x3b7b
 10508 3b0a 54       		.uleb128 0x54
 10509 3b0b B0010000 		.4byte	.Ldebug_ranges0+0x1b0
 10510 3b0f 6A3B0000 		.4byte	0x3b6a
 10511 3b13 4D       		.uleb128 0x4d
 10512 3b14 77737000 		.ascii	"wsp\000"
 10513 3b18 01       		.byte	0x1
 10514 3b19 F702     		.2byte	0x2f7
 10515 3b1b 52010000 		.4byte	0x152
 10516 3b1f 06       		.uleb128 0x6
 10517 3b20 03       		.byte	0x3
 10518 3b21 68000000 		.4byte	USBD1+104
 10519 3b25 9F       		.byte	0x9f
 10520 3b26 52       		.uleb128 0x52
 10521 3b27 2A000000 		.4byte	.LVL145
 10522 3b2b F1480000 		.4byte	0x48f1
 10523 3b2f 473B0000 		.4byte	0x3b47
 10524 3b33 3C       		.uleb128 0x3c
 10525 3b34 01       		.uleb128 0x1
 10526 3b35 50       		.byte	0x50
ARM GAS  C:\Users\stoma\AppData\Local\Temp\ccLygOki.s 			page 186


 10527 3b36 03       		.uleb128 0x3
 10528 3b37 74       		.byte	0x74
 10529 3b38 E800     		.sleb128 104
 10530 3b3a 3C       		.uleb128 0x3c
 10531 3b3b 01       		.uleb128 0x1
 10532 3b3c 51       		.byte	0x51
 10533 3b3d 02       		.uleb128 0x2
 10534 3b3e 75       		.byte	0x75
 10535 3b3f 00       		.sleb128 0
 10536 3b40 3C       		.uleb128 0x3c
 10537 3b41 01       		.uleb128 0x1
 10538 3b42 52       		.byte	0x52
 10539 3b43 02       		.uleb128 0x2
 10540 3b44 09       		.byte	0x9
 10541 3b45 FF       		.byte	0xff
 10542 3b46 00       		.byte	0
 10543 3b47 4E       		.uleb128 0x4e
 10544 3b48 3A000000 		.4byte	.LVL146
 10545 3b4c F1480000 		.4byte	0x48f1
 10546 3b50 3C       		.uleb128 0x3c
 10547 3b51 01       		.uleb128 0x1
 10548 3b52 50       		.byte	0x50
 10549 3b53 05       		.uleb128 0x5
 10550 3b54 03       		.byte	0x3
 10551 3b55 D0000000 		.4byte	.LANCHOR1+208
 10552 3b59 3C       		.uleb128 0x3c
 10553 3b5a 01       		.uleb128 0x1
 10554 3b5b 51       		.byte	0x51
 10555 3b5c 05       		.uleb128 0x5
 10556 3b5d 03       		.byte	0x3
 10557 3b5e 60020000 		.4byte	.LANCHOR1+608
 10558 3b62 3C       		.uleb128 0x3c
 10559 3b63 01       		.uleb128 0x1
 10560 3b64 52       		.byte	0x52
 10561 3b65 02       		.uleb128 0x2
 10562 3b66 08       		.byte	0x8
 10563 3b67 55       		.byte	0x55
 10564 3b68 00       		.byte	0
 10565 3b69 00       		.byte	0
 10566 3b6a 3B       		.uleb128 0x3b
 10567 3b6b 0A000000 		.4byte	.LVL143
 10568 3b6f FC480000 		.4byte	0x48fc
 10569 3b73 3C       		.uleb128 0x3c
 10570 3b74 01       		.uleb128 0x1
 10571 3b75 50       		.byte	0x50
 10572 3b76 02       		.uleb128 0x2
 10573 3b77 74       		.byte	0x74
 10574 3b78 00       		.sleb128 0
 10575 3b79 00       		.byte	0
 10576 3b7a 00       		.byte	0
 10577 3b7b 2F       		.uleb128 0x2f
 10578 3b7c 50120000 		.4byte	.LASF622
 10579 3b80 01       		.byte	0x1
 10580 3b81 C202     		.2byte	0x2c2
 10581 3b83 00000000 		.4byte	.LFB273
 10582 3b87 14010000 		.4byte	.LFE273-.LFB273
 10583 3b8b 01       		.uleb128 0x1
ARM GAS  C:\Users\stoma\AppData\Local\Temp\ccLygOki.s 			page 187


 10584 3b8c 9C       		.byte	0x9c
 10585 3b8d 033E0000 		.4byte	0x3e03
 10586 3b91 3D       		.uleb128 0x3d
 10587 3b92 033E0000 		.4byte	0x3e03
 10588 3b96 02000000 		.4byte	.LBB702
 10589 3b9a E8020000 		.4byte	.Ldebug_ranges0+0x2e8
 10590 3b9e 01       		.byte	0x1
 10591 3b9f C602     		.2byte	0x2c6
 10592 3ba1 CC3D0000 		.4byte	0x3dcc
 10593 3ba5 37       		.uleb128 0x37
 10594 3ba6 103E0000 		.4byte	0x3e10
 10595 3baa 880F0000 		.4byte	.LLST131
 10596 3bae 41       		.uleb128 0x41
 10597 3baf E8020000 		.4byte	.Ldebug_ranges0+0x2e8
 10598 3bb3 40       		.uleb128 0x40
 10599 3bb4 1C3E0000 		.4byte	0x3e1c
 10600 3bb8 C00F0000 		.4byte	.LLST132
 10601 3bbc 40       		.uleb128 0x40
 10602 3bbd 283E0000 		.4byte	0x3e28
 10603 3bc1 F40F0000 		.4byte	.LLST133
 10604 3bc5 40       		.uleb128 0x40
 10605 3bc6 343E0000 		.4byte	0x3e34
 10606 3bca 1D100000 		.4byte	.LLST134
 10607 3bce 35       		.uleb128 0x35
 10608 3bcf C3420000 		.4byte	0x42c3
 10609 3bd3 82000000 		.4byte	.LBB704
 10610 3bd7 0E000000 		.4byte	.LBE704-.LBB704
 10611 3bdb 01       		.byte	0x1
 10612 3bdc 8B02     		.2byte	0x28b
 10613 3bde 463C0000 		.4byte	0x3c46
 10614 3be2 36       		.uleb128 0x36
 10615 3be3 3C430000 		.4byte	0x433c
 10616 3be7 82000000 		.4byte	.LBB705
 10617 3beb 0E000000 		.4byte	.LBE705-.LBB705
 10618 3bef 05       		.byte	0x5
 10619 3bf0 D501     		.2byte	0x1d5
 10620 3bf2 35       		.uleb128 0x35
 10621 3bf3 72430000 		.4byte	0x4372
 10622 3bf7 82000000 		.4byte	.LBB707
 10623 3bfb 06000000 		.4byte	.LBE707-.LBB707
 10624 3bff 04       		.byte	0x4
 10625 3c00 8401     		.2byte	0x184
 10626 3c02 323C0000 		.4byte	0x3c32
 10627 3c06 36       		.uleb128 0x36
 10628 3c07 84430000 		.4byte	0x4384
 10629 3c0b 82000000 		.4byte	.LBB708
 10630 3c0f 06000000 		.4byte	.LBE708-.LBB708
 10631 3c13 14       		.byte	0x14
 10632 3c14 DB01     		.2byte	0x1db
 10633 3c16 36       		.uleb128 0x36
 10634 3c17 8D430000 		.4byte	0x438d
 10635 3c1b 82000000 		.4byte	.LBB709
 10636 3c1f 06000000 		.4byte	.LBE709-.LBB709
 10637 3c23 14       		.byte	0x14
 10638 3c24 BF01     		.2byte	0x1bf
 10639 3c26 37       		.uleb128 0x37
 10640 3c27 9A430000 		.4byte	0x439a
ARM GAS  C:\Users\stoma\AppData\Local\Temp\ccLygOki.s 			page 188


 10641 3c2b 46100000 		.4byte	.LLST135
 10642 3c2f 00       		.byte	0
 10643 3c30 00       		.byte	0
 10644 3c31 00       		.byte	0
 10645 3c32 38       		.uleb128 0x38
 10646 3c33 8C000000 		.4byte	.LVL302
 10647 3c37 08490000 		.4byte	0x4908
 10648 3c3b 38       		.uleb128 0x38
 10649 3c3c 90000000 		.4byte	.LVL303
 10650 3c40 13490000 		.4byte	0x4913
 10651 3c44 00       		.byte	0
 10652 3c45 00       		.byte	0
 10653 3c46 3D       		.uleb128 0x3d
 10654 3c47 53420000 		.4byte	0x4253
 10655 3c4b 92000000 		.4byte	.LBB711
 10656 3c4f 10030000 		.4byte	.Ldebug_ranges0+0x310
 10657 3c53 01       		.byte	0x1
 10658 3c54 8D02     		.2byte	0x28d
 10659 3c56 853C0000 		.4byte	0x3c85
 10660 3c5a 37       		.uleb128 0x37
 10661 3c5b 6C420000 		.4byte	0x426c
 10662 3c5f 5B100000 		.4byte	.LLST136
 10663 3c63 37       		.uleb128 0x37
 10664 3c64 60420000 		.4byte	0x4260
 10665 3c68 6F100000 		.4byte	.LLST137
 10666 3c6c 3B       		.uleb128 0x3b
 10667 3c6d A0000000 		.4byte	.LVL305
 10668 3c71 1E490000 		.4byte	0x491e
 10669 3c75 3C       		.uleb128 0x3c
 10670 3c76 01       		.uleb128 0x1
 10671 3c77 50       		.byte	0x50
 10672 3c78 05       		.uleb128 0x5
 10673 3c79 03       		.byte	0x3
 10674 3c7a 60000000 		.4byte	.LANCHOR1+96
 10675 3c7e 3C       		.uleb128 0x3c
 10676 3c7f 01       		.uleb128 0x1
 10677 3c80 51       		.byte	0x51
 10678 3c81 01       		.uleb128 0x1
 10679 3c82 30       		.byte	0x30
 10680 3c83 00       		.byte	0
 10681 3c84 00       		.byte	0
 10682 3c85 35       		.uleb128 0x35
 10683 3c86 BA420000 		.4byte	0x42ba
 10684 3c8a A0000000 		.4byte	.LBB715
 10685 3c8e 10000000 		.4byte	.LBE715-.LBB715
 10686 3c92 01       		.byte	0x1
 10687 3c93 8E02     		.2byte	0x28e
 10688 3c95 FD3C0000 		.4byte	0x3cfd
 10689 3c99 36       		.uleb128 0x36
 10690 3c9a 33430000 		.4byte	0x4333
 10691 3c9e A0000000 		.4byte	.LBB716
 10692 3ca2 10000000 		.4byte	.LBE716-.LBB716
 10693 3ca6 05       		.byte	0x5
 10694 3ca7 E001     		.2byte	0x1e0
 10695 3ca9 35       		.uleb128 0x35
 10696 3caa 69430000 		.4byte	0x4369
 10697 3cae A8000000 		.4byte	.LBB718
ARM GAS  C:\Users\stoma\AppData\Local\Temp\ccLygOki.s 			page 189


 10698 3cb2 08000000 		.4byte	.LBE718-.LBB718
 10699 3cb6 04       		.byte	0x4
 10700 3cb7 9A01     		.2byte	0x19a
 10701 3cb9 E93C0000 		.4byte	0x3ce9
 10702 3cbd 36       		.uleb128 0x36
 10703 3cbe 7B430000 		.4byte	0x437b
 10704 3cc2 A8000000 		.4byte	.LBB719
 10705 3cc6 08000000 		.4byte	.LBE719-.LBB719
 10706 3cca 14       		.byte	0x14
 10707 3ccb E601     		.2byte	0x1e6
 10708 3ccd 36       		.uleb128 0x36
 10709 3cce 8D430000 		.4byte	0x438d
 10710 3cd2 A8000000 		.4byte	.LBB720
 10711 3cd6 08000000 		.4byte	.LBE720-.LBB720
 10712 3cda 14       		.byte	0x14
 10713 3cdb CD01     		.2byte	0x1cd
 10714 3cdd 37       		.uleb128 0x37
 10715 3cde 9A430000 		.4byte	0x439a
 10716 3ce2 87100000 		.4byte	.LLST138
 10717 3ce6 00       		.byte	0
 10718 3ce7 00       		.byte	0
 10719 3ce8 00       		.byte	0
 10720 3ce9 38       		.uleb128 0x38
 10721 3cea A4000000 		.4byte	.LVL306
 10722 3cee 29490000 		.4byte	0x4929
 10723 3cf2 38       		.uleb128 0x38
 10724 3cf3 A8000000 		.4byte	.LVL307
 10725 3cf7 34490000 		.4byte	0x4934
 10726 3cfb 00       		.byte	0
 10727 3cfc 00       		.byte	0
 10728 3cfd 55       		.uleb128 0x55
 10729 3cfe 30000000 		.4byte	.LVL291
 10730 3d02 0D3D0000 		.4byte	0x3d0d
 10731 3d06 3C       		.uleb128 0x3c
 10732 3d07 01       		.uleb128 0x1
 10733 3d08 50       		.byte	0x50
 10734 3d09 02       		.uleb128 0x2
 10735 3d0a 75       		.byte	0x75
 10736 3d0b 00       		.sleb128 0
 10737 3d0c 00       		.byte	0
 10738 3d0d 52       		.uleb128 0x52
 10739 3d0e 72000000 		.4byte	.LVL298
 10740 3d12 3F490000 		.4byte	0x493f
 10741 3d16 213D0000 		.4byte	0x3d21
 10742 3d1a 3C       		.uleb128 0x3c
 10743 3d1b 01       		.uleb128 0x1
 10744 3d1c 50       		.byte	0x50
 10745 3d1d 02       		.uleb128 0x2
 10746 3d1e 75       		.byte	0x75
 10747 3d1f 00       		.sleb128 0
 10748 3d20 00       		.byte	0
 10749 3d21 55       		.uleb128 0x55
 10750 3d22 80000000 		.4byte	.LVL299
 10751 3d26 363D0000 		.4byte	0x3d36
 10752 3d2a 3C       		.uleb128 0x3c
 10753 3d2b 01       		.uleb128 0x1
 10754 3d2c 50       		.byte	0x50
ARM GAS  C:\Users\stoma\AppData\Local\Temp\ccLygOki.s 			page 190


 10755 3d2d 02       		.uleb128 0x2
 10756 3d2e 75       		.byte	0x75
 10757 3d2f 00       		.sleb128 0
 10758 3d30 3C       		.uleb128 0x3c
 10759 3d31 01       		.uleb128 0x1
 10760 3d32 51       		.byte	0x51
 10761 3d33 01       		.uleb128 0x1
 10762 3d34 30       		.byte	0x30
 10763 3d35 00       		.byte	0
 10764 3d36 52       		.uleb128 0x52
 10765 3d37 B6000000 		.4byte	.LVL310
 10766 3d3b D3430000 		.4byte	0x43d3
 10767 3d3f 493D0000 		.4byte	0x3d49
 10768 3d43 3C       		.uleb128 0x3c
 10769 3d44 01       		.uleb128 0x1
 10770 3d45 50       		.byte	0x50
 10771 3d46 01       		.uleb128 0x1
 10772 3d47 33       		.byte	0x33
 10773 3d48 00       		.byte	0
 10774 3d49 52       		.uleb128 0x52
 10775 3d4a C8000000 		.4byte	.LVL313
 10776 3d4e D3430000 		.4byte	0x43d3
 10777 3d52 5C3D0000 		.4byte	0x3d5c
 10778 3d56 3C       		.uleb128 0x3c
 10779 3d57 01       		.uleb128 0x1
 10780 3d58 50       		.byte	0x50
 10781 3d59 01       		.uleb128 0x1
 10782 3d5a 30       		.byte	0x30
 10783 3d5b 00       		.byte	0
 10784 3d5c 52       		.uleb128 0x52
 10785 3d5d D2000000 		.4byte	.LVL314
 10786 3d61 D3430000 		.4byte	0x43d3
 10787 3d65 6F3D0000 		.4byte	0x3d6f
 10788 3d69 3C       		.uleb128 0x3c
 10789 3d6a 01       		.uleb128 0x1
 10790 3d6b 50       		.byte	0x50
 10791 3d6c 01       		.uleb128 0x1
 10792 3d6d 31       		.byte	0x31
 10793 3d6e 00       		.byte	0
 10794 3d6f 52       		.uleb128 0x52
 10795 3d70 DC000000 		.4byte	.LVL315
 10796 3d74 D3430000 		.4byte	0x43d3
 10797 3d78 823D0000 		.4byte	0x3d82
 10798 3d7c 3C       		.uleb128 0x3c
 10799 3d7d 01       		.uleb128 0x1
 10800 3d7e 50       		.byte	0x50
 10801 3d7f 01       		.uleb128 0x1
 10802 3d80 32       		.byte	0x32
 10803 3d81 00       		.byte	0
 10804 3d82 52       		.uleb128 0x52
 10805 3d83 E8000000 		.4byte	.LVL317
 10806 3d87 55450000 		.4byte	0x4555
 10807 3d8b 953D0000 		.4byte	0x3d95
 10808 3d8f 3C       		.uleb128 0x3c
 10809 3d90 01       		.uleb128 0x1
 10810 3d91 50       		.byte	0x50
 10811 3d92 01       		.uleb128 0x1
ARM GAS  C:\Users\stoma\AppData\Local\Temp\ccLygOki.s 			page 191


 10812 3d93 31       		.byte	0x31
 10813 3d94 00       		.byte	0
 10814 3d95 52       		.uleb128 0x52
 10815 3d96 F2000000 		.4byte	.LVL318
 10816 3d9a 55450000 		.4byte	0x4555
 10817 3d9e A83D0000 		.4byte	0x3da8
 10818 3da2 3C       		.uleb128 0x3c
 10819 3da3 01       		.uleb128 0x1
 10820 3da4 50       		.byte	0x50
 10821 3da5 01       		.uleb128 0x1
 10822 3da6 32       		.byte	0x32
 10823 3da7 00       		.byte	0
 10824 3da8 52       		.uleb128 0x52
 10825 3da9 FE000000 		.4byte	.LVL321
 10826 3dad 55450000 		.4byte	0x4555
 10827 3db1 BB3D0000 		.4byte	0x3dbb
 10828 3db5 3C       		.uleb128 0x3c
 10829 3db6 01       		.uleb128 0x1
 10830 3db7 50       		.byte	0x50
 10831 3db8 01       		.uleb128 0x1
 10832 3db9 30       		.byte	0x30
 10833 3dba 00       		.byte	0
 10834 3dbb 3B       		.uleb128 0x3b
 10835 3dbc 0A010000 		.4byte	.LVL323
 10836 3dc0 55450000 		.4byte	0x4555
 10837 3dc4 3C       		.uleb128 0x3c
 10838 3dc5 01       		.uleb128 0x1
 10839 3dc6 50       		.byte	0x50
 10840 3dc7 01       		.uleb128 0x1
 10841 3dc8 33       		.byte	0x33
 10842 3dc9 00       		.byte	0
 10843 3dca 00       		.byte	0
 10844 3dcb 00       		.byte	0
 10845 3dcc 38       		.uleb128 0x38
 10846 3dcd 08000000 		.4byte	.LVL286
 10847 3dd1 4B490000 		.4byte	0x494b
 10848 3dd5 38       		.uleb128 0x38
 10849 3dd6 0C000000 		.4byte	.LVL287
 10850 3dda 56490000 		.4byte	0x4956
 10851 3dde 38       		.uleb128 0x38
 10852 3ddf 64000000 		.4byte	.LVL296
 10853 3de3 61490000 		.4byte	0x4961
 10854 3de7 56       		.uleb128 0x56
 10855 3de8 6C000000 		.4byte	.LVL297
 10856 3dec 6C490000 		.4byte	0x496c
 10857 3df0 38       		.uleb128 0x38
 10858 3df1 BA000000 		.4byte	.LVL311
 10859 3df5 61490000 		.4byte	0x4961
 10860 3df9 56       		.uleb128 0x56
 10861 3dfa C2000000 		.4byte	.LVL312
 10862 3dfe 6C490000 		.4byte	0x496c
 10863 3e02 00       		.byte	0
 10864 3e03 57       		.uleb128 0x57
 10865 3e04 B40C0000 		.4byte	.LASF624
 10866 3e08 01       		.byte	0x1
 10867 3e09 6F02     		.2byte	0x26f
 10868 3e0b 01       		.byte	0x1
ARM GAS  C:\Users\stoma\AppData\Local\Temp\ccLygOki.s 			page 192


 10869 3e0c 413E0000 		.4byte	0x3e41
 10870 3e10 48       		.uleb128 0x48
 10871 3e11 190E0000 		.4byte	.LASF598
 10872 3e15 01       		.byte	0x1
 10873 3e16 6F02     		.2byte	0x26f
 10874 3e18 B9200000 		.4byte	0x20b9
 10875 3e1c 34       		.uleb128 0x34
 10876 3e1d F5170000 		.4byte	.LASF599
 10877 3e21 01       		.byte	0x1
 10878 3e22 7002     		.2byte	0x270
 10879 3e24 36290000 		.4byte	0x2936
 10880 3e28 58       		.uleb128 0x58
 10881 3e29 73747300 		.ascii	"sts\000"
 10882 3e2d 01       		.byte	0x1
 10883 3e2e 7102     		.2byte	0x271
 10884 3e30 06090000 		.4byte	0x906
 10885 3e34 58       		.uleb128 0x58
 10886 3e35 73726300 		.ascii	"src\000"
 10887 3e39 01       		.byte	0x1
 10888 3e3a 7102     		.2byte	0x271
 10889 3e3c 06090000 		.4byte	0x906
 10890 3e40 00       		.byte	0
 10891 3e41 57       		.uleb128 0x57
 10892 3e42 E91B0000 		.4byte	.LASF625
 10893 3e46 01       		.byte	0x1
 10894 3e47 4502     		.2byte	0x245
 10895 3e49 01       		.byte	0x1
 10896 3e4a 8C3E0000 		.4byte	0x3e8c
 10897 3e4e 48       		.uleb128 0x48
 10898 3e4f 190E0000 		.4byte	.LASF598
 10899 3e53 01       		.byte	0x1
 10900 3e54 4502     		.2byte	0x245
 10901 3e56 B9200000 		.4byte	0x20b9
 10902 3e5a 49       		.uleb128 0x49
 10903 3e5b 657000   		.ascii	"ep\000"
 10904 3e5e 01       		.byte	0x1
 10905 3e5f 4502     		.2byte	0x245
 10906 3e61 721F0000 		.4byte	0x1f72
 10907 3e65 34       		.uleb128 0x34
 10908 3e66 F5170000 		.4byte	.LASF599
 10909 3e6a 01       		.byte	0x1
 10910 3e6b 4602     		.2byte	0x246
 10911 3e6d 36290000 		.4byte	0x2936
 10912 3e71 34       		.uleb128 0x34
 10913 3e72 4D090000 		.4byte	.LASF626
 10914 3e76 01       		.byte	0x1
 10915 3e77 4702     		.2byte	0x247
 10916 3e79 06090000 		.4byte	0x906
 10917 3e7d 59       		.uleb128 0x59
 10918 3e7e 58       		.uleb128 0x58
 10919 3e7f 6F737000 		.ascii	"osp\000"
 10920 3e83 01       		.byte	0x1
 10921 3e84 5402     		.2byte	0x254
 10922 3e86 94280000 		.4byte	0x2894
 10923 3e8a 00       		.byte	0
 10924 3e8b 00       		.byte	0
 10925 3e8c 57       		.uleb128 0x57
ARM GAS  C:\Users\stoma\AppData\Local\Temp\ccLygOki.s 			page 193


 10926 3e8d 441C0000 		.4byte	.LASF627
 10927 3e91 01       		.byte	0x1
 10928 3e92 1502     		.2byte	0x215
 10929 3e94 01       		.byte	0x1
 10930 3e95 D73E0000 		.4byte	0x3ed7
 10931 3e99 48       		.uleb128 0x48
 10932 3e9a 190E0000 		.4byte	.LASF598
 10933 3e9e 01       		.byte	0x1
 10934 3e9f 1502     		.2byte	0x215
 10935 3ea1 B9200000 		.4byte	0x20b9
 10936 3ea5 49       		.uleb128 0x49
 10937 3ea6 657000   		.ascii	"ep\000"
 10938 3ea9 01       		.byte	0x1
 10939 3eaa 1502     		.2byte	0x215
 10940 3eac 721F0000 		.4byte	0x1f72
 10941 3eb0 34       		.uleb128 0x34
 10942 3eb1 F5170000 		.4byte	.LASF599
 10943 3eb5 01       		.byte	0x1
 10944 3eb6 1602     		.2byte	0x216
 10945 3eb8 36290000 		.4byte	0x2936
 10946 3ebc 34       		.uleb128 0x34
 10947 3ebd 4D090000 		.4byte	.LASF626
 10948 3ec1 01       		.byte	0x1
 10949 3ec2 1702     		.2byte	0x217
 10950 3ec4 06090000 		.4byte	0x906
 10951 3ec8 59       		.uleb128 0x59
 10952 3ec9 58       		.uleb128 0x58
 10953 3eca 69737000 		.ascii	"isp\000"
 10954 3ece 01       		.byte	0x1
 10955 3ecf 2002     		.2byte	0x220
 10956 3ed1 8E280000 		.4byte	0x288e
 10957 3ed5 00       		.byte	0
 10958 3ed6 00       		.byte	0
 10959 3ed7 5A       		.uleb128 0x5a
 10960 3ed8 0B090000 		.4byte	.LASF635
 10961 3edc 01       		.byte	0x1
 10962 3edd E101     		.2byte	0x1e1
 10963 3edf 17180000 		.4byte	0x1817
 10964 3ee3 01       		.byte	0x1
 10965 3ee4 0C3F0000 		.4byte	0x3f0c
 10966 3ee8 48       		.uleb128 0x48
 10967 3ee9 190E0000 		.4byte	.LASF598
 10968 3eed 01       		.byte	0x1
 10969 3eee E101     		.2byte	0x1e1
 10970 3ef0 B9200000 		.4byte	0x20b9
 10971 3ef4 49       		.uleb128 0x49
 10972 3ef5 657000   		.ascii	"ep\000"
 10973 3ef8 01       		.byte	0x1
 10974 3ef9 E101     		.2byte	0x1e1
 10975 3efb 721F0000 		.4byte	0x1f72
 10976 3eff 59       		.uleb128 0x59
 10977 3f00 58       		.uleb128 0x58
 10978 3f01 6E00     		.ascii	"n\000"
 10979 3f03 01       		.byte	0x1
 10980 3f04 E501     		.2byte	0x1e5
 10981 3f06 06090000 		.4byte	0x906
 10982 3f0a 00       		.byte	0
ARM GAS  C:\Users\stoma\AppData\Local\Temp\ccLygOki.s 			page 194


 10983 3f0b 00       		.byte	0
 10984 3f0c 57       		.uleb128 0x57
 10985 3f0d E0070000 		.4byte	.LASF628
 10986 3f11 01       		.byte	0x1
 10987 3f12 B201     		.2byte	0x1b2
 10988 3f14 01       		.byte	0x1
 10989 3f15 493F0000 		.4byte	0x3f49
 10990 3f19 48       		.uleb128 0x48
 10991 3f1a 190E0000 		.4byte	.LASF598
 10992 3f1e 01       		.byte	0x1
 10993 3f1f B201     		.2byte	0x1b2
 10994 3f21 B9200000 		.4byte	0x20b9
 10995 3f25 58       		.uleb128 0x58
 10996 3f26 73747300 		.ascii	"sts\000"
 10997 3f2a 01       		.byte	0x1
 10998 3f2b B301     		.2byte	0x1b3
 10999 3f2d 06090000 		.4byte	0x906
 11000 3f31 58       		.uleb128 0x58
 11001 3f32 636E7400 		.ascii	"cnt\000"
 11002 3f36 01       		.byte	0x1
 11003 3f37 B301     		.2byte	0x1b3
 11004 3f39 06090000 		.4byte	0x906
 11005 3f3d 58       		.uleb128 0x58
 11006 3f3e 657000   		.ascii	"ep\000"
 11007 3f41 01       		.byte	0x1
 11008 3f42 B301     		.2byte	0x1b3
 11009 3f44 06090000 		.4byte	0x906
 11010 3f48 00       		.byte	0
 11011 3f49 57       		.uleb128 0x57
 11012 3f4a C41A0000 		.4byte	.LASF629
 11013 3f4e 01       		.byte	0x1
 11014 3f4f 7C01     		.2byte	0x17c
 11015 3f51 01       		.byte	0x1
 11016 3f52 C03F0000 		.4byte	0x3fc0
 11017 3f56 48       		.uleb128 0x48
 11018 3f57 2C0A0000 		.4byte	.LASF630
 11019 3f5b 01       		.byte	0x1
 11020 3f5c 7C01     		.2byte	0x17c
 11021 3f5e 5F170000 		.4byte	0x175f
 11022 3f62 49       		.uleb128 0x49
 11023 3f63 69717000 		.ascii	"iqp\000"
 11024 3f67 01       		.byte	0x1
 11025 3f68 7D01     		.2byte	0x17d
 11026 3f6a 87270000 		.4byte	0x2787
 11027 3f6e 49       		.uleb128 0x49
 11028 3f6f 6E00     		.ascii	"n\000"
 11029 3f71 01       		.byte	0x1
 11030 3f72 7E01     		.2byte	0x17e
 11031 3f74 33000000 		.4byte	0x33
 11032 3f78 34       		.uleb128 0x34
 11033 3f79 551C0000 		.4byte	.LASF631
 11034 3f7d 01       		.byte	0x1
 11035 3f7e 7F01     		.2byte	0x17f
 11036 3f80 33000000 		.4byte	0x33
 11037 3f84 59       		.uleb128 0x59
 11038 3f85 58       		.uleb128 0x58
 11039 3f86 7700     		.ascii	"w\000"
ARM GAS  C:\Users\stoma\AppData\Local\Temp\ccLygOki.s 			page 195


 11040 3f88 01       		.byte	0x1
 11041 3f89 8301     		.2byte	0x183
 11042 3f8b 06090000 		.4byte	0x906
 11043 3f8f 58       		.uleb128 0x58
 11044 3f90 6900     		.ascii	"i\000"
 11045 3f92 01       		.byte	0x1
 11046 3f93 8301     		.2byte	0x183
 11047 3f95 06090000 		.4byte	0x906
 11048 3f99 58       		.uleb128 0x58
 11049 3f9a 6E7700   		.ascii	"nw\000"
 11050 3f9d 01       		.byte	0x1
 11051 3f9e 8401     		.2byte	0x184
 11052 3fa0 33000000 		.4byte	0x33
 11053 3fa4 59       		.uleb128 0x59
 11054 3fa5 34       		.uleb128 0x34
 11055 3fa6 53090000 		.4byte	.LASF632
 11056 3faa 01       		.byte	0x1
 11057 3fab 8701     		.2byte	0x187
 11058 3fad 33000000 		.4byte	0x33
 11059 3fb1 34       		.uleb128 0x34
 11060 3fb2 231D0000 		.4byte	.LASF633
 11061 3fb6 01       		.byte	0x1
 11062 3fb7 8801     		.2byte	0x188
 11063 3fb9 06090000 		.4byte	0x906
 11064 3fbd 00       		.byte	0
 11065 3fbe 00       		.byte	0
 11066 3fbf 00       		.byte	0
 11067 3fc0 57       		.uleb128 0x57
 11068 3fc1 87140000 		.4byte	.LASF634
 11069 3fc5 01       		.byte	0x1
 11070 3fc6 5F01     		.2byte	0x15f
 11071 3fc8 01       		.byte	0x1
 11072 3fc9 08400000 		.4byte	0x4008
 11073 3fcd 48       		.uleb128 0x48
 11074 3fce 2C0A0000 		.4byte	.LASF630
 11075 3fd2 01       		.byte	0x1
 11076 3fd3 5F01     		.2byte	0x15f
 11077 3fd5 5F170000 		.4byte	0x175f
 11078 3fd9 49       		.uleb128 0x49
 11079 3fda 62756600 		.ascii	"buf\000"
 11080 3fde 01       		.byte	0x1
 11081 3fdf 6001     		.2byte	0x160
 11082 3fe1 85160000 		.4byte	0x1685
 11083 3fe5 49       		.uleb128 0x49
 11084 3fe6 6E00     		.ascii	"n\000"
 11085 3fe8 01       		.byte	0x1
 11086 3fe9 6101     		.2byte	0x161
 11087 3feb 33000000 		.4byte	0x33
 11088 3fef 49       		.uleb128 0x49
 11089 3ff0 6D617800 		.ascii	"max\000"
 11090 3ff4 01       		.byte	0x1
 11091 3ff5 6201     		.2byte	0x162
 11092 3ff7 33000000 		.4byte	0x33
 11093 3ffb 59       		.uleb128 0x59
 11094 3ffc 58       		.uleb128 0x58
 11095 3ffd 7700     		.ascii	"w\000"
 11096 3fff 01       		.byte	0x1
ARM GAS  C:\Users\stoma\AppData\Local\Temp\ccLygOki.s 			page 196


 11097 4000 6701     		.2byte	0x167
 11098 4002 06090000 		.4byte	0x906
 11099 4006 00       		.byte	0
 11100 4007 00       		.byte	0
 11101 4008 5A       		.uleb128 0x5a
 11102 4009 D3190000 		.4byte	.LASF636
 11103 400d 01       		.byte	0x1
 11104 400e 4801     		.2byte	0x148
 11105 4010 85160000 		.4byte	0x1685
 11106 4014 01       		.byte	0x1
 11107 4015 48400000 		.4byte	0x4048
 11108 4019 48       		.uleb128 0x48
 11109 401a 2C0A0000 		.4byte	.LASF630
 11110 401e 01       		.byte	0x1
 11111 401f 4801     		.2byte	0x148
 11112 4021 5F170000 		.4byte	0x175f
 11113 4025 49       		.uleb128 0x49
 11114 4026 62756600 		.ascii	"buf\000"
 11115 402a 01       		.byte	0x1
 11116 402b 4801     		.2byte	0x148
 11117 402d 85160000 		.4byte	0x1685
 11118 4031 49       		.uleb128 0x49
 11119 4032 6E00     		.ascii	"n\000"
 11120 4034 01       		.byte	0x1
 11121 4035 4801     		.2byte	0x148
 11122 4037 33000000 		.4byte	0x33
 11123 403b 59       		.uleb128 0x59
 11124 403c 58       		.uleb128 0x58
 11125 403d 7700     		.ascii	"w\000"
 11126 403f 01       		.byte	0x1
 11127 4040 4B01     		.2byte	0x14b
 11128 4042 06090000 		.4byte	0x906
 11129 4046 00       		.byte	0
 11130 4047 00       		.byte	0
 11131 4048 57       		.uleb128 0x57
 11132 4049 4A050000 		.4byte	.LASF637
 11133 404d 01       		.byte	0x1
 11134 404e 0C01     		.2byte	0x10c
 11135 4050 01       		.byte	0x1
 11136 4051 BF400000 		.4byte	0x40bf
 11137 4055 48       		.uleb128 0x48
 11138 4056 2C0A0000 		.4byte	.LASF630
 11139 405a 01       		.byte	0x1
 11140 405b 0C01     		.2byte	0x10c
 11141 405d 5F170000 		.4byte	0x175f
 11142 4061 49       		.uleb128 0x49
 11143 4062 6F717000 		.ascii	"oqp\000"
 11144 4066 01       		.byte	0x1
 11145 4067 0D01     		.2byte	0x10d
 11146 4069 E4260000 		.4byte	0x26e4
 11147 406d 49       		.uleb128 0x49
 11148 406e 6E00     		.ascii	"n\000"
 11149 4070 01       		.byte	0x1
 11150 4071 0E01     		.2byte	0x10e
 11151 4073 33000000 		.4byte	0x33
 11152 4077 34       		.uleb128 0x34
 11153 4078 551C0000 		.4byte	.LASF631
ARM GAS  C:\Users\stoma\AppData\Local\Temp\ccLygOki.s 			page 197


 11154 407c 01       		.byte	0x1
 11155 407d 0F01     		.2byte	0x10f
 11156 407f 33000000 		.4byte	0x33
 11157 4083 59       		.uleb128 0x59
 11158 4084 58       		.uleb128 0x58
 11159 4085 7700     		.ascii	"w\000"
 11160 4087 01       		.byte	0x1
 11161 4088 1301     		.2byte	0x113
 11162 408a 06090000 		.4byte	0x906
 11163 408e 58       		.uleb128 0x58
 11164 408f 6900     		.ascii	"i\000"
 11165 4091 01       		.byte	0x1
 11166 4092 1301     		.2byte	0x113
 11167 4094 06090000 		.4byte	0x906
 11168 4098 58       		.uleb128 0x58
 11169 4099 6E7700   		.ascii	"nw\000"
 11170 409c 01       		.byte	0x1
 11171 409d 1401     		.2byte	0x114
 11172 409f 33000000 		.4byte	0x33
 11173 40a3 59       		.uleb128 0x59
 11174 40a4 34       		.uleb128 0x34
 11175 40a5 53090000 		.4byte	.LASF632
 11176 40a9 01       		.byte	0x1
 11177 40aa 1701     		.2byte	0x117
 11178 40ac 33000000 		.4byte	0x33
 11179 40b0 34       		.uleb128 0x34
 11180 40b1 231D0000 		.4byte	.LASF633
 11181 40b5 01       		.byte	0x1
 11182 40b6 1801     		.2byte	0x118
 11183 40b8 06090000 		.4byte	0x906
 11184 40bc 00       		.byte	0
 11185 40bd 00       		.byte	0
 11186 40be 00       		.byte	0
 11187 40bf 5B       		.uleb128 0x5b
 11188 40c0 55010000 		.4byte	.LASF638
 11189 40c4 01       		.byte	0x1
 11190 40c5 FC       		.byte	0xfc
 11191 40c6 01       		.byte	0x1
 11192 40c7 EB400000 		.4byte	0x40eb
 11193 40cb 5C       		.uleb128 0x5c
 11194 40cc 2C0A0000 		.4byte	.LASF630
 11195 40d0 01       		.byte	0x1
 11196 40d1 FC       		.byte	0xfc
 11197 40d2 5F170000 		.4byte	0x175f
 11198 40d6 5D       		.uleb128 0x5d
 11199 40d7 62756600 		.ascii	"buf\000"
 11200 40db 01       		.byte	0x1
 11201 40dc FD       		.byte	0xfd
 11202 40dd BA160000 		.4byte	0x16ba
 11203 40e1 5D       		.uleb128 0x5d
 11204 40e2 6E00     		.ascii	"n\000"
 11205 40e4 01       		.byte	0x1
 11206 40e5 FE       		.byte	0xfe
 11207 40e6 33000000 		.4byte	0x33
 11208 40ea 00       		.byte	0
 11209 40eb 5E       		.uleb128 0x5e
 11210 40ec B80F0000 		.4byte	.LASF639
ARM GAS  C:\Users\stoma\AppData\Local\Temp\ccLygOki.s 			page 198


 11211 40f0 01       		.byte	0x1
 11212 40f1 E7       		.byte	0xe7
 11213 40f2 85160000 		.4byte	0x1685
 11214 40f6 01       		.byte	0x1
 11215 40f7 1B410000 		.4byte	0x411b
 11216 40fb 5C       		.uleb128 0x5c
 11217 40fc 2C0A0000 		.4byte	.LASF630
 11218 4100 01       		.byte	0x1
 11219 4101 E7       		.byte	0xe7
 11220 4102 5F170000 		.4byte	0x175f
 11221 4106 5D       		.uleb128 0x5d
 11222 4107 62756600 		.ascii	"buf\000"
 11223 410b 01       		.byte	0x1
 11224 410c E7       		.byte	0xe7
 11225 410d 85160000 		.4byte	0x1685
 11226 4111 5D       		.uleb128 0x5d
 11227 4112 6E00     		.ascii	"n\000"
 11228 4114 01       		.byte	0x1
 11229 4115 E7       		.byte	0xe7
 11230 4116 33000000 		.4byte	0x33
 11231 411a 00       		.byte	0
 11232 411b 5E       		.uleb128 0x5e
 11233 411c FC1D0000 		.4byte	.LASF640
 11234 4120 01       		.byte	0x1
 11235 4121 D1       		.byte	0xd1
 11236 4122 06090000 		.4byte	0x906
 11237 4126 01       		.byte	0x1
 11238 4127 5A410000 		.4byte	0x415a
 11239 412b 5C       		.uleb128 0x5c
 11240 412c 190E0000 		.4byte	.LASF598
 11241 4130 01       		.byte	0x1
 11242 4131 D1       		.byte	0xd1
 11243 4132 B9200000 		.4byte	0x20b9
 11244 4136 5C       		.uleb128 0x5c
 11245 4137 BA150000 		.4byte	.LASF641
 11246 413b 01       		.byte	0x1
 11247 413c D1       		.byte	0xd1
 11248 413d 33000000 		.4byte	0x33
 11249 4141 5F       		.uleb128 0x5f
 11250 4142 E21D0000 		.4byte	.LASF642
 11251 4146 01       		.byte	0x1
 11252 4147 D2       		.byte	0xd2
 11253 4148 06090000 		.4byte	0x906
 11254 414c 60       		.uleb128 0x60
 11255 414d 2E010000 		.4byte	.LASF643
 11256 4151 6A410000 		.4byte	0x416a
 11257 4155 FC1D0000 		.4byte	.LASF640
 11258 4159 00       		.byte	0
 11259 415a 0A       		.uleb128 0xa
 11260 415b 61010000 		.4byte	0x161
 11261 415f 6A410000 		.4byte	0x416a
 11262 4163 0B       		.uleb128 0xb
 11263 4164 25000000 		.4byte	0x25
 11264 4168 0D       		.byte	0xd
 11265 4169 00       		.byte	0
 11266 416a 0F       		.uleb128 0xf
 11267 416b 5A410000 		.4byte	0x415a
ARM GAS  C:\Users\stoma\AppData\Local\Temp\ccLygOki.s 			page 199


 11268 416f 5B       		.uleb128 0x5b
 11269 4170 B41B0000 		.4byte	.LASF644
 11270 4174 01       		.byte	0x1
 11271 4175 C4       		.byte	0xc4
 11272 4176 01       		.byte	0x1
 11273 4177 87410000 		.4byte	0x4187
 11274 417b 5C       		.uleb128 0x5c
 11275 417c 190E0000 		.4byte	.LASF598
 11276 4180 01       		.byte	0x1
 11277 4181 C4       		.byte	0xc4
 11278 4182 B9200000 		.4byte	0x20b9
 11279 4186 00       		.byte	0
 11280 4187 5B       		.uleb128 0x5b
 11281 4188 0E190000 		.4byte	.LASF645
 11282 418c 01       		.byte	0x1
 11283 418d B3       		.byte	0xb3
 11284 418e 01       		.byte	0x1
 11285 418f B5410000 		.4byte	0x41b5
 11286 4193 5C       		.uleb128 0x5c
 11287 4194 190E0000 		.4byte	.LASF598
 11288 4198 01       		.byte	0x1
 11289 4199 B3       		.byte	0xb3
 11290 419a B9200000 		.4byte	0x20b9
 11291 419e 5C       		.uleb128 0x5c
 11292 419f B7190000 		.4byte	.LASF646
 11293 41a3 01       		.byte	0x1
 11294 41a4 B3       		.byte	0xb3
 11295 41a5 06090000 		.4byte	0x906
 11296 41a9 5F       		.uleb128 0x5f
 11297 41aa F5170000 		.4byte	.LASF599
 11298 41ae 01       		.byte	0x1
 11299 41af B4       		.byte	0xb4
 11300 41b0 36290000 		.4byte	0x2936
 11301 41b4 00       		.byte	0
 11302 41b5 5B       		.uleb128 0x5b
 11303 41b6 3F130000 		.4byte	.LASF647
 11304 41ba 01       		.byte	0x1
 11305 41bb A9       		.byte	0xa9
 11306 41bc 01       		.byte	0x1
 11307 41bd D8410000 		.4byte	0x41d8
 11308 41c1 5C       		.uleb128 0x5c
 11309 41c2 190E0000 		.4byte	.LASF598
 11310 41c6 01       		.byte	0x1
 11311 41c7 A9       		.byte	0xa9
 11312 41c8 B9200000 		.4byte	0x20b9
 11313 41cc 5F       		.uleb128 0x5f
 11314 41cd F5170000 		.4byte	.LASF599
 11315 41d1 01       		.byte	0x1
 11316 41d2 AA       		.byte	0xaa
 11317 41d3 36290000 		.4byte	0x2936
 11318 41d7 00       		.byte	0
 11319 41d8 5B       		.uleb128 0x5b
 11320 41d9 4F1D0000 		.4byte	.LASF648
 11321 41dd 01       		.byte	0x1
 11322 41de 84       		.byte	0x84
 11323 41df 01       		.byte	0x1
 11324 41e0 04420000 		.4byte	0x4204
ARM GAS  C:\Users\stoma\AppData\Local\Temp\ccLygOki.s 			page 200


 11325 41e4 5C       		.uleb128 0x5c
 11326 41e5 190E0000 		.4byte	.LASF598
 11327 41e9 01       		.byte	0x1
 11328 41ea 84       		.byte	0x84
 11329 41eb B9200000 		.4byte	0x20b9
 11330 41ef 5F       		.uleb128 0x5f
 11331 41f0 F5170000 		.4byte	.LASF599
 11332 41f4 01       		.byte	0x1
 11333 41f5 85       		.byte	0x85
 11334 41f6 36290000 		.4byte	0x2936
 11335 41fa 61       		.uleb128 0x61
 11336 41fb 6900     		.ascii	"i\000"
 11337 41fd 01       		.byte	0x1
 11338 41fe 86       		.byte	0x86
 11339 41ff 25000000 		.4byte	0x25
 11340 4203 00       		.byte	0
 11341 4204 5B       		.uleb128 0x5b
 11342 4205 791E0000 		.4byte	.LASF649
 11343 4209 01       		.byte	0x1
 11344 420a 73       		.byte	0x73
 11345 420b 01       		.byte	0x1
 11346 420c 27420000 		.4byte	0x4227
 11347 4210 5C       		.uleb128 0x5c
 11348 4211 190E0000 		.4byte	.LASF598
 11349 4215 01       		.byte	0x1
 11350 4216 73       		.byte	0x73
 11351 4217 B9200000 		.4byte	0x20b9
 11352 421b 5F       		.uleb128 0x5f
 11353 421c F5170000 		.4byte	.LASF599
 11354 4220 01       		.byte	0x1
 11355 4221 74       		.byte	0x74
 11356 4222 36290000 		.4byte	0x2936
 11357 4226 00       		.byte	0
 11358 4227 57       		.uleb128 0x57
 11359 4228 820A0000 		.4byte	.LASF650
 11360 422c 05       		.byte	0x5
 11361 422d FA02     		.2byte	0x2fa
 11362 422f 03       		.byte	0x3
 11363 4230 4D420000 		.4byte	0x424d
 11364 4234 49       		.uleb128 0x49
 11365 4235 74717000 		.ascii	"tqp\000"
 11366 4239 05       		.byte	0x5
 11367 423a FA02     		.2byte	0x2fa
 11368 423c 4D420000 		.4byte	0x424d
 11369 4240 49       		.uleb128 0x49
 11370 4241 6D736700 		.ascii	"msg\000"
 11371 4245 05       		.byte	0x5
 11372 4246 FA02     		.2byte	0x2fa
 11373 4248 6E090000 		.4byte	0x96e
 11374 424c 00       		.byte	0
 11375 424d 05       		.uleb128 0x5
 11376 424e 04       		.byte	0x4
 11377 424f 130B0000 		.4byte	0xb13
 11378 4253 57       		.uleb128 0x57
 11379 4254 59030000 		.4byte	.LASF651
 11380 4258 05       		.byte	0x5
 11381 4259 A802     		.2byte	0x2a8
ARM GAS  C:\Users\stoma\AppData\Local\Temp\ccLygOki.s 			page 201


 11382 425b 03       		.byte	0x3
 11383 425c 79420000 		.4byte	0x4279
 11384 4260 49       		.uleb128 0x49
 11385 4261 74727000 		.ascii	"trp\000"
 11386 4265 05       		.byte	0x5
 11387 4266 A802     		.2byte	0x2a8
 11388 4268 B5130000 		.4byte	0x13b5
 11389 426c 49       		.uleb128 0x49
 11390 426d 6D736700 		.ascii	"msg\000"
 11391 4271 05       		.byte	0x5
 11392 4272 A802     		.2byte	0x2a8
 11393 4274 6E090000 		.4byte	0x96e
 11394 4278 00       		.byte	0
 11395 4279 5A       		.uleb128 0x5a
 11396 427a 06020000 		.4byte	.LASF652
 11397 427e 05       		.byte	0x5
 11398 427f 8002     		.2byte	0x280
 11399 4281 6E090000 		.4byte	0x96e
 11400 4285 03       		.byte	0x3
 11401 4286 97420000 		.4byte	0x4297
 11402 428a 49       		.uleb128 0x49
 11403 428b 74727000 		.ascii	"trp\000"
 11404 428f 05       		.byte	0x5
 11405 4290 8002     		.2byte	0x280
 11406 4292 B5130000 		.4byte	0x13b5
 11407 4296 00       		.byte	0
 11408 4297 62       		.uleb128 0x62
 11409 4298 C9180000 		.4byte	.LASF655
 11410 429c 05       		.byte	0x5
 11411 429d 2802     		.2byte	0x228
 11412 429f 03       		.byte	0x3
 11413 42a0 57       		.uleb128 0x57
 11414 42a1 9B120000 		.4byte	.LASF653
 11415 42a5 05       		.byte	0x5
 11416 42a6 0D02     		.2byte	0x20d
 11417 42a8 03       		.byte	0x3
 11418 42a9 BA420000 		.4byte	0x42ba
 11419 42ad 48       		.uleb128 0x48
 11420 42ae 41160000 		.4byte	.LASF654
 11421 42b2 05       		.byte	0x5
 11422 42b3 0D02     		.2byte	0x20d
 11423 42b5 21090000 		.4byte	0x921
 11424 42b9 00       		.byte	0
 11425 42ba 62       		.uleb128 0x62
 11426 42bb 86120000 		.4byte	.LASF656
 11427 42bf 05       		.byte	0x5
 11428 42c0 DE01     		.2byte	0x1de
 11429 42c2 03       		.byte	0x3
 11430 42c3 62       		.uleb128 0x62
 11431 42c4 E9020000 		.4byte	.LASF657
 11432 42c8 05       		.byte	0x5
 11433 42c9 D301     		.2byte	0x1d3
 11434 42cb 03       		.byte	0x3
 11435 42cc 62       		.uleb128 0x62
 11436 42cd 17030000 		.4byte	.LASF658
 11437 42d1 05       		.byte	0x5
 11438 42d2 C801     		.2byte	0x1c8
ARM GAS  C:\Users\stoma\AppData\Local\Temp\ccLygOki.s 			page 202


 11439 42d4 03       		.byte	0x3
 11440 42d5 62       		.uleb128 0x62
 11441 42d6 D8020000 		.4byte	.LASF659
 11442 42da 05       		.byte	0x5
 11443 42db BD01     		.2byte	0x1bd
 11444 42dd 03       		.byte	0x3
 11445 42de 5B       		.uleb128 0x5b
 11446 42df 9F1D0000 		.4byte	.LASF660
 11447 42e3 02       		.byte	0x2
 11448 42e4 84       		.byte	0x84
 11449 42e5 03       		.byte	0x3
 11450 42e6 F6420000 		.4byte	0x42f6
 11451 42ea 5C       		.uleb128 0x5c
 11452 42eb 09190000 		.4byte	.LASF661
 11453 42ef 02       		.byte	0x2
 11454 42f0 84       		.byte	0x84
 11455 42f1 D2050000 		.4byte	0x5d2
 11456 42f5 00       		.byte	0
 11457 42f6 5E       		.uleb128 0x5e
 11458 42f7 26160000 		.4byte	.LASF662
 11459 42fb 06       		.byte	0x6
 11460 42fc F5       		.byte	0xf5
 11461 42fd E90A0000 		.4byte	0xae9
 11462 4301 03       		.byte	0x3
 11463 4302 1E430000 		.4byte	0x431e
 11464 4306 5D       		.uleb128 0x5d
 11465 4307 747000   		.ascii	"tp\000"
 11466 430a 06       		.byte	0x6
 11467 430b F5       		.byte	0xf5
 11468 430c E90A0000 		.4byte	0xae9
 11469 4310 60       		.uleb128 0x60
 11470 4311 2E010000 		.4byte	.LASF643
 11471 4315 2E430000 		.4byte	0x432e
 11472 4319 26160000 		.4byte	.LASF662
 11473 431d 00       		.byte	0
 11474 431e 0A       		.uleb128 0xa
 11475 431f 61010000 		.4byte	0x161
 11476 4323 2E430000 		.4byte	0x432e
 11477 4327 0B       		.uleb128 0xb
 11478 4328 25000000 		.4byte	0x25
 11479 432c 0B       		.byte	0xb
 11480 432d 00       		.byte	0
 11481 432e 0F       		.uleb128 0xf
 11482 432f 1E430000 		.4byte	0x431e
 11483 4333 62       		.uleb128 0x62
 11484 4334 B5060000 		.4byte	.LASF663
 11485 4338 04       		.byte	0x4
 11486 4339 9601     		.2byte	0x196
 11487 433b 03       		.byte	0x3
 11488 433c 62       		.uleb128 0x62
 11489 433d E8040000 		.4byte	.LASF664
 11490 4341 04       		.byte	0x4
 11491 4342 8201     		.2byte	0x182
 11492 4344 03       		.byte	0x3
 11493 4345 57       		.uleb128 0x57
 11494 4346 1B0D0000 		.4byte	.LASF665
 11495 434a 04       		.byte	0x4
ARM GAS  C:\Users\stoma\AppData\Local\Temp\ccLygOki.s 			page 203


 11496 434b 6601     		.2byte	0x166
 11497 434d 03       		.byte	0x3
 11498 434e 60430000 		.4byte	0x4360
 11499 4352 60       		.uleb128 0x60
 11500 4353 2E010000 		.4byte	.LASF643
 11501 4357 2E430000 		.4byte	0x432e
 11502 435b 1B0D0000 		.4byte	.LASF665
 11503 435f 00       		.byte	0
 11504 4360 62       		.uleb128 0x62
 11505 4361 460D0000 		.4byte	.LASF666
 11506 4365 04       		.byte	0x4
 11507 4366 5A01     		.2byte	0x15a
 11508 4368 03       		.byte	0x3
 11509 4369 62       		.uleb128 0x62
 11510 436a 86070000 		.4byte	.LASF667
 11511 436e 14       		.byte	0x14
 11512 436f E401     		.2byte	0x1e4
 11513 4371 03       		.byte	0x3
 11514 4372 62       		.uleb128 0x62
 11515 4373 32100000 		.4byte	.LASF668
 11516 4377 14       		.byte	0x14
 11517 4378 D901     		.2byte	0x1d9
 11518 437a 03       		.byte	0x3
 11519 437b 62       		.uleb128 0x62
 11520 437c 89040000 		.4byte	.LASF669
 11521 4380 14       		.byte	0x14
 11522 4381 CA01     		.2byte	0x1ca
 11523 4383 03       		.byte	0x3
 11524 4384 62       		.uleb128 0x62
 11525 4385 1F190000 		.4byte	.LASF670
 11526 4389 14       		.byte	0x14
 11527 438a BC01     		.2byte	0x1bc
 11528 438c 03       		.byte	0x3
 11529 438d 57       		.uleb128 0x57
 11530 438e 1E090000 		.4byte	.LASF671
 11531 4392 03       		.byte	0x3
 11532 4393 2002     		.2byte	0x220
 11533 4395 03       		.byte	0x3
 11534 4396 A7430000 		.4byte	0x43a7
 11535 439a 48       		.uleb128 0x48
 11536 439b BA160000 		.4byte	.LASF672
 11537 439f 03       		.byte	0x3
 11538 43a0 2002     		.2byte	0x220
 11539 43a2 06090000 		.4byte	0x906
 11540 43a6 00       		.byte	0
 11541 43a7 63       		.uleb128 0x63
 11542 43a8 D8410000 		.4byte	0x41d8
 11543 43ac 00000000 		.4byte	.LFB293
 11544 43b0 74000000 		.4byte	.LFE293-.LFB293
 11545 43b4 01       		.uleb128 0x1
 11546 43b5 9C       		.byte	0x9c
 11547 43b6 D3430000 		.4byte	0x43d3
 11548 43ba 3E       		.uleb128 0x3e
 11549 43bb E4410000 		.4byte	0x41e4
 11550 43bf 3E       		.uleb128 0x3e
 11551 43c0 E4410000 		.4byte	0x41e4
 11552 43c4 3A       		.uleb128 0x3a
ARM GAS  C:\Users\stoma\AppData\Local\Temp\ccLygOki.s 			page 204


 11553 43c5 EF410000 		.4byte	0x41ef
 11554 43c9 40       		.uleb128 0x40
 11555 43ca FA410000 		.4byte	0x41fa
 11556 43ce 9B100000 		.4byte	.LLST0
 11557 43d2 00       		.byte	0
 11558 43d3 63       		.uleb128 0x63
 11559 43d4 413E0000 		.4byte	0x3e41
 11560 43d8 00000000 		.4byte	.LFB300
 11561 43dc AC000000 		.4byte	.LFE300-.LFB300
 11562 43e0 01       		.uleb128 0x1
 11563 43e1 9C       		.byte	0x9c
 11564 43e2 55450000 		.4byte	0x4555
 11565 43e6 37       		.uleb128 0x37
 11566 43e7 5A3E0000 		.4byte	0x3e5a
 11567 43eb BA100000 		.4byte	.LLST109
 11568 43ef 40       		.uleb128 0x40
 11569 43f0 653E0000 		.4byte	0x3e65
 11570 43f4 DB100000 		.4byte	.LLST110
 11571 43f8 40       		.uleb128 0x40
 11572 43f9 713E0000 		.4byte	0x3e71
 11573 43fd F9100000 		.4byte	.LLST111
 11574 4401 64       		.uleb128 0x64
 11575 4402 4E3E0000 		.4byte	0x3e4e
 11576 4406 06       		.uleb128 0x6
 11577 4407 03       		.byte	0x3
 11578 4408 00000000 		.4byte	USBD1
 11579 440c 9F       		.byte	0x9f
 11580 440d 42       		.uleb128 0x42
 11581 440e 7D3E0000 		.4byte	0x3e7d
 11582 4412 78020000 		.4byte	.Ldebug_ranges0+0x278
 11583 4416 42450000 		.4byte	0x4542
 11584 441a 40       		.uleb128 0x40
 11585 441b 7E3E0000 		.4byte	0x3e7e
 11586 441f 17110000 		.4byte	.LLST112
 11587 4423 35       		.uleb128 0x35
 11588 4424 3C430000 		.4byte	0x433c
 11589 4428 76000000 		.4byte	.LBB628
 11590 442c 14000000 		.4byte	.LBE628-.LBB628
 11591 4430 01       		.byte	0x1
 11592 4431 5D02     		.2byte	0x25d
 11593 4433 8A440000 		.4byte	0x448a
 11594 4437 35       		.uleb128 0x35
 11595 4438 72430000 		.4byte	0x4372
 11596 443c 76000000 		.4byte	.LBB630
 11597 4440 06000000 		.4byte	.LBE630-.LBB630
 11598 4444 04       		.byte	0x4
 11599 4445 8401     		.2byte	0x184
 11600 4447 77440000 		.4byte	0x4477
 11601 444b 36       		.uleb128 0x36
 11602 444c 84430000 		.4byte	0x4384
 11603 4450 76000000 		.4byte	.LBB631
 11604 4454 06000000 		.4byte	.LBE631-.LBB631
 11605 4458 14       		.byte	0x14
 11606 4459 DB01     		.2byte	0x1db
 11607 445b 36       		.uleb128 0x36
 11608 445c 8D430000 		.4byte	0x438d
 11609 4460 76000000 		.4byte	.LBB632
ARM GAS  C:\Users\stoma\AppData\Local\Temp\ccLygOki.s 			page 205


 11610 4464 06000000 		.4byte	.LBE632-.LBB632
 11611 4468 14       		.byte	0x14
 11612 4469 BF01     		.2byte	0x1bf
 11613 446b 37       		.uleb128 0x37
 11614 446c 9A430000 		.4byte	0x439a
 11615 4470 6D110000 		.4byte	.LLST113
 11616 4474 00       		.byte	0
 11617 4475 00       		.byte	0
 11618 4476 00       		.byte	0
 11619 4477 38       		.uleb128 0x38
 11620 4478 80000000 		.4byte	.LVL245
 11621 447c 08490000 		.4byte	0x4908
 11622 4480 38       		.uleb128 0x38
 11623 4481 84000000 		.4byte	.LVL246
 11624 4485 13490000 		.4byte	0x4913
 11625 4489 00       		.byte	0
 11626 448a 35       		.uleb128 0x35
 11627 448b EF330000 		.4byte	0x33ef
 11628 448f 8A000000 		.4byte	.LBB634
 11629 4493 0C000000 		.4byte	.LBE634-.LBB634
 11630 4497 01       		.byte	0x1
 11631 4498 5E02     		.2byte	0x25e
 11632 449a B1440000 		.4byte	0x44b1
 11633 449e 37       		.uleb128 0x37
 11634 449f 08340000 		.4byte	0x3408
 11635 44a3 82110000 		.4byte	.LLST114
 11636 44a7 37       		.uleb128 0x37
 11637 44a8 FC330000 		.4byte	0x33fc
 11638 44ac 95110000 		.4byte	.LLST115
 11639 44b0 00       		.byte	0
 11640 44b1 35       		.uleb128 0x35
 11641 44b2 33430000 		.4byte	0x4333
 11642 44b6 96000000 		.4byte	.LBB636
 11643 44ba 0C000000 		.4byte	.LBE636-.LBB636
 11644 44be 01       		.byte	0x1
 11645 44bf 5F02     		.2byte	0x25f
 11646 44c1 18450000 		.4byte	0x4518
 11647 44c5 35       		.uleb128 0x35
 11648 44c6 69430000 		.4byte	0x4369
 11649 44ca 9E000000 		.4byte	.LBB638
 11650 44ce 04000000 		.4byte	.LBE638-.LBB638
 11651 44d2 04       		.byte	0x4
 11652 44d3 9A01     		.2byte	0x19a
 11653 44d5 05450000 		.4byte	0x4505
 11654 44d9 36       		.uleb128 0x36
 11655 44da 7B430000 		.4byte	0x437b
 11656 44de 9E000000 		.4byte	.LBB639
 11657 44e2 04000000 		.4byte	.LBE639-.LBB639
 11658 44e6 14       		.byte	0x14
 11659 44e7 E601     		.2byte	0x1e6
 11660 44e9 36       		.uleb128 0x36
 11661 44ea 8D430000 		.4byte	0x438d
 11662 44ee 9E000000 		.4byte	.LBB640
 11663 44f2 04000000 		.4byte	.LBE640-.LBB640
 11664 44f6 14       		.byte	0x14
 11665 44f7 CD01     		.2byte	0x1cd
 11666 44f9 37       		.uleb128 0x37
ARM GAS  C:\Users\stoma\AppData\Local\Temp\ccLygOki.s 			page 206


 11667 44fa 9A430000 		.4byte	0x439a
 11668 44fe AD110000 		.4byte	.LLST116
 11669 4502 00       		.byte	0
 11670 4503 00       		.byte	0
 11671 4504 00       		.byte	0
 11672 4505 38       		.uleb128 0x38
 11673 4506 9A000000 		.4byte	.LVL249
 11674 450a 29490000 		.4byte	0x4929
 11675 450e 38       		.uleb128 0x38
 11676 450f 9E000000 		.4byte	.LVL250
 11677 4513 34490000 		.4byte	0x4934
 11678 4517 00       		.byte	0
 11679 4518 65       		.uleb128 0x65
 11680 4519 66000000 		.4byte	.LVL241
 11681 451d 2B450000 		.4byte	0x452b
 11682 4521 3C       		.uleb128 0x3c
 11683 4522 01       		.uleb128 0x1
 11684 4523 50       		.byte	0x50
 11685 4524 05       		.uleb128 0x5
 11686 4525 03       		.byte	0x3
 11687 4526 00000000 		.4byte	.LANCHOR1
 11688 452a 00       		.byte	0
 11689 452b 3B       		.uleb128 0x3b
 11690 452c 76000000 		.4byte	.LVL243
 11691 4530 70340000 		.4byte	0x3470
 11692 4534 3C       		.uleb128 0x3c
 11693 4535 01       		.uleb128 0x1
 11694 4536 50       		.byte	0x50
 11695 4537 02       		.uleb128 0x2
 11696 4538 76       		.byte	0x76
 11697 4539 00       		.sleb128 0
 11698 453a 3C       		.uleb128 0x3c
 11699 453b 01       		.uleb128 0x1
 11700 453c 51       		.byte	0x51
 11701 453d 02       		.uleb128 0x2
 11702 453e 75       		.byte	0x75
 11703 453f 00       		.sleb128 0
 11704 4540 00       		.byte	0
 11705 4541 00       		.byte	0
 11706 4542 66       		.uleb128 0x66
 11707 4543 30000000 		.4byte	.LVL235
 11708 4547 3C       		.uleb128 0x3c
 11709 4548 01       		.uleb128 0x1
 11710 4549 50       		.byte	0x50
 11711 454a 02       		.uleb128 0x2
 11712 454b 76       		.byte	0x76
 11713 454c 00       		.sleb128 0
 11714 454d 3C       		.uleb128 0x3c
 11715 454e 01       		.uleb128 0x1
 11716 454f 51       		.byte	0x51
 11717 4550 02       		.uleb128 0x2
 11718 4551 75       		.byte	0x75
 11719 4552 00       		.sleb128 0
 11720 4553 00       		.byte	0
 11721 4554 00       		.byte	0
 11722 4555 63       		.uleb128 0x63
 11723 4556 8C3E0000 		.4byte	0x3e8c
ARM GAS  C:\Users\stoma\AppData\Local\Temp\ccLygOki.s 			page 207


 11724 455a 00000000 		.4byte	.LFB299
 11725 455e F0000000 		.4byte	.LFE299-.LFB299
 11726 4562 01       		.uleb128 0x1
 11727 4563 9C       		.byte	0x9c
 11728 4564 14480000 		.4byte	0x4814
 11729 4568 37       		.uleb128 0x37
 11730 4569 A53E0000 		.4byte	0x3ea5
 11731 456d C1110000 		.4byte	.LLST121
 11732 4571 67       		.uleb128 0x67
 11733 4572 B03E0000 		.4byte	0x3eb0
 11734 4576 01       		.uleb128 0x1
 11735 4577 55       		.byte	0x55
 11736 4578 67       		.uleb128 0x67
 11737 4579 BC3E0000 		.4byte	0x3ebc
 11738 457d 01       		.uleb128 0x1
 11739 457e 54       		.byte	0x54
 11740 457f 64       		.uleb128 0x64
 11741 4580 993E0000 		.4byte	0x3e99
 11742 4584 06       		.uleb128 0x6
 11743 4585 03       		.byte	0x3
 11744 4586 00000000 		.4byte	USBD1
 11745 458a 9F       		.byte	0x9f
 11746 458b 42       		.uleb128 0x42
 11747 458c C83E0000 		.4byte	0x3ec8
 11748 4590 B0020000 		.4byte	.Ldebug_ranges0+0x2b0
 11749 4594 E8460000 		.4byte	0x46e8
 11750 4598 40       		.uleb128 0x40
 11751 4599 C93E0000 		.4byte	0x3ec9
 11752 459d E2110000 		.4byte	.LLST122
 11753 45a1 35       		.uleb128 0x35
 11754 45a2 C3420000 		.4byte	0x42c3
 11755 45a6 AA000000 		.4byte	.LBB647
 11756 45aa 0E000000 		.4byte	.LBE647-.LBB647
 11757 45ae 01       		.byte	0x1
 11758 45af 2902     		.2byte	0x229
 11759 45b1 19460000 		.4byte	0x4619
 11760 45b5 36       		.uleb128 0x36
 11761 45b6 3C430000 		.4byte	0x433c
 11762 45ba AA000000 		.4byte	.LBB648
 11763 45be 0E000000 		.4byte	.LBE648-.LBB648
 11764 45c2 05       		.byte	0x5
 11765 45c3 D501     		.2byte	0x1d5
 11766 45c5 35       		.uleb128 0x35
 11767 45c6 72430000 		.4byte	0x4372
 11768 45ca AA000000 		.4byte	.LBB650
 11769 45ce 06000000 		.4byte	.LBE650-.LBB650
 11770 45d2 04       		.byte	0x4
 11771 45d3 8401     		.2byte	0x184
 11772 45d5 05460000 		.4byte	0x4605
 11773 45d9 36       		.uleb128 0x36
 11774 45da 84430000 		.4byte	0x4384
 11775 45de AA000000 		.4byte	.LBB651
 11776 45e2 06000000 		.4byte	.LBE651-.LBB651
 11777 45e6 14       		.byte	0x14
 11778 45e7 DB01     		.2byte	0x1db
 11779 45e9 36       		.uleb128 0x36
 11780 45ea 8D430000 		.4byte	0x438d
ARM GAS  C:\Users\stoma\AppData\Local\Temp\ccLygOki.s 			page 208


 11781 45ee AA000000 		.4byte	.LBB652
 11782 45f2 06000000 		.4byte	.LBE652-.LBB652
 11783 45f6 14       		.byte	0x14
 11784 45f7 BF01     		.2byte	0x1bf
 11785 45f9 37       		.uleb128 0x37
 11786 45fa 9A430000 		.4byte	0x439a
 11787 45fe 22120000 		.4byte	.LLST123
 11788 4602 00       		.byte	0
 11789 4603 00       		.byte	0
 11790 4604 00       		.byte	0
 11791 4605 38       		.uleb128 0x38
 11792 4606 B4000000 		.4byte	.LVL280
 11793 460a 08490000 		.4byte	0x4908
 11794 460e 38       		.uleb128 0x38
 11795 460f B8000000 		.4byte	.LVL281
 11796 4613 13490000 		.4byte	0x4913
 11797 4617 00       		.byte	0
 11798 4618 00       		.byte	0
 11799 4619 35       		.uleb128 0x35
 11800 461a CA330000 		.4byte	0x33ca
 11801 461e B8000000 		.4byte	.LBB654
 11802 4622 20000000 		.4byte	.LBE654-.LBB654
 11803 4626 01       		.byte	0x1
 11804 4627 2A02     		.2byte	0x22a
 11805 4629 40460000 		.4byte	0x4640
 11806 462d 37       		.uleb128 0x37
 11807 462e E3330000 		.4byte	0x33e3
 11808 4632 37120000 		.4byte	.LLST124
 11809 4636 37       		.uleb128 0x37
 11810 4637 D7330000 		.4byte	0x33d7
 11811 463b 4A120000 		.4byte	.LLST125
 11812 463f 00       		.byte	0
 11813 4640 35       		.uleb128 0x35
 11814 4641 BA420000 		.4byte	0x42ba
 11815 4645 D8000000 		.4byte	.LBB656
 11816 4649 18000000 		.4byte	.LBE656-.LBB656
 11817 464d 01       		.byte	0x1
 11818 464e 2B02     		.2byte	0x22b
 11819 4650 B8460000 		.4byte	0x46b8
 11820 4654 36       		.uleb128 0x36
 11821 4655 33430000 		.4byte	0x4333
 11822 4659 D8000000 		.4byte	.LBB657
 11823 465d 18000000 		.4byte	.LBE657-.LBB657
 11824 4661 05       		.byte	0x5
 11825 4662 E001     		.2byte	0x1e0
 11826 4664 35       		.uleb128 0x35
 11827 4665 69430000 		.4byte	0x4369
 11828 4669 E0000000 		.4byte	.LBB659
 11829 466d 10000000 		.4byte	.LBE659-.LBB659
 11830 4671 04       		.byte	0x4
 11831 4672 9A01     		.2byte	0x19a
 11832 4674 A4460000 		.4byte	0x46a4
 11833 4678 36       		.uleb128 0x36
 11834 4679 7B430000 		.4byte	0x437b
 11835 467d E0000000 		.4byte	.LBB660
 11836 4681 10000000 		.4byte	.LBE660-.LBB660
 11837 4685 14       		.byte	0x14
ARM GAS  C:\Users\stoma\AppData\Local\Temp\ccLygOki.s 			page 209


 11838 4686 E601     		.2byte	0x1e6
 11839 4688 36       		.uleb128 0x36
 11840 4689 8D430000 		.4byte	0x438d
 11841 468d E0000000 		.4byte	.LBB661
 11842 4691 10000000 		.4byte	.LBE661-.LBB661
 11843 4695 14       		.byte	0x14
 11844 4696 CD01     		.2byte	0x1cd
 11845 4698 37       		.uleb128 0x37
 11846 4699 9A430000 		.4byte	0x439a
 11847 469d 62120000 		.4byte	.LLST126
 11848 46a1 00       		.byte	0
 11849 46a2 00       		.byte	0
 11850 46a3 00       		.byte	0
 11851 46a4 38       		.uleb128 0x38
 11852 46a5 DC000000 		.4byte	.LVL283
 11853 46a9 29490000 		.4byte	0x4929
 11854 46ad 38       		.uleb128 0x38
 11855 46ae E0000000 		.4byte	.LVL284
 11856 46b2 34490000 		.4byte	0x4934
 11857 46b6 00       		.byte	0
 11858 46b7 00       		.byte	0
 11859 46b8 68       		.uleb128 0x68
 11860 46b9 48000000 		.4byte	.LVL267
 11861 46bd 02       		.uleb128 0x2
 11862 46be 78       		.byte	0x78
 11863 46bf 00       		.sleb128 0
 11864 46c0 D1460000 		.4byte	0x46d1
 11865 46c4 3C       		.uleb128 0x3c
 11866 46c5 01       		.uleb128 0x1
 11867 46c6 50       		.byte	0x50
 11868 46c7 02       		.uleb128 0x2
 11869 46c8 76       		.byte	0x76
 11870 46c9 00       		.sleb128 0
 11871 46ca 3C       		.uleb128 0x3c
 11872 46cb 01       		.uleb128 0x1
 11873 46cc 51       		.byte	0x51
 11874 46cd 02       		.uleb128 0x2
 11875 46ce 77       		.byte	0x77
 11876 46cf 00       		.sleb128 0
 11877 46d0 00       		.byte	0
 11878 46d1 3B       		.uleb128 0x3b
 11879 46d2 AA000000 		.4byte	.LVL278
 11880 46d6 14340000 		.4byte	0x3414
 11881 46da 3C       		.uleb128 0x3c
 11882 46db 01       		.uleb128 0x1
 11883 46dc 50       		.byte	0x50
 11884 46dd 02       		.uleb128 0x2
 11885 46de 76       		.byte	0x76
 11886 46df 00       		.sleb128 0
 11887 46e0 3C       		.uleb128 0x3c
 11888 46e1 01       		.uleb128 0x1
 11889 46e2 51       		.byte	0x51
 11890 46e3 02       		.uleb128 0x2
 11891 46e4 77       		.byte	0x77
 11892 46e5 00       		.sleb128 0
 11893 46e6 00       		.byte	0
 11894 46e7 00       		.byte	0
ARM GAS  C:\Users\stoma\AppData\Local\Temp\ccLygOki.s 			page 210


 11895 46e8 35       		.uleb128 0x35
 11896 46e9 C3420000 		.4byte	0x42c3
 11897 46ed 5E000000 		.4byte	.LBB663
 11898 46f1 0E000000 		.4byte	.LBE663-.LBB663
 11899 46f5 01       		.byte	0x1
 11900 46f6 3502     		.2byte	0x235
 11901 46f8 60470000 		.4byte	0x4760
 11902 46fc 36       		.uleb128 0x36
 11903 46fd 3C430000 		.4byte	0x433c
 11904 4701 5E000000 		.4byte	.LBB664
 11905 4705 0E000000 		.4byte	.LBE664-.LBB664
 11906 4709 05       		.byte	0x5
 11907 470a D501     		.2byte	0x1d5
 11908 470c 35       		.uleb128 0x35
 11909 470d 72430000 		.4byte	0x4372
 11910 4711 5E000000 		.4byte	.LBB666
 11911 4715 06000000 		.4byte	.LBE666-.LBB666
 11912 4719 04       		.byte	0x4
 11913 471a 8401     		.2byte	0x184
 11914 471c 4C470000 		.4byte	0x474c
 11915 4720 36       		.uleb128 0x36
 11916 4721 84430000 		.4byte	0x4384
 11917 4725 5E000000 		.4byte	.LBB667
 11918 4729 06000000 		.4byte	.LBE667-.LBB667
 11919 472d 14       		.byte	0x14
 11920 472e DB01     		.2byte	0x1db
 11921 4730 36       		.uleb128 0x36
 11922 4731 8D430000 		.4byte	0x438d
 11923 4735 5E000000 		.4byte	.LBB668
 11924 4739 06000000 		.4byte	.LBE668-.LBB668
 11925 473d 14       		.byte	0x14
 11926 473e BF01     		.2byte	0x1bf
 11927 4740 37       		.uleb128 0x37
 11928 4741 9A430000 		.4byte	0x439a
 11929 4745 76120000 		.4byte	.LLST127
 11930 4749 00       		.byte	0
 11931 474a 00       		.byte	0
 11932 474b 00       		.byte	0
 11933 474c 38       		.uleb128 0x38
 11934 474d 68000000 		.4byte	.LVL270
 11935 4751 08490000 		.4byte	0x4908
 11936 4755 38       		.uleb128 0x38
 11937 4756 6C000000 		.4byte	.LVL271
 11938 475a 13490000 		.4byte	0x4913
 11939 475e 00       		.byte	0
 11940 475f 00       		.byte	0
 11941 4760 3D       		.uleb128 0x3d
 11942 4761 53420000 		.4byte	0x4253
 11943 4765 72000000 		.4byte	.LBB670
 11944 4769 C8020000 		.4byte	.Ldebug_ranges0+0x2c8
 11945 476d 01       		.byte	0x1
 11946 476e 3802     		.2byte	0x238
 11947 4770 9F470000 		.4byte	0x479f
 11948 4774 37       		.uleb128 0x37
 11949 4775 6C420000 		.4byte	0x426c
 11950 4779 8B120000 		.4byte	.LLST128
 11951 477d 37       		.uleb128 0x37
ARM GAS  C:\Users\stoma\AppData\Local\Temp\ccLygOki.s 			page 211


 11952 477e 60420000 		.4byte	0x4260
 11953 4782 9F120000 		.4byte	.LLST129
 11954 4786 3B       		.uleb128 0x3b
 11955 4787 86000000 		.4byte	.LVL273
 11956 478b 1E490000 		.4byte	0x491e
 11957 478f 3C       		.uleb128 0x3c
 11958 4790 01       		.uleb128 0x1
 11959 4791 50       		.byte	0x50
 11960 4792 05       		.uleb128 0x5
 11961 4793 03       		.byte	0x3
 11962 4794 60000000 		.4byte	.LANCHOR1+96
 11963 4798 3C       		.uleb128 0x3c
 11964 4799 01       		.uleb128 0x1
 11965 479a 51       		.byte	0x51
 11966 479b 01       		.uleb128 0x1
 11967 479c 30       		.byte	0x30
 11968 479d 00       		.byte	0
 11969 479e 00       		.byte	0
 11970 479f 36       		.uleb128 0x36
 11971 47a0 BA420000 		.4byte	0x42ba
 11972 47a4 86000000 		.4byte	.LBB676
 11973 47a8 0E000000 		.4byte	.LBE676-.LBB676
 11974 47ac 01       		.byte	0x1
 11975 47ad 3902     		.2byte	0x239
 11976 47af 36       		.uleb128 0x36
 11977 47b0 33430000 		.4byte	0x4333
 11978 47b4 86000000 		.4byte	.LBB677
 11979 47b8 0E000000 		.4byte	.LBE677-.LBB677
 11980 47bc 05       		.byte	0x5
 11981 47bd E001     		.2byte	0x1e0
 11982 47bf 35       		.uleb128 0x35
 11983 47c0 69430000 		.4byte	0x4369
 11984 47c4 8E000000 		.4byte	.LBB679
 11985 47c8 06000000 		.4byte	.LBE679-.LBB679
 11986 47cc 04       		.byte	0x4
 11987 47cd 9A01     		.2byte	0x19a
 11988 47cf FF470000 		.4byte	0x47ff
 11989 47d3 36       		.uleb128 0x36
 11990 47d4 7B430000 		.4byte	0x437b
 11991 47d8 8E000000 		.4byte	.LBB680
 11992 47dc 06000000 		.4byte	.LBE680-.LBB680
 11993 47e0 14       		.byte	0x14
 11994 47e1 E601     		.2byte	0x1e6
 11995 47e3 36       		.uleb128 0x36
 11996 47e4 8D430000 		.4byte	0x438d
 11997 47e8 8E000000 		.4byte	.LBB681
 11998 47ec 06000000 		.4byte	.LBE681-.LBB681
 11999 47f0 14       		.byte	0x14
 12000 47f1 CD01     		.2byte	0x1cd
 12001 47f3 37       		.uleb128 0x37
 12002 47f4 9A430000 		.4byte	0x439a
 12003 47f8 B7120000 		.4byte	.LLST130
 12004 47fc 00       		.byte	0
 12005 47fd 00       		.byte	0
 12006 47fe 00       		.byte	0
 12007 47ff 38       		.uleb128 0x38
 12008 4800 8A000000 		.4byte	.LVL274
ARM GAS  C:\Users\stoma\AppData\Local\Temp\ccLygOki.s 			page 212


 12009 4804 29490000 		.4byte	0x4929
 12010 4808 38       		.uleb128 0x38
 12011 4809 8E000000 		.4byte	.LVL275
 12012 480d 34490000 		.4byte	0x4934
 12013 4811 00       		.byte	0
 12014 4812 00       		.byte	0
 12015 4813 00       		.byte	0
 12016 4814 63       		.uleb128 0x63
 12017 4815 EF330000 		.4byte	0x33ef
 12018 4819 00000000 		.4byte	.LFB286
 12019 481d 14000000 		.4byte	.LFE286-.LFB286
 12020 4821 01       		.uleb128 0x1
 12021 4822 9C       		.byte	0x9c
 12022 4823 38480000 		.4byte	0x4838
 12023 4827 64       		.uleb128 0x64
 12024 4828 FC330000 		.4byte	0x33fc
 12025 482c 01       		.uleb128 0x1
 12026 482d 50       		.byte	0x50
 12027 482e 37       		.uleb128 0x37
 12028 482f 08340000 		.4byte	0x3408
 12029 4833 CB120000 		.4byte	.LLST139
 12030 4837 00       		.byte	0
 12031 4838 63       		.uleb128 0x63
 12032 4839 CA330000 		.4byte	0x33ca
 12033 483d 00000000 		.4byte	.LFB287
 12034 4841 2A000000 		.4byte	.LFE287-.LFB287
 12035 4845 01       		.uleb128 0x1
 12036 4846 9C       		.byte	0x9c
 12037 4847 5E480000 		.4byte	0x485e
 12038 484b 37       		.uleb128 0x37
 12039 484c D7330000 		.4byte	0x33d7
 12040 4850 EC120000 		.4byte	.LLST140
 12041 4854 37       		.uleb128 0x37
 12042 4855 E3330000 		.4byte	0x33e3
 12043 4859 0D130000 		.4byte	.LLST141
 12044 485d 00       		.byte	0
 12045 485e 69       		.uleb128 0x69
 12046 485f 19170000 		.4byte	.LASF673
 12047 4863 19170000 		.4byte	.LASF673
 12048 4867 17       		.byte	0x17
 12049 4868 4F       		.byte	0x4f
 12050 4869 69       		.uleb128 0x69
 12051 486a F80C0000 		.4byte	.LASF674
 12052 486e F80C0000 		.4byte	.LASF674
 12053 4872 15       		.byte	0x15
 12054 4873 D8       		.byte	0xd8
 12055 4874 69       		.uleb128 0x69
 12056 4875 05030000 		.4byte	.LASF675
 12057 4879 05030000 		.4byte	.LASF675
 12058 487d 15       		.byte	0x15
 12059 487e D9       		.byte	0xd9
 12060 487f 69       		.uleb128 0x69
 12061 4880 DC050000 		.4byte	.LASF676
 12062 4884 DC050000 		.4byte	.LASF676
 12063 4888 17       		.byte	0x17
 12064 4889 50       		.byte	0x50
 12065 488a 6A       		.uleb128 0x6a
ARM GAS  C:\Users\stoma\AppData\Local\Temp\ccLygOki.s 			page 213


 12066 488b 041B0000 		.4byte	.LASF677
 12067 488f 041B0000 		.4byte	.LASF677
 12068 4893 04       		.byte	0x4
 12069 4894 1601     		.2byte	0x116
 12070 4896 69       		.uleb128 0x69
 12071 4897 E0000000 		.4byte	.LASF678
 12072 489b E0000000 		.4byte	.LASF678
 12073 489f 06       		.byte	0x6
 12074 48a0 94       		.byte	0x94
 12075 48a1 6A       		.uleb128 0x6a
 12076 48a2 8E190000 		.4byte	.LASF679
 12077 48a6 8E190000 		.4byte	.LASF679
 12078 48aa 0F       		.byte	0xf
 12079 48ab 1702     		.2byte	0x217
 12080 48ad 69       		.uleb128 0x69
 12081 48ae F3030000 		.4byte	.LASF680
 12082 48b2 F3030000 		.4byte	.LASF680
 12083 48b6 06       		.byte	0x6
 12084 48b7 8D       		.byte	0x8d
 12085 48b8 6A       		.uleb128 0x6a
 12086 48b9 05000000 		.4byte	.LASF681
 12087 48bd 05000000 		.4byte	.LASF681
 12088 48c1 04       		.byte	0x4
 12089 48c2 1D01     		.2byte	0x11d
 12090 48c4 69       		.uleb128 0x69
 12091 48c5 B3040000 		.4byte	.LASF682
 12092 48c9 B3040000 		.4byte	.LASF682
 12093 48cd 28       		.byte	0x28
 12094 48ce 4F       		.byte	0x4f
 12095 48cf 6A       		.uleb128 0x6a
 12096 48d0 A5010000 		.4byte	.LASF683
 12097 48d4 A5010000 		.4byte	.LASF683
 12098 48d8 0F       		.byte	0xf
 12099 48d9 1302     		.2byte	0x213
 12100 48db 69       		.uleb128 0x69
 12101 48dc B8050000 		.4byte	.LASF684
 12102 48e0 B8050000 		.4byte	.LASF684
 12103 48e4 28       		.byte	0x28
 12104 48e5 4E       		.byte	0x4e
 12105 48e6 69       		.uleb128 0x69
 12106 48e7 9A170000 		.4byte	.LASF685
 12107 48eb 9A170000 		.4byte	.LASF685
 12108 48ef 06       		.byte	0x6
 12109 48f0 87       		.byte	0x87
 12110 48f1 69       		.uleb128 0x69
 12111 48f2 A8130000 		.4byte	.LASF686
 12112 48f6 A8130000 		.4byte	.LASF686
 12113 48fa 06       		.byte	0x6
 12114 48fb 85       		.byte	0x85
 12115 48fc 6A       		.uleb128 0x6a
 12116 48fd 51060000 		.4byte	.LASF687
 12117 4901 51060000 		.4byte	.LASF687
 12118 4905 25       		.byte	0x25
 12119 4906 3602     		.2byte	0x236
 12120 4908 69       		.uleb128 0x69
 12121 4909 0A110000 		.4byte	.LASF688
 12122 490d 0A110000 		.4byte	.LASF688
ARM GAS  C:\Users\stoma\AppData\Local\Temp\ccLygOki.s 			page 214


 12123 4911 17       		.byte	0x17
 12124 4912 51       		.byte	0x51
 12125 4913 69       		.uleb128 0x69
 12126 4914 051C0000 		.4byte	.LASF689
 12127 4918 051C0000 		.4byte	.LASF689
 12128 491c 15       		.byte	0x15
 12129 491d DA       		.byte	0xda
 12130 491e 69       		.uleb128 0x69
 12131 491f FE000000 		.4byte	.LASF690
 12132 4923 FE000000 		.4byte	.LASF690
 12133 4927 06       		.byte	0x6
 12134 4928 8F       		.byte	0x8f
 12135 4929 69       		.uleb128 0x69
 12136 492a AF0A0000 		.4byte	.LASF691
 12137 492e AF0A0000 		.4byte	.LASF691
 12138 4932 15       		.byte	0x15
 12139 4933 DB       		.byte	0xdb
 12140 4934 69       		.uleb128 0x69
 12141 4935 040A0000 		.4byte	.LASF692
 12142 4939 040A0000 		.4byte	.LASF692
 12143 493d 17       		.byte	0x17
 12144 493e 52       		.byte	0x52
 12145 493f 6A       		.uleb128 0x6a
 12146 4940 C8060000 		.4byte	.LASF693
 12147 4944 C8060000 		.4byte	.LASF693
 12148 4948 25       		.byte	0x25
 12149 4949 4902     		.2byte	0x249
 12150 494b 69       		.uleb128 0x69
 12151 494c 75040000 		.4byte	.LASF694
 12152 4950 75040000 		.4byte	.LASF694
 12153 4954 17       		.byte	0x17
 12154 4955 4D       		.byte	0x4d
 12155 4956 69       		.uleb128 0x69
 12156 4957 91050000 		.4byte	.LASF695
 12157 495b 91050000 		.4byte	.LASF695
 12158 495f 15       		.byte	0x15
 12159 4960 DC       		.byte	0xdc
 12160 4961 69       		.uleb128 0x69
 12161 4962 53100000 		.4byte	.LASF696
 12162 4966 53100000 		.4byte	.LASF696
 12163 496a 15       		.byte	0x15
 12164 496b DD       		.byte	0xdd
 12165 496c 6A       		.uleb128 0x6a
 12166 496d 62130000 		.4byte	.LASF697
 12167 4971 62130000 		.4byte	.LASF697
 12168 4975 14       		.byte	0x14
 12169 4976 6601     		.2byte	0x166
 12170 4978 00       		.byte	0
 12171              		.section	.debug_abbrev,"",%progbits
 12172              	.Ldebug_abbrev0:
 12173 0000 01       		.uleb128 0x1
 12174 0001 11       		.uleb128 0x11
 12175 0002 01       		.byte	0x1
 12176 0003 25       		.uleb128 0x25
 12177 0004 0E       		.uleb128 0xe
 12178 0005 13       		.uleb128 0x13
 12179 0006 0B       		.uleb128 0xb
ARM GAS  C:\Users\stoma\AppData\Local\Temp\ccLygOki.s 			page 215


 12180 0007 03       		.uleb128 0x3
 12181 0008 0E       		.uleb128 0xe
 12182 0009 1B       		.uleb128 0x1b
 12183 000a 0E       		.uleb128 0xe
 12184 000b 55       		.uleb128 0x55
 12185 000c 17       		.uleb128 0x17
 12186 000d 11       		.uleb128 0x11
 12187 000e 01       		.uleb128 0x1
 12188 000f 10       		.uleb128 0x10
 12189 0010 17       		.uleb128 0x17
 12190 0011 00       		.byte	0
 12191 0012 00       		.byte	0
 12192 0013 02       		.uleb128 0x2
 12193 0014 24       		.uleb128 0x24
 12194 0015 00       		.byte	0
 12195 0016 0B       		.uleb128 0xb
 12196 0017 0B       		.uleb128 0xb
 12197 0018 3E       		.uleb128 0x3e
 12198 0019 0B       		.uleb128 0xb
 12199 001a 03       		.uleb128 0x3
 12200 001b 0E       		.uleb128 0xe
 12201 001c 00       		.byte	0
 12202 001d 00       		.byte	0
 12203 001e 03       		.uleb128 0x3
 12204 001f 24       		.uleb128 0x24
 12205 0020 00       		.byte	0
 12206 0021 0B       		.uleb128 0xb
 12207 0022 0B       		.uleb128 0xb
 12208 0023 3E       		.uleb128 0x3e
 12209 0024 0B       		.uleb128 0xb
 12210 0025 03       		.uleb128 0x3
 12211 0026 08       		.uleb128 0x8
 12212 0027 00       		.byte	0
 12213 0028 00       		.byte	0
 12214 0029 04       		.uleb128 0x4
 12215 002a 16       		.uleb128 0x16
 12216 002b 00       		.byte	0
 12217 002c 03       		.uleb128 0x3
 12218 002d 0E       		.uleb128 0xe
 12219 002e 3A       		.uleb128 0x3a
 12220 002f 0B       		.uleb128 0xb
 12221 0030 3B       		.uleb128 0x3b
 12222 0031 0B       		.uleb128 0xb
 12223 0032 49       		.uleb128 0x49
 12224 0033 13       		.uleb128 0x13
 12225 0034 00       		.byte	0
 12226 0035 00       		.byte	0
 12227 0036 05       		.uleb128 0x5
 12228 0037 0F       		.uleb128 0xf
 12229 0038 00       		.byte	0
 12230 0039 0B       		.uleb128 0xb
 12231 003a 0B       		.uleb128 0xb
 12232 003b 49       		.uleb128 0x49
 12233 003c 13       		.uleb128 0x13
 12234 003d 00       		.byte	0
 12235 003e 00       		.byte	0
 12236 003f 06       		.uleb128 0x6
ARM GAS  C:\Users\stoma\AppData\Local\Temp\ccLygOki.s 			page 216


 12237 0040 13       		.uleb128 0x13
 12238 0041 00       		.byte	0
 12239 0042 03       		.uleb128 0x3
 12240 0043 0E       		.uleb128 0xe
 12241 0044 3C       		.uleb128 0x3c
 12242 0045 19       		.uleb128 0x19
 12243 0046 00       		.byte	0
 12244 0047 00       		.byte	0
 12245 0048 07       		.uleb128 0x7
 12246 0049 16       		.uleb128 0x16
 12247 004a 00       		.byte	0
 12248 004b 03       		.uleb128 0x3
 12249 004c 0E       		.uleb128 0xe
 12250 004d 3A       		.uleb128 0x3a
 12251 004e 0B       		.uleb128 0xb
 12252 004f 3B       		.uleb128 0x3b
 12253 0050 05       		.uleb128 0x5
 12254 0051 49       		.uleb128 0x49
 12255 0052 13       		.uleb128 0x13
 12256 0053 00       		.byte	0
 12257 0054 00       		.byte	0
 12258 0055 08       		.uleb128 0x8
 12259 0056 17       		.uleb128 0x17
 12260 0057 01       		.byte	0x1
 12261 0058 0B       		.uleb128 0xb
 12262 0059 0B       		.uleb128 0xb
 12263 005a 3A       		.uleb128 0x3a
 12264 005b 0B       		.uleb128 0xb
 12265 005c 3B       		.uleb128 0x3b
 12266 005d 0B       		.uleb128 0xb
 12267 005e 01       		.uleb128 0x1
 12268 005f 13       		.uleb128 0x13
 12269 0060 00       		.byte	0
 12270 0061 00       		.byte	0
 12271 0062 09       		.uleb128 0x9
 12272 0063 0D       		.uleb128 0xd
 12273 0064 00       		.byte	0
 12274 0065 03       		.uleb128 0x3
 12275 0066 0E       		.uleb128 0xe
 12276 0067 3A       		.uleb128 0x3a
 12277 0068 0B       		.uleb128 0xb
 12278 0069 3B       		.uleb128 0x3b
 12279 006a 0B       		.uleb128 0xb
 12280 006b 49       		.uleb128 0x49
 12281 006c 13       		.uleb128 0x13
 12282 006d 00       		.byte	0
 12283 006e 00       		.byte	0
 12284 006f 0A       		.uleb128 0xa
 12285 0070 01       		.uleb128 0x1
 12286 0071 01       		.byte	0x1
 12287 0072 49       		.uleb128 0x49
 12288 0073 13       		.uleb128 0x13
 12289 0074 01       		.uleb128 0x1
 12290 0075 13       		.uleb128 0x13
 12291 0076 00       		.byte	0
 12292 0077 00       		.byte	0
 12293 0078 0B       		.uleb128 0xb
ARM GAS  C:\Users\stoma\AppData\Local\Temp\ccLygOki.s 			page 217


 12294 0079 21       		.uleb128 0x21
 12295 007a 00       		.byte	0
 12296 007b 49       		.uleb128 0x49
 12297 007c 13       		.uleb128 0x13
 12298 007d 2F       		.uleb128 0x2f
 12299 007e 0B       		.uleb128 0xb
 12300 007f 00       		.byte	0
 12301 0080 00       		.byte	0
 12302 0081 0C       		.uleb128 0xc
 12303 0082 13       		.uleb128 0x13
 12304 0083 01       		.byte	0x1
 12305 0084 0B       		.uleb128 0xb
 12306 0085 0B       		.uleb128 0xb
 12307 0086 3A       		.uleb128 0x3a
 12308 0087 0B       		.uleb128 0xb
 12309 0088 3B       		.uleb128 0x3b
 12310 0089 0B       		.uleb128 0xb
 12311 008a 01       		.uleb128 0x1
 12312 008b 13       		.uleb128 0x13
 12313 008c 00       		.byte	0
 12314 008d 00       		.byte	0
 12315 008e 0D       		.uleb128 0xd
 12316 008f 0D       		.uleb128 0xd
 12317 0090 00       		.byte	0
 12318 0091 03       		.uleb128 0x3
 12319 0092 0E       		.uleb128 0xe
 12320 0093 3A       		.uleb128 0x3a
 12321 0094 0B       		.uleb128 0xb
 12322 0095 3B       		.uleb128 0x3b
 12323 0096 0B       		.uleb128 0xb
 12324 0097 49       		.uleb128 0x49
 12325 0098 13       		.uleb128 0x13
 12326 0099 38       		.uleb128 0x38
 12327 009a 0B       		.uleb128 0xb
 12328 009b 00       		.byte	0
 12329 009c 00       		.byte	0
 12330 009d 0E       		.uleb128 0xe
 12331 009e 0F       		.uleb128 0xf
 12332 009f 00       		.byte	0
 12333 00a0 0B       		.uleb128 0xb
 12334 00a1 0B       		.uleb128 0xb
 12335 00a2 00       		.byte	0
 12336 00a3 00       		.byte	0
 12337 00a4 0F       		.uleb128 0xf
 12338 00a5 26       		.uleb128 0x26
 12339 00a6 00       		.byte	0
 12340 00a7 49       		.uleb128 0x49
 12341 00a8 13       		.uleb128 0x13
 12342 00a9 00       		.byte	0
 12343 00aa 00       		.byte	0
 12344 00ab 10       		.uleb128 0x10
 12345 00ac 13       		.uleb128 0x13
 12346 00ad 01       		.byte	0x1
 12347 00ae 03       		.uleb128 0x3
 12348 00af 0E       		.uleb128 0xe
 12349 00b0 0B       		.uleb128 0xb
 12350 00b1 0B       		.uleb128 0xb
ARM GAS  C:\Users\stoma\AppData\Local\Temp\ccLygOki.s 			page 218


 12351 00b2 3A       		.uleb128 0x3a
 12352 00b3 0B       		.uleb128 0xb
 12353 00b4 3B       		.uleb128 0x3b
 12354 00b5 0B       		.uleb128 0xb
 12355 00b6 01       		.uleb128 0x1
 12356 00b7 13       		.uleb128 0x13
 12357 00b8 00       		.byte	0
 12358 00b9 00       		.byte	0
 12359 00ba 11       		.uleb128 0x11
 12360 00bb 0D       		.uleb128 0xd
 12361 00bc 00       		.byte	0
 12362 00bd 03       		.uleb128 0x3
 12363 00be 08       		.uleb128 0x8
 12364 00bf 3A       		.uleb128 0x3a
 12365 00c0 0B       		.uleb128 0xb
 12366 00c1 3B       		.uleb128 0x3b
 12367 00c2 0B       		.uleb128 0xb
 12368 00c3 49       		.uleb128 0x49
 12369 00c4 13       		.uleb128 0x13
 12370 00c5 38       		.uleb128 0x38
 12371 00c6 0B       		.uleb128 0xb
 12372 00c7 00       		.byte	0
 12373 00c8 00       		.byte	0
 12374 00c9 12       		.uleb128 0x12
 12375 00ca 13       		.uleb128 0x13
 12376 00cb 01       		.byte	0x1
 12377 00cc 03       		.uleb128 0x3
 12378 00cd 0E       		.uleb128 0xe
 12379 00ce 0B       		.uleb128 0xb
 12380 00cf 05       		.uleb128 0x5
 12381 00d0 3A       		.uleb128 0x3a
 12382 00d1 0B       		.uleb128 0xb
 12383 00d2 3B       		.uleb128 0x3b
 12384 00d3 0B       		.uleb128 0xb
 12385 00d4 01       		.uleb128 0x1
 12386 00d5 13       		.uleb128 0x13
 12387 00d6 00       		.byte	0
 12388 00d7 00       		.byte	0
 12389 00d8 13       		.uleb128 0x13
 12390 00d9 0D       		.uleb128 0xd
 12391 00da 00       		.byte	0
 12392 00db 03       		.uleb128 0x3
 12393 00dc 0E       		.uleb128 0xe
 12394 00dd 3A       		.uleb128 0x3a
 12395 00de 0B       		.uleb128 0xb
 12396 00df 3B       		.uleb128 0x3b
 12397 00e0 0B       		.uleb128 0xb
 12398 00e1 49       		.uleb128 0x49
 12399 00e2 13       		.uleb128 0x13
 12400 00e3 38       		.uleb128 0x38
 12401 00e4 05       		.uleb128 0x5
 12402 00e5 00       		.byte	0
 12403 00e6 00       		.byte	0
 12404 00e7 14       		.uleb128 0x14
 12405 00e8 15       		.uleb128 0x15
 12406 00e9 00       		.byte	0
 12407 00ea 27       		.uleb128 0x27
ARM GAS  C:\Users\stoma\AppData\Local\Temp\ccLygOki.s 			page 219


 12408 00eb 19       		.uleb128 0x19
 12409 00ec 00       		.byte	0
 12410 00ed 00       		.byte	0
 12411 00ee 15       		.uleb128 0x15
 12412 00ef 15       		.uleb128 0x15
 12413 00f0 01       		.byte	0x1
 12414 00f1 27       		.uleb128 0x27
 12415 00f2 19       		.uleb128 0x19
 12416 00f3 49       		.uleb128 0x49
 12417 00f4 13       		.uleb128 0x13
 12418 00f5 01       		.uleb128 0x1
 12419 00f6 13       		.uleb128 0x13
 12420 00f7 00       		.byte	0
 12421 00f8 00       		.byte	0
 12422 00f9 16       		.uleb128 0x16
 12423 00fa 05       		.uleb128 0x5
 12424 00fb 00       		.byte	0
 12425 00fc 49       		.uleb128 0x49
 12426 00fd 13       		.uleb128 0x13
 12427 00fe 00       		.byte	0
 12428 00ff 00       		.byte	0
 12429 0100 17       		.uleb128 0x17
 12430 0101 13       		.uleb128 0x13
 12431 0102 01       		.byte	0x1
 12432 0103 03       		.uleb128 0x3
 12433 0104 0E       		.uleb128 0xe
 12434 0105 0B       		.uleb128 0xb
 12435 0106 05       		.uleb128 0x5
 12436 0107 3A       		.uleb128 0x3a
 12437 0108 0B       		.uleb128 0xb
 12438 0109 3B       		.uleb128 0x3b
 12439 010a 05       		.uleb128 0x5
 12440 010b 01       		.uleb128 0x1
 12441 010c 13       		.uleb128 0x13
 12442 010d 00       		.byte	0
 12443 010e 00       		.byte	0
 12444 010f 18       		.uleb128 0x18
 12445 0110 0D       		.uleb128 0xd
 12446 0111 00       		.byte	0
 12447 0112 03       		.uleb128 0x3
 12448 0113 0E       		.uleb128 0xe
 12449 0114 3A       		.uleb128 0x3a
 12450 0115 0B       		.uleb128 0xb
 12451 0116 3B       		.uleb128 0x3b
 12452 0117 05       		.uleb128 0x5
 12453 0118 49       		.uleb128 0x49
 12454 0119 13       		.uleb128 0x13
 12455 011a 38       		.uleb128 0x38
 12456 011b 0B       		.uleb128 0xb
 12457 011c 00       		.byte	0
 12458 011d 00       		.byte	0
 12459 011e 19       		.uleb128 0x19
 12460 011f 0D       		.uleb128 0xd
 12461 0120 00       		.byte	0
 12462 0121 03       		.uleb128 0x3
 12463 0122 0E       		.uleb128 0xe
 12464 0123 3A       		.uleb128 0x3a
ARM GAS  C:\Users\stoma\AppData\Local\Temp\ccLygOki.s 			page 220


 12465 0124 0B       		.uleb128 0xb
 12466 0125 3B       		.uleb128 0x3b
 12467 0126 05       		.uleb128 0x5
 12468 0127 49       		.uleb128 0x49
 12469 0128 13       		.uleb128 0x13
 12470 0129 38       		.uleb128 0x38
 12471 012a 05       		.uleb128 0x5
 12472 012b 00       		.byte	0
 12473 012c 00       		.byte	0
 12474 012d 1A       		.uleb128 0x1a
 12475 012e 35       		.uleb128 0x35
 12476 012f 00       		.byte	0
 12477 0130 49       		.uleb128 0x49
 12478 0131 13       		.uleb128 0x13
 12479 0132 00       		.byte	0
 12480 0133 00       		.byte	0
 12481 0134 1B       		.uleb128 0x1b
 12482 0135 13       		.uleb128 0x13
 12483 0136 01       		.byte	0x1
 12484 0137 03       		.uleb128 0x3
 12485 0138 0E       		.uleb128 0xe
 12486 0139 0B       		.uleb128 0xb
 12487 013a 0B       		.uleb128 0xb
 12488 013b 3A       		.uleb128 0x3a
 12489 013c 0B       		.uleb128 0xb
 12490 013d 3B       		.uleb128 0x3b
 12491 013e 05       		.uleb128 0x5
 12492 013f 01       		.uleb128 0x1
 12493 0140 13       		.uleb128 0x13
 12494 0141 00       		.byte	0
 12495 0142 00       		.byte	0
 12496 0143 1C       		.uleb128 0x1c
 12497 0144 13       		.uleb128 0x13
 12498 0145 01       		.byte	0x1
 12499 0146 0B       		.uleb128 0xb
 12500 0147 0B       		.uleb128 0xb
 12501 0148 3A       		.uleb128 0x3a
 12502 0149 0B       		.uleb128 0xb
 12503 014a 3B       		.uleb128 0x3b
 12504 014b 05       		.uleb128 0x5
 12505 014c 01       		.uleb128 0x1
 12506 014d 13       		.uleb128 0x13
 12507 014e 00       		.byte	0
 12508 014f 00       		.byte	0
 12509 0150 1D       		.uleb128 0x1d
 12510 0151 17       		.uleb128 0x17
 12511 0152 01       		.byte	0x1
 12512 0153 0B       		.uleb128 0xb
 12513 0154 0B       		.uleb128 0xb
 12514 0155 3A       		.uleb128 0x3a
 12515 0156 0B       		.uleb128 0xb
 12516 0157 3B       		.uleb128 0x3b
 12517 0158 05       		.uleb128 0x5
 12518 0159 01       		.uleb128 0x1
 12519 015a 13       		.uleb128 0x13
 12520 015b 00       		.byte	0
 12521 015c 00       		.byte	0
ARM GAS  C:\Users\stoma\AppData\Local\Temp\ccLygOki.s 			page 221


 12522 015d 1E       		.uleb128 0x1e
 12523 015e 0D       		.uleb128 0xd
 12524 015f 00       		.byte	0
 12525 0160 03       		.uleb128 0x3
 12526 0161 0E       		.uleb128 0xe
 12527 0162 3A       		.uleb128 0x3a
 12528 0163 0B       		.uleb128 0xb
 12529 0164 3B       		.uleb128 0x3b
 12530 0165 05       		.uleb128 0x5
 12531 0166 49       		.uleb128 0x49
 12532 0167 13       		.uleb128 0x13
 12533 0168 00       		.byte	0
 12534 0169 00       		.byte	0
 12535 016a 1F       		.uleb128 0x1f
 12536 016b 15       		.uleb128 0x15
 12537 016c 01       		.byte	0x1
 12538 016d 27       		.uleb128 0x27
 12539 016e 19       		.uleb128 0x19
 12540 016f 01       		.uleb128 0x1
 12541 0170 13       		.uleb128 0x13
 12542 0171 00       		.byte	0
 12543 0172 00       		.byte	0
 12544 0173 20       		.uleb128 0x20
 12545 0174 34       		.uleb128 0x34
 12546 0175 00       		.byte	0
 12547 0176 03       		.uleb128 0x3
 12548 0177 0E       		.uleb128 0xe
 12549 0178 3A       		.uleb128 0x3a
 12550 0179 0B       		.uleb128 0xb
 12551 017a 3B       		.uleb128 0x3b
 12552 017b 05       		.uleb128 0x5
 12553 017c 49       		.uleb128 0x49
 12554 017d 13       		.uleb128 0x13
 12555 017e 3F       		.uleb128 0x3f
 12556 017f 19       		.uleb128 0x19
 12557 0180 3C       		.uleb128 0x3c
 12558 0181 19       		.uleb128 0x19
 12559 0182 00       		.byte	0
 12560 0183 00       		.byte	0
 12561 0184 21       		.uleb128 0x21
 12562 0185 0D       		.uleb128 0xd
 12563 0186 00       		.byte	0
 12564 0187 03       		.uleb128 0x3
 12565 0188 08       		.uleb128 0x8
 12566 0189 3A       		.uleb128 0x3a
 12567 018a 0B       		.uleb128 0xb
 12568 018b 3B       		.uleb128 0x3b
 12569 018c 05       		.uleb128 0x5
 12570 018d 49       		.uleb128 0x49
 12571 018e 13       		.uleb128 0x13
 12572 018f 38       		.uleb128 0x38
 12573 0190 0B       		.uleb128 0xb
 12574 0191 00       		.byte	0
 12575 0192 00       		.byte	0
 12576 0193 22       		.uleb128 0x22
 12577 0194 0D       		.uleb128 0xd
 12578 0195 00       		.byte	0
ARM GAS  C:\Users\stoma\AppData\Local\Temp\ccLygOki.s 			page 222


 12579 0196 03       		.uleb128 0x3
 12580 0197 08       		.uleb128 0x8
 12581 0198 3A       		.uleb128 0x3a
 12582 0199 0B       		.uleb128 0xb
 12583 019a 3B       		.uleb128 0x3b
 12584 019b 05       		.uleb128 0x5
 12585 019c 49       		.uleb128 0x49
 12586 019d 13       		.uleb128 0x13
 12587 019e 38       		.uleb128 0x38
 12588 019f 05       		.uleb128 0x5
 12589 01a0 00       		.byte	0
 12590 01a1 00       		.byte	0
 12591 01a2 23       		.uleb128 0x23
 12592 01a3 34       		.uleb128 0x34
 12593 01a4 00       		.byte	0
 12594 01a5 03       		.uleb128 0x3
 12595 01a6 0E       		.uleb128 0xe
 12596 01a7 3A       		.uleb128 0x3a
 12597 01a8 0B       		.uleb128 0xb
 12598 01a9 3B       		.uleb128 0x3b
 12599 01aa 0B       		.uleb128 0xb
 12600 01ab 49       		.uleb128 0x49
 12601 01ac 13       		.uleb128 0x13
 12602 01ad 3F       		.uleb128 0x3f
 12603 01ae 19       		.uleb128 0x19
 12604 01af 3C       		.uleb128 0x3c
 12605 01b0 19       		.uleb128 0x19
 12606 01b1 00       		.byte	0
 12607 01b2 00       		.byte	0
 12608 01b3 24       		.uleb128 0x24
 12609 01b4 13       		.uleb128 0x13
 12610 01b5 01       		.byte	0x1
 12611 01b6 0B       		.uleb128 0xb
 12612 01b7 05       		.uleb128 0x5
 12613 01b8 3A       		.uleb128 0x3a
 12614 01b9 0B       		.uleb128 0xb
 12615 01ba 3B       		.uleb128 0x3b
 12616 01bb 0B       		.uleb128 0xb
 12617 01bc 01       		.uleb128 0x1
 12618 01bd 13       		.uleb128 0x13
 12619 01be 00       		.byte	0
 12620 01bf 00       		.byte	0
 12621 01c0 25       		.uleb128 0x25
 12622 01c1 34       		.uleb128 0x34
 12623 01c2 00       		.byte	0
 12624 01c3 03       		.uleb128 0x3
 12625 01c4 08       		.uleb128 0x8
 12626 01c5 3A       		.uleb128 0x3a
 12627 01c6 0B       		.uleb128 0xb
 12628 01c7 3B       		.uleb128 0x3b
 12629 01c8 05       		.uleb128 0x5
 12630 01c9 49       		.uleb128 0x49
 12631 01ca 13       		.uleb128 0x13
 12632 01cb 3F       		.uleb128 0x3f
 12633 01cc 19       		.uleb128 0x19
 12634 01cd 3C       		.uleb128 0x3c
 12635 01ce 19       		.uleb128 0x19
ARM GAS  C:\Users\stoma\AppData\Local\Temp\ccLygOki.s 			page 223


 12636 01cf 00       		.byte	0
 12637 01d0 00       		.byte	0
 12638 01d1 26       		.uleb128 0x26
 12639 01d2 04       		.uleb128 0x4
 12640 01d3 01       		.byte	0x1
 12641 01d4 3E       		.uleb128 0x3e
 12642 01d5 0B       		.uleb128 0xb
 12643 01d6 0B       		.uleb128 0xb
 12644 01d7 0B       		.uleb128 0xb
 12645 01d8 49       		.uleb128 0x49
 12646 01d9 13       		.uleb128 0x13
 12647 01da 3A       		.uleb128 0x3a
 12648 01db 0B       		.uleb128 0xb
 12649 01dc 3B       		.uleb128 0x3b
 12650 01dd 0B       		.uleb128 0xb
 12651 01de 01       		.uleb128 0x1
 12652 01df 13       		.uleb128 0x13
 12653 01e0 00       		.byte	0
 12654 01e1 00       		.byte	0
 12655 01e2 27       		.uleb128 0x27
 12656 01e3 28       		.uleb128 0x28
 12657 01e4 00       		.byte	0
 12658 01e5 03       		.uleb128 0x3
 12659 01e6 0E       		.uleb128 0xe
 12660 01e7 1C       		.uleb128 0x1c
 12661 01e8 0B       		.uleb128 0xb
 12662 01e9 00       		.byte	0
 12663 01ea 00       		.byte	0
 12664 01eb 28       		.uleb128 0x28
 12665 01ec 04       		.uleb128 0x4
 12666 01ed 01       		.byte	0x1
 12667 01ee 3E       		.uleb128 0x3e
 12668 01ef 0B       		.uleb128 0xb
 12669 01f0 0B       		.uleb128 0xb
 12670 01f1 0B       		.uleb128 0xb
 12671 01f2 49       		.uleb128 0x49
 12672 01f3 13       		.uleb128 0x13
 12673 01f4 3A       		.uleb128 0x3a
 12674 01f5 0B       		.uleb128 0xb
 12675 01f6 3B       		.uleb128 0x3b
 12676 01f7 05       		.uleb128 0x5
 12677 01f8 01       		.uleb128 0x1
 12678 01f9 13       		.uleb128 0x13
 12679 01fa 00       		.byte	0
 12680 01fb 00       		.byte	0
 12681 01fc 29       		.uleb128 0x29
 12682 01fd 13       		.uleb128 0x13
 12683 01fe 01       		.byte	0x1
 12684 01ff 0B       		.uleb128 0xb
 12685 0200 06       		.uleb128 0x6
 12686 0201 3A       		.uleb128 0x3a
 12687 0202 0B       		.uleb128 0xb
 12688 0203 3B       		.uleb128 0x3b
 12689 0204 0B       		.uleb128 0xb
 12690 0205 01       		.uleb128 0x1
 12691 0206 13       		.uleb128 0x13
 12692 0207 00       		.byte	0
ARM GAS  C:\Users\stoma\AppData\Local\Temp\ccLygOki.s 			page 224


 12693 0208 00       		.byte	0
 12694 0209 2A       		.uleb128 0x2a
 12695 020a 0D       		.uleb128 0xd
 12696 020b 00       		.byte	0
 12697 020c 03       		.uleb128 0x3
 12698 020d 08       		.uleb128 0x8
 12699 020e 3A       		.uleb128 0x3a
 12700 020f 0B       		.uleb128 0xb
 12701 0210 3B       		.uleb128 0x3b
 12702 0211 0B       		.uleb128 0xb
 12703 0212 49       		.uleb128 0x49
 12704 0213 13       		.uleb128 0x13
 12705 0214 38       		.uleb128 0x38
 12706 0215 05       		.uleb128 0x5
 12707 0216 00       		.byte	0
 12708 0217 00       		.byte	0
 12709 0218 2B       		.uleb128 0x2b
 12710 0219 21       		.uleb128 0x21
 12711 021a 00       		.byte	0
 12712 021b 49       		.uleb128 0x49
 12713 021c 13       		.uleb128 0x13
 12714 021d 2F       		.uleb128 0x2f
 12715 021e 05       		.uleb128 0x5
 12716 021f 00       		.byte	0
 12717 0220 00       		.byte	0
 12718 0221 2C       		.uleb128 0x2c
 12719 0222 34       		.uleb128 0x34
 12720 0223 00       		.byte	0
 12721 0224 47       		.uleb128 0x47
 12722 0225 13       		.uleb128 0x13
 12723 0226 3A       		.uleb128 0x3a
 12724 0227 0B       		.uleb128 0xb
 12725 0228 3B       		.uleb128 0x3b
 12726 0229 0B       		.uleb128 0xb
 12727 022a 02       		.uleb128 0x2
 12728 022b 18       		.uleb128 0x18
 12729 022c 00       		.byte	0
 12730 022d 00       		.byte	0
 12731 022e 2D       		.uleb128 0x2d
 12732 022f 0D       		.uleb128 0xd
 12733 0230 00       		.byte	0
 12734 0231 03       		.uleb128 0x3
 12735 0232 08       		.uleb128 0x8
 12736 0233 3A       		.uleb128 0x3a
 12737 0234 0B       		.uleb128 0xb
 12738 0235 3B       		.uleb128 0x3b
 12739 0236 0B       		.uleb128 0xb
 12740 0237 49       		.uleb128 0x49
 12741 0238 13       		.uleb128 0x13
 12742 0239 00       		.byte	0
 12743 023a 00       		.byte	0
 12744 023b 2E       		.uleb128 0x2e
 12745 023c 34       		.uleb128 0x34
 12746 023d 00       		.byte	0
 12747 023e 03       		.uleb128 0x3
 12748 023f 0E       		.uleb128 0xe
 12749 0240 3A       		.uleb128 0x3a
ARM GAS  C:\Users\stoma\AppData\Local\Temp\ccLygOki.s 			page 225


 12750 0241 0B       		.uleb128 0xb
 12751 0242 3B       		.uleb128 0x3b
 12752 0243 0B       		.uleb128 0xb
 12753 0244 49       		.uleb128 0x49
 12754 0245 13       		.uleb128 0x13
 12755 0246 02       		.uleb128 0x2
 12756 0247 18       		.uleb128 0x18
 12757 0248 00       		.byte	0
 12758 0249 00       		.byte	0
 12759 024a 2F       		.uleb128 0x2f
 12760 024b 2E       		.uleb128 0x2e
 12761 024c 01       		.byte	0x1
 12762 024d 3F       		.uleb128 0x3f
 12763 024e 19       		.uleb128 0x19
 12764 024f 03       		.uleb128 0x3
 12765 0250 0E       		.uleb128 0xe
 12766 0251 3A       		.uleb128 0x3a
 12767 0252 0B       		.uleb128 0xb
 12768 0253 3B       		.uleb128 0x3b
 12769 0254 05       		.uleb128 0x5
 12770 0255 27       		.uleb128 0x27
 12771 0256 19       		.uleb128 0x19
 12772 0257 11       		.uleb128 0x11
 12773 0258 01       		.uleb128 0x1
 12774 0259 12       		.uleb128 0x12
 12775 025a 06       		.uleb128 0x6
 12776 025b 40       		.uleb128 0x40
 12777 025c 18       		.uleb128 0x18
 12778 025d 9742     		.uleb128 0x2117
 12779 025f 19       		.uleb128 0x19
 12780 0260 01       		.uleb128 0x1
 12781 0261 13       		.uleb128 0x13
 12782 0262 00       		.byte	0
 12783 0263 00       		.byte	0
 12784 0264 30       		.uleb128 0x30
 12785 0265 05       		.uleb128 0x5
 12786 0266 00       		.byte	0
 12787 0267 03       		.uleb128 0x3
 12788 0268 08       		.uleb128 0x8
 12789 0269 3A       		.uleb128 0x3a
 12790 026a 0B       		.uleb128 0xb
 12791 026b 3B       		.uleb128 0x3b
 12792 026c 05       		.uleb128 0x5
 12793 026d 49       		.uleb128 0x49
 12794 026e 13       		.uleb128 0x13
 12795 026f 02       		.uleb128 0x2
 12796 0270 17       		.uleb128 0x17
 12797 0271 00       		.byte	0
 12798 0272 00       		.byte	0
 12799 0273 31       		.uleb128 0x31
 12800 0274 34       		.uleb128 0x34
 12801 0275 00       		.byte	0
 12802 0276 03       		.uleb128 0x3
 12803 0277 0E       		.uleb128 0xe
 12804 0278 3A       		.uleb128 0x3a
 12805 0279 0B       		.uleb128 0xb
 12806 027a 3B       		.uleb128 0x3b
ARM GAS  C:\Users\stoma\AppData\Local\Temp\ccLygOki.s 			page 226


 12807 027b 05       		.uleb128 0x5
 12808 027c 49       		.uleb128 0x49
 12809 027d 13       		.uleb128 0x13
 12810 027e 02       		.uleb128 0x2
 12811 027f 17       		.uleb128 0x17
 12812 0280 00       		.byte	0
 12813 0281 00       		.byte	0
 12814 0282 32       		.uleb128 0x32
 12815 0283 0B       		.uleb128 0xb
 12816 0284 01       		.byte	0x1
 12817 0285 11       		.uleb128 0x11
 12818 0286 01       		.uleb128 0x1
 12819 0287 12       		.uleb128 0x12
 12820 0288 06       		.uleb128 0x6
 12821 0289 01       		.uleb128 0x1
 12822 028a 13       		.uleb128 0x13
 12823 028b 00       		.byte	0
 12824 028c 00       		.byte	0
 12825 028d 33       		.uleb128 0x33
 12826 028e 34       		.uleb128 0x34
 12827 028f 00       		.byte	0
 12828 0290 03       		.uleb128 0x3
 12829 0291 08       		.uleb128 0x8
 12830 0292 3A       		.uleb128 0x3a
 12831 0293 0B       		.uleb128 0xb
 12832 0294 3B       		.uleb128 0x3b
 12833 0295 05       		.uleb128 0x5
 12834 0296 49       		.uleb128 0x49
 12835 0297 13       		.uleb128 0x13
 12836 0298 02       		.uleb128 0x2
 12837 0299 17       		.uleb128 0x17
 12838 029a 00       		.byte	0
 12839 029b 00       		.byte	0
 12840 029c 34       		.uleb128 0x34
 12841 029d 34       		.uleb128 0x34
 12842 029e 00       		.byte	0
 12843 029f 03       		.uleb128 0x3
 12844 02a0 0E       		.uleb128 0xe
 12845 02a1 3A       		.uleb128 0x3a
 12846 02a2 0B       		.uleb128 0xb
 12847 02a3 3B       		.uleb128 0x3b
 12848 02a4 05       		.uleb128 0x5
 12849 02a5 49       		.uleb128 0x49
 12850 02a6 13       		.uleb128 0x13
 12851 02a7 00       		.byte	0
 12852 02a8 00       		.byte	0
 12853 02a9 35       		.uleb128 0x35
 12854 02aa 1D       		.uleb128 0x1d
 12855 02ab 01       		.byte	0x1
 12856 02ac 31       		.uleb128 0x31
 12857 02ad 13       		.uleb128 0x13
 12858 02ae 11       		.uleb128 0x11
 12859 02af 01       		.uleb128 0x1
 12860 02b0 12       		.uleb128 0x12
 12861 02b1 06       		.uleb128 0x6
 12862 02b2 58       		.uleb128 0x58
 12863 02b3 0B       		.uleb128 0xb
ARM GAS  C:\Users\stoma\AppData\Local\Temp\ccLygOki.s 			page 227


 12864 02b4 59       		.uleb128 0x59
 12865 02b5 05       		.uleb128 0x5
 12866 02b6 01       		.uleb128 0x1
 12867 02b7 13       		.uleb128 0x13
 12868 02b8 00       		.byte	0
 12869 02b9 00       		.byte	0
 12870 02ba 36       		.uleb128 0x36
 12871 02bb 1D       		.uleb128 0x1d
 12872 02bc 01       		.byte	0x1
 12873 02bd 31       		.uleb128 0x31
 12874 02be 13       		.uleb128 0x13
 12875 02bf 11       		.uleb128 0x11
 12876 02c0 01       		.uleb128 0x1
 12877 02c1 12       		.uleb128 0x12
 12878 02c2 06       		.uleb128 0x6
 12879 02c3 58       		.uleb128 0x58
 12880 02c4 0B       		.uleb128 0xb
 12881 02c5 59       		.uleb128 0x59
 12882 02c6 05       		.uleb128 0x5
 12883 02c7 00       		.byte	0
 12884 02c8 00       		.byte	0
 12885 02c9 37       		.uleb128 0x37
 12886 02ca 05       		.uleb128 0x5
 12887 02cb 00       		.byte	0
 12888 02cc 31       		.uleb128 0x31
 12889 02cd 13       		.uleb128 0x13
 12890 02ce 02       		.uleb128 0x2
 12891 02cf 17       		.uleb128 0x17
 12892 02d0 00       		.byte	0
 12893 02d1 00       		.byte	0
 12894 02d2 38       		.uleb128 0x38
 12895 02d3 898201   		.uleb128 0x4109
 12896 02d6 00       		.byte	0
 12897 02d7 11       		.uleb128 0x11
 12898 02d8 01       		.uleb128 0x1
 12899 02d9 31       		.uleb128 0x31
 12900 02da 13       		.uleb128 0x13
 12901 02db 00       		.byte	0
 12902 02dc 00       		.byte	0
 12903 02dd 39       		.uleb128 0x39
 12904 02de 0B       		.uleb128 0xb
 12905 02df 01       		.byte	0x1
 12906 02e0 11       		.uleb128 0x11
 12907 02e1 01       		.uleb128 0x1
 12908 02e2 12       		.uleb128 0x12
 12909 02e3 06       		.uleb128 0x6
 12910 02e4 00       		.byte	0
 12911 02e5 00       		.byte	0
 12912 02e6 3A       		.uleb128 0x3a
 12913 02e7 34       		.uleb128 0x34
 12914 02e8 00       		.byte	0
 12915 02e9 31       		.uleb128 0x31
 12916 02ea 13       		.uleb128 0x13
 12917 02eb 00       		.byte	0
 12918 02ec 00       		.byte	0
 12919 02ed 3B       		.uleb128 0x3b
 12920 02ee 898201   		.uleb128 0x4109
ARM GAS  C:\Users\stoma\AppData\Local\Temp\ccLygOki.s 			page 228


 12921 02f1 01       		.byte	0x1
 12922 02f2 11       		.uleb128 0x11
 12923 02f3 01       		.uleb128 0x1
 12924 02f4 31       		.uleb128 0x31
 12925 02f5 13       		.uleb128 0x13
 12926 02f6 00       		.byte	0
 12927 02f7 00       		.byte	0
 12928 02f8 3C       		.uleb128 0x3c
 12929 02f9 8A8201   		.uleb128 0x410a
 12930 02fc 00       		.byte	0
 12931 02fd 02       		.uleb128 0x2
 12932 02fe 18       		.uleb128 0x18
 12933 02ff 9142     		.uleb128 0x2111
 12934 0301 18       		.uleb128 0x18
 12935 0302 00       		.byte	0
 12936 0303 00       		.byte	0
 12937 0304 3D       		.uleb128 0x3d
 12938 0305 1D       		.uleb128 0x1d
 12939 0306 01       		.byte	0x1
 12940 0307 31       		.uleb128 0x31
 12941 0308 13       		.uleb128 0x13
 12942 0309 52       		.uleb128 0x52
 12943 030a 01       		.uleb128 0x1
 12944 030b 55       		.uleb128 0x55
 12945 030c 17       		.uleb128 0x17
 12946 030d 58       		.uleb128 0x58
 12947 030e 0B       		.uleb128 0xb
 12948 030f 59       		.uleb128 0x59
 12949 0310 05       		.uleb128 0x5
 12950 0311 01       		.uleb128 0x1
 12951 0312 13       		.uleb128 0x13
 12952 0313 00       		.byte	0
 12953 0314 00       		.byte	0
 12954 0315 3E       		.uleb128 0x3e
 12955 0316 05       		.uleb128 0x5
 12956 0317 00       		.byte	0
 12957 0318 31       		.uleb128 0x31
 12958 0319 13       		.uleb128 0x13
 12959 031a 00       		.byte	0
 12960 031b 00       		.byte	0
 12961 031c 3F       		.uleb128 0x3f
 12962 031d 0B       		.uleb128 0xb
 12963 031e 01       		.byte	0x1
 12964 031f 31       		.uleb128 0x31
 12965 0320 13       		.uleb128 0x13
 12966 0321 55       		.uleb128 0x55
 12967 0322 17       		.uleb128 0x17
 12968 0323 00       		.byte	0
 12969 0324 00       		.byte	0
 12970 0325 40       		.uleb128 0x40
 12971 0326 34       		.uleb128 0x34
 12972 0327 00       		.byte	0
 12973 0328 31       		.uleb128 0x31
 12974 0329 13       		.uleb128 0x13
 12975 032a 02       		.uleb128 0x2
 12976 032b 17       		.uleb128 0x17
 12977 032c 00       		.byte	0
ARM GAS  C:\Users\stoma\AppData\Local\Temp\ccLygOki.s 			page 229


 12978 032d 00       		.byte	0
 12979 032e 41       		.uleb128 0x41
 12980 032f 0B       		.uleb128 0xb
 12981 0330 01       		.byte	0x1
 12982 0331 55       		.uleb128 0x55
 12983 0332 17       		.uleb128 0x17
 12984 0333 00       		.byte	0
 12985 0334 00       		.byte	0
 12986 0335 42       		.uleb128 0x42
 12987 0336 0B       		.uleb128 0xb
 12988 0337 01       		.byte	0x1
 12989 0338 31       		.uleb128 0x31
 12990 0339 13       		.uleb128 0x13
 12991 033a 55       		.uleb128 0x55
 12992 033b 17       		.uleb128 0x17
 12993 033c 01       		.uleb128 0x1
 12994 033d 13       		.uleb128 0x13
 12995 033e 00       		.byte	0
 12996 033f 00       		.byte	0
 12997 0340 43       		.uleb128 0x43
 12998 0341 1D       		.uleb128 0x1d
 12999 0342 01       		.byte	0x1
 13000 0343 31       		.uleb128 0x31
 13001 0344 13       		.uleb128 0x13
 13002 0345 52       		.uleb128 0x52
 13003 0346 01       		.uleb128 0x1
 13004 0347 55       		.uleb128 0x55
 13005 0348 17       		.uleb128 0x17
 13006 0349 58       		.uleb128 0x58
 13007 034a 0B       		.uleb128 0xb
 13008 034b 59       		.uleb128 0x59
 13009 034c 05       		.uleb128 0x5
 13010 034d 00       		.byte	0
 13011 034e 00       		.byte	0
 13012 034f 44       		.uleb128 0x44
 13013 0350 0B       		.uleb128 0xb
 13014 0351 01       		.byte	0x1
 13015 0352 31       		.uleb128 0x31
 13016 0353 13       		.uleb128 0x13
 13017 0354 11       		.uleb128 0x11
 13018 0355 01       		.uleb128 0x1
 13019 0356 12       		.uleb128 0x12
 13020 0357 06       		.uleb128 0x6
 13021 0358 01       		.uleb128 0x1
 13022 0359 13       		.uleb128 0x13
 13023 035a 00       		.byte	0
 13024 035b 00       		.byte	0
 13025 035c 45       		.uleb128 0x45
 13026 035d 0B       		.uleb128 0xb
 13027 035e 01       		.byte	0x1
 13028 035f 31       		.uleb128 0x31
 13029 0360 13       		.uleb128 0x13
 13030 0361 11       		.uleb128 0x11
 13031 0362 01       		.uleb128 0x1
 13032 0363 12       		.uleb128 0x12
 13033 0364 06       		.uleb128 0x6
 13034 0365 00       		.byte	0
ARM GAS  C:\Users\stoma\AppData\Local\Temp\ccLygOki.s 			page 230


 13035 0366 00       		.byte	0
 13036 0367 46       		.uleb128 0x46
 13037 0368 05       		.uleb128 0x5
 13038 0369 00       		.byte	0
 13039 036a 03       		.uleb128 0x3
 13040 036b 0E       		.uleb128 0xe
 13041 036c 3A       		.uleb128 0x3a
 13042 036d 0B       		.uleb128 0xb
 13043 036e 3B       		.uleb128 0x3b
 13044 036f 05       		.uleb128 0x5
 13045 0370 49       		.uleb128 0x49
 13046 0371 13       		.uleb128 0x13
 13047 0372 02       		.uleb128 0x2
 13048 0373 18       		.uleb128 0x18
 13049 0374 00       		.byte	0
 13050 0375 00       		.byte	0
 13051 0376 47       		.uleb128 0x47
 13052 0377 2E       		.uleb128 0x2e
 13053 0378 01       		.byte	0x1
 13054 0379 3F       		.uleb128 0x3f
 13055 037a 19       		.uleb128 0x19
 13056 037b 03       		.uleb128 0x3
 13057 037c 0E       		.uleb128 0xe
 13058 037d 3A       		.uleb128 0x3a
 13059 037e 0B       		.uleb128 0xb
 13060 037f 3B       		.uleb128 0x3b
 13061 0380 05       		.uleb128 0x5
 13062 0381 27       		.uleb128 0x27
 13063 0382 19       		.uleb128 0x19
 13064 0383 20       		.uleb128 0x20
 13065 0384 0B       		.uleb128 0xb
 13066 0385 01       		.uleb128 0x1
 13067 0386 13       		.uleb128 0x13
 13068 0387 00       		.byte	0
 13069 0388 00       		.byte	0
 13070 0389 48       		.uleb128 0x48
 13071 038a 05       		.uleb128 0x5
 13072 038b 00       		.byte	0
 13073 038c 03       		.uleb128 0x3
 13074 038d 0E       		.uleb128 0xe
 13075 038e 3A       		.uleb128 0x3a
 13076 038f 0B       		.uleb128 0xb
 13077 0390 3B       		.uleb128 0x3b
 13078 0391 05       		.uleb128 0x5
 13079 0392 49       		.uleb128 0x49
 13080 0393 13       		.uleb128 0x13
 13081 0394 00       		.byte	0
 13082 0395 00       		.byte	0
 13083 0396 49       		.uleb128 0x49
 13084 0397 05       		.uleb128 0x5
 13085 0398 00       		.byte	0
 13086 0399 03       		.uleb128 0x3
 13087 039a 08       		.uleb128 0x8
 13088 039b 3A       		.uleb128 0x3a
 13089 039c 0B       		.uleb128 0xb
 13090 039d 3B       		.uleb128 0x3b
 13091 039e 05       		.uleb128 0x5
ARM GAS  C:\Users\stoma\AppData\Local\Temp\ccLygOki.s 			page 231


 13092 039f 49       		.uleb128 0x49
 13093 03a0 13       		.uleb128 0x13
 13094 03a1 00       		.byte	0
 13095 03a2 00       		.byte	0
 13096 03a3 4A       		.uleb128 0x4a
 13097 03a4 05       		.uleb128 0x5
 13098 03a5 00       		.byte	0
 13099 03a6 03       		.uleb128 0x3
 13100 03a7 0E       		.uleb128 0xe
 13101 03a8 3A       		.uleb128 0x3a
 13102 03a9 0B       		.uleb128 0xb
 13103 03aa 3B       		.uleb128 0x3b
 13104 03ab 05       		.uleb128 0x5
 13105 03ac 49       		.uleb128 0x49
 13106 03ad 13       		.uleb128 0x13
 13107 03ae 02       		.uleb128 0x2
 13108 03af 17       		.uleb128 0x17
 13109 03b0 00       		.byte	0
 13110 03b1 00       		.byte	0
 13111 03b2 4B       		.uleb128 0x4b
 13112 03b3 05       		.uleb128 0x5
 13113 03b4 00       		.byte	0
 13114 03b5 03       		.uleb128 0x3
 13115 03b6 08       		.uleb128 0x8
 13116 03b7 3A       		.uleb128 0x3a
 13117 03b8 0B       		.uleb128 0xb
 13118 03b9 3B       		.uleb128 0x3b
 13119 03ba 05       		.uleb128 0x5
 13120 03bb 49       		.uleb128 0x49
 13121 03bc 13       		.uleb128 0x13
 13122 03bd 02       		.uleb128 0x2
 13123 03be 18       		.uleb128 0x18
 13124 03bf 00       		.byte	0
 13125 03c0 00       		.byte	0
 13126 03c1 4C       		.uleb128 0x4c
 13127 03c2 2E       		.uleb128 0x2e
 13128 03c3 01       		.byte	0x1
 13129 03c4 3F       		.uleb128 0x3f
 13130 03c5 19       		.uleb128 0x19
 13131 03c6 03       		.uleb128 0x3
 13132 03c7 0E       		.uleb128 0xe
 13133 03c8 3A       		.uleb128 0x3a
 13134 03c9 0B       		.uleb128 0xb
 13135 03ca 3B       		.uleb128 0x3b
 13136 03cb 05       		.uleb128 0x5
 13137 03cc 27       		.uleb128 0x27
 13138 03cd 19       		.uleb128 0x19
 13139 03ce 49       		.uleb128 0x49
 13140 03cf 13       		.uleb128 0x13
 13141 03d0 11       		.uleb128 0x11
 13142 03d1 01       		.uleb128 0x1
 13143 03d2 12       		.uleb128 0x12
 13144 03d3 06       		.uleb128 0x6
 13145 03d4 40       		.uleb128 0x40
 13146 03d5 18       		.uleb128 0x18
 13147 03d6 9742     		.uleb128 0x2117
 13148 03d8 19       		.uleb128 0x19
ARM GAS  C:\Users\stoma\AppData\Local\Temp\ccLygOki.s 			page 232


 13149 03d9 01       		.uleb128 0x1
 13150 03da 13       		.uleb128 0x13
 13151 03db 00       		.byte	0
 13152 03dc 00       		.byte	0
 13153 03dd 4D       		.uleb128 0x4d
 13154 03de 34       		.uleb128 0x34
 13155 03df 00       		.byte	0
 13156 03e0 03       		.uleb128 0x3
 13157 03e1 08       		.uleb128 0x8
 13158 03e2 3A       		.uleb128 0x3a
 13159 03e3 0B       		.uleb128 0xb
 13160 03e4 3B       		.uleb128 0x3b
 13161 03e5 05       		.uleb128 0x5
 13162 03e6 49       		.uleb128 0x49
 13163 03e7 13       		.uleb128 0x13
 13164 03e8 02       		.uleb128 0x2
 13165 03e9 18       		.uleb128 0x18
 13166 03ea 00       		.byte	0
 13167 03eb 00       		.byte	0
 13168 03ec 4E       		.uleb128 0x4e
 13169 03ed 898201   		.uleb128 0x4109
 13170 03f0 01       		.byte	0x1
 13171 03f1 11       		.uleb128 0x11
 13172 03f2 01       		.uleb128 0x1
 13173 03f3 9542     		.uleb128 0x2115
 13174 03f5 19       		.uleb128 0x19
 13175 03f6 31       		.uleb128 0x31
 13176 03f7 13       		.uleb128 0x13
 13177 03f8 00       		.byte	0
 13178 03f9 00       		.byte	0
 13179 03fa 4F       		.uleb128 0x4f
 13180 03fb 8A8201   		.uleb128 0x410a
 13181 03fe 00       		.byte	0
 13182 03ff 31       		.uleb128 0x31
 13183 0400 13       		.uleb128 0x13
 13184 0401 9142     		.uleb128 0x2111
 13185 0403 18       		.uleb128 0x18
 13186 0404 00       		.byte	0
 13187 0405 00       		.byte	0
 13188 0406 50       		.uleb128 0x50
 13189 0407 1D       		.uleb128 0x1d
 13190 0408 01       		.byte	0x1
 13191 0409 31       		.uleb128 0x31
 13192 040a 13       		.uleb128 0x13
 13193 040b 11       		.uleb128 0x11
 13194 040c 01       		.uleb128 0x1
 13195 040d 12       		.uleb128 0x12
 13196 040e 06       		.uleb128 0x6
 13197 040f 58       		.uleb128 0x58
 13198 0410 0B       		.uleb128 0xb
 13199 0411 59       		.uleb128 0x59
 13200 0412 0B       		.uleb128 0xb
 13201 0413 00       		.byte	0
 13202 0414 00       		.byte	0
 13203 0415 51       		.uleb128 0x51
 13204 0416 34       		.uleb128 0x34
 13205 0417 00       		.byte	0
ARM GAS  C:\Users\stoma\AppData\Local\Temp\ccLygOki.s 			page 233


 13206 0418 03       		.uleb128 0x3
 13207 0419 0E       		.uleb128 0xe
 13208 041a 3A       		.uleb128 0x3a
 13209 041b 0B       		.uleb128 0xb
 13210 041c 3B       		.uleb128 0x3b
 13211 041d 05       		.uleb128 0x5
 13212 041e 49       		.uleb128 0x49
 13213 041f 13       		.uleb128 0x13
 13214 0420 02       		.uleb128 0x2
 13215 0421 18       		.uleb128 0x18
 13216 0422 00       		.byte	0
 13217 0423 00       		.byte	0
 13218 0424 52       		.uleb128 0x52
 13219 0425 898201   		.uleb128 0x4109
 13220 0428 01       		.byte	0x1
 13221 0429 11       		.uleb128 0x11
 13222 042a 01       		.uleb128 0x1
 13223 042b 31       		.uleb128 0x31
 13224 042c 13       		.uleb128 0x13
 13225 042d 01       		.uleb128 0x1
 13226 042e 13       		.uleb128 0x13
 13227 042f 00       		.byte	0
 13228 0430 00       		.byte	0
 13229 0431 53       		.uleb128 0x53
 13230 0432 1D       		.uleb128 0x1d
 13231 0433 01       		.byte	0x1
 13232 0434 31       		.uleb128 0x31
 13233 0435 13       		.uleb128 0x13
 13234 0436 52       		.uleb128 0x52
 13235 0437 01       		.uleb128 0x1
 13236 0438 55       		.uleb128 0x55
 13237 0439 17       		.uleb128 0x17
 13238 043a 58       		.uleb128 0x58
 13239 043b 0B       		.uleb128 0xb
 13240 043c 59       		.uleb128 0x59
 13241 043d 0B       		.uleb128 0xb
 13242 043e 01       		.uleb128 0x1
 13243 043f 13       		.uleb128 0x13
 13244 0440 00       		.byte	0
 13245 0441 00       		.byte	0
 13246 0442 54       		.uleb128 0x54
 13247 0443 0B       		.uleb128 0xb
 13248 0444 01       		.byte	0x1
 13249 0445 55       		.uleb128 0x55
 13250 0446 17       		.uleb128 0x17
 13251 0447 01       		.uleb128 0x1
 13252 0448 13       		.uleb128 0x13
 13253 0449 00       		.byte	0
 13254 044a 00       		.byte	0
 13255 044b 55       		.uleb128 0x55
 13256 044c 898201   		.uleb128 0x4109
 13257 044f 01       		.byte	0x1
 13258 0450 11       		.uleb128 0x11
 13259 0451 01       		.uleb128 0x1
 13260 0452 01       		.uleb128 0x1
 13261 0453 13       		.uleb128 0x13
 13262 0454 00       		.byte	0
ARM GAS  C:\Users\stoma\AppData\Local\Temp\ccLygOki.s 			page 234


 13263 0455 00       		.byte	0
 13264 0456 56       		.uleb128 0x56
 13265 0457 898201   		.uleb128 0x4109
 13266 045a 00       		.byte	0
 13267 045b 11       		.uleb128 0x11
 13268 045c 01       		.uleb128 0x1
 13269 045d 9542     		.uleb128 0x2115
 13270 045f 19       		.uleb128 0x19
 13271 0460 31       		.uleb128 0x31
 13272 0461 13       		.uleb128 0x13
 13273 0462 00       		.byte	0
 13274 0463 00       		.byte	0
 13275 0464 57       		.uleb128 0x57
 13276 0465 2E       		.uleb128 0x2e
 13277 0466 01       		.byte	0x1
 13278 0467 03       		.uleb128 0x3
 13279 0468 0E       		.uleb128 0xe
 13280 0469 3A       		.uleb128 0x3a
 13281 046a 0B       		.uleb128 0xb
 13282 046b 3B       		.uleb128 0x3b
 13283 046c 05       		.uleb128 0x5
 13284 046d 27       		.uleb128 0x27
 13285 046e 19       		.uleb128 0x19
 13286 046f 20       		.uleb128 0x20
 13287 0470 0B       		.uleb128 0xb
 13288 0471 01       		.uleb128 0x1
 13289 0472 13       		.uleb128 0x13
 13290 0473 00       		.byte	0
 13291 0474 00       		.byte	0
 13292 0475 58       		.uleb128 0x58
 13293 0476 34       		.uleb128 0x34
 13294 0477 00       		.byte	0
 13295 0478 03       		.uleb128 0x3
 13296 0479 08       		.uleb128 0x8
 13297 047a 3A       		.uleb128 0x3a
 13298 047b 0B       		.uleb128 0xb
 13299 047c 3B       		.uleb128 0x3b
 13300 047d 05       		.uleb128 0x5
 13301 047e 49       		.uleb128 0x49
 13302 047f 13       		.uleb128 0x13
 13303 0480 00       		.byte	0
 13304 0481 00       		.byte	0
 13305 0482 59       		.uleb128 0x59
 13306 0483 0B       		.uleb128 0xb
 13307 0484 01       		.byte	0x1
 13308 0485 00       		.byte	0
 13309 0486 00       		.byte	0
 13310 0487 5A       		.uleb128 0x5a
 13311 0488 2E       		.uleb128 0x2e
 13312 0489 01       		.byte	0x1
 13313 048a 03       		.uleb128 0x3
 13314 048b 0E       		.uleb128 0xe
 13315 048c 3A       		.uleb128 0x3a
 13316 048d 0B       		.uleb128 0xb
 13317 048e 3B       		.uleb128 0x3b
 13318 048f 05       		.uleb128 0x5
 13319 0490 27       		.uleb128 0x27
ARM GAS  C:\Users\stoma\AppData\Local\Temp\ccLygOki.s 			page 235


 13320 0491 19       		.uleb128 0x19
 13321 0492 49       		.uleb128 0x49
 13322 0493 13       		.uleb128 0x13
 13323 0494 20       		.uleb128 0x20
 13324 0495 0B       		.uleb128 0xb
 13325 0496 01       		.uleb128 0x1
 13326 0497 13       		.uleb128 0x13
 13327 0498 00       		.byte	0
 13328 0499 00       		.byte	0
 13329 049a 5B       		.uleb128 0x5b
 13330 049b 2E       		.uleb128 0x2e
 13331 049c 01       		.byte	0x1
 13332 049d 03       		.uleb128 0x3
 13333 049e 0E       		.uleb128 0xe
 13334 049f 3A       		.uleb128 0x3a
 13335 04a0 0B       		.uleb128 0xb
 13336 04a1 3B       		.uleb128 0x3b
 13337 04a2 0B       		.uleb128 0xb
 13338 04a3 27       		.uleb128 0x27
 13339 04a4 19       		.uleb128 0x19
 13340 04a5 20       		.uleb128 0x20
 13341 04a6 0B       		.uleb128 0xb
 13342 04a7 01       		.uleb128 0x1
 13343 04a8 13       		.uleb128 0x13
 13344 04a9 00       		.byte	0
 13345 04aa 00       		.byte	0
 13346 04ab 5C       		.uleb128 0x5c
 13347 04ac 05       		.uleb128 0x5
 13348 04ad 00       		.byte	0
 13349 04ae 03       		.uleb128 0x3
 13350 04af 0E       		.uleb128 0xe
 13351 04b0 3A       		.uleb128 0x3a
 13352 04b1 0B       		.uleb128 0xb
 13353 04b2 3B       		.uleb128 0x3b
 13354 04b3 0B       		.uleb128 0xb
 13355 04b4 49       		.uleb128 0x49
 13356 04b5 13       		.uleb128 0x13
 13357 04b6 00       		.byte	0
 13358 04b7 00       		.byte	0
 13359 04b8 5D       		.uleb128 0x5d
 13360 04b9 05       		.uleb128 0x5
 13361 04ba 00       		.byte	0
 13362 04bb 03       		.uleb128 0x3
 13363 04bc 08       		.uleb128 0x8
 13364 04bd 3A       		.uleb128 0x3a
 13365 04be 0B       		.uleb128 0xb
 13366 04bf 3B       		.uleb128 0x3b
 13367 04c0 0B       		.uleb128 0xb
 13368 04c1 49       		.uleb128 0x49
 13369 04c2 13       		.uleb128 0x13
 13370 04c3 00       		.byte	0
 13371 04c4 00       		.byte	0
 13372 04c5 5E       		.uleb128 0x5e
 13373 04c6 2E       		.uleb128 0x2e
 13374 04c7 01       		.byte	0x1
 13375 04c8 03       		.uleb128 0x3
 13376 04c9 0E       		.uleb128 0xe
ARM GAS  C:\Users\stoma\AppData\Local\Temp\ccLygOki.s 			page 236


 13377 04ca 3A       		.uleb128 0x3a
 13378 04cb 0B       		.uleb128 0xb
 13379 04cc 3B       		.uleb128 0x3b
 13380 04cd 0B       		.uleb128 0xb
 13381 04ce 27       		.uleb128 0x27
 13382 04cf 19       		.uleb128 0x19
 13383 04d0 49       		.uleb128 0x49
 13384 04d1 13       		.uleb128 0x13
 13385 04d2 20       		.uleb128 0x20
 13386 04d3 0B       		.uleb128 0xb
 13387 04d4 01       		.uleb128 0x1
 13388 04d5 13       		.uleb128 0x13
 13389 04d6 00       		.byte	0
 13390 04d7 00       		.byte	0
 13391 04d8 5F       		.uleb128 0x5f
 13392 04d9 34       		.uleb128 0x34
 13393 04da 00       		.byte	0
 13394 04db 03       		.uleb128 0x3
 13395 04dc 0E       		.uleb128 0xe
 13396 04dd 3A       		.uleb128 0x3a
 13397 04de 0B       		.uleb128 0xb
 13398 04df 3B       		.uleb128 0x3b
 13399 04e0 0B       		.uleb128 0xb
 13400 04e1 49       		.uleb128 0x49
 13401 04e2 13       		.uleb128 0x13
 13402 04e3 00       		.byte	0
 13403 04e4 00       		.byte	0
 13404 04e5 60       		.uleb128 0x60
 13405 04e6 34       		.uleb128 0x34
 13406 04e7 00       		.byte	0
 13407 04e8 03       		.uleb128 0x3
 13408 04e9 0E       		.uleb128 0xe
 13409 04ea 49       		.uleb128 0x49
 13410 04eb 13       		.uleb128 0x13
 13411 04ec 34       		.uleb128 0x34
 13412 04ed 19       		.uleb128 0x19
 13413 04ee 1C       		.uleb128 0x1c
 13414 04ef 0E       		.uleb128 0xe
 13415 04f0 00       		.byte	0
 13416 04f1 00       		.byte	0
 13417 04f2 61       		.uleb128 0x61
 13418 04f3 34       		.uleb128 0x34
 13419 04f4 00       		.byte	0
 13420 04f5 03       		.uleb128 0x3
 13421 04f6 08       		.uleb128 0x8
 13422 04f7 3A       		.uleb128 0x3a
 13423 04f8 0B       		.uleb128 0xb
 13424 04f9 3B       		.uleb128 0x3b
 13425 04fa 0B       		.uleb128 0xb
 13426 04fb 49       		.uleb128 0x49
 13427 04fc 13       		.uleb128 0x13
 13428 04fd 00       		.byte	0
 13429 04fe 00       		.byte	0
 13430 04ff 62       		.uleb128 0x62
 13431 0500 2E       		.uleb128 0x2e
 13432 0501 00       		.byte	0
 13433 0502 03       		.uleb128 0x3
ARM GAS  C:\Users\stoma\AppData\Local\Temp\ccLygOki.s 			page 237


 13434 0503 0E       		.uleb128 0xe
 13435 0504 3A       		.uleb128 0x3a
 13436 0505 0B       		.uleb128 0xb
 13437 0506 3B       		.uleb128 0x3b
 13438 0507 05       		.uleb128 0x5
 13439 0508 27       		.uleb128 0x27
 13440 0509 19       		.uleb128 0x19
 13441 050a 20       		.uleb128 0x20
 13442 050b 0B       		.uleb128 0xb
 13443 050c 00       		.byte	0
 13444 050d 00       		.byte	0
 13445 050e 63       		.uleb128 0x63
 13446 050f 2E       		.uleb128 0x2e
 13447 0510 01       		.byte	0x1
 13448 0511 31       		.uleb128 0x31
 13449 0512 13       		.uleb128 0x13
 13450 0513 11       		.uleb128 0x11
 13451 0514 01       		.uleb128 0x1
 13452 0515 12       		.uleb128 0x12
 13453 0516 06       		.uleb128 0x6
 13454 0517 40       		.uleb128 0x40
 13455 0518 18       		.uleb128 0x18
 13456 0519 9742     		.uleb128 0x2117
 13457 051b 19       		.uleb128 0x19
 13458 051c 01       		.uleb128 0x1
 13459 051d 13       		.uleb128 0x13
 13460 051e 00       		.byte	0
 13461 051f 00       		.byte	0
 13462 0520 64       		.uleb128 0x64
 13463 0521 05       		.uleb128 0x5
 13464 0522 00       		.byte	0
 13465 0523 31       		.uleb128 0x31
 13466 0524 13       		.uleb128 0x13
 13467 0525 02       		.uleb128 0x2
 13468 0526 18       		.uleb128 0x18
 13469 0527 00       		.byte	0
 13470 0528 00       		.byte	0
 13471 0529 65       		.uleb128 0x65
 13472 052a 898201   		.uleb128 0x4109
 13473 052d 01       		.byte	0x1
 13474 052e 11       		.uleb128 0x11
 13475 052f 01       		.uleb128 0x1
 13476 0530 9542     		.uleb128 0x2115
 13477 0532 19       		.uleb128 0x19
 13478 0533 01       		.uleb128 0x1
 13479 0534 13       		.uleb128 0x13
 13480 0535 00       		.byte	0
 13481 0536 00       		.byte	0
 13482 0537 66       		.uleb128 0x66
 13483 0538 898201   		.uleb128 0x4109
 13484 053b 01       		.byte	0x1
 13485 053c 11       		.uleb128 0x11
 13486 053d 01       		.uleb128 0x1
 13487 053e 00       		.byte	0
 13488 053f 00       		.byte	0
 13489 0540 67       		.uleb128 0x67
 13490 0541 34       		.uleb128 0x34
ARM GAS  C:\Users\stoma\AppData\Local\Temp\ccLygOki.s 			page 238


 13491 0542 00       		.byte	0
 13492 0543 31       		.uleb128 0x31
 13493 0544 13       		.uleb128 0x13
 13494 0545 02       		.uleb128 0x2
 13495 0546 18       		.uleb128 0x18
 13496 0547 00       		.byte	0
 13497 0548 00       		.byte	0
 13498 0549 68       		.uleb128 0x68
 13499 054a 898201   		.uleb128 0x4109
 13500 054d 01       		.byte	0x1
 13501 054e 11       		.uleb128 0x11
 13502 054f 01       		.uleb128 0x1
 13503 0550 9342     		.uleb128 0x2113
 13504 0552 18       		.uleb128 0x18
 13505 0553 01       		.uleb128 0x1
 13506 0554 13       		.uleb128 0x13
 13507 0555 00       		.byte	0
 13508 0556 00       		.byte	0
 13509 0557 69       		.uleb128 0x69
 13510 0558 2E       		.uleb128 0x2e
 13511 0559 00       		.byte	0
 13512 055a 3F       		.uleb128 0x3f
 13513 055b 19       		.uleb128 0x19
 13514 055c 3C       		.uleb128 0x3c
 13515 055d 19       		.uleb128 0x19
 13516 055e 6E       		.uleb128 0x6e
 13517 055f 0E       		.uleb128 0xe
 13518 0560 03       		.uleb128 0x3
 13519 0561 0E       		.uleb128 0xe
 13520 0562 3A       		.uleb128 0x3a
 13521 0563 0B       		.uleb128 0xb
 13522 0564 3B       		.uleb128 0x3b
 13523 0565 0B       		.uleb128 0xb
 13524 0566 00       		.byte	0
 13525 0567 00       		.byte	0
 13526 0568 6A       		.uleb128 0x6a
 13527 0569 2E       		.uleb128 0x2e
 13528 056a 00       		.byte	0
 13529 056b 3F       		.uleb128 0x3f
 13530 056c 19       		.uleb128 0x19
 13531 056d 3C       		.uleb128 0x3c
 13532 056e 19       		.uleb128 0x19
 13533 056f 6E       		.uleb128 0x6e
 13534 0570 0E       		.uleb128 0xe
 13535 0571 03       		.uleb128 0x3
 13536 0572 0E       		.uleb128 0xe
 13537 0573 3A       		.uleb128 0x3a
 13538 0574 0B       		.uleb128 0xb
 13539 0575 3B       		.uleb128 0x3b
 13540 0576 05       		.uleb128 0x5
 13541 0577 00       		.byte	0
 13542 0578 00       		.byte	0
 13543 0579 00       		.byte	0
 13544              		.section	.debug_loc,"",%progbits
 13545              	.Ldebug_loc0:
 13546              	.LLST1:
 13547 0000 00000000 		.4byte	.LVL4
ARM GAS  C:\Users\stoma\AppData\Local\Temp\ccLygOki.s 			page 239


 13548 0004 1D000000 		.4byte	.LVL7-1
 13549 0008 0100     		.2byte	0x1
 13550 000a 50       		.byte	0x50
 13551 000b 1D000000 		.4byte	.LVL7-1
 13552 000f 2C000000 		.4byte	.LVL9
 13553 0013 0100     		.2byte	0x1
 13554 0015 5A       		.byte	0x5a
 13555 0016 2C000000 		.4byte	.LVL9
 13556 001a 84040000 		.4byte	.LFE292
 13557 001e 0100     		.2byte	0x1
 13558 0020 57       		.byte	0x57
 13559 0021 00000000 		.4byte	0
 13560 0025 00000000 		.4byte	0
 13561              	.LLST2:
 13562 0029 14000000 		.4byte	.LVL5
 13563 002d 1D000000 		.4byte	.LVL7-1
 13564 0031 0100     		.2byte	0x1
 13565 0033 50       		.byte	0x50
 13566 0034 1D000000 		.4byte	.LVL7-1
 13567 0038 2C000000 		.4byte	.LVL9
 13568 003c 0100     		.2byte	0x1
 13569 003e 5A       		.byte	0x5a
 13570 003f 2C000000 		.4byte	.LVL9
 13571 0043 84040000 		.4byte	.LFE292
 13572 0047 0100     		.2byte	0x1
 13573 0049 57       		.byte	0x57
 13574 004a 00000000 		.4byte	0
 13575 004e 00000000 		.4byte	0
 13576              	.LLST3:
 13577 0052 14000000 		.4byte	.LVL5
 13578 0056 2C000000 		.4byte	.LVL9
 13579 005a 0100     		.2byte	0x1
 13580 005c 58       		.byte	0x58
 13581 005d 00000000 		.4byte	0
 13582 0061 00000000 		.4byte	0
 13583              	.LLST5:
 13584 0065 74000000 		.4byte	.LVL14
 13585 0069 76000000 		.4byte	.LVL15
 13586 006d 0200     		.2byte	0x2
 13587 006f 30       		.byte	0x30
 13588 0070 9F       		.byte	0x9f
 13589 0071 50010000 		.4byte	.LVL50
 13590 0075 66010000 		.4byte	.LVL55
 13591 0079 0100     		.2byte	0x1
 13592 007b 5B       		.byte	0x5b
 13593 007c 00000000 		.4byte	0
 13594 0080 00000000 		.4byte	0
 13595              	.LLST6:
 13596 0084 3E010000 		.4byte	.LVL48
 13597 0088 4A010000 		.4byte	.LVL49
 13598 008c 0100     		.2byte	0x1
 13599 008e 58       		.byte	0x58
 13600 008f 24020000 		.4byte	.LVL78
 13601 0093 B4020000 		.4byte	.LVL88
 13602 0097 0100     		.2byte	0x1
 13603 0099 58       		.byte	0x58
 13604 009a B4020000 		.4byte	.LVL88
ARM GAS  C:\Users\stoma\AppData\Local\Temp\ccLygOki.s 			page 240


 13605 009e A2030000 		.4byte	.LVL117
 13606 00a2 0200     		.2byte	0x2
 13607 00a4 91       		.byte	0x91
 13608 00a5 50       		.sleb128 -48
 13609 00a6 D4030000 		.4byte	.LVL122
 13610 00aa 3C040000 		.4byte	.LVL135
 13611 00ae 0200     		.2byte	0x2
 13612 00b0 91       		.byte	0x91
 13613 00b1 50       		.sleb128 -48
 13614 00b2 3C040000 		.4byte	.LVL135
 13615 00b6 84040000 		.4byte	.LFE292
 13616 00ba 0100     		.2byte	0x1
 13617 00bc 58       		.byte	0x58
 13618 00bd 00000000 		.4byte	0
 13619 00c1 00000000 		.4byte	0
 13620              	.LLST35:
 13621 00c5 24020000 		.4byte	.LVL78
 13622 00c9 2A020000 		.4byte	.LVL79
 13623 00cd 0300     		.2byte	0x3
 13624 00cf 08       		.byte	0x8
 13625 00d0 20       		.byte	0x20
 13626 00d1 9F       		.byte	0x9f
 13627 00d2 00000000 		.4byte	0
 13628 00d6 00000000 		.4byte	0
 13629              	.LLST36:
 13630 00da 64020000 		.4byte	.LVL84
 13631 00de 6A020000 		.4byte	.LVL85
 13632 00e2 0200     		.2byte	0x2
 13633 00e4 30       		.byte	0x30
 13634 00e5 9F       		.byte	0x9f
 13635 00e6 00000000 		.4byte	0
 13636 00ea 00000000 		.4byte	0
 13637              	.LLST37:
 13638 00ee 8E020000 		.4byte	.LVL86
 13639 00f2 98020000 		.4byte	.LVL87
 13640 00f6 0100     		.2byte	0x1
 13641 00f8 53       		.byte	0x53
 13642 00f9 98020000 		.4byte	.LVL87
 13643 00fd CC020000 		.4byte	.LVL90
 13644 0101 0100     		.2byte	0x1
 13645 0103 55       		.byte	0x55
 13646 0104 CC020000 		.4byte	.LVL90
 13647 0108 0E030000 		.4byte	.LVL100
 13648 010c 0200     		.2byte	0x2
 13649 010e 91       		.byte	0x91
 13650 010f 48       		.sleb128 -56
 13651 0110 6E030000 		.4byte	.LVL111
 13652 0114 78030000 		.4byte	.LVL112
 13653 0118 0100     		.2byte	0x1
 13654 011a 53       		.byte	0x53
 13655 011b 78030000 		.4byte	.LVL112
 13656 011f 86030000 		.4byte	.LVL113
 13657 0123 0100     		.2byte	0x1
 13658 0125 55       		.byte	0x55
 13659 0126 D4030000 		.4byte	.LVL122
 13660 012a 0E040000 		.4byte	.LVL126
 13661 012e 0200     		.2byte	0x2
ARM GAS  C:\Users\stoma\AppData\Local\Temp\ccLygOki.s 			page 241


 13662 0130 91       		.byte	0x91
 13663 0131 48       		.sleb128 -56
 13664 0132 0E040000 		.4byte	.LVL126
 13665 0136 30040000 		.4byte	.LVL133
 13666 013a 0100     		.2byte	0x1
 13667 013c 55       		.byte	0x55
 13668 013d 30040000 		.4byte	.LVL133
 13669 0141 34040000 		.4byte	.LVL134
 13670 0145 0200     		.2byte	0x2
 13671 0147 91       		.byte	0x91
 13672 0148 48       		.sleb128 -56
 13673 0149 00000000 		.4byte	0
 13674 014d 00000000 		.4byte	0
 13675              	.LLST38:
 13676 0151 C2020000 		.4byte	.LVL89
 13677 0155 CC020000 		.4byte	.LVL90
 13678 0159 0100     		.2byte	0x1
 13679 015b 55       		.byte	0x55
 13680 015c CC020000 		.4byte	.LVL90
 13681 0160 0E030000 		.4byte	.LVL100
 13682 0164 0200     		.2byte	0x2
 13683 0166 91       		.byte	0x91
 13684 0167 48       		.sleb128 -56
 13685 0168 D4030000 		.4byte	.LVL122
 13686 016c 0E040000 		.4byte	.LVL126
 13687 0170 0200     		.2byte	0x2
 13688 0172 91       		.byte	0x91
 13689 0173 48       		.sleb128 -56
 13690 0174 30040000 		.4byte	.LVL133
 13691 0178 34040000 		.4byte	.LVL134
 13692 017c 0200     		.2byte	0x2
 13693 017e 91       		.byte	0x91
 13694 017f 48       		.sleb128 -56
 13695 0180 00000000 		.4byte	0
 13696 0184 00000000 		.4byte	0
 13697              	.LLST39:
 13698 0188 C2020000 		.4byte	.LVL89
 13699 018c CC020000 		.4byte	.LVL90
 13700 0190 0200     		.2byte	0x2
 13701 0192 72       		.byte	0x72
 13702 0193 0C       		.sleb128 12
 13703 0194 00000000 		.4byte	0
 13704 0198 00000000 		.4byte	0
 13705              	.LLST40:
 13706 019c C2020000 		.4byte	.LVL89
 13707 01a0 CC020000 		.4byte	.LVL90
 13708 01a4 0100     		.2byte	0x1
 13709 01a6 55       		.byte	0x55
 13710 01a7 CC020000 		.4byte	.LVL90
 13711 01ab 0E030000 		.4byte	.LVL100
 13712 01af 0100     		.2byte	0x1
 13713 01b1 52       		.byte	0x52
 13714 01b2 D4030000 		.4byte	.LVL122
 13715 01b6 EE030000 		.4byte	.LVL124
 13716 01ba 0100     		.2byte	0x1
 13717 01bc 52       		.byte	0x52
 13718 01bd EE030000 		.4byte	.LVL124
ARM GAS  C:\Users\stoma\AppData\Local\Temp\ccLygOki.s 			page 242


 13719 01c1 F6030000 		.4byte	.LVL125
 13720 01c5 0300     		.2byte	0x3
 13721 01c7 72       		.byte	0x72
 13722 01c8 7F       		.sleb128 -1
 13723 01c9 9F       		.byte	0x9f
 13724 01ca F6030000 		.4byte	.LVL125
 13725 01ce 0E040000 		.4byte	.LVL126
 13726 01d2 0100     		.2byte	0x1
 13727 01d4 52       		.byte	0x52
 13728 01d5 30040000 		.4byte	.LVL133
 13729 01d9 34040000 		.4byte	.LVL134
 13730 01dd 0100     		.2byte	0x1
 13731 01df 52       		.byte	0x52
 13732 01e0 00000000 		.4byte	0
 13733 01e4 00000000 		.4byte	0
 13734              	.LLST41:
 13735 01e8 DE030000 		.4byte	.LVL123
 13736 01ec 0E040000 		.4byte	.LVL126
 13737 01f0 0100     		.2byte	0x1
 13738 01f2 50       		.byte	0x50
 13739 01f3 00000000 		.4byte	0
 13740 01f7 00000000 		.4byte	0
 13741              	.LLST42:
 13742 01fb CC020000 		.4byte	.LVL90
 13743 01ff D0020000 		.4byte	.LVL91
 13744 0203 0500     		.2byte	0x5
 13745 0205 72       		.byte	0x72
 13746 0206 00       		.sleb128 0
 13747 0207 32       		.byte	0x32
 13748 0208 25       		.byte	0x25
 13749 0209 9F       		.byte	0x9f
 13750 020a D0020000 		.4byte	.LVL91
 13751 020e 0E030000 		.4byte	.LVL100
 13752 0212 0100     		.2byte	0x1
 13753 0214 5E       		.byte	0x5e
 13754 0215 D4030000 		.4byte	.LVL122
 13755 0219 0E040000 		.4byte	.LVL126
 13756 021d 0100     		.2byte	0x1
 13757 021f 5E       		.byte	0x5e
 13758 0220 30040000 		.4byte	.LVL133
 13759 0224 34040000 		.4byte	.LVL134
 13760 0228 0100     		.2byte	0x1
 13761 022a 5E       		.byte	0x5e
 13762 022b 00000000 		.4byte	0
 13763 022f 00000000 		.4byte	0
 13764              	.LLST43:
 13765 0233 E6020000 		.4byte	.LVL93
 13766 0237 F2020000 		.4byte	.LVL95
 13767 023b 0100     		.2byte	0x1
 13768 023d 50       		.byte	0x50
 13769 023e F2020000 		.4byte	.LVL95
 13770 0242 02030000 		.4byte	.LVL99
 13771 0246 4D00     		.2byte	0x4d
 13772 0248 7E       		.byte	0x7e
 13773 0249 00       		.sleb128 0
 13774 024a 7B       		.byte	0x7b
 13775 024b 00       		.sleb128 0
ARM GAS  C:\Users\stoma\AppData\Local\Temp\ccLygOki.s 			page 243


 13776 024c 74       		.byte	0x74
 13777 024d 18       		.sleb128 24
 13778 024e 06       		.byte	0x6
 13779 024f 1C       		.byte	0x1c
 13780 0250 23       		.byte	0x23
 13781 0251 03       		.uleb128 0x3
 13782 0252 7B       		.byte	0x7b
 13783 0253 00       		.sleb128 0
 13784 0254 74       		.byte	0x74
 13785 0255 18       		.sleb128 24
 13786 0256 06       		.byte	0x6
 13787 0257 1C       		.byte	0x1c
 13788 0258 7B       		.byte	0x7b
 13789 0259 00       		.sleb128 0
 13790 025a 74       		.byte	0x74
 13791 025b 18       		.sleb128 24
 13792 025c 06       		.byte	0x6
 13793 025d 1C       		.byte	0x1c
 13794 025e 30       		.byte	0x30
 13795 025f 2D       		.byte	0x2d
 13796 0260 28       		.byte	0x28
 13797 0261 0100     		.2byte	0x1
 13798 0263 16       		.byte	0x16
 13799 0264 13       		.byte	0x13
 13800 0265 32       		.byte	0x32
 13801 0266 26       		.byte	0x26
 13802 0267 7B       		.byte	0x7b
 13803 0268 00       		.sleb128 0
 13804 0269 74       		.byte	0x74
 13805 026a 18       		.sleb128 24
 13806 026b 06       		.byte	0x6
 13807 026c 1C       		.byte	0x1c
 13808 026d 23       		.byte	0x23
 13809 026e 03       		.uleb128 0x3
 13810 026f 7B       		.byte	0x7b
 13811 0270 00       		.sleb128 0
 13812 0271 74       		.byte	0x74
 13813 0272 18       		.sleb128 24
 13814 0273 06       		.byte	0x6
 13815 0274 1C       		.byte	0x1c
 13816 0275 7B       		.byte	0x7b
 13817 0276 00       		.sleb128 0
 13818 0277 74       		.byte	0x74
 13819 0278 18       		.sleb128 24
 13820 0279 06       		.byte	0x6
 13821 027a 1C       		.byte	0x1c
 13822 027b 30       		.byte	0x30
 13823 027c 2D       		.byte	0x2d
 13824 027d 28       		.byte	0x28
 13825 027e 0100     		.2byte	0x1
 13826 0280 16       		.byte	0x16
 13827 0281 13       		.byte	0x13
 13828 0282 32       		.byte	0x32
 13829 0283 26       		.byte	0x26
 13830 0284 40       		.byte	0x40
 13831 0285 4B       		.byte	0x4b
 13832 0286 24       		.byte	0x24
ARM GAS  C:\Users\stoma\AppData\Local\Temp\ccLygOki.s 			page 244


 13833 0287 22       		.byte	0x22
 13834 0288 7E       		.byte	0x7e
 13835 0289 00       		.sleb128 0
 13836 028a 40       		.byte	0x40
 13837 028b 4B       		.byte	0x4b
 13838 028c 24       		.byte	0x24
 13839 028d 22       		.byte	0x22
 13840 028e 2A       		.byte	0x2a
 13841 028f 28       		.byte	0x28
 13842 0290 0100     		.2byte	0x1
 13843 0292 16       		.byte	0x16
 13844 0293 13       		.byte	0x13
 13845 0294 9F       		.byte	0x9f
 13846 0295 30040000 		.4byte	.LVL133
 13847 0299 34040000 		.4byte	.LVL134
 13848 029d 0100     		.2byte	0x1
 13849 029f 50       		.byte	0x50
 13850 02a0 00000000 		.4byte	0
 13851 02a4 00000000 		.4byte	0
 13852              	.LLST44:
 13853 02a8 D6020000 		.4byte	.LVL92
 13854 02ac F2020000 		.4byte	.LVL95
 13855 02b0 0800     		.2byte	0x8
 13856 02b2 7B       		.byte	0x7b
 13857 02b3 00       		.sleb128 0
 13858 02b4 73       		.byte	0x73
 13859 02b5 00       		.sleb128 0
 13860 02b6 1C       		.byte	0x1c
 13861 02b7 34       		.byte	0x34
 13862 02b8 1B       		.byte	0x1b
 13863 02b9 9F       		.byte	0x9f
 13864 02ba F2020000 		.4byte	.LVL95
 13865 02be 02030000 		.4byte	.LVL99
 13866 02c2 0900     		.2byte	0x9
 13867 02c4 7B       		.byte	0x7b
 13868 02c5 00       		.sleb128 0
 13869 02c6 74       		.byte	0x74
 13870 02c7 18       		.sleb128 24
 13871 02c8 06       		.byte	0x6
 13872 02c9 1C       		.byte	0x1c
 13873 02ca 34       		.byte	0x34
 13874 02cb 1B       		.byte	0x1b
 13875 02cc 9F       		.byte	0x9f
 13876 02cd 30040000 		.4byte	.LVL133
 13877 02d1 34040000 		.4byte	.LVL134
 13878 02d5 0800     		.2byte	0x8
 13879 02d7 7B       		.byte	0x7b
 13880 02d8 00       		.sleb128 0
 13881 02d9 73       		.byte	0x73
 13882 02da 00       		.sleb128 0
 13883 02db 1C       		.byte	0x1c
 13884 02dc 34       		.byte	0x34
 13885 02dd 1B       		.byte	0x1b
 13886 02de 9F       		.byte	0x9f
 13887 02df 00000000 		.4byte	0
 13888 02e3 00000000 		.4byte	0
 13889              	.LLST45:
ARM GAS  C:\Users\stoma\AppData\Local\Temp\ccLygOki.s 			page 245


 13890 02e7 EA020000 		.4byte	.LVL94
 13891 02eb F2020000 		.4byte	.LVL95
 13892 02ef 0100     		.2byte	0x1
 13893 02f1 50       		.byte	0x50
 13894 02f2 30040000 		.4byte	.LVL133
 13895 02f6 34040000 		.4byte	.LVL134
 13896 02fa 0100     		.2byte	0x1
 13897 02fc 50       		.byte	0x50
 13898 02fd 00000000 		.4byte	0
 13899 0301 00000000 		.4byte	0
 13900              	.LLST46:
 13901 0305 F2020000 		.4byte	.LVL95
 13902 0309 F6020000 		.4byte	.LVL96
 13903 030d 0100     		.2byte	0x1
 13904 030f 53       		.byte	0x53
 13905 0310 F6020000 		.4byte	.LVL96
 13906 0314 FA020000 		.4byte	.LVL97
 13907 0318 0300     		.2byte	0x3
 13908 031a 73       		.byte	0x73
 13909 031b 7C       		.sleb128 -4
 13910 031c 9F       		.byte	0x9f
 13911 031d FA020000 		.4byte	.LVL97
 13912 0321 FE020000 		.4byte	.LVL98
 13913 0325 0100     		.2byte	0x1
 13914 0327 53       		.byte	0x53
 13915 0328 00000000 		.4byte	0
 13916 032c 00000000 		.4byte	0
 13917              	.LLST47:
 13918 0330 0E030000 		.4byte	.LVL100
 13919 0334 14030000 		.4byte	.LVL101
 13920 0338 0300     		.2byte	0x3
 13921 033a 08       		.byte	0x8
 13922 033b 20       		.byte	0x20
 13923 033c 9F       		.byte	0x9f
 13924 033d 00000000 		.4byte	0
 13925 0341 00000000 		.4byte	0
 13926              	.LLST48:
 13927 0345 22030000 		.4byte	.LVL104
 13928 0349 2A030000 		.4byte	.LVL105
 13929 034d 0200     		.2byte	0x2
 13930 034f 30       		.byte	0x30
 13931 0350 9F       		.byte	0x9f
 13932 0351 00000000 		.4byte	0
 13933 0355 00000000 		.4byte	0
 13934              	.LLST49:
 13935 0359 22030000 		.4byte	.LVL104
 13936 035d 2A030000 		.4byte	.LVL105
 13937 0361 0100     		.2byte	0x1
 13938 0363 54       		.byte	0x54
 13939 0364 00000000 		.4byte	0
 13940 0368 00000000 		.4byte	0
 13941              	.LLST50:
 13942 036c 4C030000 		.4byte	.LVL109
 13943 0370 52030000 		.4byte	.LVL110
 13944 0374 0200     		.2byte	0x2
 13945 0376 30       		.byte	0x30
 13946 0377 9F       		.byte	0x9f
ARM GAS  C:\Users\stoma\AppData\Local\Temp\ccLygOki.s 			page 246


 13947 0378 00000000 		.4byte	0
 13948 037c 00000000 		.4byte	0
 13949              	.LLST51:
 13950 0380 0E040000 		.4byte	.LVL126
 13951 0384 2A040000 		.4byte	.LVL132
 13952 0388 0100     		.2byte	0x1
 13953 038a 55       		.byte	0x55
 13954 038b 00000000 		.4byte	0
 13955 038f 00000000 		.4byte	0
 13956              	.LLST52:
 13957 0393 0E040000 		.4byte	.LVL126
 13958 0397 2A040000 		.4byte	.LVL132
 13959 039b 0200     		.2byte	0x2
 13960 039d 72       		.byte	0x72
 13961 039e 0C       		.sleb128 12
 13962 039f 00000000 		.4byte	0
 13963 03a3 00000000 		.4byte	0
 13964              	.LLST53:
 13965 03a7 10040000 		.4byte	.LVL127
 13966 03ab 12040000 		.4byte	.LVL128
 13967 03af 0500     		.2byte	0x5
 13968 03b1 73       		.byte	0x73
 13969 03b2 00       		.sleb128 0
 13970 03b3 32       		.byte	0x32
 13971 03b4 25       		.byte	0x25
 13972 03b5 9F       		.byte	0x9f
 13973 03b6 12040000 		.4byte	.LVL128
 13974 03ba 1A040000 		.4byte	.LVL129
 13975 03be 0100     		.2byte	0x1
 13976 03c0 53       		.byte	0x53
 13977 03c1 00000000 		.4byte	0
 13978 03c5 00000000 		.4byte	0
 13979              	.LLST54:
 13980 03c9 10040000 		.4byte	.LVL127
 13981 03cd 1A040000 		.4byte	.LVL129
 13982 03d1 0200     		.2byte	0x2
 13983 03d3 72       		.byte	0x72
 13984 03d4 0C       		.sleb128 12
 13985 03d5 1A040000 		.4byte	.LVL129
 13986 03d9 1E040000 		.4byte	.LVL130
 13987 03dd 0100     		.2byte	0x1
 13988 03df 53       		.byte	0x53
 13989 03e0 1E040000 		.4byte	.LVL130
 13990 03e4 22040000 		.4byte	.LVL131
 13991 03e8 0300     		.2byte	0x3
 13992 03ea 73       		.byte	0x73
 13993 03eb 7C       		.sleb128 -4
 13994 03ec 9F       		.byte	0x9f
 13995 03ed 22040000 		.4byte	.LVL131
 13996 03f1 2A040000 		.4byte	.LVL132
 13997 03f5 0100     		.2byte	0x1
 13998 03f7 53       		.byte	0x53
 13999 03f8 00000000 		.4byte	0
 14000 03fc 00000000 		.4byte	0
 14001              	.LLST55:
 14002 0400 86030000 		.4byte	.LVL113
 14003 0404 8C030000 		.4byte	.LVL114
ARM GAS  C:\Users\stoma\AppData\Local\Temp\ccLygOki.s 			page 247


 14004 0408 0300     		.2byte	0x3
 14005 040a 08       		.byte	0x8
 14006 040b 20       		.byte	0x20
 14007 040c 9F       		.byte	0x9f
 14008 040d 3C040000 		.4byte	.LVL135
 14009 0411 42040000 		.4byte	.LVL136
 14010 0415 0300     		.2byte	0x3
 14011 0417 08       		.byte	0x8
 14012 0418 20       		.byte	0x20
 14013 0419 9F       		.byte	0x9f
 14014 041a 5E040000 		.4byte	.LVL139
 14015 041e 64040000 		.4byte	.LVL140
 14016 0422 0300     		.2byte	0x3
 14017 0424 08       		.byte	0x8
 14018 0425 20       		.byte	0x20
 14019 0426 9F       		.byte	0x9f
 14020 0427 00000000 		.4byte	0
 14021 042b 00000000 		.4byte	0
 14022              	.LLST56:
 14023 042f CC030000 		.4byte	.LVL120
 14024 0433 D2030000 		.4byte	.LVL121
 14025 0437 0200     		.2byte	0x2
 14026 0439 30       		.byte	0x30
 14027 043a 9F       		.byte	0x9f
 14028 043b 00000000 		.4byte	0
 14029 043f 00000000 		.4byte	0
 14030              	.LLST7:
 14031 0443 6E000000 		.4byte	.LVL13
 14032 0447 74000000 		.4byte	.LVL14
 14033 044b 0200     		.2byte	0x2
 14034 044d 30       		.byte	0x30
 14035 044e 9F       		.byte	0x9f
 14036 044f 00000000 		.4byte	0
 14037 0453 00000000 		.4byte	0
 14038              	.LLST8:
 14039 0457 7E000000 		.4byte	.LVL16
 14040 045b 34010000 		.4byte	.LVL47
 14041 045f 0100     		.2byte	0x1
 14042 0461 57       		.byte	0x57
 14043 0462 66010000 		.4byte	.LVL55
 14044 0466 24020000 		.4byte	.LVL78
 14045 046a 0100     		.2byte	0x1
 14046 046c 57       		.byte	0x57
 14047 046d 00000000 		.4byte	0
 14048 0471 00000000 		.4byte	0
 14049              	.LLST9:
 14050 0475 82000000 		.4byte	.LVL17
 14051 0479 9E000000 		.4byte	.LVL21
 14052 047d 0100     		.2byte	0x1
 14053 047f 53       		.byte	0x53
 14054 0480 D6000000 		.4byte	.LVL32
 14055 0484 E6000000 		.4byte	.LVL34
 14056 0488 0100     		.2byte	0x1
 14057 048a 53       		.byte	0x53
 14058 048b 00000000 		.4byte	0
 14059 048f 00000000 		.4byte	0
 14060              	.LLST10:
ARM GAS  C:\Users\stoma\AppData\Local\Temp\ccLygOki.s 			page 248


 14061 0493 92000000 		.4byte	.LVL18
 14062 0497 9E000000 		.4byte	.LVL21
 14063 049b 0900     		.2byte	0x9
 14064 049d 73       		.byte	0x73
 14065 049e 00       		.sleb128 0
 14066 049f 34       		.byte	0x34
 14067 04a0 25       		.byte	0x25
 14068 04a1 0A       		.byte	0xa
 14069 04a2 FF07     		.2byte	0x7ff
 14070 04a4 1A       		.byte	0x1a
 14071 04a5 9F       		.byte	0x9f
 14072 04a6 E2000000 		.4byte	.LVL33
 14073 04aa 2A010000 		.4byte	.LVL46
 14074 04ae 0100     		.2byte	0x1
 14075 04b0 54       		.byte	0x54
 14076 04b1 66010000 		.4byte	.LVL55
 14077 04b5 24020000 		.4byte	.LVL78
 14078 04b9 0100     		.2byte	0x1
 14079 04bb 54       		.byte	0x54
 14080 04bc 00000000 		.4byte	0
 14081 04c0 00000000 		.4byte	0
 14082              	.LLST11:
 14083 04c4 92000000 		.4byte	.LVL18
 14084 04c8 96000000 		.4byte	.LVL19
 14085 04cc 0500     		.2byte	0x5
 14086 04ce 73       		.byte	0x73
 14087 04cf 00       		.sleb128 0
 14088 04d0 3F       		.byte	0x3f
 14089 04d1 1A       		.byte	0x1a
 14090 04d2 9F       		.byte	0x9f
 14091 04d3 96000000 		.4byte	.LVL19
 14092 04d7 9A000000 		.4byte	.LVL20
 14093 04db 0100     		.2byte	0x1
 14094 04dd 52       		.byte	0x52
 14095 04de 9A000000 		.4byte	.LVL20
 14096 04e2 9E000000 		.4byte	.LVL21
 14097 04e6 0500     		.2byte	0x5
 14098 04e8 73       		.byte	0x73
 14099 04e9 00       		.sleb128 0
 14100 04ea 3F       		.byte	0x3f
 14101 04eb 1A       		.byte	0x1a
 14102 04ec 9F       		.byte	0x9f
 14103 04ed E2000000 		.4byte	.LVL33
 14104 04f1 E6000000 		.4byte	.LVL34
 14105 04f5 0500     		.2byte	0x5
 14106 04f7 73       		.byte	0x73
 14107 04f8 00       		.sleb128 0
 14108 04f9 3F       		.byte	0x3f
 14109 04fa 1A       		.byte	0x1a
 14110 04fb 9F       		.byte	0x9f
 14111 04fc 00000000 		.4byte	0
 14112 0500 00000000 		.4byte	0
 14113              	.LLST12:
 14114 0504 A6000000 		.4byte	.LVL22
 14115 0508 AE000000 		.4byte	.LVL24
 14116 050c 0200     		.2byte	0x2
 14117 050e 32       		.byte	0x32
ARM GAS  C:\Users\stoma\AppData\Local\Temp\ccLygOki.s 			page 249


 14118 050f 9F       		.byte	0x9f
 14119 0510 AE000000 		.4byte	.LVL24
 14120 0514 C8000000 		.4byte	.LVL30
 14121 0518 0100     		.2byte	0x1
 14122 051a 52       		.byte	0x52
 14123 051b C8000000 		.4byte	.LVL30
 14124 051f D0000000 		.4byte	.LVL31
 14125 0523 0200     		.2byte	0x2
 14126 0525 30       		.byte	0x30
 14127 0526 9F       		.byte	0x9f
 14128 0527 D0000000 		.4byte	.LVL31
 14129 052b D6000000 		.4byte	.LVL32
 14130 052f 0100     		.2byte	0x1
 14131 0531 52       		.byte	0x52
 14132 0532 00000000 		.4byte	0
 14133 0536 00000000 		.4byte	0
 14134              	.LLST13:
 14135 053a A6000000 		.4byte	.LVL22
 14136 053e D6000000 		.4byte	.LVL32
 14137 0542 0100     		.2byte	0x1
 14138 0544 54       		.byte	0x54
 14139 0545 00000000 		.4byte	0
 14140 0549 00000000 		.4byte	0
 14141              	.LLST14:
 14142 054d A6000000 		.4byte	.LVL22
 14143 0551 AC000000 		.4byte	.LVL23
 14144 0555 0400     		.2byte	0x4
 14145 0557 71       		.byte	0x71
 14146 0558 8020     		.sleb128 4096
 14147 055a 9F       		.byte	0x9f
 14148 055b AC000000 		.4byte	.LVL23
 14149 055f D6000000 		.4byte	.LVL32
 14150 0563 0100     		.2byte	0x1
 14151 0565 51       		.byte	0x51
 14152 0566 00000000 		.4byte	0
 14153 056a 00000000 		.4byte	0
 14154              	.LLST15:
 14155 056e B0000000 		.4byte	.LVL25
 14156 0572 C0000000 		.4byte	.LVL28
 14157 0576 0100     		.2byte	0x1
 14158 0578 55       		.byte	0x55
 14159 0579 C2000000 		.4byte	.LVL29
 14160 057d D0000000 		.4byte	.LVL31
 14161 0581 0100     		.2byte	0x1
 14162 0583 55       		.byte	0x55
 14163 0584 00000000 		.4byte	0
 14164 0588 00000000 		.4byte	0
 14165              	.LLST16:
 14166 058c F4000000 		.4byte	.LVL35
 14167 0590 02010000 		.4byte	.LVL37
 14168 0594 0700     		.2byte	0x7
 14169 0596 73       		.byte	0x73
 14170 0597 04       		.sleb128 4
 14171 0598 06       		.byte	0x6
 14172 0599 7C       		.byte	0x7c
 14173 059a 00       		.sleb128 0
 14174 059b 1C       		.byte	0x1c
ARM GAS  C:\Users\stoma\AppData\Local\Temp\ccLygOki.s 			page 250


 14175 059c 9F       		.byte	0x9f
 14176 059d 02010000 		.4byte	.LVL37
 14177 05a1 22010000 		.4byte	.LVL44
 14178 05a5 0100     		.2byte	0x1
 14179 05a7 50       		.byte	0x50
 14180 05a8 66010000 		.4byte	.LVL55
 14181 05ac 70010000 		.4byte	.LVL57
 14182 05b0 0200     		.2byte	0x2
 14183 05b2 30       		.byte	0x30
 14184 05b3 9F       		.byte	0x9f
 14185 05b4 70010000 		.4byte	.LVL57
 14186 05b8 76010000 		.4byte	.LVL58
 14187 05bc 0100     		.2byte	0x1
 14188 05be 50       		.byte	0x50
 14189 05bf 00000000 		.4byte	0
 14190 05c3 00000000 		.4byte	0
 14191              	.LLST17:
 14192 05c7 F4000000 		.4byte	.LVL35
 14193 05cb F8000000 		.4byte	.LVL36
 14194 05cf 0100     		.2byte	0x1
 14195 05d1 54       		.byte	0x54
 14196 05d2 0E010000 		.4byte	.LVL39
 14197 05d6 18010000 		.4byte	.LVL41
 14198 05da 0100     		.2byte	0x1
 14199 05dc 52       		.byte	0x52
 14200 05dd 18010000 		.4byte	.LVL41
 14201 05e1 1E010000 		.4byte	.LVL43
 14202 05e5 0300     		.2byte	0x3
 14203 05e7 71       		.byte	0x71
 14204 05e8 01       		.sleb128 1
 14205 05e9 9F       		.byte	0x9f
 14206 05ea 66010000 		.4byte	.LVL55
 14207 05ee 6C010000 		.4byte	.LVL56
 14208 05f2 0300     		.2byte	0x3
 14209 05f4 72       		.byte	0x72
 14210 05f5 7F       		.sleb128 -1
 14211 05f6 9F       		.byte	0x9f
 14212 05f7 6C010000 		.4byte	.LVL56
 14213 05fb 70010000 		.4byte	.LVL57
 14214 05ff 0100     		.2byte	0x1
 14215 0601 51       		.byte	0x51
 14216 0602 00000000 		.4byte	0
 14217 0606 00000000 		.4byte	0
 14218              	.LLST18:
 14219 060a F4000000 		.4byte	.LVL35
 14220 060e 0E010000 		.4byte	.LVL39
 14221 0612 0200     		.2byte	0x2
 14222 0614 73       		.byte	0x73
 14223 0615 0C       		.sleb128 12
 14224 0616 0E010000 		.4byte	.LVL39
 14225 061a 24010000 		.4byte	.LVL45
 14226 061e 0100     		.2byte	0x1
 14227 0620 58       		.byte	0x58
 14228 0621 66010000 		.4byte	.LVL55
 14229 0625 76010000 		.4byte	.LVL58
 14230 0629 0100     		.2byte	0x1
 14231 062b 58       		.byte	0x58
ARM GAS  C:\Users\stoma\AppData\Local\Temp\ccLygOki.s 			page 251


 14232 062c 00000000 		.4byte	0
 14233 0630 00000000 		.4byte	0
 14234              	.LLST19:
 14235 0634 F4000000 		.4byte	.LVL35
 14236 0638 08010000 		.4byte	.LVL38
 14237 063c 0400     		.2byte	0x4
 14238 063e 71       		.byte	0x71
 14239 063f 8020     		.sleb128 4096
 14240 0641 9F       		.byte	0x9f
 14241 0642 08010000 		.4byte	.LVL38
 14242 0646 0E010000 		.4byte	.LVL39
 14243 064a 0100     		.2byte	0x1
 14244 064c 51       		.byte	0x51
 14245 064d 0E010000 		.4byte	.LVL39
 14246 0651 24010000 		.4byte	.LVL45
 14247 0655 0100     		.2byte	0x1
 14248 0657 5E       		.byte	0x5e
 14249 0658 66010000 		.4byte	.LVL55
 14250 065c 76010000 		.4byte	.LVL58
 14251 0660 0100     		.2byte	0x1
 14252 0662 5E       		.byte	0x5e
 14253 0663 00000000 		.4byte	0
 14254 0667 00000000 		.4byte	0
 14255              	.LLST20:
 14256 066b 12010000 		.4byte	.LVL40
 14257 066f 22010000 		.4byte	.LVL44
 14258 0673 0100     		.2byte	0x1
 14259 0675 53       		.byte	0x53
 14260 0676 66010000 		.4byte	.LVL55
 14261 067a 70010000 		.4byte	.LVL57
 14262 067e 0100     		.2byte	0x1
 14263 0680 53       		.byte	0x53
 14264 0681 00000000 		.4byte	0
 14265 0685 00000000 		.4byte	0
 14266              	.LLST21:
 14267 0689 76010000 		.4byte	.LVL58
 14268 068d 24020000 		.4byte	.LVL78
 14269 0691 0100     		.2byte	0x1
 14270 0693 54       		.byte	0x54
 14271 0694 00000000 		.4byte	0
 14272 0698 00000000 		.4byte	0
 14273              	.LLST22:
 14274 069c 76010000 		.4byte	.LVL58
 14275 06a0 80010000 		.4byte	.LVL60
 14276 06a4 0200     		.2byte	0x2
 14277 06a6 73       		.byte	0x73
 14278 06a7 0C       		.sleb128 12
 14279 06a8 00000000 		.4byte	0
 14280 06ac 00000000 		.4byte	0
 14281              	.LLST23:
 14282 06b0 76010000 		.4byte	.LVL58
 14283 06b4 7E010000 		.4byte	.LVL59
 14284 06b8 0400     		.2byte	0x4
 14285 06ba 71       		.byte	0x71
 14286 06bb 8020     		.sleb128 4096
 14287 06bd 9F       		.byte	0x9f
 14288 06be 7E010000 		.4byte	.LVL59
ARM GAS  C:\Users\stoma\AppData\Local\Temp\ccLygOki.s 			page 252


 14289 06c2 C8010000 		.4byte	.LVL67
 14290 06c6 0100     		.2byte	0x1
 14291 06c8 51       		.byte	0x51
 14292 06c9 00000000 		.4byte	0
 14293 06cd 00000000 		.4byte	0
 14294              	.LLST24:
 14295 06d1 76010000 		.4byte	.LVL58
 14296 06d5 80010000 		.4byte	.LVL60
 14297 06d9 0100     		.2byte	0x1
 14298 06db 54       		.byte	0x54
 14299 06dc 80010000 		.4byte	.LVL60
 14300 06e0 9C010000 		.4byte	.LVL65
 14301 06e4 0100     		.2byte	0x1
 14302 06e6 5C       		.byte	0x5c
 14303 06e7 9C010000 		.4byte	.LVL65
 14304 06eb BA010000 		.4byte	.LVL66
 14305 06ef 0300     		.2byte	0x3
 14306 06f1 7C       		.byte	0x7c
 14307 06f2 7F       		.sleb128 -1
 14308 06f3 9F       		.byte	0x9f
 14309 06f4 BA010000 		.4byte	.LVL66
 14310 06f8 C8010000 		.4byte	.LVL67
 14311 06fc 0100     		.2byte	0x1
 14312 06fe 5C       		.byte	0x5c
 14313 06ff 00000000 		.4byte	0
 14314 0703 00000000 		.4byte	0
 14315              	.LLST25:
 14316 0707 9A010000 		.4byte	.LVL64
 14317 070b C8010000 		.4byte	.LVL67
 14318 070f 0100     		.2byte	0x1
 14319 0711 5E       		.byte	0x5e
 14320 0712 00000000 		.4byte	0
 14321 0716 00000000 		.4byte	0
 14322              	.LLST26:
 14323 071a 9A010000 		.4byte	.LVL64
 14324 071e 9C010000 		.4byte	.LVL65
 14325 0722 0200     		.2byte	0x2
 14326 0724 30       		.byte	0x30
 14327 0725 9F       		.byte	0x9f
 14328 0726 00000000 		.4byte	0
 14329 072a 00000000 		.4byte	0
 14330              	.LLST27:
 14331 072e 80010000 		.4byte	.LVL60
 14332 0732 86010000 		.4byte	.LVL61
 14333 0736 0500     		.2byte	0x5
 14334 0738 7C       		.byte	0x7c
 14335 0739 00       		.sleb128 0
 14336 073a 32       		.byte	0x32
 14337 073b 25       		.byte	0x25
 14338 073c 9F       		.byte	0x9f
 14339 073d 90010000 		.4byte	.LVL62
 14340 0741 96010000 		.4byte	.LVL63
 14341 0745 0500     		.2byte	0x5
 14342 0747 7C       		.byte	0x7c
 14343 0748 00       		.sleb128 0
 14344 0749 32       		.byte	0x32
 14345 074a 25       		.byte	0x25
ARM GAS  C:\Users\stoma\AppData\Local\Temp\ccLygOki.s 			page 253


 14346 074b 9F       		.byte	0x9f
 14347 074c 00000000 		.4byte	0
 14348 0750 00000000 		.4byte	0
 14349              	.LLST28:
 14350 0754 86010000 		.4byte	.LVL61
 14351 0758 96010000 		.4byte	.LVL63
 14352 075c 0200     		.2byte	0x2
 14353 075e 30       		.byte	0x30
 14354 075f 9F       		.byte	0x9f
 14355 0760 00000000 		.4byte	0
 14356 0764 00000000 		.4byte	0
 14357              	.LLST30:
 14358 0768 C8010000 		.4byte	.LVL67
 14359 076c CE010000 		.4byte	.LVL68
 14360 0770 0300     		.2byte	0x3
 14361 0772 08       		.byte	0x8
 14362 0773 20       		.byte	0x20
 14363 0774 9F       		.byte	0x9f
 14364 0775 00000000 		.4byte	0
 14365 0779 00000000 		.4byte	0
 14366              	.LLST31:
 14367 077d DC010000 		.4byte	.LVL71
 14368 0781 E4010000 		.4byte	.LVL72
 14369 0785 0200     		.2byte	0x2
 14370 0787 30       		.byte	0x30
 14371 0788 9F       		.byte	0x9f
 14372 0789 00000000 		.4byte	0
 14373 078d 00000000 		.4byte	0
 14374              	.LLST32:
 14375 0791 DC010000 		.4byte	.LVL71
 14376 0795 E4010000 		.4byte	.LVL72
 14377 0799 0100     		.2byte	0x1
 14378 079b 55       		.byte	0x55
 14379 079c 00000000 		.4byte	0
 14380 07a0 00000000 		.4byte	0
 14381              	.LLST33:
 14382 07a4 06020000 		.4byte	.LVL76
 14383 07a8 0C020000 		.4byte	.LVL77
 14384 07ac 0200     		.2byte	0x2
 14385 07ae 30       		.byte	0x30
 14386 07af 9F       		.byte	0x9f
 14387 07b0 00000000 		.4byte	0
 14388 07b4 00000000 		.4byte	0
 14389              	.LLST34:
 14390 07b8 56010000 		.4byte	.LVL51
 14391 07bc 5C010000 		.4byte	.LVL52
 14392 07c0 0300     		.2byte	0x3
 14393 07c2 08       		.byte	0x8
 14394 07c3 20       		.byte	0x20
 14395 07c4 9F       		.byte	0x9f
 14396 07c5 00000000 		.4byte	0
 14397 07c9 00000000 		.4byte	0
 14398              	.LLST4:
 14399 07cd 14000000 		.4byte	.LVL5
 14400 07d1 1A000000 		.4byte	.LVL6
 14401 07d5 0300     		.2byte	0x3
 14402 07d7 08       		.byte	0x8
ARM GAS  C:\Users\stoma\AppData\Local\Temp\ccLygOki.s 			page 254


 14403 07d8 20       		.byte	0x20
 14404 07d9 9F       		.byte	0x9f
 14405 07da 00000000 		.4byte	0
 14406 07de 00000000 		.4byte	0
 14407              	.LLST145:
 14408 07e2 00000000 		.4byte	.LVL335
 14409 07e6 06000000 		.4byte	.LVL336
 14410 07ea 0100     		.2byte	0x1
 14411 07ec 51       		.byte	0x51
 14412 07ed 06000000 		.4byte	.LVL336
 14413 07f1 14000000 		.4byte	.LFE291
 14414 07f5 0400     		.2byte	0x4
 14415 07f7 F3       		.byte	0xf3
 14416 07f8 01       		.uleb128 0x1
 14417 07f9 51       		.byte	0x51
 14418 07fa 9F       		.byte	0x9f
 14419 07fb 00000000 		.4byte	0
 14420 07ff 00000000 		.4byte	0
 14421              	.LLST144:
 14422 0803 00000000 		.4byte	.LVL333
 14423 0807 06000000 		.4byte	.LVL334
 14424 080b 0100     		.2byte	0x1
 14425 080d 51       		.byte	0x51
 14426 080e 06000000 		.4byte	.LVL334
 14427 0812 14000000 		.4byte	.LFE290
 14428 0816 0400     		.2byte	0x4
 14429 0818 F3       		.byte	0xf3
 14430 0819 01       		.uleb128 0x1
 14431 081a 51       		.byte	0x51
 14432 081b 9F       		.byte	0x9f
 14433 081c 00000000 		.4byte	0
 14434 0820 00000000 		.4byte	0
 14435              	.LLST143:
 14436 0824 00000000 		.4byte	.LVL331
 14437 0828 06000000 		.4byte	.LVL332
 14438 082c 0100     		.2byte	0x1
 14439 082e 51       		.byte	0x51
 14440 082f 06000000 		.4byte	.LVL332
 14441 0833 14000000 		.4byte	.LFE289
 14442 0837 0400     		.2byte	0x4
 14443 0839 F3       		.byte	0xf3
 14444 083a 01       		.uleb128 0x1
 14445 083b 51       		.byte	0x51
 14446 083c 9F       		.byte	0x9f
 14447 083d 00000000 		.4byte	0
 14448 0841 00000000 		.4byte	0
 14449              	.LLST142:
 14450 0845 00000000 		.4byte	.LVL329
 14451 0849 06000000 		.4byte	.LVL330
 14452 084d 0100     		.2byte	0x1
 14453 084f 51       		.byte	0x51
 14454 0850 06000000 		.4byte	.LVL330
 14455 0854 14000000 		.4byte	.LFE288
 14456 0858 0400     		.2byte	0x4
 14457 085a F3       		.byte	0xf3
 14458 085b 01       		.uleb128 0x1
 14459 085c 51       		.byte	0x51
ARM GAS  C:\Users\stoma\AppData\Local\Temp\ccLygOki.s 			page 255


 14460 085d 9F       		.byte	0x9f
 14461 085e 00000000 		.4byte	0
 14462 0862 00000000 		.4byte	0
 14463              	.LLST117:
 14464 0866 00000000 		.4byte	.LVL253
 14465 086a 0C000000 		.4byte	.LVL254
 14466 086e 0100     		.2byte	0x1
 14467 0870 50       		.byte	0x50
 14468 0871 0C000000 		.4byte	.LVL254
 14469 0875 4C000000 		.4byte	.LFE285
 14470 0879 0400     		.2byte	0x4
 14471 087b F3       		.byte	0xf3
 14472 087c 01       		.uleb128 0x1
 14473 087d 50       		.byte	0x50
 14474 087e 9F       		.byte	0x9f
 14475 087f 00000000 		.4byte	0
 14476 0883 00000000 		.4byte	0
 14477              	.LLST118:
 14478 0887 00000000 		.4byte	.LVL253
 14479 088b 20000000 		.4byte	.LVL257
 14480 088f 0100     		.2byte	0x1
 14481 0891 51       		.byte	0x51
 14482 0892 20000000 		.4byte	.LVL257
 14483 0896 30000000 		.4byte	.LVL259
 14484 089a 0400     		.2byte	0x4
 14485 089c F3       		.byte	0xf3
 14486 089d 01       		.uleb128 0x1
 14487 089e 51       		.byte	0x51
 14488 089f 9F       		.byte	0x9f
 14489 08a0 30000000 		.4byte	.LVL259
 14490 08a4 4C000000 		.4byte	.LFE285
 14491 08a8 0100     		.2byte	0x1
 14492 08aa 51       		.byte	0x51
 14493 08ab 00000000 		.4byte	0
 14494 08af 00000000 		.4byte	0
 14495              	.LLST119:
 14496 08b3 0C000000 		.4byte	.LVL254
 14497 08b7 16000000 		.4byte	.LVL255
 14498 08bb 0100     		.2byte	0x1
 14499 08bd 50       		.byte	0x50
 14500 08be 16000000 		.4byte	.LVL255
 14501 08c2 1A000000 		.4byte	.LVL256
 14502 08c6 0200     		.2byte	0x2
 14503 08c8 74       		.byte	0x74
 14504 08c9 14       		.sleb128 20
 14505 08ca 1A000000 		.4byte	.LVL256
 14506 08ce 20000000 		.4byte	.LVL257
 14507 08d2 0D00     		.2byte	0xd
 14508 08d4 71       		.byte	0x71
 14509 08d5 00       		.sleb128 0
 14510 08d6 32       		.byte	0x32
 14511 08d7 24       		.byte	0x24
 14512 08d8 F3       		.byte	0xf3
 14513 08d9 01       		.uleb128 0x1
 14514 08da 50       		.byte	0x50
 14515 08db 22       		.byte	0x22
 14516 08dc 23       		.byte	0x23
ARM GAS  C:\Users\stoma\AppData\Local\Temp\ccLygOki.s 			page 256


 14517 08dd 0C       		.uleb128 0xc
 14518 08de 06       		.byte	0x6
 14519 08df 23       		.byte	0x23
 14520 08e0 14       		.uleb128 0x14
 14521 08e1 30000000 		.4byte	.LVL259
 14522 08e5 4C000000 		.4byte	.LFE285
 14523 08e9 0100     		.2byte	0x1
 14524 08eb 50       		.byte	0x50
 14525 08ec 00000000 		.4byte	0
 14526 08f0 00000000 		.4byte	0
 14527              	.LLST120:
 14528 08f4 16000000 		.4byte	.LVL255
 14529 08f8 2A000000 		.4byte	.LVL258
 14530 08fc 1100     		.2byte	0x11
 14531 08fe 70       		.byte	0x70
 14532 08ff 00       		.sleb128 0
 14533 0900 73       		.byte	0x73
 14534 0901 00       		.sleb128 0
 14535 0902 22       		.byte	0x22
 14536 0903 31       		.byte	0x31
 14537 0904 1C       		.byte	0x1c
 14538 0905 F7       		.byte	0xf7
 14539 0906 25       		.uleb128 0x25
 14540 0907 70       		.byte	0x70
 14541 0908 00       		.sleb128 0
 14542 0909 F7       		.byte	0xf7
 14543 090a 25       		.uleb128 0x25
 14544 090b 1B       		.byte	0x1b
 14545 090c F7       		.byte	0xf7
 14546 090d 00       		.uleb128 0
 14547 090e 9F       		.byte	0x9f
 14548 090f 00000000 		.4byte	0
 14549 0913 00000000 		.4byte	0
 14550              	.LLST105:
 14551 0917 00000000 		.4byte	.LVL225
 14552 091b 24000000 		.4byte	.LVL228
 14553 091f 0100     		.2byte	0x1
 14554 0921 50       		.byte	0x50
 14555 0922 24000000 		.4byte	.LVL228
 14556 0926 40000000 		.4byte	.LFE284
 14557 092a 0400     		.2byte	0x4
 14558 092c F3       		.byte	0xf3
 14559 092d 01       		.uleb128 0x1
 14560 092e 50       		.byte	0x50
 14561 092f 9F       		.byte	0x9f
 14562 0930 00000000 		.4byte	0
 14563 0934 00000000 		.4byte	0
 14564              	.LLST106:
 14565 0938 00000000 		.4byte	.LVL225
 14566 093c 2A000000 		.4byte	.LVL229
 14567 0940 0100     		.2byte	0x1
 14568 0942 51       		.byte	0x51
 14569 0943 2A000000 		.4byte	.LVL229
 14570 0947 40000000 		.4byte	.LFE284
 14571 094b 0400     		.2byte	0x4
 14572 094d F3       		.byte	0xf3
 14573 094e 01       		.uleb128 0x1
ARM GAS  C:\Users\stoma\AppData\Local\Temp\ccLygOki.s 			page 257


 14574 094f 51       		.byte	0x51
 14575 0950 9F       		.byte	0x9f
 14576 0951 00000000 		.4byte	0
 14577 0955 00000000 		.4byte	0
 14578              	.LLST107:
 14579 0959 22000000 		.4byte	.LVL227
 14580 095d 3A000000 		.4byte	.LVL230
 14581 0961 1100     		.2byte	0x11
 14582 0963 72       		.byte	0x72
 14583 0964 00       		.sleb128 0
 14584 0965 75       		.byte	0x75
 14585 0966 00       		.sleb128 0
 14586 0967 22       		.byte	0x22
 14587 0968 31       		.byte	0x31
 14588 0969 1C       		.byte	0x1c
 14589 096a F7       		.byte	0xf7
 14590 096b 25       		.uleb128 0x25
 14591 096c 75       		.byte	0x75
 14592 096d 00       		.sleb128 0
 14593 096e F7       		.byte	0xf7
 14594 096f 25       		.uleb128 0x25
 14595 0970 1B       		.byte	0x1b
 14596 0971 F7       		.byte	0xf7
 14597 0972 00       		.uleb128 0
 14598 0973 9F       		.byte	0x9f
 14599 0974 00000000 		.4byte	0
 14600 0978 00000000 		.4byte	0
 14601              	.LLST108:
 14602 097c 0A000000 		.4byte	.LVL226
 14603 0980 22000000 		.4byte	.LVL227
 14604 0984 0100     		.2byte	0x1
 14605 0986 55       		.byte	0x55
 14606 0987 22000000 		.4byte	.LVL227
 14607 098b 3A000000 		.4byte	.LVL230
 14608 098f 0200     		.2byte	0x2
 14609 0991 76       		.byte	0x76
 14610 0992 18       		.sleb128 24
 14611 0993 00000000 		.4byte	0
 14612 0997 00000000 		.4byte	0
 14613              	.LLST104:
 14614 099b 00000000 		.4byte	.LVL223
 14615 099f 04000000 		.4byte	.LVL224
 14616 09a3 0100     		.2byte	0x1
 14617 09a5 51       		.byte	0x51
 14618 09a6 04000000 		.4byte	.LVL224
 14619 09aa 12000000 		.4byte	.LFE283
 14620 09ae 0400     		.2byte	0x4
 14621 09b0 F3       		.byte	0xf3
 14622 09b1 01       		.uleb128 0x1
 14623 09b2 51       		.byte	0x51
 14624 09b3 9F       		.byte	0x9f
 14625 09b4 00000000 		.4byte	0
 14626 09b8 00000000 		.4byte	0
 14627              	.LLST102:
 14628 09bc 00000000 		.4byte	.LVL219
 14629 09c0 0C000000 		.4byte	.LVL222
 14630 09c4 0100     		.2byte	0x1
ARM GAS  C:\Users\stoma\AppData\Local\Temp\ccLygOki.s 			page 258


 14631 09c6 50       		.byte	0x50
 14632 09c7 0C000000 		.4byte	.LVL222
 14633 09cb 1A000000 		.4byte	.LFE282
 14634 09cf 0400     		.2byte	0x4
 14635 09d1 F3       		.byte	0xf3
 14636 09d2 01       		.uleb128 0x1
 14637 09d3 50       		.byte	0x50
 14638 09d4 9F       		.byte	0x9f
 14639 09d5 00000000 		.4byte	0
 14640 09d9 00000000 		.4byte	0
 14641              	.LLST103:
 14642 09dd 00000000 		.4byte	.LVL219
 14643 09e1 02000000 		.4byte	.LVL220
 14644 09e5 0100     		.2byte	0x1
 14645 09e7 51       		.byte	0x51
 14646 09e8 02000000 		.4byte	.LVL220
 14647 09ec 1A000000 		.4byte	.LFE282
 14648 09f0 0400     		.2byte	0x4
 14649 09f2 F3       		.byte	0xf3
 14650 09f3 01       		.uleb128 0x1
 14651 09f4 51       		.byte	0x51
 14652 09f5 9F       		.byte	0x9f
 14653 09f6 00000000 		.4byte	0
 14654 09fa 00000000 		.4byte	0
 14655              	.LLST100:
 14656 09fe 00000000 		.4byte	.LVL215
 14657 0a02 0C000000 		.4byte	.LVL218
 14658 0a06 0100     		.2byte	0x1
 14659 0a08 50       		.byte	0x50
 14660 0a09 0C000000 		.4byte	.LVL218
 14661 0a0d 1A000000 		.4byte	.LFE281
 14662 0a11 0400     		.2byte	0x4
 14663 0a13 F3       		.byte	0xf3
 14664 0a14 01       		.uleb128 0x1
 14665 0a15 50       		.byte	0x50
 14666 0a16 9F       		.byte	0x9f
 14667 0a17 00000000 		.4byte	0
 14668 0a1b 00000000 		.4byte	0
 14669              	.LLST101:
 14670 0a1f 00000000 		.4byte	.LVL215
 14671 0a23 02000000 		.4byte	.LVL216
 14672 0a27 0100     		.2byte	0x1
 14673 0a29 51       		.byte	0x51
 14674 0a2a 02000000 		.4byte	.LVL216
 14675 0a2e 1A000000 		.4byte	.LFE281
 14676 0a32 0400     		.2byte	0x4
 14677 0a34 F3       		.byte	0xf3
 14678 0a35 01       		.uleb128 0x1
 14679 0a36 51       		.byte	0x51
 14680 0a37 9F       		.byte	0x9f
 14681 0a38 00000000 		.4byte	0
 14682 0a3c 00000000 		.4byte	0
 14683              	.LLST99:
 14684 0a40 00000000 		.4byte	.LVL212
 14685 0a44 06000000 		.4byte	.LVL213
 14686 0a48 0100     		.2byte	0x1
 14687 0a4a 50       		.byte	0x50
ARM GAS  C:\Users\stoma\AppData\Local\Temp\ccLygOki.s 			page 259


 14688 0a4b 06000000 		.4byte	.LVL213
 14689 0a4f 0D000000 		.4byte	.LVL214-1
 14690 0a53 0100     		.2byte	0x1
 14691 0a55 53       		.byte	0x53
 14692 0a56 0D000000 		.4byte	.LVL214-1
 14693 0a5a 0E000000 		.4byte	.LFE280
 14694 0a5e 0400     		.2byte	0x4
 14695 0a60 F3       		.byte	0xf3
 14696 0a61 01       		.uleb128 0x1
 14697 0a62 50       		.byte	0x50
 14698 0a63 9F       		.byte	0x9f
 14699 0a64 00000000 		.4byte	0
 14700 0a68 00000000 		.4byte	0
 14701              	.LLST82:
 14702 0a6c 00000000 		.4byte	.LVL190
 14703 0a70 28000000 		.4byte	.LVL192
 14704 0a74 0100     		.2byte	0x1
 14705 0a76 50       		.byte	0x50
 14706 0a77 28000000 		.4byte	.LVL192
 14707 0a7b 54010000 		.4byte	.LVL208
 14708 0a7f 0100     		.2byte	0x1
 14709 0a81 57       		.byte	0x57
 14710 0a82 54010000 		.4byte	.LVL208
 14711 0a86 60010000 		.4byte	.LVL210
 14712 0a8a 0100     		.2byte	0x1
 14713 0a8c 50       		.byte	0x50
 14714 0a8d 60010000 		.4byte	.LVL210
 14715 0a91 84010000 		.4byte	.LFE279
 14716 0a95 0100     		.2byte	0x1
 14717 0a97 57       		.byte	0x57
 14718 0a98 00000000 		.4byte	0
 14719 0a9c 00000000 		.4byte	0
 14720              	.LLST83:
 14721 0aa0 00000000 		.4byte	.LVL190
 14722 0aa4 2A000000 		.4byte	.LVL193
 14723 0aa8 0100     		.2byte	0x1
 14724 0aaa 51       		.byte	0x51
 14725 0aab 2A000000 		.4byte	.LVL193
 14726 0aaf 54010000 		.4byte	.LVL208
 14727 0ab3 0400     		.2byte	0x4
 14728 0ab5 F3       		.byte	0xf3
 14729 0ab6 01       		.uleb128 0x1
 14730 0ab7 51       		.byte	0x51
 14731 0ab8 9F       		.byte	0x9f
 14732 0ab9 54010000 		.4byte	.LVL208
 14733 0abd 60010000 		.4byte	.LVL210
 14734 0ac1 0100     		.2byte	0x1
 14735 0ac3 51       		.byte	0x51
 14736 0ac4 60010000 		.4byte	.LVL210
 14737 0ac8 84010000 		.4byte	.LFE279
 14738 0acc 0400     		.2byte	0x4
 14739 0ace F3       		.byte	0xf3
 14740 0acf 01       		.uleb128 0x1
 14741 0ad0 51       		.byte	0x51
 14742 0ad1 9F       		.byte	0x9f
 14743 0ad2 00000000 		.4byte	0
 14744 0ad6 00000000 		.4byte	0
ARM GAS  C:\Users\stoma\AppData\Local\Temp\ccLygOki.s 			page 260


 14745              	.LLST84:
 14746 0ada 34000000 		.4byte	.LVL194
 14747 0ade 54010000 		.4byte	.LVL208
 14748 0ae2 0100     		.2byte	0x1
 14749 0ae4 5A       		.byte	0x5a
 14750 0ae5 54010000 		.4byte	.LVL208
 14751 0ae9 5A010000 		.4byte	.LVL209
 14752 0aed 0600     		.2byte	0x6
 14753 0aef 0C       		.byte	0xc
 14754 0af0 00800C10 		.4byte	0x100c8000
 14755 0af4 9F       		.byte	0x9f
 14756 0af5 5A010000 		.4byte	.LVL209
 14757 0af9 60010000 		.4byte	.LVL210
 14758 0afd 0600     		.2byte	0x6
 14759 0aff 0C       		.byte	0xc
 14760 0b00 00800810 		.4byte	0x10088000
 14761 0b04 9F       		.byte	0x9f
 14762 0b05 60010000 		.4byte	.LVL210
 14763 0b09 84010000 		.4byte	.LFE279
 14764 0b0d 0100     		.2byte	0x1
 14765 0b0f 5A       		.byte	0x5a
 14766 0b10 00000000 		.4byte	0
 14767 0b14 00000000 		.4byte	0
 14768              	.LLST85:
 14769 0b18 8C000000 		.4byte	.LVL195
 14770 0b1c A2000000 		.4byte	.LVL198
 14771 0b20 0100     		.2byte	0x1
 14772 0b22 56       		.byte	0x56
 14773 0b23 00000000 		.4byte	0
 14774 0b27 00000000 		.4byte	0
 14775              	.LLST86:
 14776 0b2b 1C000000 		.4byte	.LVL191
 14777 0b2f 28000000 		.4byte	.LVL192
 14778 0b33 0300     		.2byte	0x3
 14779 0b35 70       		.byte	0x70
 14780 0b36 D000     		.sleb128 80
 14781 0b38 28000000 		.4byte	.LVL192
 14782 0b3c A4000000 		.4byte	.LVL199
 14783 0b40 0300     		.2byte	0x3
 14784 0b42 77       		.byte	0x77
 14785 0b43 D000     		.sleb128 80
 14786 0b45 F0000000 		.4byte	.LVL203
 14787 0b49 11010000 		.4byte	.LVL206-1
 14788 0b4d 0300     		.2byte	0x3
 14789 0b4f 77       		.byte	0x77
 14790 0b50 D000     		.sleb128 80
 14791 0b52 36010000 		.4byte	.LVL207
 14792 0b56 54010000 		.4byte	.LVL208
 14793 0b5a 0300     		.2byte	0x3
 14794 0b5c 77       		.byte	0x77
 14795 0b5d D000     		.sleb128 80
 14796 0b5f 54010000 		.4byte	.LVL208
 14797 0b63 60010000 		.4byte	.LVL210
 14798 0b67 0300     		.2byte	0x3
 14799 0b69 70       		.byte	0x70
 14800 0b6a D000     		.sleb128 80
 14801 0b6c 60010000 		.4byte	.LVL210
ARM GAS  C:\Users\stoma\AppData\Local\Temp\ccLygOki.s 			page 261


 14802 0b70 67010000 		.4byte	.LVL211-1
 14803 0b74 0300     		.2byte	0x3
 14804 0b76 77       		.byte	0x77
 14805 0b77 D000     		.sleb128 80
 14806 0b79 00000000 		.4byte	0
 14807 0b7d 00000000 		.4byte	0
 14808              	.LLST87:
 14809 0b81 96000000 		.4byte	.LVL197
 14810 0b85 F0000000 		.4byte	.LVL203
 14811 0b89 0100     		.2byte	0x1
 14812 0b8b 57       		.byte	0x57
 14813 0b8c 60010000 		.4byte	.LVL210
 14814 0b90 84010000 		.4byte	.LFE279
 14815 0b94 0100     		.2byte	0x1
 14816 0b96 57       		.byte	0x57
 14817 0b97 00000000 		.4byte	0
 14818 0b9b 00000000 		.4byte	0
 14819              	.LLST89:
 14820 0b9f 96000000 		.4byte	.LVL197
 14821 0ba3 A2000000 		.4byte	.LVL198
 14822 0ba7 0100     		.2byte	0x1
 14823 0ba9 56       		.byte	0x56
 14824 0baa 00000000 		.4byte	0
 14825 0bae 00000000 		.4byte	0
 14826              	.LLST90:
 14827 0bb2 96000000 		.4byte	.LVL197
 14828 0bb6 A4000000 		.4byte	.LVL199
 14829 0bba 0100     		.2byte	0x1
 14830 0bbc 53       		.byte	0x53
 14831 0bbd 60010000 		.4byte	.LVL210
 14832 0bc1 67010000 		.4byte	.LVL211-1
 14833 0bc5 0100     		.2byte	0x1
 14834 0bc7 53       		.byte	0x53
 14835 0bc8 67010000 		.4byte	.LVL211-1
 14836 0bcc 84010000 		.4byte	.LFE279
 14837 0bd0 0200     		.2byte	0x2
 14838 0bd2 91       		.byte	0x91
 14839 0bd3 54       		.sleb128 -44
 14840 0bd4 00000000 		.4byte	0
 14841 0bd8 00000000 		.4byte	0
 14842              	.LLST91:
 14843 0bdc AA000000 		.4byte	.LVL200
 14844 0be0 F0000000 		.4byte	.LVL203
 14845 0be4 0100     		.2byte	0x1
 14846 0be6 57       		.byte	0x57
 14847 0be7 00000000 		.4byte	0
 14848 0beb 00000000 		.4byte	0
 14849              	.LLST92:
 14850 0bef AA000000 		.4byte	.LVL200
 14851 0bf3 C4000000 		.4byte	.LVL202
 14852 0bf7 0600     		.2byte	0x6
 14853 0bf9 75       		.byte	0x75
 14854 0bfa 00       		.sleb128 0
 14855 0bfb 08       		.byte	0x8
 14856 0bfc FF       		.byte	0xff
 14857 0bfd 1A       		.byte	0x1a
 14858 0bfe 9F       		.byte	0x9f
ARM GAS  C:\Users\stoma\AppData\Local\Temp\ccLygOki.s 			page 262


 14859 0bff 00000000 		.4byte	0
 14860 0c03 00000000 		.4byte	0
 14861              	.LLST93:
 14862 0c07 AA000000 		.4byte	.LVL200
 14863 0c0b C3000000 		.4byte	.LVL202-1
 14864 0c0f 0100     		.2byte	0x1
 14865 0c11 51       		.byte	0x51
 14866 0c12 00000000 		.4byte	0
 14867 0c16 00000000 		.4byte	0
 14868              	.LLST94:
 14869 0c1a BE000000 		.4byte	.LVL201
 14870 0c1e C4000000 		.4byte	.LVL202
 14871 0c22 0200     		.2byte	0x2
 14872 0c24 3C       		.byte	0x3c
 14873 0c25 9F       		.byte	0x9f
 14874 0c26 00000000 		.4byte	0
 14875 0c2a 00000000 		.4byte	0
 14876              	.LLST95:
 14877 0c2e F6000000 		.4byte	.LVL204
 14878 0c32 36010000 		.4byte	.LVL207
 14879 0c36 0100     		.2byte	0x1
 14880 0c38 57       		.byte	0x57
 14881 0c39 00000000 		.4byte	0
 14882 0c3d 00000000 		.4byte	0
 14883              	.LLST96:
 14884 0c41 F6000000 		.4byte	.LVL204
 14885 0c45 12010000 		.4byte	.LVL206
 14886 0c49 0600     		.2byte	0x6
 14887 0c4b 75       		.byte	0x75
 14888 0c4c 00       		.sleb128 0
 14889 0c4d 08       		.byte	0x8
 14890 0c4e FF       		.byte	0xff
 14891 0c4f 1A       		.byte	0x1a
 14892 0c50 9F       		.byte	0x9f
 14893 0c51 00000000 		.4byte	0
 14894 0c55 00000000 		.4byte	0
 14895              	.LLST97:
 14896 0c59 F6000000 		.4byte	.LVL204
 14897 0c5d 11010000 		.4byte	.LVL206-1
 14898 0c61 0100     		.2byte	0x1
 14899 0c63 52       		.byte	0x52
 14900 0c64 00000000 		.4byte	0
 14901 0c68 00000000 		.4byte	0
 14902              	.LLST98:
 14903 0c6c 08010000 		.4byte	.LVL205
 14904 0c70 12010000 		.4byte	.LVL206
 14905 0c74 0200     		.2byte	0x2
 14906 0c76 3C       		.byte	0x3c
 14907 0c77 9F       		.byte	0x9f
 14908 0c78 00000000 		.4byte	0
 14909 0c7c 00000000 		.4byte	0
 14910              	.LLST66:
 14911 0c80 00000000 		.4byte	.LVL172
 14912 0c84 14000000 		.4byte	.LVL176
 14913 0c88 0100     		.2byte	0x1
 14914 0c8a 50       		.byte	0x50
 14915 0c8b 14000000 		.4byte	.LVL176
ARM GAS  C:\Users\stoma\AppData\Local\Temp\ccLygOki.s 			page 263


 14916 0c8f C2000000 		.4byte	.LVL187
 14917 0c93 0100     		.2byte	0x1
 14918 0c95 56       		.byte	0x56
 14919 0c96 C2000000 		.4byte	.LVL187
 14920 0c9a D0000000 		.4byte	.LFE277
 14921 0c9e 0400     		.2byte	0x4
 14922 0ca0 F3       		.byte	0xf3
 14923 0ca1 01       		.uleb128 0x1
 14924 0ca2 50       		.byte	0x50
 14925 0ca3 9F       		.byte	0x9f
 14926 0ca4 00000000 		.4byte	0
 14927 0ca8 00000000 		.4byte	0
 14928              	.LLST67:
 14929 0cac 18000000 		.4byte	.LVL177
 14930 0cb0 26000000 		.4byte	.LVL178
 14931 0cb4 0200     		.2byte	0x2
 14932 0cb6 30       		.byte	0x30
 14933 0cb7 9F       		.byte	0x9f
 14934 0cb8 26000000 		.4byte	.LVL178
 14935 0cbc 42000000 		.4byte	.LVL180
 14936 0cc0 0100     		.2byte	0x1
 14937 0cc2 53       		.byte	0x53
 14938 0cc3 00000000 		.4byte	0
 14939 0cc7 00000000 		.4byte	0
 14940              	.LLST68:
 14941 0ccb 04000000 		.4byte	.LVL173
 14942 0ccf C2000000 		.4byte	.LVL187
 14943 0cd3 0100     		.2byte	0x1
 14944 0cd5 55       		.byte	0x55
 14945 0cd6 00000000 		.4byte	0
 14946 0cda 00000000 		.4byte	0
 14947              	.LLST69:
 14948 0cde 08000000 		.4byte	.LVL174
 14949 0ce2 14000000 		.4byte	.LVL176
 14950 0ce6 0100     		.2byte	0x1
 14951 0ce8 50       		.byte	0x50
 14952 0ce9 14000000 		.4byte	.LVL176
 14953 0ced C2000000 		.4byte	.LVL187
 14954 0cf1 0100     		.2byte	0x1
 14955 0cf3 56       		.byte	0x56
 14956 0cf4 C2000000 		.4byte	.LVL187
 14957 0cf8 D0000000 		.4byte	.LFE277
 14958 0cfc 0400     		.2byte	0x4
 14959 0cfe F3       		.byte	0xf3
 14960 0cff 01       		.uleb128 0x1
 14961 0d00 50       		.byte	0x50
 14962 0d01 9F       		.byte	0x9f
 14963 0d02 00000000 		.4byte	0
 14964 0d06 00000000 		.4byte	0
 14965              	.LLST70:
 14966 0d0a 08000000 		.4byte	.LVL174
 14967 0d0e 18000000 		.4byte	.LVL177
 14968 0d12 0200     		.2byte	0x2
 14969 0d14 30       		.byte	0x30
 14970 0d15 9F       		.byte	0x9f
 14971 0d16 00000000 		.4byte	0
 14972 0d1a 00000000 		.4byte	0
ARM GAS  C:\Users\stoma\AppData\Local\Temp\ccLygOki.s 			page 264


 14973              	.LLST71:
 14974 0d1e 08000000 		.4byte	.LVL174
 14975 0d22 18000000 		.4byte	.LVL177
 14976 0d26 0100     		.2byte	0x1
 14977 0d28 55       		.byte	0x55
 14978 0d29 00000000 		.4byte	0
 14979 0d2d 00000000 		.4byte	0
 14980              	.LLST72:
 14981 0d31 12000000 		.4byte	.LVL175
 14982 0d35 18000000 		.4byte	.LVL177
 14983 0d39 0200     		.2byte	0x2
 14984 0d3b 3C       		.byte	0x3c
 14985 0d3c 9F       		.byte	0x9f
 14986 0d3d 00000000 		.4byte	0
 14987 0d41 00000000 		.4byte	0
 14988              	.LLST73:
 14989 0d45 52000000 		.4byte	.LVL181
 14990 0d49 C2000000 		.4byte	.LVL187
 14991 0d4d 0100     		.2byte	0x1
 14992 0d4f 56       		.byte	0x56
 14993 0d50 C2000000 		.4byte	.LVL187
 14994 0d54 D0000000 		.4byte	.LFE277
 14995 0d58 0400     		.2byte	0x4
 14996 0d5a F3       		.byte	0xf3
 14997 0d5b 01       		.uleb128 0x1
 14998 0d5c 50       		.byte	0x50
 14999 0d5d 9F       		.byte	0x9f
 15000 0d5e 00000000 		.4byte	0
 15001 0d62 00000000 		.4byte	0
 15002              	.LLST74:
 15003 0d66 52000000 		.4byte	.LVL181
 15004 0d6a C2000000 		.4byte	.LVL187
 15005 0d6e 0100     		.2byte	0x1
 15006 0d70 56       		.byte	0x56
 15007 0d71 C2000000 		.4byte	.LVL187
 15008 0d75 D0000000 		.4byte	.LFE277
 15009 0d79 0400     		.2byte	0x4
 15010 0d7b F3       		.byte	0xf3
 15011 0d7c 01       		.uleb128 0x1
 15012 0d7d 50       		.byte	0x50
 15013 0d7e 9F       		.byte	0x9f
 15014 0d7f 00000000 		.4byte	0
 15015 0d83 00000000 		.4byte	0
 15016              	.LLST75:
 15017 0d87 58000000 		.4byte	.LVL182
 15018 0d8b C2000000 		.4byte	.LVL187
 15019 0d8f 0100     		.2byte	0x1
 15020 0d91 56       		.byte	0x56
 15021 0d92 C2000000 		.4byte	.LVL187
 15022 0d96 D0000000 		.4byte	.LFE277
 15023 0d9a 0400     		.2byte	0x4
 15024 0d9c F3       		.byte	0xf3
 15025 0d9d 01       		.uleb128 0x1
 15026 0d9e 50       		.byte	0x50
 15027 0d9f 9F       		.byte	0x9f
 15028 0da0 00000000 		.4byte	0
 15029 0da4 00000000 		.4byte	0
ARM GAS  C:\Users\stoma\AppData\Local\Temp\ccLygOki.s 			page 265


 15030              	.LLST76:
 15031 0da8 58000000 		.4byte	.LVL182
 15032 0dac 6B000000 		.4byte	.LVL184-1
 15033 0db0 0100     		.2byte	0x1
 15034 0db2 52       		.byte	0x52
 15035 0db3 00000000 		.4byte	0
 15036 0db7 00000000 		.4byte	0
 15037              	.LLST77:
 15038 0dbb 66000000 		.4byte	.LVL183
 15039 0dbf 6C000000 		.4byte	.LVL184
 15040 0dc3 0200     		.2byte	0x2
 15041 0dc5 3C       		.byte	0x3c
 15042 0dc6 9F       		.byte	0x9f
 15043 0dc7 00000000 		.4byte	0
 15044 0dcb 00000000 		.4byte	0
 15045              	.LLST78:
 15046 0dcf A8000000 		.4byte	.LVL185
 15047 0dd3 C2000000 		.4byte	.LVL187
 15048 0dd7 0100     		.2byte	0x1
 15049 0dd9 56       		.byte	0x56
 15050 0dda C2000000 		.4byte	.LVL187
 15051 0dde D0000000 		.4byte	.LFE277
 15052 0de2 0400     		.2byte	0x4
 15053 0de4 F3       		.byte	0xf3
 15054 0de5 01       		.uleb128 0x1
 15055 0de6 50       		.byte	0x50
 15056 0de7 9F       		.byte	0x9f
 15057 0de8 00000000 		.4byte	0
 15058 0dec 00000000 		.4byte	0
 15059              	.LLST79:
 15060 0df0 A8000000 		.4byte	.LVL185
 15061 0df4 C2000000 		.4byte	.LVL187
 15062 0df8 0100     		.2byte	0x1
 15063 0dfa 56       		.byte	0x56
 15064 0dfb C2000000 		.4byte	.LVL187
 15065 0dff D0000000 		.4byte	.LFE277
 15066 0e03 0400     		.2byte	0x4
 15067 0e05 F3       		.byte	0xf3
 15068 0e06 01       		.uleb128 0x1
 15069 0e07 50       		.byte	0x50
 15070 0e08 9F       		.byte	0x9f
 15071 0e09 00000000 		.4byte	0
 15072 0e0d 00000000 		.4byte	0
 15073              	.LLST80:
 15074 0e11 A8000000 		.4byte	.LVL185
 15075 0e15 BA000000 		.4byte	.LVL186
 15076 0e19 0200     		.2byte	0x2
 15077 0e1b 40       		.byte	0x40
 15078 0e1c 9F       		.byte	0x9f
 15079 0e1d 00000000 		.4byte	0
 15080 0e21 00000000 		.4byte	0
 15081              	.LLST81:
 15082 0e25 A8000000 		.4byte	.LVL185
 15083 0e29 BA000000 		.4byte	.LVL186
 15084 0e2d 0100     		.2byte	0x1
 15085 0e2f 54       		.byte	0x54
 15086 0e30 00000000 		.4byte	0
ARM GAS  C:\Users\stoma\AppData\Local\Temp\ccLygOki.s 			page 266


 15087 0e34 00000000 		.4byte	0
 15088              	.LLST64:
 15089 0e38 00000000 		.4byte	.LVL165
 15090 0e3c 10000000 		.4byte	.LVL166
 15091 0e40 0100     		.2byte	0x1
 15092 0e42 50       		.byte	0x50
 15093 0e43 10000000 		.4byte	.LVL166
 15094 0e47 26000000 		.4byte	.LVL168
 15095 0e4b 0100     		.2byte	0x1
 15096 0e4d 54       		.byte	0x54
 15097 0e4e 26000000 		.4byte	.LVL168
 15098 0e52 28000000 		.4byte	.LVL169
 15099 0e56 0400     		.2byte	0x4
 15100 0e58 F3       		.byte	0xf3
 15101 0e59 01       		.uleb128 0x1
 15102 0e5a 50       		.byte	0x50
 15103 0e5b 9F       		.byte	0x9f
 15104 0e5c 28000000 		.4byte	.LVL169
 15105 0e60 3A000000 		.4byte	.LVL171
 15106 0e64 0100     		.2byte	0x1
 15107 0e66 54       		.byte	0x54
 15108 0e67 3A000000 		.4byte	.LVL171
 15109 0e6b 44000000 		.4byte	.LFE276
 15110 0e6f 0400     		.2byte	0x4
 15111 0e71 F3       		.byte	0xf3
 15112 0e72 01       		.uleb128 0x1
 15113 0e73 50       		.byte	0x50
 15114 0e74 9F       		.byte	0x9f
 15115 0e75 00000000 		.4byte	0
 15116 0e79 00000000 		.4byte	0
 15117              	.LLST65:
 15118 0e7d 00000000 		.4byte	.LVL165
 15119 0e81 10000000 		.4byte	.LVL166
 15120 0e85 0300     		.2byte	0x3
 15121 0e87 70       		.byte	0x70
 15122 0e88 D000     		.sleb128 80
 15123 0e8a 10000000 		.4byte	.LVL166
 15124 0e8e 13000000 		.4byte	.LVL167-1
 15125 0e92 0300     		.2byte	0x3
 15126 0e94 74       		.byte	0x74
 15127 0e95 D000     		.sleb128 80
 15128 0e97 00000000 		.4byte	0
 15129 0e9b 00000000 		.4byte	0
 15130              	.LLST57:
 15131 0e9f 00000000 		.4byte	.LVL147
 15132 0ea3 18000000 		.4byte	.LVL148
 15133 0ea7 0100     		.2byte	0x1
 15134 0ea9 50       		.byte	0x50
 15135 0eaa 18000000 		.4byte	.LVL148
 15136 0eae 8E000000 		.4byte	.LVL155
 15137 0eb2 0100     		.2byte	0x1
 15138 0eb4 55       		.byte	0x55
 15139 0eb5 8E000000 		.4byte	.LVL155
 15140 0eb9 9C000000 		.4byte	.LVL156
 15141 0ebd 0100     		.2byte	0x1
 15142 0ebf 50       		.byte	0x50
 15143 0ec0 9C000000 		.4byte	.LVL156
ARM GAS  C:\Users\stoma\AppData\Local\Temp\ccLygOki.s 			page 267


 15144 0ec4 F8000000 		.4byte	.LFE275
 15145 0ec8 0100     		.2byte	0x1
 15146 0eca 55       		.byte	0x55
 15147 0ecb 00000000 		.4byte	0
 15148 0ecf 00000000 		.4byte	0
 15149              	.LLST58:
 15150 0ed3 00000000 		.4byte	.LVL147
 15151 0ed7 18000000 		.4byte	.LVL148
 15152 0edb 0300     		.2byte	0x3
 15153 0edd 70       		.byte	0x70
 15154 0ede D000     		.sleb128 80
 15155 0ee0 8E000000 		.4byte	.LVL155
 15156 0ee4 9C000000 		.4byte	.LVL156
 15157 0ee8 0300     		.2byte	0x3
 15158 0eea 70       		.byte	0x70
 15159 0eeb D000     		.sleb128 80
 15160 0eed 9C000000 		.4byte	.LVL156
 15161 0ef1 AB000000 		.4byte	.LVL157-1
 15162 0ef5 0300     		.2byte	0x3
 15163 0ef7 75       		.byte	0x75
 15164 0ef8 D000     		.sleb128 80
 15165 0efa 00000000 		.4byte	0
 15166 0efe 00000000 		.4byte	0
 15167              	.LLST59:
 15168 0f02 32000000 		.4byte	.LVL149
 15169 0f06 8E000000 		.4byte	.LVL155
 15170 0f0a 0100     		.2byte	0x1
 15171 0f0c 55       		.byte	0x55
 15172 0f0d B0000000 		.4byte	.LVL158
 15173 0f11 F8000000 		.4byte	.LFE275
 15174 0f15 0100     		.2byte	0x1
 15175 0f17 55       		.byte	0x55
 15176 0f18 00000000 		.4byte	0
 15177 0f1c 00000000 		.4byte	0
 15178              	.LLST60:
 15179 0f20 32000000 		.4byte	.LVL149
 15180 0f24 35000000 		.4byte	.LVL150-1
 15181 0f28 0300     		.2byte	0x3
 15182 0f2a 75       		.byte	0x75
 15183 0f2b D000     		.sleb128 80
 15184 0f2d 00000000 		.4byte	0
 15185 0f31 00000000 		.4byte	0
 15186              	.LLST61:
 15187 0f35 32000000 		.4byte	.LVL149
 15188 0f39 36000000 		.4byte	.LVL150
 15189 0f3d 0300     		.2byte	0x3
 15190 0f3f 08       		.byte	0x8
 15191 0f40 20       		.byte	0x20
 15192 0f41 9F       		.byte	0x9f
 15193 0f42 00000000 		.4byte	0
 15194 0f46 00000000 		.4byte	0
 15195              	.LLST62:
 15196 0f4a 40000000 		.4byte	.LVL151
 15197 0f4e 8E000000 		.4byte	.LVL155
 15198 0f52 0200     		.2byte	0x2
 15199 0f54 3C       		.byte	0x3c
 15200 0f55 9F       		.byte	0x9f
ARM GAS  C:\Users\stoma\AppData\Local\Temp\ccLygOki.s 			page 268


 15201 0f56 B0000000 		.4byte	.LVL158
 15202 0f5a F8000000 		.4byte	.LFE275
 15203 0f5e 0200     		.2byte	0x2
 15204 0f60 3C       		.byte	0x3c
 15205 0f61 9F       		.byte	0x9f
 15206 0f62 00000000 		.4byte	0
 15207 0f66 00000000 		.4byte	0
 15208              	.LLST63:
 15209 0f6a C4000000 		.4byte	.LVL160
 15210 0f6e D0000000 		.4byte	.LVL161
 15211 0f72 0100     		.2byte	0x1
 15212 0f74 50       		.byte	0x50
 15213 0f75 D0000000 		.4byte	.LVL161
 15214 0f79 DA000000 		.4byte	.LVL163
 15215 0f7d 0100     		.2byte	0x1
 15216 0f7f 54       		.byte	0x54
 15217 0f80 00000000 		.4byte	0
 15218 0f84 00000000 		.4byte	0
 15219              	.LLST131:
 15220 0f88 0C000000 		.4byte	.LVL287
 15221 0f8c 60000000 		.4byte	.LVL295
 15222 0f90 0600     		.2byte	0x6
 15223 0f92 03       		.byte	0x3
 15224 0f93 00000000 		.4byte	USBD1
 15225 0f97 9F       		.byte	0x9f
 15226 0f98 6C000000 		.4byte	.LVL297
 15227 0f9c B6000000 		.4byte	.LVL310
 15228 0fa0 0600     		.2byte	0x6
 15229 0fa2 03       		.byte	0x3
 15230 0fa3 00000000 		.4byte	USBD1
 15231 0fa7 9F       		.byte	0x9f
 15232 0fa8 C2000000 		.4byte	.LVL312
 15233 0fac 14010000 		.4byte	.LFE273
 15234 0fb0 0600     		.2byte	0x6
 15235 0fb2 03       		.byte	0x3
 15236 0fb3 00000000 		.4byte	USBD1
 15237 0fb7 9F       		.byte	0x9f
 15238 0fb8 00000000 		.4byte	0
 15239 0fbc 00000000 		.4byte	0
 15240              	.LLST132:
 15241 0fc0 0E000000 		.4byte	.LVL288
 15242 0fc4 4A000000 		.4byte	.LVL293
 15243 0fc8 0100     		.2byte	0x1
 15244 0fca 56       		.byte	0x56
 15245 0fcb 6C000000 		.4byte	.LVL297
 15246 0fcf B0000000 		.4byte	.LVL309
 15247 0fd3 0100     		.2byte	0x1
 15248 0fd5 56       		.byte	0x56
 15249 0fd6 E2000000 		.4byte	.LVL316
 15250 0fda F4000000 		.4byte	.LVL319
 15251 0fde 0100     		.2byte	0x1
 15252 0fe0 56       		.byte	0x56
 15253 0fe1 F8000000 		.4byte	.LVL320
 15254 0fe5 04010000 		.4byte	.LVL322
 15255 0fe9 0100     		.2byte	0x1
 15256 0feb 56       		.byte	0x56
 15257 0fec 00000000 		.4byte	0
ARM GAS  C:\Users\stoma\AppData\Local\Temp\ccLygOki.s 			page 269


 15258 0ff0 00000000 		.4byte	0
 15259              	.LLST133:
 15260 0ff4 10000000 		.4byte	.LVL289
 15261 0ff8 4E000000 		.4byte	.LVL294
 15262 0ffc 0100     		.2byte	0x1
 15263 0ffe 54       		.byte	0x54
 15264 0fff 6C000000 		.4byte	.LVL297
 15265 1003 B0000000 		.4byte	.LVL309
 15266 1007 0100     		.2byte	0x1
 15267 1009 54       		.byte	0x54
 15268 100a E2000000 		.4byte	.LVL316
 15269 100e 14010000 		.4byte	.LFE273
 15270 1012 0100     		.2byte	0x1
 15271 1014 54       		.byte	0x54
 15272 1015 00000000 		.4byte	0
 15273 1019 00000000 		.4byte	0
 15274              	.LLST134:
 15275 101d 3A000000 		.4byte	.LVL292
 15276 1021 60000000 		.4byte	.LVL295
 15277 1025 0100     		.2byte	0x1
 15278 1027 55       		.byte	0x55
 15279 1028 B0000000 		.4byte	.LVL309
 15280 102c B6000000 		.4byte	.LVL310
 15281 1030 0100     		.2byte	0x1
 15282 1032 55       		.byte	0x55
 15283 1033 C2000000 		.4byte	.LVL312
 15284 1037 14010000 		.4byte	.LFE273
 15285 103b 0100     		.2byte	0x1
 15286 103d 55       		.byte	0x55
 15287 103e 00000000 		.4byte	0
 15288 1042 00000000 		.4byte	0
 15289              	.LLST135:
 15290 1046 82000000 		.4byte	.LVL300
 15291 104a 88000000 		.4byte	.LVL301
 15292 104e 0300     		.2byte	0x3
 15293 1050 08       		.byte	0x8
 15294 1051 20       		.byte	0x20
 15295 1052 9F       		.byte	0x9f
 15296 1053 00000000 		.4byte	0
 15297 1057 00000000 		.4byte	0
 15298              	.LLST136:
 15299 105b 9A000000 		.4byte	.LVL304
 15300 105f A0000000 		.4byte	.LVL305
 15301 1063 0200     		.2byte	0x2
 15302 1065 30       		.byte	0x30
 15303 1066 9F       		.byte	0x9f
 15304 1067 00000000 		.4byte	0
 15305 106b 00000000 		.4byte	0
 15306              	.LLST137:
 15307 106f 9A000000 		.4byte	.LVL304
 15308 1073 A0000000 		.4byte	.LVL305
 15309 1077 0600     		.2byte	0x6
 15310 1079 03       		.byte	0x3
 15311 107a 60000000 		.4byte	USBD1+96
 15312 107e 9F       		.byte	0x9f
 15313 107f 00000000 		.4byte	0
 15314 1083 00000000 		.4byte	0
ARM GAS  C:\Users\stoma\AppData\Local\Temp\ccLygOki.s 			page 270


 15315              	.LLST138:
 15316 1087 A8000000 		.4byte	.LVL307
 15317 108b AE000000 		.4byte	.LVL308
 15318 108f 0200     		.2byte	0x2
 15319 1091 30       		.byte	0x30
 15320 1092 9F       		.byte	0x9f
 15321 1093 00000000 		.4byte	0
 15322 1097 00000000 		.4byte	0
 15323              	.LLST0:
 15324 109b 00000000 		.4byte	.LVL0
 15325 109f 16000000 		.4byte	.LVL1
 15326 10a3 0200     		.2byte	0x2
 15327 10a5 30       		.byte	0x30
 15328 10a6 9F       		.byte	0x9f
 15329 10a7 16000000 		.4byte	.LVL1
 15330 10ab 74000000 		.4byte	.LFE293
 15331 10af 0100     		.2byte	0x1
 15332 10b1 54       		.byte	0x54
 15333 10b2 00000000 		.4byte	0
 15334 10b6 00000000 		.4byte	0
 15335              	.LLST109:
 15336 10ba 00000000 		.4byte	.LVL231
 15337 10be 18000000 		.4byte	.LVL234
 15338 10c2 0100     		.2byte	0x1
 15339 10c4 50       		.byte	0x50
 15340 10c5 18000000 		.4byte	.LVL234
 15341 10c9 AC000000 		.4byte	.LFE300
 15342 10cd 0400     		.2byte	0x4
 15343 10cf F3       		.byte	0xf3
 15344 10d0 01       		.uleb128 0x1
 15345 10d1 50       		.byte	0x50
 15346 10d2 9F       		.byte	0x9f
 15347 10d3 00000000 		.4byte	0
 15348 10d7 00000000 		.4byte	0
 15349              	.LLST110:
 15350 10db 08000000 		.4byte	.LVL232
 15351 10df 64000000 		.4byte	.LVL240
 15352 10e3 0100     		.2byte	0x1
 15353 10e5 57       		.byte	0x57
 15354 10e6 66000000 		.4byte	.LVL241
 15355 10ea A6000000 		.4byte	.LVL252
 15356 10ee 0100     		.2byte	0x1
 15357 10f0 57       		.byte	0x57
 15358 10f1 00000000 		.4byte	0
 15359 10f5 00000000 		.4byte	0
 15360              	.LLST111:
 15361 10f9 12000000 		.4byte	.LVL233
 15362 10fd 50000000 		.4byte	.LVL238
 15363 1101 0100     		.2byte	0x1
 15364 1103 54       		.byte	0x54
 15365 1104 66000000 		.4byte	.LVL241
 15366 1108 6A000000 		.4byte	.LVL242
 15367 110c 0100     		.2byte	0x1
 15368 110e 54       		.byte	0x54
 15369 110f 00000000 		.4byte	0
 15370 1113 00000000 		.4byte	0
 15371              	.LLST112:
ARM GAS  C:\Users\stoma\AppData\Local\Temp\ccLygOki.s 			page 271


 15372 1117 44000000 		.4byte	.LVL236
 15373 111b 4E000000 		.4byte	.LVL237
 15374 111f 0100     		.2byte	0x1
 15375 1121 53       		.byte	0x53
 15376 1122 4E000000 		.4byte	.LVL237
 15377 1126 5E000000 		.4byte	.LVL239
 15378 112a 0200     		.2byte	0x2
 15379 112c 71       		.byte	0x71
 15380 112d 18       		.sleb128 24
 15381 112e 5E000000 		.4byte	.LVL239
 15382 1132 64000000 		.4byte	.LVL240
 15383 1136 0C00     		.2byte	0xc
 15384 1138 71       		.byte	0x71
 15385 1139 00       		.sleb128 0
 15386 113a 32       		.byte	0x32
 15387 113b 24       		.byte	0x24
 15388 113c 76       		.byte	0x76
 15389 113d 00       		.sleb128 0
 15390 113e 22       		.byte	0x22
 15391 113f 23       		.byte	0x23
 15392 1140 0C       		.uleb128 0xc
 15393 1141 06       		.byte	0x6
 15394 1142 23       		.byte	0x23
 15395 1143 18       		.uleb128 0x18
 15396 1144 64000000 		.4byte	.LVL240
 15397 1148 65000000 		.4byte	.LVL241-1
 15398 114c 0C00     		.2byte	0xc
 15399 114e 71       		.byte	0x71
 15400 114f 00       		.sleb128 0
 15401 1150 32       		.byte	0x32
 15402 1151 24       		.byte	0x24
 15403 1152 70       		.byte	0x70
 15404 1153 00       		.sleb128 0
 15405 1154 22       		.byte	0x22
 15406 1155 23       		.byte	0x23
 15407 1156 0C       		.uleb128 0xc
 15408 1157 06       		.byte	0x6
 15409 1158 23       		.byte	0x23
 15410 1159 18       		.uleb128 0x18
 15411 115a 66000000 		.4byte	.LVL241
 15412 115e 75000000 		.4byte	.LVL243-1
 15413 1162 0100     		.2byte	0x1
 15414 1164 53       		.byte	0x53
 15415 1165 00000000 		.4byte	0
 15416 1169 00000000 		.4byte	0
 15417              	.LLST113:
 15418 116d 76000000 		.4byte	.LVL243
 15419 1171 7C000000 		.4byte	.LVL244
 15420 1175 0300     		.2byte	0x3
 15421 1177 08       		.byte	0x8
 15422 1178 20       		.byte	0x20
 15423 1179 9F       		.byte	0x9f
 15424 117a 00000000 		.4byte	0
 15425 117e 00000000 		.4byte	0
 15426              	.LLST114:
 15427 1182 84000000 		.4byte	.LVL246
 15428 1186 8A000000 		.4byte	.LVL247
ARM GAS  C:\Users\stoma\AppData\Local\Temp\ccLygOki.s 			page 272


 15429 118a 0100     		.2byte	0x1
 15430 118c 55       		.byte	0x55
 15431 118d 00000000 		.4byte	0
 15432 1191 00000000 		.4byte	0
 15433              	.LLST115:
 15434 1195 84000000 		.4byte	.LVL246
 15435 1199 96000000 		.4byte	.LVL248
 15436 119d 0600     		.2byte	0x6
 15437 119f 03       		.byte	0x3
 15438 11a0 00000000 		.4byte	USBD1
 15439 11a4 9F       		.byte	0x9f
 15440 11a5 00000000 		.4byte	0
 15441 11a9 00000000 		.4byte	0
 15442              	.LLST116:
 15443 11ad 9E000000 		.4byte	.LVL250
 15444 11b1 A2000000 		.4byte	.LVL251
 15445 11b5 0200     		.2byte	0x2
 15446 11b7 30       		.byte	0x30
 15447 11b8 9F       		.byte	0x9f
 15448 11b9 00000000 		.4byte	0
 15449 11bd 00000000 		.4byte	0
 15450              	.LLST121:
 15451 11c1 00000000 		.4byte	.LVL260
 15452 11c5 2C000000 		.4byte	.LVL264
 15453 11c9 0100     		.2byte	0x1
 15454 11cb 50       		.byte	0x50
 15455 11cc 2C000000 		.4byte	.LVL264
 15456 11d0 F0000000 		.4byte	.LFE299
 15457 11d4 0400     		.2byte	0x4
 15458 11d6 F3       		.byte	0xf3
 15459 11d7 01       		.uleb128 0x1
 15460 11d8 50       		.byte	0x50
 15461 11d9 9F       		.byte	0x9f
 15462 11da 00000000 		.4byte	0
 15463 11de 00000000 		.4byte	0
 15464              	.LLST122:
 15465 11e2 2A000000 		.4byte	.LVL263
 15466 11e6 34000000 		.4byte	.LVL265
 15467 11ea 0100     		.2byte	0x1
 15468 11ec 53       		.byte	0x53
 15469 11ed 34000000 		.4byte	.LVL265
 15470 11f1 44000000 		.4byte	.LVL266
 15471 11f5 0200     		.2byte	0x2
 15472 11f7 71       		.byte	0x71
 15473 11f8 14       		.sleb128 20
 15474 11f9 44000000 		.4byte	.LVL266
 15475 11fd 47000000 		.4byte	.LVL267-1
 15476 1201 0C00     		.2byte	0xc
 15477 1203 71       		.byte	0x71
 15478 1204 00       		.sleb128 0
 15479 1205 32       		.byte	0x32
 15480 1206 24       		.byte	0x24
 15481 1207 76       		.byte	0x76
 15482 1208 00       		.sleb128 0
 15483 1209 22       		.byte	0x22
 15484 120a 23       		.byte	0x23
 15485 120b 0C       		.uleb128 0xc
ARM GAS  C:\Users\stoma\AppData\Local\Temp\ccLygOki.s 			page 273


 15486 120c 06       		.byte	0x6
 15487 120d 23       		.byte	0x23
 15488 120e 14       		.uleb128 0x14
 15489 120f 98000000 		.4byte	.LVL277
 15490 1213 A9000000 		.4byte	.LVL278-1
 15491 1217 0100     		.2byte	0x1
 15492 1219 53       		.byte	0x53
 15493 121a 00000000 		.4byte	0
 15494 121e 00000000 		.4byte	0
 15495              	.LLST123:
 15496 1222 AA000000 		.4byte	.LVL278
 15497 1226 B0000000 		.4byte	.LVL279
 15498 122a 0300     		.2byte	0x3
 15499 122c 08       		.byte	0x8
 15500 122d 20       		.byte	0x20
 15501 122e 9F       		.byte	0x9f
 15502 122f 00000000 		.4byte	0
 15503 1233 00000000 		.4byte	0
 15504              	.LLST124:
 15505 1237 B8000000 		.4byte	.LVL281
 15506 123b D8000000 		.4byte	.LVL282
 15507 123f 0100     		.2byte	0x1
 15508 1241 57       		.byte	0x57
 15509 1242 00000000 		.4byte	0
 15510 1246 00000000 		.4byte	0
 15511              	.LLST125:
 15512 124a B8000000 		.4byte	.LVL281
 15513 124e D8000000 		.4byte	.LVL282
 15514 1252 0600     		.2byte	0x6
 15515 1254 03       		.byte	0x3
 15516 1255 00000000 		.4byte	USBD1
 15517 1259 9F       		.byte	0x9f
 15518 125a 00000000 		.4byte	0
 15519 125e 00000000 		.4byte	0
 15520              	.LLST126:
 15521 1262 E0000000 		.4byte	.LVL284
 15522 1266 E4000000 		.4byte	.LVL285
 15523 126a 0200     		.2byte	0x2
 15524 126c 30       		.byte	0x30
 15525 126d 9F       		.byte	0x9f
 15526 126e 00000000 		.4byte	0
 15527 1272 00000000 		.4byte	0
 15528              	.LLST127:
 15529 1276 5E000000 		.4byte	.LVL268
 15530 127a 64000000 		.4byte	.LVL269
 15531 127e 0300     		.2byte	0x3
 15532 1280 08       		.byte	0x8
 15533 1281 20       		.byte	0x20
 15534 1282 9F       		.byte	0x9f
 15535 1283 00000000 		.4byte	0
 15536 1287 00000000 		.4byte	0
 15537              	.LLST128:
 15538 128b 7C000000 		.4byte	.LVL272
 15539 128f 86000000 		.4byte	.LVL273
 15540 1293 0200     		.2byte	0x2
 15541 1295 30       		.byte	0x30
 15542 1296 9F       		.byte	0x9f
ARM GAS  C:\Users\stoma\AppData\Local\Temp\ccLygOki.s 			page 274


 15543 1297 00000000 		.4byte	0
 15544 129b 00000000 		.4byte	0
 15545              	.LLST129:
 15546 129f 7C000000 		.4byte	.LVL272
 15547 12a3 86000000 		.4byte	.LVL273
 15548 12a7 0600     		.2byte	0x6
 15549 12a9 03       		.byte	0x3
 15550 12aa 60000000 		.4byte	USBD1+96
 15551 12ae 9F       		.byte	0x9f
 15552 12af 00000000 		.4byte	0
 15553 12b3 00000000 		.4byte	0
 15554              	.LLST130:
 15555 12b7 8E000000 		.4byte	.LVL275
 15556 12bb 94000000 		.4byte	.LVL276
 15557 12bf 0200     		.2byte	0x2
 15558 12c1 30       		.byte	0x30
 15559 12c2 9F       		.byte	0x9f
 15560 12c3 00000000 		.4byte	0
 15561 12c7 00000000 		.4byte	0
 15562              	.LLST139:
 15563 12cb 00000000 		.4byte	.LVL324
 15564 12cf 06000000 		.4byte	.LVL325
 15565 12d3 0100     		.2byte	0x1
 15566 12d5 51       		.byte	0x51
 15567 12d6 06000000 		.4byte	.LVL325
 15568 12da 14000000 		.4byte	.LFE286
 15569 12de 0400     		.2byte	0x4
 15570 12e0 F3       		.byte	0xf3
 15571 12e1 01       		.uleb128 0x1
 15572 12e2 51       		.byte	0x51
 15573 12e3 9F       		.byte	0x9f
 15574 12e4 00000000 		.4byte	0
 15575 12e8 00000000 		.4byte	0
 15576              	.LLST140:
 15577 12ec 00000000 		.4byte	.LVL326
 15578 12f0 0E000000 		.4byte	.LVL327
 15579 12f4 0100     		.2byte	0x1
 15580 12f6 50       		.byte	0x50
 15581 12f7 0E000000 		.4byte	.LVL327
 15582 12fb 2A000000 		.4byte	.LFE287
 15583 12ff 0400     		.2byte	0x4
 15584 1301 F3       		.byte	0xf3
 15585 1302 01       		.uleb128 0x1
 15586 1303 50       		.byte	0x50
 15587 1304 9F       		.byte	0x9f
 15588 1305 00000000 		.4byte	0
 15589 1309 00000000 		.4byte	0
 15590              	.LLST141:
 15591 130d 00000000 		.4byte	.LVL326
 15592 1311 22000000 		.4byte	.LVL328
 15593 1315 0100     		.2byte	0x1
 15594 1317 51       		.byte	0x51
 15595 1318 22000000 		.4byte	.LVL328
 15596 131c 2A000000 		.4byte	.LFE287
 15597 1320 0400     		.2byte	0x4
 15598 1322 F3       		.byte	0xf3
 15599 1323 01       		.uleb128 0x1
ARM GAS  C:\Users\stoma\AppData\Local\Temp\ccLygOki.s 			page 275


 15600 1324 51       		.byte	0x51
 15601 1325 9F       		.byte	0x9f
 15602 1326 00000000 		.4byte	0
 15603 132a 00000000 		.4byte	0
 15604              		.section	.debug_aranges,"",%progbits
 15605 0000 CC000000 		.4byte	0xcc
 15606 0004 0200     		.2byte	0x2
 15607 0006 00000000 		.4byte	.Ldebug_info0
 15608 000a 04       		.byte	0x4
 15609 000b 00       		.byte	0
 15610 000c 0000     		.2byte	0
 15611 000e 0000     		.2byte	0
 15612 0010 00000000 		.4byte	.LFB293
 15613 0014 74000000 		.4byte	.LFE293-.LFB293
 15614 0018 00000000 		.4byte	.LFB292
 15615 001c 84040000 		.4byte	.LFE292-.LFB292
 15616 0020 00000000 		.4byte	.LFB274
 15617 0024 44000000 		.4byte	.LFE274-.LFB274
 15618 0028 00000000 		.4byte	.LFB275
 15619 002c F8000000 		.4byte	.LFE275-.LFB275
 15620 0030 00000000 		.4byte	.LFB276
 15621 0034 44000000 		.4byte	.LFE276-.LFB276
 15622 0038 00000000 		.4byte	.LFB277
 15623 003c D0000000 		.4byte	.LFE277-.LFB277
 15624 0040 00000000 		.4byte	.LFB278
 15625 0044 18000000 		.4byte	.LFE278-.LFB278
 15626 0048 00000000 		.4byte	.LFB279
 15627 004c 84010000 		.4byte	.LFE279-.LFB279
 15628 0050 00000000 		.4byte	.LFB280
 15629 0054 0E000000 		.4byte	.LFE280-.LFB280
 15630 0058 00000000 		.4byte	.LFB281
 15631 005c 1A000000 		.4byte	.LFE281-.LFB281
 15632 0060 00000000 		.4byte	.LFB282
 15633 0064 1A000000 		.4byte	.LFE282-.LFB282
 15634 0068 00000000 		.4byte	.LFB283
 15635 006c 12000000 		.4byte	.LFE283-.LFB283
 15636 0070 00000000 		.4byte	.LFB284
 15637 0074 40000000 		.4byte	.LFE284-.LFB284
 15638 0078 00000000 		.4byte	.LFB300
 15639 007c AC000000 		.4byte	.LFE300-.LFB300
 15640 0080 00000000 		.4byte	.LFB285
 15641 0084 4C000000 		.4byte	.LFE285-.LFB285
 15642 0088 00000000 		.4byte	.LFB299
 15643 008c F0000000 		.4byte	.LFE299-.LFB299
 15644 0090 00000000 		.4byte	.LFB273
 15645 0094 14010000 		.4byte	.LFE273-.LFB273
 15646 0098 00000000 		.4byte	.LFB286
 15647 009c 14000000 		.4byte	.LFE286-.LFB286
 15648 00a0 00000000 		.4byte	.LFB287
 15649 00a4 2A000000 		.4byte	.LFE287-.LFB287
 15650 00a8 00000000 		.4byte	.LFB288
 15651 00ac 14000000 		.4byte	.LFE288-.LFB288
 15652 00b0 00000000 		.4byte	.LFB289
 15653 00b4 14000000 		.4byte	.LFE289-.LFB289
 15654 00b8 00000000 		.4byte	.LFB290
 15655 00bc 14000000 		.4byte	.LFE290-.LFB290
 15656 00c0 00000000 		.4byte	.LFB291
ARM GAS  C:\Users\stoma\AppData\Local\Temp\ccLygOki.s 			page 276


 15657 00c4 14000000 		.4byte	.LFE291-.LFB291
 15658 00c8 00000000 		.4byte	0
 15659 00cc 00000000 		.4byte	0
 15660              		.section	.debug_ranges,"",%progbits
 15661              	.Ldebug_ranges0:
 15662 0000 04000000 		.4byte	.LBB421
 15663 0004 0A000000 		.4byte	.LBE421
 15664 0008 0E000000 		.4byte	.LBB424
 15665 000c 10000000 		.4byte	.LBE424
 15666 0010 00000000 		.4byte	0
 15667 0014 00000000 		.4byte	0
 15668 0018 26000000 		.4byte	.LBB432
 15669 001c 2C000000 		.4byte	.LBE432
 15670 0020 50000000 		.4byte	.LBB447
 15671 0024 74000000 		.4byte	.LBE447
 15672 0028 00000000 		.4byte	0
 15673 002c 00000000 		.4byte	0
 15674 0030 26000000 		.4byte	.LBB435
 15675 0034 2C000000 		.4byte	.LBE435
 15676 0038 6E000000 		.4byte	.LBB440
 15677 003c 74000000 		.4byte	.LBE440
 15678 0040 00000000 		.4byte	0
 15679 0044 00000000 		.4byte	0
 15680 0048 42000000 		.4byte	.LBB443
 15681 004c 44000000 		.4byte	.LBE443
 15682 0050 4C000000 		.4byte	.LBB446
 15683 0054 50000000 		.4byte	.LBE446
 15684 0058 00000000 		.4byte	0
 15685 005c 00000000 		.4byte	0
 15686 0060 7E000000 		.4byte	.LBB448
 15687 0064 2C010000 		.4byte	.LBE448
 15688 0068 66010000 		.4byte	.LBB490
 15689 006c 24020000 		.4byte	.LBE490
 15690 0070 00000000 		.4byte	0
 15691 0074 00000000 		.4byte	0
 15692 0078 A0000000 		.4byte	.LBB450
 15693 007c A4000000 		.4byte	.LBE450
 15694 0080 A6000000 		.4byte	.LBB456
 15695 0084 D6000000 		.4byte	.LBE456
 15696 0088 00000000 		.4byte	0
 15697 008c 00000000 		.4byte	0
 15698 0090 AE000000 		.4byte	.LBB452
 15699 0094 BC000000 		.4byte	.LBE452
 15700 0098 C0000000 		.4byte	.LBB453
 15701 009c C8000000 		.4byte	.LBE453
 15702 00a0 CE000000 		.4byte	.LBB454
 15703 00a4 D0000000 		.4byte	.LBE454
 15704 00a8 00000000 		.4byte	0
 15705 00ac 00000000 		.4byte	0
 15706 00b0 F4000000 		.4byte	.LBB457
 15707 00b4 24010000 		.4byte	.LBE457
 15708 00b8 66010000 		.4byte	.LBB462
 15709 00bc 76010000 		.4byte	.LBE462
 15710 00c0 00000000 		.4byte	0
 15711 00c4 00000000 		.4byte	0
 15712 00c8 0E010000 		.4byte	.LBB459
 15713 00cc 1E010000 		.4byte	.LBE459
ARM GAS  C:\Users\stoma\AppData\Local\Temp\ccLygOki.s 			page 277


 15714 00d0 6C010000 		.4byte	.LBB460
 15715 00d4 70010000 		.4byte	.LBE460
 15716 00d8 00000000 		.4byte	0
 15717 00dc 00000000 		.4byte	0
 15718 00e0 6E020000 		.4byte	.LBB504
 15719 00e4 86030000 		.4byte	.LBE504
 15720 00e8 D4030000 		.4byte	.LBB565
 15721 00ec 3C040000 		.4byte	.LBE565
 15722 00f0 00000000 		.4byte	0
 15723 00f4 00000000 		.4byte	0
 15724 00f8 C2020000 		.4byte	.LBB506
 15725 00fc 56030000 		.4byte	.LBE506
 15726 0100 D4030000 		.4byte	.LBB536
 15727 0104 0E040000 		.4byte	.LBE536
 15728 0108 30040000 		.4byte	.LBB541
 15729 010c 38040000 		.4byte	.LBE541
 15730 0110 00000000 		.4byte	0
 15731 0114 00000000 		.4byte	0
 15732 0118 C8020000 		.4byte	.LBB508
 15733 011c 08030000 		.4byte	.LBE508
 15734 0120 D4030000 		.4byte	.LBB532
 15735 0124 06040000 		.4byte	.LBE532
 15736 0128 30040000 		.4byte	.LBB533
 15737 012c 38040000 		.4byte	.LBE533
 15738 0130 00000000 		.4byte	0
 15739 0134 00000000 		.4byte	0
 15740 0138 C8020000 		.4byte	.LBB509
 15741 013c CC020000 		.4byte	.LBE509
 15742 0140 D6020000 		.4byte	.LBB514
 15743 0144 08030000 		.4byte	.LBE514
 15744 0148 30040000 		.4byte	.LBB515
 15745 014c 38040000 		.4byte	.LBE515
 15746 0150 00000000 		.4byte	0
 15747 0154 00000000 		.4byte	0
 15748 0158 EA020000 		.4byte	.LBB510
 15749 015c FE020000 		.4byte	.LBE510
 15750 0160 30040000 		.4byte	.LBB513
 15751 0164 38040000 		.4byte	.LBE513
 15752 0168 00000000 		.4byte	0
 15753 016c 00000000 		.4byte	0
 15754 0170 86030000 		.4byte	.LBB543
 15755 0174 94030000 		.4byte	.LBE543
 15756 0178 3C040000 		.4byte	.LBB566
 15757 017c 4A040000 		.4byte	.LBE566
 15758 0180 5E040000 		.4byte	.LBB567
 15759 0184 6C040000 		.4byte	.LBE567
 15760 0188 00000000 		.4byte	0
 15761 018c 00000000 		.4byte	0
 15762 0190 86030000 		.4byte	.LBB546
 15763 0194 8C030000 		.4byte	.LBE546
 15764 0198 3C040000 		.4byte	.LBB553
 15765 019c 42040000 		.4byte	.LBE553
 15766 01a0 5E040000 		.4byte	.LBB554
 15767 01a4 64040000 		.4byte	.LBE554
 15768 01a8 00000000 		.4byte	0
 15769 01ac 00000000 		.4byte	0
 15770 01b0 0A000000 		.4byte	.LBB568
ARM GAS  C:\Users\stoma\AppData\Local\Temp\ccLygOki.s 			page 278


 15771 01b4 0E000000 		.4byte	.LBE568
 15772 01b8 16000000 		.4byte	.LBB569
 15773 01bc 1C000000 		.4byte	.LBE569
 15774 01c0 20000000 		.4byte	.LBB570
 15775 01c4 22000000 		.4byte	.LBE570
 15776 01c8 26000000 		.4byte	.LBB571
 15777 01cc 32000000 		.4byte	.LBE571
 15778 01d0 36000000 		.4byte	.LBB572
 15779 01d4 44000000 		.4byte	.LBE572
 15780 01d8 00000000 		.4byte	0
 15781 01dc 00000000 		.4byte	0
 15782 01e0 2A000000 		.4byte	.LBB581
 15783 01e4 2C000000 		.4byte	.LBE581
 15784 01e8 32000000 		.4byte	.LBB590
 15785 01ec 4C000000 		.4byte	.LBE590
 15786 01f0 00000000 		.4byte	0
 15787 01f4 00000000 		.4byte	0
 15788 01f8 2A000000 		.4byte	.LBB583
 15789 01fc 2C000000 		.4byte	.LBE583
 15790 0200 32000000 		.4byte	.LBB586
 15791 0204 36000000 		.4byte	.LBE586
 15792 0208 00000000 		.4byte	0
 15793 020c 00000000 		.4byte	0
 15794 0210 C4000000 		.4byte	.LBB591
 15795 0214 CA000000 		.4byte	.LBE591
 15796 0218 CC000000 		.4byte	.LBB594
 15797 021c DA000000 		.4byte	.LBE594
 15798 0220 00000000 		.4byte	0
 15799 0224 00000000 		.4byte	0
 15800 0228 04000000 		.4byte	.LBB595
 15801 022c 06000000 		.4byte	.LBE595
 15802 0230 08000000 		.4byte	.LBB600
 15803 0234 18000000 		.4byte	.LBE600
 15804 0238 00000000 		.4byte	0
 15805 023c 00000000 		.4byte	0
 15806 0240 40000000 		.4byte	.LBB601
 15807 0244 42000000 		.4byte	.LBE601
 15808 0248 52000000 		.4byte	.LBB604
 15809 024c 54000000 		.4byte	.LBE604
 15810 0250 00000000 		.4byte	0
 15811 0254 00000000 		.4byte	0
 15812 0258 96000000 		.4byte	.LBB611
 15813 025c 9E000000 		.4byte	.LBE611
 15814 0260 A2000000 		.4byte	.LBB615
 15815 0264 A4000000 		.4byte	.LBE615
 15816 0268 60010000 		.4byte	.LBB624
 15817 026c 84010000 		.4byte	.LBE624
 15818 0270 00000000 		.4byte	0
 15819 0274 00000000 		.4byte	0
 15820 0278 3C000000 		.4byte	.LBB627
 15821 027c 60000000 		.4byte	.LBE627
 15822 0280 64000000 		.4byte	.LBB642
 15823 0284 A2000000 		.4byte	.LBE642
 15824 0288 00000000 		.4byte	0
 15825 028c 00000000 		.4byte	0
 15826 0290 12000000 		.4byte	.LBB643
 15827 0294 16000000 		.4byte	.LBE643
ARM GAS  C:\Users\stoma\AppData\Local\Temp\ccLygOki.s 			page 279


 15828 0298 1A000000 		.4byte	.LBB644
 15829 029c 2E000000 		.4byte	.LBE644
 15830 02a0 30000000 		.4byte	.LBB645
 15831 02a4 3A000000 		.4byte	.LBE645
 15832 02a8 00000000 		.4byte	0
 15833 02ac 00000000 		.4byte	0
 15834 02b0 22000000 		.4byte	.LBB646
 15835 02b4 48000000 		.4byte	.LBE646
 15836 02b8 98000000 		.4byte	.LBB683
 15837 02bc F0000000 		.4byte	.LBE683
 15838 02c0 00000000 		.4byte	0
 15839 02c4 00000000 		.4byte	0
 15840 02c8 72000000 		.4byte	.LBB670
 15841 02cc 74000000 		.4byte	.LBE670
 15842 02d0 7E000000 		.4byte	.LBB674
 15843 02d4 80000000 		.4byte	.LBE674
 15844 02d8 82000000 		.4byte	.LBB675
 15845 02dc 86000000 		.4byte	.LBE675
 15846 02e0 00000000 		.4byte	0
 15847 02e4 00000000 		.4byte	0
 15848 02e8 02000000 		.4byte	.LBB702
 15849 02ec 04000000 		.4byte	.LBE702
 15850 02f0 0C000000 		.4byte	.LBB725
 15851 02f4 60000000 		.4byte	.LBE725
 15852 02f8 6C000000 		.4byte	.LBB726
 15853 02fc B6000000 		.4byte	.LBE726
 15854 0300 C2000000 		.4byte	.LBB727
 15855 0304 14010000 		.4byte	.LBE727
 15856 0308 00000000 		.4byte	0
 15857 030c 00000000 		.4byte	0
 15858 0310 92000000 		.4byte	.LBB711
 15859 0314 94000000 		.4byte	.LBE711
 15860 0318 9A000000 		.4byte	.LBB714
 15861 031c A0000000 		.4byte	.LBE714
 15862 0320 00000000 		.4byte	0
 15863 0324 00000000 		.4byte	0
 15864 0328 00000000 		.4byte	.LFB293
 15865 032c 74000000 		.4byte	.LFE293
 15866 0330 00000000 		.4byte	.LFB292
 15867 0334 84040000 		.4byte	.LFE292
 15868 0338 00000000 		.4byte	.LFB274
 15869 033c 44000000 		.4byte	.LFE274
 15870 0340 00000000 		.4byte	.LFB275
 15871 0344 F8000000 		.4byte	.LFE275
 15872 0348 00000000 		.4byte	.LFB276
 15873 034c 44000000 		.4byte	.LFE276
 15874 0350 00000000 		.4byte	.LFB277
 15875 0354 D0000000 		.4byte	.LFE277
 15876 0358 00000000 		.4byte	.LFB278
 15877 035c 18000000 		.4byte	.LFE278
 15878 0360 00000000 		.4byte	.LFB279
 15879 0364 84010000 		.4byte	.LFE279
 15880 0368 00000000 		.4byte	.LFB280
 15881 036c 0E000000 		.4byte	.LFE280
 15882 0370 00000000 		.4byte	.LFB281
 15883 0374 1A000000 		.4byte	.LFE281
 15884 0378 00000000 		.4byte	.LFB282
ARM GAS  C:\Users\stoma\AppData\Local\Temp\ccLygOki.s 			page 280


 15885 037c 1A000000 		.4byte	.LFE282
 15886 0380 00000000 		.4byte	.LFB283
 15887 0384 12000000 		.4byte	.LFE283
 15888 0388 00000000 		.4byte	.LFB284
 15889 038c 40000000 		.4byte	.LFE284
 15890 0390 00000000 		.4byte	.LFB300
 15891 0394 AC000000 		.4byte	.LFE300
 15892 0398 00000000 		.4byte	.LFB285
 15893 039c 4C000000 		.4byte	.LFE285
 15894 03a0 00000000 		.4byte	.LFB299
 15895 03a4 F0000000 		.4byte	.LFE299
 15896 03a8 00000000 		.4byte	.LFB273
 15897 03ac 14010000 		.4byte	.LFE273
 15898 03b0 00000000 		.4byte	.LFB286
 15899 03b4 14000000 		.4byte	.LFE286
 15900 03b8 00000000 		.4byte	.LFB287
 15901 03bc 2A000000 		.4byte	.LFE287
 15902 03c0 00000000 		.4byte	.LFB288
 15903 03c4 14000000 		.4byte	.LFE288
 15904 03c8 00000000 		.4byte	.LFB289
 15905 03cc 14000000 		.4byte	.LFE289
 15906 03d0 00000000 		.4byte	.LFB290
 15907 03d4 14000000 		.4byte	.LFE290
 15908 03d8 00000000 		.4byte	.LFB291
 15909 03dc 14000000 		.4byte	.LFE291
 15910 03e0 00000000 		.4byte	0
 15911 03e4 00000000 		.4byte	0
 15912              		.section	.debug_line,"",%progbits
 15913              	.Ldebug_line0:
 15914 0000 6E0C0000 		.section	.debug_str,"MS",%progbits,1
 15914      0200CD05 
 15914      00000201 
 15914      FB0E0D00 
 15914      01010101 
 15915              	.LASF209:
 15916 0000 4D314152 		.ascii	"M1AR\000"
 15916      00
 15917              	.LASF681:
 15918 0005 63685379 		.ascii	"chSysPolledDelayX\000"
 15918      73506F6C 
 15918      6C656444 
 15918      656C6179 
 15918      5800
 15919              	.LASF167:
 15920 0017 705F7374 		.ascii	"p_stats\000"
 15920      61747300 
 15921              	.LASF335:
 15922 001f 73746D33 		.ascii	"stm32_dma_stream_t\000"
 15922      325F646D 
 15922      615F7374 
 15922      7265616D 
 15922      5F7400
 15923              	.LASF4:
 15924 0032 73697A65 		.ascii	"size_t\000"
 15924      5F7400
 15925              	.LASF124:
 15926 0039 5F5F6C6F 		.ascii	"__locale_t\000"
ARM GAS  C:\Users\stoma\AppData\Local\Temp\ccLygOki.s 			page 281


 15926      63616C65 
 15926      5F7400
 15927              	.LASF23:
 15928 0044 5F5F7661 		.ascii	"__value\000"
 15928      6C756500 
 15929              	.LASF297:
 15930 004c 63665F6F 		.ascii	"cf_off_name\000"
 15930      66665F6E 
 15930      616D6500 
 15931              	.LASF144:
 15932 0058 73797374 		.ascii	"systime_t\000"
 15932      696D655F 
 15932      7400
 15933              	.LASF92:
 15934 0062 5F5F7366 		.ascii	"__sf\000"
 15934      00
 15935              	.LASF242:
 15936 0067 504C4C49 		.ascii	"PLLI2SCFGR\000"
 15936      32534346 
 15936      475200
 15937              	.LASF286:
 15938 0072 63685F69 		.ascii	"ch_identifier\000"
 15938      64656E74 
 15938      69666965 
 15938      7200
 15939              	.LASF150:
 15940 0080 705F6374 		.ascii	"p_ctx\000"
 15940      7800
 15941              	.LASF59:
 15942 0086 5F726561 		.ascii	"_read\000"
 15942      6400
 15943              	.LASF138:
 15944 008c 74707269 		.ascii	"tprio_t\000"
 15944      6F5F7400 
 15945              	.LASF393:
 15946 0094 4F504D4F 		.ascii	"OPMODE_SMBUS_DEVICE\000"
 15946      44455F53 
 15946      4D425553 
 15946      5F444556 
 15946      49434500 
 15947              	.LASF305:
 15948 00a8 63685F64 		.ascii	"ch_debug\000"
 15948      65627567 
 15948      00
 15949              	.LASF161:
 15950 00b1 705F6D73 		.ascii	"p_msgqueue\000"
 15950      67717565 
 15950      756500
 15951              	.LASF60:
 15952 00bc 5F777269 		.ascii	"_write\000"
 15952      746500
 15953              	.LASF177:
 15954 00c3 725F6374 		.ascii	"r_ctx\000"
 15954      7800
 15955              	.LASF488:
 15956 00c9 72657376 		.ascii	"resvd18\000"
 15956      64313800 
ARM GAS  C:\Users\stoma\AppData\Local\Temp\ccLygOki.s 			page 282


 15957              	.LASF129:
 15958 00d1 696E7433 		.ascii	"int32_t\000"
 15958      325F7400 
 15959              	.LASF428:
 15960 00d9 77726974 		.ascii	"writet\000"
 15960      657400
 15961              	.LASF678:
 15962 00e0 63685468 		.ascii	"chThdDequeueAllI\000"
 15962      64446571 
 15962      75657565 
 15962      416C6C49 
 15962      00
 15963              	.LASF103:
 15964 00f1 5F617363 		.ascii	"_asctime_buf\000"
 15964      74696D65 
 15964      5F627566 
 15964      00
 15965              	.LASF690:
 15966 00fe 63685468 		.ascii	"chThdResumeI\000"
 15966      64526573 
 15966      756D6549 
 15966      00
 15967              	.LASF86:
 15968 010b 5F637674 		.ascii	"_cvtlen\000"
 15968      6C656E00 
 15969              	.LASF483:
 15970 0113 72657376 		.ascii	"resvd8\000"
 15970      643800
 15971              	.LASF294:
 15972 011a 63665F6F 		.ascii	"cf_off_ctx\000"
 15972      66665F63 
 15972      747800
 15973              	.LASF181:
 15974 0125 76746675 		.ascii	"vtfunc_t\000"
 15974      6E635F74 
 15974      00
 15975              	.LASF643:
 15976 012e 5F5F6675 		.ascii	"__func__\000"
 15976      6E635F5F 
 15976      00
 15977              	.LASF494:
 15978 0137 72657376 		.ascii	"resvdC\000"
 15978      644300
 15979              	.LASF190:
 15980 013e 63685F76 		.ascii	"ch_virtual_timers_list\000"
 15980      69727475 
 15980      616C5F74 
 15980      696D6572 
 15980      735F6C69 
 15981              	.LASF638:
 15982 0155 6F74675F 		.ascii	"otg_fifo_write_from_buffer\000"
 15982      6669666F 
 15982      5F777269 
 15982      74655F66 
 15982      726F6D5F 
 15983              	.LASF397:
 15984 0170 46415354 		.ascii	"FAST_DUTY_CYCLE_2\000"
ARM GAS  C:\Users\stoma\AppData\Local\Temp\ccLygOki.s 			page 283


 15984      5F445554 
 15984      595F4359 
 15984      434C455F 
 15984      3200
 15985              	.LASF433:
 15986 0182 696E5F70 		.ascii	"in_params\000"
 15986      6172616D 
 15986      7300
 15987              	.LASF608:
 15988 018c 7573625F 		.ascii	"usb_lld_prepare_transmit\000"
 15988      6C6C645F 
 15988      70726570 
 15988      6172655F 
 15988      7472616E 
 15989              	.LASF683:
 15990 01a5 63685363 		.ascii	"chSchReadyI\000"
 15990      68526561 
 15990      64794900 
 15991              	.LASF603:
 15992 01b1 7573625F 		.ascii	"usb_lld_clear_out\000"
 15992      6C6C645F 
 15992      636C6561 
 15992      725F6F75 
 15992      7400
 15993              	.LASF612:
 15994 01c3 7573625F 		.ascii	"usb_lld_get_status_in\000"
 15994      6C6C645F 
 15994      6765745F 
 15994      73746174 
 15994      75735F69 
 15995              	.LASF122:
 15996 01d9 5F756E75 		.ascii	"_unused\000"
 15996      73656400 
 15997              	.LASF33:
 15998 01e1 5F5F746D 		.ascii	"__tm\000"
 15998      00
 15999              	.LASF118:
 16000 01e6 5F776373 		.ascii	"_wcsrtombs_state\000"
 16000      72746F6D 
 16000      62735F73 
 16000      74617465 
 16000      00
 16001              	.LASF64:
 16002 01f7 5F6E6275 		.ascii	"_nbuf\000"
 16002      6600
 16003              	.LASF34:
 16004 01fd 5F5F746D 		.ascii	"__tm_sec\000"
 16004      5F736563 
 16004      00
 16005              	.LASF652:
 16006 0206 6F73616C 		.ascii	"osalThreadSuspendS\000"
 16006      54687265 
 16006      61645375 
 16006      7370656E 
 16006      645300
 16007              	.LASF492:
 16008 0219 72657376 		.ascii	"resvd4\000"
ARM GAS  C:\Users\stoma\AppData\Local\Temp\ccLygOki.s 			page 284


 16008      643400
 16009              	.LASF111:
 16010 0220 5F6C3634 		.ascii	"_l64a_buf\000"
 16010      615F6275 
 16010      6600
 16011              	.LASF486:
 16012 022a 48435453 		.ascii	"HCTSIZ\000"
 16012      495A00
 16013              	.LASF532:
 16014 0231 72657376 		.ascii	"resvd700\000"
 16014      64373030 
 16014      00
 16015              	.LASF312:
 16016 023a 656C5F66 		.ascii	"el_flags\000"
 16016      6C616773 
 16016      00
 16017              	.LASF616:
 16018 0243 6673697A 		.ascii	"fsize\000"
 16018      6500
 16019              	.LASF361:
 16020 0249 67707473 		.ascii	"gptstate_t\000"
 16020      74617465 
 16020      5F7400
 16021              	.LASF364:
 16022 0254 636F6E66 		.ascii	"config\000"
 16022      696700
 16023              	.LASF363:
 16024 025b 73746174 		.ascii	"state\000"
 16024      6500
 16025              	.LASF577:
 16026 0261 65705F6D 		.ascii	"ep_mode\000"
 16026      6F646500 
 16027              	.LASF349:
 16028 0269 50454461 		.ascii	"PEData\000"
 16028      746100
 16029              	.LASF68:
 16030 0270 5F6C6F63 		.ascii	"_lock\000"
 16030      6B00
 16031              	.LASF196:
 16032 0276 6C6F636B 		.ascii	"lock_cnt\000"
 16032      5F636E74 
 16032      00
 16033              	.LASF426:
 16034 027f 70757474 		.ascii	"putt\000"
 16034      00
 16035              	.LASF290:
 16036 0284 63685F70 		.ascii	"ch_ptrsize\000"
 16036      74727369 
 16036      7A6500
 16037              	.LASF99:
 16038 028f 5F6D756C 		.ascii	"_mult\000"
 16038      7400
 16039              	.LASF615:
 16040 0295 7573625F 		.ascii	"usb_lld_init_endpoint\000"
 16040      6C6C645F 
 16040      696E6974 
 16040      5F656E64 
ARM GAS  C:\Users\stoma\AppData\Local\Temp\ccLygOki.s 			page 285


 16040      706F696E 
 16041              	.LASF251:
 16042 02ab 73655F74 		.ascii	"se_tp\000"
 16042      7000
 16043              	.LASF265:
 16044 02b1 74696D65 		.ascii	"time_measurement_t\000"
 16044      5F6D6561 
 16044      73757265 
 16044      6D656E74 
 16044      5F7400
 16045              	.LASF576:
 16046 02c4 5553424F 		.ascii	"USBOutEndpointState\000"
 16046      7574456E 
 16046      64706F69 
 16046      6E745374 
 16046      61746500 
 16047              	.LASF659:
 16048 02d8 6F73616C 		.ascii	"osalSysLock\000"
 16048      5379734C 
 16048      6F636B00 
 16049              	.LASF380:
 16050 02e4 64696572 		.ascii	"dier\000"
 16050      00
 16051              	.LASF657:
 16052 02e9 6F73616C 		.ascii	"osalSysLockFromISR\000"
 16052      5379734C 
 16052      6F636B46 
 16052      726F6D49 
 16052      535200
 16053              	.LASF379:
 16054 02fc 63616C6C 		.ascii	"callback\000"
 16054      6261636B 
 16054      00
 16055              	.LASF675:
 16056 0305 5F646267 		.ascii	"_dbg_check_unlock\000"
 16056      5F636865 
 16056      636B5F75 
 16056      6E6C6F63 
 16056      6B00
 16057              	.LASF658:
 16058 0317 6F73616C 		.ascii	"osalSysUnlock\000"
 16058      53797355 
 16058      6E6C6F63 
 16058      6B00
 16059              	.LASF462:
 16060 0325 5553425F 		.ascii	"USB_EP0_WAITING_STS\000"
 16060      4550305F 
 16060      57414954 
 16060      494E475F 
 16060      53545300 
 16061              	.LASF619:
 16062 0339 7573625F 		.ascii	"usb_lld_stop\000"
 16062      6C6C645F 
 16062      73746F70 
 16062      00
 16063              	.LASF344:
 16064 0346 73746D33 		.ascii	"stm32_gpio_setup_t\000"
ARM GAS  C:\Users\stoma\AppData\Local\Temp\ccLygOki.s 			page 286


 16064      325F6770 
 16064      696F5F73 
 16064      65747570 
 16064      5F7400
 16065              	.LASF651:
 16066 0359 6F73616C 		.ascii	"osalThreadResumeI\000"
 16066      54687265 
 16066      61645265 
 16066      73756D65 
 16066      4900
 16067              	.LASF283:
 16068 036b 6D5F6F77 		.ascii	"m_owner\000"
 16068      6E657200 
 16069              	.LASF188:
 16070 0373 76745F70 		.ascii	"vt_par\000"
 16070      617200
 16071              	.LASF156:
 16072 037a 705F666C 		.ascii	"p_flags\000"
 16072      61677300 
 16073              	.LASF20:
 16074 0382 5F5F7763 		.ascii	"__wch\000"
 16074      6800
 16075              	.LASF272:
 16076 0388 65786974 		.ascii	"exitcode\000"
 16076      636F6465 
 16076      00
 16077              	.LASF5:
 16078 0391 5F5F7569 		.ascii	"__uint8_t\000"
 16078      6E74385F 
 16078      7400
 16079              	.LASF390:
 16080 039b 69326361 		.ascii	"i2caddr_t\000"
 16080      6464725F 
 16080      7400
 16081              	.LASF322:
 16082 03a5 715F746F 		.ascii	"q_top\000"
 16082      7000
 16083              	.LASF277:
 16084 03ab 65776D61 		.ascii	"ewmask\000"
 16084      736B00
 16085              	.LASF56:
 16086 03b2 5F66696C 		.ascii	"_file\000"
 16086      6500
 16087              	.LASF292:
 16088 03b8 63685F74 		.ascii	"ch_threadsize\000"
 16088      68726561 
 16088      6473697A 
 16088      6500
 16089              	.LASF233:
 16090 03c6 41484232 		.ascii	"AHB2LPENR\000"
 16090      4C50454E 
 16090      5200
 16091              	.LASF399:
 16092 03d0 69326364 		.ascii	"i2cdutycycle_t\000"
 16092      75747963 
 16092      79636C65 
 16092      5F7400
ARM GAS  C:\Users\stoma\AppData\Local\Temp\ccLygOki.s 			page 287


 16093              	.LASF43:
 16094 03df 5F6F6E5F 		.ascii	"_on_exit_args\000"
 16094      65786974 
 16094      5F617267 
 16094      7300
 16095              	.LASF429:
 16096 03ed 72656164 		.ascii	"readt\000"
 16096      7400
 16097              	.LASF680:
 16098 03f3 63685468 		.ascii	"chThdSuspendS\000"
 16098      64537573 
 16098      70656E64 
 16098      5300
 16099              	.LASF458:
 16100 0401 75736265 		.ascii	"usbepstatus_t\000"
 16100      70737461 
 16100      7475735F 
 16100      7400
 16101              	.LASF321:
 16102 040f 715F6275 		.ascii	"q_buffer\000"
 16102      66666572 
 16102      00
 16103              	.LASF468:
 16104 0418 5553425F 		.ascii	"USB_EVENT_ADDRESS\000"
 16104      4556454E 
 16104      545F4144 
 16104      44524553 
 16104      5300
 16105              	.LASF513:
 16106 042a 44494550 		.ascii	"DIEPTXF0\000"
 16106      54584630 
 16106      00
 16107              	.LASF325:
 16108 0433 715F6E6F 		.ascii	"q_notify\000"
 16108      74696679 
 16108      00
 16109              	.LASF151:
 16110 043c 705F6E65 		.ascii	"p_newer\000"
 16110      77657200 
 16111              	.LASF560:
 16112 0444 73746D33 		.ascii	"stm32_otg_params_t\000"
 16112      325F6F74 
 16112      675F7061 
 16112      72616D73 
 16112      5F7400
 16113              	.LASF114:
 16114 0457 5F6D6272 		.ascii	"_mbrlen_state\000"
 16114      6C656E5F 
 16114      73746174 
 16114      6500
 16115              	.LASF11:
 16116 0465 6C6F6E67 		.ascii	"long int\000"
 16116      20696E74 
 16116      00
 16117              	.LASF147:
 16118 046e 705F6E65 		.ascii	"p_next\000"
 16118      787400
ARM GAS  C:\Users\stoma\AppData\Local\Temp\ccLygOki.s 			page 288


 16119              	.LASF694:
 16120 0475 5F737461 		.ascii	"_stats_increase_irq\000"
 16120      74735F69 
 16120      6E637265 
 16120      6173655F 
 16120      69727100 
 16121              	.LASF669:
 16122 0489 706F7274 		.ascii	"port_unlock\000"
 16122      5F756E6C 
 16122      6F636B00 
 16123              	.LASF125:
 16124 0495 5F696D70 		.ascii	"_impure_ptr\000"
 16124      7572655F 
 16124      70747200 
 16125              	.LASF324:
 16126 04a1 715F7264 		.ascii	"q_rdptr\000"
 16126      70747200 
 16127              	.LASF83:
 16128 04a9 5F726573 		.ascii	"_result_k\000"
 16128      756C745F 
 16128      6B00
 16129              	.LASF682:
 16130 04b3 6E766963 		.ascii	"nvicDisableVector\000"
 16130      44697361 
 16130      626C6556 
 16130      6563746F 
 16130      7200
 16131              	.LASF299:
 16132 04c5 63665F6F 		.ascii	"cf_off_state\000"
 16132      66665F73 
 16132      74617465 
 16132      00
 16133              	.LASF53:
 16134 04d2 5F73697A 		.ascii	"_size\000"
 16134      6500
 16135              	.LASF148:
 16136 04d8 705F7072 		.ascii	"p_prev\000"
 16136      657600
 16137              	.LASF550:
 16138 04df 72657376 		.ascii	"resvd880\000"
 16138      64383830 
 16138      00
 16139              	.LASF664:
 16140 04e8 63685379 		.ascii	"chSysLockFromISR\000"
 16140      734C6F63 
 16140      6B46726F 
 16140      6D495352 
 16140      00
 16141              	.LASF104:
 16142 04f9 5F6C6F63 		.ascii	"_localtime_buf\000"
 16142      616C7469 
 16142      6D655F62 
 16142      756600
 16143              	.LASF135:
 16144 0508 74737461 		.ascii	"tstate_t\000"
 16144      74655F74 
 16144      00
ARM GAS  C:\Users\stoma\AppData\Local\Temp\ccLygOki.s 			page 289


 16145              	.LASF133:
 16146 0511 72747469 		.ascii	"rttime_t\000"
 16146      6D655F74 
 16146      00
 16147              	.LASF171:
 16148 051a 74687265 		.ascii	"threads_queue_t\000"
 16148      6164735F 
 16148      71756575 
 16148      655F7400 
 16149              	.LASF164:
 16150 052a 705F6D74 		.ascii	"p_mtxlist\000"
 16150      786C6973 
 16150      7400
 16151              	.LASF421:
 16152 0534 6F717565 		.ascii	"oqueue\000"
 16152      756500
 16153              	.LASF561:
 16154 053b 74786275 		.ascii	"txbuf\000"
 16154      6600
 16155              	.LASF246:
 16156 0541 72656761 		.ascii	"regarm_t\000"
 16156      726D5F74 
 16156      00
 16157              	.LASF637:
 16158 054a 6F74675F 		.ascii	"otg_fifo_write_from_queue\000"
 16158      6669666F 
 16158      5F777269 
 16158      74655F66 
 16158      726F6D5F 
 16159              	.LASF539:
 16160 0564 4441494E 		.ascii	"DAINT\000"
 16160      5400
 16161              	.LASF459:
 16162 056a 5553425F 		.ascii	"USB_EP0_WAITING_SETUP\000"
 16162      4550305F 
 16162      57414954 
 16162      494E475F 
 16162      53455455 
 16163              	.LASF538:
 16164 0580 444F4550 		.ascii	"DOEPMSK\000"
 16164      4D534B00 
 16165              	.LASF38:
 16166 0588 5F5F746D 		.ascii	"__tm_mon\000"
 16166      5F6D6F6E 
 16166      00
 16167              	.LASF695:
 16168 0591 5F646267 		.ascii	"_dbg_check_enter_isr\000"
 16168      5F636865 
 16168      636B5F65 
 16168      6E746572 
 16168      5F697372 
 16169              	.LASF230:
 16170 05a6 41504232 		.ascii	"APB2ENR\000"
 16170      454E5200 
 16171              	.LASF404:
 16172 05ae 49324344 		.ascii	"I2CDriver\000"
 16172      72697665 
ARM GAS  C:\Users\stoma\AppData\Local\Temp\ccLygOki.s 			page 290


 16172      7200
 16173              	.LASF684:
 16174 05b8 6E766963 		.ascii	"nvicEnableVector\000"
 16174      456E6162 
 16174      6C655665 
 16174      63746F72 
 16174      00
 16175              	.LASF318:
 16176 05c9 696F5F71 		.ascii	"io_queue\000"
 16176      75657565 
 16176      00
 16177              	.LASF232:
 16178 05d2 41484231 		.ascii	"AHB1LPENR\000"
 16178      4C50454E 
 16178      5200
 16179              	.LASF676:
 16180 05dc 5F737461 		.ascii	"_stats_stop_measure_crit_thd\000"
 16180      74735F73 
 16180      746F705F 
 16180      6D656173 
 16180      7572655F 
 16181              	.LASF499:
 16182 05f9 444F4550 		.ascii	"DOEPCTL\000"
 16182      43544C00 
 16183              	.LASF422:
 16184 0601 75736172 		.ascii	"usart\000"
 16184      7400
 16185              	.LASF355:
 16186 0607 70616C5F 		.ascii	"pal_default_config\000"
 16186      64656661 
 16186      756C745F 
 16186      636F6E66 
 16186      696700
 16187              	.LASF101:
 16188 061a 5F756E75 		.ascii	"_unused_rand\000"
 16188      7365645F 
 16188      72616E64 
 16188      00
 16189              	.LASF326:
 16190 0627 715F6C69 		.ascii	"q_link\000"
 16190      6E6B00
 16191              	.LASF3:
 16192 062e 7369676E 		.ascii	"signed char\000"
 16192      65642063 
 16192      68617200 
 16193              	.LASF158:
 16194 063a 705F7072 		.ascii	"p_preempt\000"
 16194      65656D70 
 16194      7400
 16195              	.LASF127:
 16196 0644 75696E74 		.ascii	"uint8_t\000"
 16196      385F7400 
 16197              	.LASF367:
 16198 064c 534D4352 		.ascii	"SMCR\000"
 16198      00
 16199              	.LASF687:
 16200 0651 7573624F 		.ascii	"usbObjectInit\000"
ARM GAS  C:\Users\stoma\AppData\Local\Temp\ccLygOki.s 			page 291


 16200      626A6563 
 16200      74496E69 
 16200      7400
 16201              	.LASF472:
 16202 065f 5553425F 		.ascii	"USB_EVENT_STALLED\000"
 16202      4556454E 
 16202      545F5354 
 16202      414C4C45 
 16202      4400
 16203              	.LASF457:
 16204 0671 45505F53 		.ascii	"EP_STATUS_ACTIVE\000"
 16204      54415455 
 16204      535F4143 
 16204      54495645 
 16204      00
 16205              	.LASF500:
 16206 0682 444F4550 		.ascii	"DOEPINT\000"
 16206      494E5400 
 16207              	.LASF140:
 16208 068a 6576656E 		.ascii	"eventmask_t\000"
 16208      746D6173 
 16208      6B5F7400 
 16209              	.LASF248:
 16210 0696 636F6E74 		.ascii	"context\000"
 16210      65787400 
 16211              	.LASF574:
 16212 069e 72787369 		.ascii	"rxsize\000"
 16212      7A6500
 16213              	.LASF594:
 16214 06a5 6570305F 		.ascii	"ep0_state\000"
 16214      73746174 
 16214      6500
 16215              	.LASF274:
 16216 06af 77747472 		.ascii	"wttrp\000"
 16216      7000
 16217              	.LASF663:
 16218 06b5 63685379 		.ascii	"chSysUnlockFromISR\000"
 16218      73556E6C 
 16218      6F636B46 
 16218      726F6D49 
 16218      535200
 16219              	.LASF693:
 16220 06c8 5F757362 		.ascii	"_usb_reset\000"
 16220      5F726573 
 16220      657400
 16221              	.LASF221:
 16222 06d3 52455345 		.ascii	"RESERVED0\000"
 16222      52564544 
 16222      3000
 16223              	.LASF224:
 16224 06dd 52455345 		.ascii	"RESERVED1\000"
 16224      52564544 
 16224      3100
 16225              	.LASF6:
 16226 06e7 756E7369 		.ascii	"unsigned char\000"
 16226      676E6564 
 16226      20636861 
ARM GAS  C:\Users\stoma\AppData\Local\Temp\ccLygOki.s 			page 292


 16226      7200
 16227              	.LASF231:
 16228 06f5 52455345 		.ascii	"RESERVED3\000"
 16228      52564544 
 16228      3300
 16229              	.LASF235:
 16230 06ff 52455345 		.ascii	"RESERVED4\000"
 16230      52564544 
 16230      3400
 16231              	.LASF238:
 16232 0709 52455345 		.ascii	"RESERVED5\000"
 16232      52564544 
 16232      3500
 16233              	.LASF240:
 16234 0713 52455345 		.ascii	"RESERVED6\000"
 16234      52564544 
 16234      3600
 16235              	.LASF348:
 16236 071d 50444461 		.ascii	"PDData\000"
 16236      746100
 16237              	.LASF194:
 16238 0724 70616E69 		.ascii	"panic_msg\000"
 16238      635F6D73 
 16238      6700
 16239              	.LASF78:
 16240 072e 5F756E73 		.ascii	"_unspecified_locale_info\000"
 16240      70656369 
 16240      66696564 
 16240      5F6C6F63 
 16240      616C655F 
 16241              	.LASF533:
 16242 0747 44434647 		.ascii	"DCFG\000"
 16242      00
 16243              	.LASF71:
 16244 074c 5F726565 		.ascii	"_reent\000"
 16244      6E7400
 16245              	.LASF178:
 16246 0753 725F6E65 		.ascii	"r_newer\000"
 16246      77657200 
 16247              	.LASF126:
 16248 075b 5F676C6F 		.ascii	"_global_impure_ptr\000"
 16248      62616C5F 
 16248      696D7075 
 16248      72655F70 
 16248      747200
 16249              	.LASF435:
 16250 076e 65703073 		.ascii	"ep0state\000"
 16250      74617465 
 16250      00
 16251              	.LASF192:
 16252 0777 73797374 		.ascii	"system_debug_t\000"
 16252      656D5F64 
 16252      65627567 
 16252      5F7400
 16253              	.LASF667:
 16254 0786 706F7274 		.ascii	"port_unlock_from_isr\000"
 16254      5F756E6C 
ARM GAS  C:\Users\stoma\AppData\Local\Temp\ccLygOki.s 			page 293


 16254      6F636B5F 
 16254      66726F6D 
 16254      5F697372 
 16255              	.LASF414:
 16256 079b 53445F55 		.ascii	"SD_UNINIT\000"
 16256      4E494E49 
 16256      5400
 16257              	.LASF495:
 16258 07a5 44494550 		.ascii	"DIEPTSIZ\000"
 16258      5453495A 
 16258      00
 16259              	.LASF387:
 16260 07ae 4932435F 		.ascii	"I2C_ACTIVE_RX\000"
 16260      41435449 
 16260      56455F52 
 16260      5800
 16261              	.LASF590:
 16262 07bc 72657175 		.ascii	"requests_hook_cb\000"
 16262      65737473 
 16262      5F686F6F 
 16262      6B5F6362 
 16262      00
 16263              	.LASF609:
 16264 07cd 70636E74 		.ascii	"pcnt\000"
 16264      00
 16265              	.LASF337:
 16266 07d2 5F426F6F 		.ascii	"_Bool\000"
 16266      6C00
 16267              	.LASF537:
 16268 07d8 44494550 		.ascii	"DIEPMSK\000"
 16268      4D534B00 
 16269              	.LASF628:
 16270 07e0 6F74675F 		.ascii	"otg_rxfifo_handler\000"
 16270      72786669 
 16270      666F5F68 
 16270      616E646C 
 16270      657200
 16271              	.LASF228:
 16272 07f3 52455345 		.ascii	"RESERVED2\000"
 16272      52564544 
 16272      3200
 16273              	.LASF522:
 16274 07fd 48434647 		.ascii	"HCFG\000"
 16274      00
 16275              	.LASF482:
 16276 0802 48434348 		.ascii	"HCCHAR\000"
 16276      415200
 16277              	.LASF369:
 16278 0809 43434D52 		.ascii	"CCMR1\000"
 16278      3100
 16279              	.LASF370:
 16280 080f 43434D52 		.ascii	"CCMR2\000"
 16280      3200
 16281              	.LASF374:
 16282 0815 43434D52 		.ascii	"CCMR3\000"
 16282      3300
 16283              	.LASF611:
ARM GAS  C:\Users\stoma\AppData\Local\Temp\ccLygOki.s 			page 294


 16284 081b 7573625F 		.ascii	"usb_lld_read_setup\000"
 16284      6C6C645F 
 16284      72656164 
 16284      5F736574 
 16284      757000
 16285              	.LASF392:
 16286 082e 4F504D4F 		.ascii	"OPMODE_I2C\000"
 16286      44455F49 
 16286      324300
 16287              	.LASF26:
 16288 0839 63686172 		.ascii	"char\000"
 16288      00
 16289              	.LASF285:
 16290 083e 6D5F636E 		.ascii	"m_cnt\000"
 16290      7400
 16291              	.LASF50:
 16292 0844 5F666E73 		.ascii	"_fns\000"
 16292      00
 16293              	.LASF338:
 16294 0849 6D6F6465 		.ascii	"moder\000"
 16294      7200
 16295              	.LASF332:
 16296 084f 69736869 		.ascii	"ishift\000"
 16296      667400
 16297              	.LASF62:
 16298 0856 5F636C6F 		.ascii	"_close\000"
 16298      736500
 16299              	.LASF437:
 16300 085d 6570306E 		.ascii	"ep0n\000"
 16300      00
 16301              	.LASF218:
 16302 0862 41484231 		.ascii	"AHB1RSTR\000"
 16302      52535452 
 16302      00
 16303              	.LASF356:
 16304 086b 4750545F 		.ascii	"GPT_UNINIT\000"
 16304      554E494E 
 16304      495400
 16305              	.LASF530:
 16306 0876 48505254 		.ascii	"HPRT\000"
 16306      00
 16307              	.LASF149:
 16308 087b 705F7072 		.ascii	"p_prio\000"
 16308      696F00
 16309              	.LASF432:
 16310 0882 72656365 		.ascii	"receiving\000"
 16310      6976696E 
 16310      6700
 16311              	.LASF8:
 16312 088c 5F5F7569 		.ascii	"__uint16_t\000"
 16312      6E743136 
 16312      5F7400
 16313              	.LASF226:
 16314 0897 41484232 		.ascii	"AHB2ENR\000"
 16314      454E5200 
 16315              	.LASF430:
 16316 089f 55534244 		.ascii	"USBDriver\000"
ARM GAS  C:\Users\stoma\AppData\Local\Temp\ccLygOki.s 			page 295


 16316      72697665 
 16316      7200
 16317              	.LASF600:
 16318 08a9 65706D61 		.ascii	"epmask\000"
 16318      736B00
 16319              	.LASF273:
 16320 08b0 77746F62 		.ascii	"wtobjp\000"
 16320      6A7000
 16321              	.LASF303:
 16322 08b7 63665F6F 		.ascii	"cf_off_time\000"
 16322      66665F74 
 16322      696D6500 
 16323              	.LASF267:
 16324 08c3 6E5F6374 		.ascii	"n_ctxswc\000"
 16324      78737763 
 16324      00
 16325              	.LASF73:
 16326 08cc 5F737464 		.ascii	"_stdin\000"
 16326      696E00
 16327              	.LASF405:
 16328 08d3 6572726F 		.ascii	"errors\000"
 16328      727300
 16329              	.LASF295:
 16330 08da 63665F6F 		.ascii	"cf_off_newer\000"
 16330      66665F6E 
 16330      65776572 
 16330      00
 16331              	.LASF579:
 16332 08e7 696E5F63 		.ascii	"in_cb\000"
 16332      6200
 16333              	.LASF427:
 16334 08ed 67657474 		.ascii	"gett\000"
 16334      00
 16335              	.LASF247:
 16336 08f2 73746B61 		.ascii	"stkalign_t\000"
 16336      6C69676E 
 16336      5F7400
 16337              	.LASF245:
 16338 08fd 55534152 		.ascii	"USART_TypeDef\000"
 16338      545F5479 
 16338      70654465 
 16338      6600
 16339              	.LASF635:
 16340 090b 6F74675F 		.ascii	"otg_txfifo_handler\000"
 16340      74786669 
 16340      666F5F68 
 16340      616E646C 
 16340      657200
 16341              	.LASF671:
 16342 091e 5F5F7365 		.ascii	"__set_BASEPRI\000"
 16342      745F4241 
 16342      53455052 
 16342      4900
 16343              	.LASF524:
 16344 092c 48464E55 		.ascii	"HFNUM\000"
 16344      4D00
 16345              	.LASF386:
ARM GAS  C:\Users\stoma\AppData\Local\Temp\ccLygOki.s 			page 296


 16346 0932 4932435F 		.ascii	"I2C_ACTIVE_TX\000"
 16346      41435449 
 16346      56455F54 
 16346      5800
 16347              	.LASF479:
 16348 0940 75736265 		.ascii	"usbeventcb_t\000"
 16348      76656E74 
 16348      63625F74 
 16348      00
 16349              	.LASF626:
 16350 094d 6570696E 		.ascii	"epint\000"
 16350      7400
 16351              	.LASF632:
 16352 0953 73747265 		.ascii	"streak\000"
 16352      616B00
 16353              	.LASF293:
 16354 095a 63665F6F 		.ascii	"cf_off_prio\000"
 16354      66665F70 
 16354      72696F00 
 16355              	.LASF330:
 16356 0966 73747265 		.ascii	"stream\000"
 16356      616D00
 16357              	.LASF490:
 16358 096d 73746D33 		.ascii	"stm32_otg_host_chn_t\000"
 16358      325F6F74 
 16358      675F686F 
 16358      73745F63 
 16358      686E5F74 
 16359              	.LASF262:
 16360 0982 776F7273 		.ascii	"worst\000"
 16360      7400
 16361              	.LASF307:
 16362 0988 6576656E 		.ascii	"event_listener_t\000"
 16362      745F6C69 
 16362      7374656E 
 16362      65725F74 
 16362      00
 16363              	.LASF582:
 16364 0999 6F75745F 		.ascii	"out_maxsize\000"
 16364      6D617873 
 16364      697A6500 
 16365              	.LASF413:
 16366 09a5 49324344 		.ascii	"I2CD1\000"
 16366      3100
 16367              	.LASF375:
 16368 09ab 43435852 		.ascii	"CCXR\000"
 16368      00
 16369              	.LASF623:
 16370 09b0 646F6E65 		.ascii	"done\000"
 16370      00
 16371              	.LASF597:
 16372 09b5 66737061 		.ascii	"fsparams\000"
 16372      72616D73 
 16372      00
 16373              	.LASF570:
 16374 09be 55534249 		.ascii	"USBInEndpointState\000"
 16374      6E456E64 
ARM GAS  C:\Users\stoma\AppData\Local\Temp\ccLygOki.s 			page 297


 16374      706F696E 
 16374      74537461 
 16374      746500
 16375              	.LASF517:
 16376 09d1 47434346 		.ascii	"GCCFG\000"
 16376      4700
 16377              	.LASF542:
 16378 09d7 72657376 		.ascii	"resvd824\000"
 16378      64383234 
 16378      00
 16379              	.LASF460:
 16380 09e0 5553425F 		.ascii	"USB_EP0_TX\000"
 16380      4550305F 
 16380      545800
 16381              	.LASF536:
 16382 09eb 72657376 		.ascii	"resvd80C\000"
 16382      64383043 
 16382      00
 16383              	.LASF239:
 16384 09f4 42444352 		.ascii	"BDCR\000"
 16384      00
 16385              	.LASF544:
 16386 09f9 44564255 		.ascii	"DVBUSPULSE\000"
 16386      5350554C 
 16386      534500
 16387              	.LASF692:
 16388 0a04 5F737461 		.ascii	"_stats_stop_measure_crit_isr\000"
 16388      74735F73 
 16388      746F705F 
 16388      6D656173 
 16388      7572655F 
 16389              	.LASF449:
 16390 0a21 5553425F 		.ascii	"USB_UNINIT\000"
 16390      554E494E 
 16390      495400
 16391              	.LASF630:
 16392 0a2c 6669666F 		.ascii	"fifop\000"
 16392      7000
 16393              	.LASF142:
 16394 0a32 636E745F 		.ascii	"cnt_t\000"
 16394      7400
 16395              	.LASF563:
 16396 0a38 6C696E65 		.ascii	"linear\000"
 16396      617200
 16397              	.LASF197:
 16398 0a3f 74726163 		.ascii	"trace_buffer\000"
 16398      655F6275 
 16398      66666572 
 16398      00
 16399              	.LASF187:
 16400 0a4c 76745F66 		.ascii	"vt_func\000"
 16400      756E6300 
 16401              	.LASF476:
 16402 0a54 55534244 		.ascii	"USBDescriptor\000"
 16402      65736372 
 16402      6970746F 
 16402      7200
ARM GAS  C:\Users\stoma\AppData\Local\Temp\ccLygOki.s 			page 298


 16403              	.LASF58:
 16404 0a62 5F636F6F 		.ascii	"_cookie\000"
 16404      6B696500 
 16405              	.LASF439:
 16406 0a6a 73657475 		.ascii	"setup\000"
 16406      7000
 16407              	.LASF258:
 16408 0a70 63685F74 		.ascii	"ch_trace_buffer_t\000"
 16408      72616365 
 16408      5F627566 
 16408      6665725F 
 16408      7400
 16409              	.LASF650:
 16410 0a82 6F73616C 		.ascii	"osalThreadDequeueAllI\000"
 16410      54687265 
 16410      61644465 
 16410      71756575 
 16410      65416C6C 
 16411              	.LASF163:
 16412 0a98 705F6570 		.ascii	"p_epending\000"
 16412      656E6469 
 16412      6E6700
 16413              	.LASF276:
 16414 0aa3 77746D74 		.ascii	"wtmtxp\000"
 16414      787000
 16415              	.LASF31:
 16416 0aaa 5F776473 		.ascii	"_wds\000"
 16416      00
 16417              	.LASF691:
 16418 0aaf 5F646267 		.ascii	"_dbg_check_unlock_from_isr\000"
 16418      5F636865 
 16418      636B5F75 
 16418      6E6C6F63 
 16418      6B5F6672 
 16419              	.LASF473:
 16420 0aca 75736265 		.ascii	"usbevent_t\000"
 16420      76656E74 
 16420      5F7400
 16421              	.LASF174:
 16422 0ad5 63685F72 		.ascii	"ch_ready_list\000"
 16422      65616479 
 16422      5F6C6973 
 16422      7400
 16423              	.LASF123:
 16424 0ae3 5F5F6C6F 		.ascii	"__lock\000"
 16424      636B00
 16425              	.LASF90:
 16426 0aea 5F736967 		.ascii	"_sig_func\000"
 16426      5F66756E 
 16426      6300
 16427              	.LASF388:
 16428 0af4 4932435F 		.ascii	"I2C_LOCKED\000"
 16428      4C4F434B 
 16428      454400
 16429              	.LASF402:
 16430 0aff 64757479 		.ascii	"duty_cycle\000"
 16430      5F637963 
ARM GAS  C:\Users\stoma\AppData\Local\Temp\ccLygOki.s 			page 299


 16430      6C6500
 16431              	.LASF217:
 16432 0b0a 43464752 		.ascii	"CFGR\000"
 16432      00
 16433              	.LASF340:
 16434 0b0f 6F737065 		.ascii	"ospeedr\000"
 16434      65647200 
 16435              	.LASF66:
 16436 0b17 5F6F6666 		.ascii	"_offset\000"
 16436      73657400 
 16437              	.LASF452:
 16438 0b1f 5553425F 		.ascii	"USB_SELECTED\000"
 16438      53454C45 
 16438      43544544 
 16438      00
 16439              	.LASF87:
 16440 0b2c 5F637674 		.ascii	"_cvtbuf\000"
 16440      62756600 
 16441              	.LASF347:
 16442 0b34 50434461 		.ascii	"PCData\000"
 16442      746100
 16443              	.LASF442:
 16444 0b3b 636F6E66 		.ascii	"configuration\000"
 16444      69677572 
 16444      6174696F 
 16444      6E00
 16445              	.LASF368:
 16446 0b49 44494552 		.ascii	"DIER\000"
 16446      00
 16447              	.LASF569:
 16448 0b4e 746F7473 		.ascii	"totsize\000"
 16448      697A6500 
 16449              	.LASF195:
 16450 0b56 6973725F 		.ascii	"isr_cnt\000"
 16450      636E7400 
 16451              	.LASF698:
 16452 0b5e 474E5520 		.ascii	"GNU C11 7.2.1 20170904 (release) [ARM/embedded-7-br"
 16452      43313120 
 16452      372E322E 
 16452      31203230 
 16452      31373039 
 16453 0b91 616E6368 		.ascii	"anch revision 255204] -mcpu=cortex-m4 -mfloat-abi=h"
 16453      20726576 
 16453      6973696F 
 16453      6E203235 
 16453      35323034 
 16454 0bc4 61726420 		.ascii	"ard -mfpu=fpv4-sp-d16 -mno-thumb-interwork -mthumb "
 16454      2D6D6670 
 16454      753D6670 
 16454      76342D73 
 16454      702D6431 
 16455 0bf7 2D676764 		.ascii	"-ggdb -O2 -fomit-frame-pointer -falign-functions=16"
 16455      62202D4F 
 16455      32202D66 
 16455      6F6D6974 
 16455      2D667261 
 16456 0c2a 202D6666 		.ascii	" -ffunction-sections -fdata-sections -fno-common -f"
ARM GAS  C:\Users\stoma\AppData\Local\Temp\ccLygOki.s 			page 300


 16456      756E6374 
 16456      696F6E2D 
 16456      73656374 
 16456      696F6E73 
 16457 0c5d 73696E67 		.ascii	"single-precision-constant\000"
 16457      6C652D70 
 16457      72656369 
 16457      73696F6E 
 16457      2D636F6E 
 16458              	.LASF512:
 16459 0c77 47525846 		.ascii	"GRXFSIZ\000"
 16459      53495A00 
 16460              	.LASF456:
 16461 0c7f 45505F53 		.ascii	"EP_STATUS_STALLED\000"
 16461      54415455 
 16461      535F5354 
 16461      414C4C45 
 16461      4400
 16462              	.LASF269:
 16463 0c91 6D5F6372 		.ascii	"m_crit_isr\000"
 16463      69745F69 
 16463      737200
 16464              	.LASF567:
 16465 0c9c 7478636E 		.ascii	"txcnt\000"
 16465      7400
 16466              	.LASF315:
 16467 0ca2 65735F6E 		.ascii	"es_next\000"
 16467      65787400 
 16468              	.LASF320:
 16469 0caa 715F636F 		.ascii	"q_counter\000"
 16469      756E7465 
 16469      7200
 16470              	.LASF624:
 16471 0cb4 7573625F 		.ascii	"usb_lld_serve_interrupt\000"
 16471      6C6C645F 
 16471      73657276 
 16471      655F696E 
 16471      74657272 
 16472              	.LASF253:
 16473 0ccc 73655F73 		.ascii	"se_state\000"
 16473      74617465 
 16473      00
 16474              	.LASF549:
 16475 0cd5 72657376 		.ascii	"resvd840\000"
 16475      64383430 
 16475      00
 16476              	.LASF257:
 16477 0cde 74625F62 		.ascii	"tb_buffer\000"
 16477      75666665 
 16477      7200
 16478              	.LASF268:
 16479 0ce8 6D5F6372 		.ascii	"m_crit_thd\000"
 16479      69745F74 
 16479      686400
 16480              	.LASF343:
 16481 0cf3 61667268 		.ascii	"afrh\000"
 16481      00
ARM GAS  C:\Users\stoma\AppData\Local\Temp\ccLygOki.s 			page 301


 16482              	.LASF674:
 16483 0cf8 5F646267 		.ascii	"_dbg_check_lock\000"
 16483      5F636865 
 16483      636B5F6C 
 16483      6F636B00 
 16484              	.LASF14:
 16485 0d08 5F5F7569 		.ascii	"__uint64_t\000"
 16485      6E743634 
 16485      5F7400
 16486              	.LASF520:
 16487 0d13 44494550 		.ascii	"DIEPTXF\000"
 16487      54584600 
 16488              	.LASF665:
 16489 0d1b 63685379 		.ascii	"chSysUnlock\000"
 16489      73556E6C 
 16489      6F636B00 
 16490              	.LASF84:
 16491 0d27 5F703573 		.ascii	"_p5s\000"
 16491      00
 16492              	.LASF13:
 16493 0d2c 6C6F6E67 		.ascii	"long unsigned int\000"
 16493      20756E73 
 16493      69676E65 
 16493      6420696E 
 16493      7400
 16494              	.LASF287:
 16495 0d3e 63685F7A 		.ascii	"ch_zero\000"
 16495      65726F00 
 16496              	.LASF666:
 16497 0d46 63685379 		.ascii	"chSysLock\000"
 16497      734C6F63 
 16497      6B00
 16498              	.LASF54:
 16499 0d50 5F5F7346 		.ascii	"__sFILE\000"
 16499      494C4500 
 16500              	.LASF80:
 16501 0d58 5F5F7364 		.ascii	"__sdidinit\000"
 16501      6964696E 
 16501      697400
 16502              	.LASF70:
 16503 0d63 5F666C61 		.ascii	"_flags2\000"
 16503      67733200 
 16504              	.LASF441:
 16505 0d6b 61646472 		.ascii	"address\000"
 16505      65737300 
 16506              	.LASF339:
 16507 0d73 6F747970 		.ascii	"otyper\000"
 16507      657200
 16508              	.LASF206:
 16509 0d7a 53797374 		.ascii	"SystemCoreClock\000"
 16509      656D436F 
 16509      7265436C 
 16509      6F636B00 
 16510              	.LASF278:
 16511 0d8a 63685F73 		.ascii	"ch_semaphore\000"
 16511      656D6170 
 16511      686F7265 
ARM GAS  C:\Users\stoma\AppData\Local\Temp\ccLygOki.s 			page 302


 16511      00
 16512              	.LASF377:
 16513 0d97 67707466 		.ascii	"gptfreq_t\000"
 16513      7265715F 
 16513      7400
 16514              	.LASF438:
 16515 0da1 65703065 		.ascii	"ep0endcb\000"
 16515      6E646362 
 16515      00
 16516              	.LASF146:
 16517 0daa 63685F74 		.ascii	"ch_thread\000"
 16517      68726561 
 16517      6400
 16518              	.LASF602:
 16519 0db4 7573625F 		.ascii	"usb_lld_clear_in\000"
 16519      6C6C645F 
 16519      636C6561 
 16519      725F696E 
 16519      00
 16520              	.LASF505:
 16521 0dc5 47414842 		.ascii	"GAHBCFG\000"
 16521      43464700 
 16522              	.LASF189:
 16523 0dcd 76697274 		.ascii	"virtual_timers_list_t\000"
 16523      75616C5F 
 16523      74696D65 
 16523      72735F6C 
 16523      6973745F 
 16524              	.LASF585:
 16525 0de3 696E5F6D 		.ascii	"in_multiplier\000"
 16525      756C7469 
 16525      706C6965 
 16525      7200
 16526              	.LASF336:
 16527 0df1 5F73746D 		.ascii	"_stm32_dma_streams\000"
 16527      33325F64 
 16527      6D615F73 
 16527      74726561 
 16527      6D7300
 16528              	.LASF309:
 16529 0e04 656C5F6E 		.ascii	"el_next\000"
 16529      65787400 
 16530              	.LASF72:
 16531 0e0c 5F657272 		.ascii	"_errno\000"
 16531      6E6F00
 16532              	.LASF213:
 16533 0e13 54524953 		.ascii	"TRISE\000"
 16533      4500
 16534              	.LASF598:
 16535 0e19 75736270 		.ascii	"usbp\000"
 16535      00
 16536              	.LASF453:
 16537 0e1e 5553425F 		.ascii	"USB_ACTIVE\000"
 16537      41435449 
 16537      564500
 16538              	.LASF559:
 16539 0e29 6E756D5F 		.ascii	"num_endpoints\000"
ARM GAS  C:\Users\stoma\AppData\Local\Temp\ccLygOki.s 			page 303


 16539      656E6470 
 16539      6F696E74 
 16539      7300
 16540              	.LASF182:
 16541 0e37 76697274 		.ascii	"virtual_timer_t\000"
 16541      75616C5F 
 16541      74696D65 
 16541      725F7400 
 16542              	.LASF173:
 16543 0e47 72656164 		.ascii	"ready_list_t\000"
 16543      795F6C69 
 16543      73745F74 
 16543      00
 16544              	.LASF323:
 16545 0e54 715F7772 		.ascii	"q_wrptr\000"
 16545      70747200 
 16546              	.LASF112:
 16547 0e5c 5F736967 		.ascii	"_signal_buf\000"
 16547      6E616C5F 
 16547      62756600 
 16548              	.LASF423:
 16549 0e68 53657269 		.ascii	"SerialDriverVMT\000"
 16549      616C4472 
 16549      69766572 
 16549      564D5400 
 16550              	.LASF450:
 16551 0e78 5553425F 		.ascii	"USB_STOP\000"
 16551      53544F50 
 16551      00
 16552              	.LASF376:
 16553 0e81 73746D33 		.ascii	"stm32_tim_t\000"
 16553      325F7469 
 16553      6D5F7400 
 16554              	.LASF353:
 16555 0e8d 50494461 		.ascii	"PIData\000"
 16555      746100
 16556              	.LASF143:
 16557 0e94 75636E74 		.ascii	"ucnt_t\000"
 16557      5F7400
 16558              	.LASF365:
 16559 0e9b 636C6F63 		.ascii	"clock\000"
 16559      6B00
 16560              	.LASF381:
 16561 0ea1 47505443 		.ascii	"GPTConfig\000"
 16561      6F6E6669 
 16561      6700
 16562              	.LASF424:
 16563 0eab 77726974 		.ascii	"write\000"
 16563      6500
 16564              	.LASF700:
 16565 0eb1 433A5C55 		.ascii	"C:\\Users\\stoma\\Desktop\\Robotique\\TP3_Chibi\\Ch"
 16565      73657273 
 16565      5C73746F 
 16565      6D615C44 
 16565      65736B74 
 16566 0ede 69626900 		.ascii	"ibi\000"
 16567              	.LASF575:
ARM GAS  C:\Users\stoma\AppData\Local\Temp\ccLygOki.s 			page 304


 16568 0ee2 7278636E 		.ascii	"rxcnt\000"
 16568      7400
 16569              	.LASF32:
 16570 0ee8 5F426967 		.ascii	"_Bigint\000"
 16570      696E7400 
 16571              	.LASF454:
 16572 0ef0 75736273 		.ascii	"usbstate_t\000"
 16572      74617465 
 16572      5F7400
 16573              	.LASF170:
 16574 0efb 63685F74 		.ascii	"ch_threads_list\000"
 16574      68726561 
 16574      64735F6C 
 16574      69737400 
 16575              	.LASF254:
 16576 0f0b 63685F73 		.ascii	"ch_swc_event_t\000"
 16576      77635F65 
 16576      76656E74 
 16576      5F7400
 16577              	.LASF29:
 16578 0f1a 5F6D6178 		.ascii	"_maxwds\000"
 16578      77647300 
 16579              	.LASF566:
 16580 0f22 74787369 		.ascii	"txsize\000"
 16580      7A6500
 16581              	.LASF266:
 16582 0f29 6E5F6972 		.ascii	"n_irq\000"
 16582      7100
 16583              	.LASF465:
 16584 0f2f 5553425F 		.ascii	"USB_EP0_ERROR\000"
 16584      4550305F 
 16584      4552524F 
 16584      5200
 16585              	.LASF525:
 16586 0f3d 72657376 		.ascii	"resvd40C\000"
 16586      64343043 
 16586      00
 16587              	.LASF341:
 16588 0f46 70757064 		.ascii	"pupdr\000"
 16588      7200
 16589              	.LASF81:
 16590 0f4c 5F5F636C 		.ascii	"__cleanup\000"
 16590      65616E75 
 16590      7000
 16591              	.LASF503:
 16592 0f56 474F5447 		.ascii	"GOTGCTL\000"
 16592      43544C00 
 16593              	.LASF89:
 16594 0f5e 5F617465 		.ascii	"_atexit0\000"
 16594      78697430 
 16594      00
 16595              	.LASF605:
 16596 0f67 7573625F 		.ascii	"usb_lld_stall_out\000"
 16596      6C6C645F 
 16596      7374616C 
 16596      6C5F6F75 
 16596      7400
ARM GAS  C:\Users\stoma\AppData\Local\Temp\ccLygOki.s 			page 305


 16597              	.LASF302:
 16598 0f79 63665F6F 		.ascii	"cf_off_preempt\000"
 16598      66665F70 
 16598      7265656D 
 16598      707400
 16599              	.LASF411:
 16600 0f88 646D6172 		.ascii	"dmarx\000"
 16600      7800
 16601              	.LASF583:
 16602 0f8e 696E5F73 		.ascii	"in_state\000"
 16602      74617465 
 16602      00
 16603              	.LASF510:
 16604 0f97 47525853 		.ascii	"GRXSTSR\000"
 16604      54535200 
 16605              	.LASF471:
 16606 0f9f 5553425F 		.ascii	"USB_EVENT_WAKEUP\000"
 16606      4556454E 
 16606      545F5741 
 16606      4B455550 
 16606      00
 16607              	.LASF553:
 16608 0fb0 50434743 		.ascii	"PCGCCTL\000"
 16608      43544C00 
 16609              	.LASF639:
 16610 0fb8 6F74675F 		.ascii	"otg_do_push\000"
 16610      646F5F70 
 16610      75736800 
 16611              	.LASF12:
 16612 0fc4 5F5F7569 		.ascii	"__uint32_t\000"
 16612      6E743332 
 16612      5F7400
 16613              	.LASF77:
 16614 0fcf 5F656D65 		.ascii	"_emergency\000"
 16614      7267656E 
 16614      637900
 16615              	.LASF588:
 16616 0fda 6576656E 		.ascii	"event_cb\000"
 16616      745F6362 
 16616      00
 16617              	.LASF504:
 16618 0fe3 474F5447 		.ascii	"GOTGINT\000"
 16618      494E5400 
 16619              	.LASF1:
 16620 0feb 6C6F6E67 		.ascii	"long long int\000"
 16620      206C6F6E 
 16620      6720696E 
 16620      7400
 16621              	.LASF451:
 16622 0ff9 5553425F 		.ascii	"USB_READY\000"
 16622      52454144 
 16622      5900
 16623              	.LASF383:
 16624 1003 4932435F 		.ascii	"I2C_UNINIT\000"
 16624      554E494E 
 16624      495400
 16625              	.LASF289:
ARM GAS  C:\Users\stoma\AppData\Local\Temp\ccLygOki.s 			page 306


 16626 100e 63685F76 		.ascii	"ch_version\000"
 16626      65727369 
 16626      6F6E00
 16627              	.LASF282:
 16628 1019 6D5F7175 		.ascii	"m_queue\000"
 16628      65756500 
 16629              	.LASF362:
 16630 1021 47505444 		.ascii	"GPTDriver\000"
 16630      72697665 
 16630      7200
 16631              	.LASF95:
 16632 102b 5F6E696F 		.ascii	"_niobs\000"
 16632      627300
 16633              	.LASF668:
 16634 1032 706F7274 		.ascii	"port_lock_from_isr\000"
 16634      5F6C6F63 
 16634      6B5F6672 
 16634      6F6D5F69 
 16634      737200
 16635              	.LASF241:
 16636 1045 53534347 		.ascii	"SSCGR\000"
 16636      5200
 16637              	.LASF184:
 16638 104b 76745F6E 		.ascii	"vt_next\000"
 16638      65787400 
 16639              	.LASF696:
 16640 1053 5F646267 		.ascii	"_dbg_check_leave_isr\000"
 16640      5F636865 
 16640      636B5F6C 
 16640      65617665 
 16640      5F697372 
 16641              	.LASF91:
 16642 1068 5F5F7367 		.ascii	"__sglue\000"
 16642      6C756500 
 16643              	.LASF436:
 16644 1070 6570306E 		.ascii	"ep0next\000"
 16644      65787400 
 16645              	.LASF511:
 16646 1078 47525853 		.ascii	"GRXSTSP\000"
 16646      54535000 
 16647              	.LASF216:
 16648 1080 504C4C43 		.ascii	"PLLCFGR\000"
 16648      46475200 
 16649              	.LASF121:
 16650 1088 5F6E6D61 		.ascii	"_nmalloc\000"
 16650      6C6C6F63 
 16650      00
 16651              	.LASF185:
 16652 1091 76745F70 		.ascii	"vt_prev\000"
 16652      72657600 
 16653              	.LASF244:
 16654 1099 47545052 		.ascii	"GTPR\000"
 16654      00
 16655              	.LASF291:
 16656 109e 63685F74 		.ascii	"ch_timesize\000"
 16656      696D6573 
 16656      697A6500 
ARM GAS  C:\Users\stoma\AppData\Local\Temp\ccLygOki.s 			page 307


 16657              	.LASF105:
 16658 10aa 5F67616D 		.ascii	"_gamma_signgam\000"
 16658      6D615F73 
 16658      69676E67 
 16658      616D00
 16659              	.LASF223:
 16660 10b9 41504232 		.ascii	"APB2RSTR\000"
 16660      52535452 
 16660      00
 16661              	.LASF255:
 16662 10c2 74625F73 		.ascii	"tb_size\000"
 16662      697A6500 
 16663              	.LASF316:
 16664 10ca 6576656E 		.ascii	"event_source_t\000"
 16664      745F736F 
 16664      75726365 
 16664      5F7400
 16665              	.LASF547:
 16666 10d9 72657376 		.ascii	"resvd838\000"
 16666      64383338 
 16666      00
 16667              	.LASF478:
 16668 10e2 75736265 		.ascii	"usbepcallback_t\000"
 16668      7063616C 
 16668      6C626163 
 16668      6B5F7400 
 16669              	.LASF85:
 16670 10f2 5F667265 		.ascii	"_freelist\000"
 16670      656C6973 
 16670      7400
 16671              	.LASF578:
 16672 10fc 73657475 		.ascii	"setup_cb\000"
 16672      705F6362 
 16672      00
 16673              	.LASF214:
 16674 1105 464C5452 		.ascii	"FLTR\000"
 16674      00
 16675              	.LASF688:
 16676 110a 5F737461 		.ascii	"_stats_start_measure_crit_isr\000"
 16676      74735F73 
 16676      74617274 
 16676      5F6D6561 
 16676      73757265 
 16677              	.LASF96:
 16678 1128 5F696F62 		.ascii	"_iobs\000"
 16678      7300
 16679              	.LASF389:
 16680 112e 69326373 		.ascii	"i2cstate_t\000"
 16680      74617465 
 16680      5F7400
 16681              	.LASF406:
 16682 1139 6D757465 		.ascii	"mutex\000"
 16682      7800
 16683              	.LASF94:
 16684 113f 5F676C75 		.ascii	"_glue\000"
 16684      6500
 16685              	.LASF205:
ARM GAS  C:\Users\stoma\AppData\Local\Temp\ccLygOki.s 			page 308


 16686 1145 49544D5F 		.ascii	"ITM_RxBuffer\000"
 16686      52784275 
 16686      66666572 
 16686      00
 16687              	.LASF30:
 16688 1152 5F736967 		.ascii	"_sign\000"
 16688      6E00
 16689              	.LASF378:
 16690 1158 66726571 		.ascii	"frequency\000"
 16690      75656E63 
 16690      7900
 16691              	.LASF346:
 16692 1162 50424461 		.ascii	"PBData\000"
 16692      746100
 16693              	.LASF409:
 16694 1169 7278646D 		.ascii	"rxdmamode\000"
 16694      616D6F64 
 16694      6500
 16695              	.LASF237:
 16696 1173 41504232 		.ascii	"APB2LPENR\000"
 16696      4C50454E 
 16696      5200
 16697              	.LASF446:
 16698 117d 77616974 		.ascii	"wait\000"
 16698      00
 16699              	.LASF327:
 16700 1182 716E6F74 		.ascii	"qnotify_t\000"
 16700      6966795F 
 16700      7400
 16701              	.LASF360:
 16702 118c 4750545F 		.ascii	"GPT_ONESHOT\000"
 16702      4F4E4553 
 16702      484F5400 
 16703              	.LASF160:
 16704 1198 705F7761 		.ascii	"p_waiting\000"
 16704      6974696E 
 16704      6700
 16705              	.LASF419:
 16706 11a2 6576656E 		.ascii	"event\000"
 16706      7400
 16707              	.LASF408:
 16708 11a8 61646472 		.ascii	"addr\000"
 16708      00
 16709              	.LASF412:
 16710 11ad 646D6174 		.ascii	"dmatx\000"
 16710      7800
 16711              	.LASF252:
 16712 11b3 73655F77 		.ascii	"se_wtobjp\000"
 16712      746F626A 
 16712      7000
 16713              	.LASF501:
 16714 11bd 444F4550 		.ascii	"DOEPTSIZ\000"
 16714      5453495A 
 16714      00
 16715              	.LASF425:
 16716 11c6 72656164 		.ascii	"read\000"
 16716      00
ARM GAS  C:\Users\stoma\AppData\Local\Temp\ccLygOki.s 			page 309


 16717              	.LASF699:
 16718 11cb 2E2E2F2E 		.ascii	"../../lib/ChibiOS/os/hal/ports/STM32/LLD/OTGv1/usb_"
 16718      2E2F6C69 
 16718      622F4368 
 16718      6962694F 
 16718      532F6F73 
 16719 11fe 6C6C642E 		.ascii	"lld.c\000"
 16719      6300
 16720              	.LASF204:
 16721 1204 69646C65 		.ascii	"idle_thread_wa\000"
 16721      5F746872 
 16721      6561645F 
 16721      776100
 16722              	.LASF527:
 16723 1213 4841494E 		.ascii	"HAINT\000"
 16723      5400
 16724              	.LASF0:
 16725 1219 756E7369 		.ascii	"unsigned int\000"
 16725      676E6564 
 16725      20696E74 
 16725      00
 16726              	.LASF502:
 16727 1226 73746D33 		.ascii	"stm32_otg_out_ep_t\000"
 16727      325F6F74 
 16727      675F6F75 
 16727      745F6570 
 16727      5F7400
 16728              	.LASF621:
 16729 1239 7573625F 		.ascii	"usb_lld_init\000"
 16729      6C6C645F 
 16729      696E6974 
 16729      00
 16730              	.LASF592:
 16731 1246 55534243 		.ascii	"USBConfig\000"
 16731      6F6E6669 
 16731      6700
 16732              	.LASF622:
 16733 1250 56656374 		.ascii	"Vector14C\000"
 16733      6F723134 
 16733      4300
 16734              	.LASF541:
 16735 125a 72657376 		.ascii	"resvd820\000"
 16735      64383230 
 16735      00
 16736              	.LASF132:
 16737 1263 7274636E 		.ascii	"rtcnt_t\000"
 16737      745F7400 
 16738              	.LASF445:
 16739 126b 74787065 		.ascii	"txpending\000"
 16739      6E64696E 
 16739      6700
 16740              	.LASF166:
 16741 1275 705F6D70 		.ascii	"p_mpool\000"
 16741      6F6F6C00 
 16742              	.LASF119:
 16743 127d 5F685F65 		.ascii	"_h_errno\000"
 16743      72726E6F 
ARM GAS  C:\Users\stoma\AppData\Local\Temp\ccLygOki.s 			page 310


 16743      00
 16744              	.LASF656:
 16745 1286 6F73616C 		.ascii	"osalSysUnlockFromISR\000"
 16745      53797355 
 16745      6E6C6F63 
 16745      6B46726F 
 16745      6D495352 
 16746              	.LASF653:
 16747 129b 6F73616C 		.ascii	"osalSysPolledDelayX\000"
 16747      53797350 
 16747      6F6C6C65 
 16747      6444656C 
 16747      61795800 
 16748              	.LASF604:
 16749 12af 7573625F 		.ascii	"usb_lld_stall_in\000"
 16749      6C6C645F 
 16749      7374616C 
 16749      6C5F696E 
 16749      00
 16750              	.LASF556:
 16751 12c0 73746D33 		.ascii	"stm32_otg_t\000"
 16751      325F6F74 
 16751      675F7400 
 16752              	.LASF157:
 16753 12cc 705F7265 		.ascii	"p_refs\000"
 16753      667300
 16754              	.LASF607:
 16755 12d3 7573625F 		.ascii	"usb_lld_start_out\000"
 16755      6C6C645F 
 16755      73746172 
 16755      745F6F75 
 16755      7400
 16756              	.LASF264:
 16757 12e5 63756D75 		.ascii	"cumulative\000"
 16757      6C617469 
 16757      766500
 16758              	.LASF117:
 16759 12f0 5F776372 		.ascii	"_wcrtomb_state\000"
 16759      746F6D62 
 16759      5F737461 
 16759      746500
 16760              	.LASF586:
 16761 12ff 73657475 		.ascii	"setup_buf\000"
 16761      705F6275 
 16761      6600
 16762              	.LASF37:
 16763 1309 5F5F746D 		.ascii	"__tm_mday\000"
 16763      5F6D6461 
 16763      7900
 16764              	.LASF313:
 16765 1313 656C5F77 		.ascii	"el_wflags\000"
 16765      666C6167 
 16765      7300
 16766              	.LASF270:
 16767 131d 6B65726E 		.ascii	"kernel_stats_t\000"
 16767      656C5F73 
 16767      74617473 
ARM GAS  C:\Users\stoma\AppData\Local\Temp\ccLygOki.s 			page 311


 16767      5F7400
 16768              	.LASF474:
 16769 132c 75645F73 		.ascii	"ud_size\000"
 16769      697A6500 
 16770              	.LASF88:
 16771 1334 5F6E6577 		.ascii	"_new\000"
 16771      00
 16772              	.LASF63:
 16773 1339 5F756275 		.ascii	"_ubuf\000"
 16773      6600
 16774              	.LASF647:
 16775 133f 6F74675F 		.ascii	"otg_rxfifo_flush\000"
 16775      72786669 
 16775      666F5F66 
 16775      6C757368 
 16775      00
 16776              	.LASF75:
 16777 1350 5F737464 		.ascii	"_stderr\000"
 16777      65727200 
 16778              	.LASF311:
 16779 1358 656C5F65 		.ascii	"el_events\000"
 16779      76656E74 
 16779      7300
 16780              	.LASF697:
 16781 1362 5F706F72 		.ascii	"_port_irq_epilogue\000"
 16781      745F6972 
 16781      715F6570 
 16781      696C6F67 
 16781      756500
 16782              	.LASF110:
 16783 1375 5F776374 		.ascii	"_wctomb_state\000"
 16783      6F6D625F 
 16783      73746174 
 16783      6500
 16784              	.LASF69:
 16785 1383 5F6D6273 		.ascii	"_mbstate\000"
 16785      74617465 
 16785      00
 16786              	.LASF596:
 16787 138c 65703063 		.ascii	"ep0config\000"
 16787      6F6E6669 
 16787      6700
 16788              	.LASF106:
 16789 1396 5F72616E 		.ascii	"_rand_next\000"
 16789      645F6E65 
 16789      787400
 16790              	.LASF580:
 16791 13a1 6F75745F 		.ascii	"out_cb\000"
 16791      636200
 16792              	.LASF686:
 16793 13a8 5F746872 		.ascii	"_thread_memfill\000"
 16793      6561645F 
 16793      6D656D66 
 16793      696C6C00 
 16794              	.LASF55:
 16795 13b8 5F666C61 		.ascii	"_flags\000"
 16795      677300
ARM GAS  C:\Users\stoma\AppData\Local\Temp\ccLygOki.s 			page 312


 16796              	.LASF259:
 16797 13bf 6F666673 		.ascii	"offset\000"
 16797      657400
 16798              	.LASF236:
 16799 13c6 41504231 		.ascii	"APB1LPENR\000"
 16799      4C50454E 
 16799      5200
 16800              	.LASF528:
 16801 13d0 4841494E 		.ascii	"HAINTMSK\000"
 16801      544D534B 
 16801      00
 16802              	.LASF168:
 16803 13d9 74687265 		.ascii	"thread_reference_t\000"
 16803      61645F72 
 16803      65666572 
 16803      656E6365 
 16803      5F7400
 16804              	.LASF48:
 16805 13ec 5F617465 		.ascii	"_atexit\000"
 16805      78697400 
 16806              	.LASF352:
 16807 13f4 50484461 		.ascii	"PHData\000"
 16807      746100
 16808              	.LASF581:
 16809 13fb 696E5F6D 		.ascii	"in_maxsize\000"
 16809      61787369 
 16809      7A6500
 16810              	.LASF509:
 16811 1406 47494E54 		.ascii	"GINTMSK\000"
 16811      4D534B00 
 16812              	.LASF210:
 16813 140e 444D415F 		.ascii	"DMA_Stream_TypeDef\000"
 16813      53747265 
 16813      616D5F54 
 16813      79706544 
 16813      656600
 16814              	.LASF159:
 16815 1421 705F7469 		.ascii	"p_time\000"
 16815      6D6500
 16816              	.LASF301:
 16817 1428 63665F6F 		.ascii	"cf_off_refs\000"
 16817      66665F72 
 16817      65667300 
 16818              	.LASF595:
 16819 1434 65703073 		.ascii	"ep0setup_buffer\000"
 16819      65747570 
 16819      5F627566 
 16819      66657200 
 16820              	.LASF22:
 16821 1444 5F5F636F 		.ascii	"__count\000"
 16821      756E7400 
 16822              	.LASF584:
 16823 144c 6F75745F 		.ascii	"out_state\000"
 16823      73746174 
 16823      6500
 16824              	.LASF342:
 16825 1456 6166726C 		.ascii	"afrl\000"
ARM GAS  C:\Users\stoma\AppData\Local\Temp\ccLygOki.s 			page 313


 16825      00
 16826              	.LASF618:
 16827 145b 7573625F 		.ascii	"usb_lld_reset\000"
 16827      6C6C645F 
 16827      72657365 
 16827      7400
 16828              	.LASF617:
 16829 1469 7573625F 		.ascii	"usb_lld_set_address\000"
 16829      6C6C645F 
 16829      7365745F 
 16829      61646472 
 16829      65737300 
 16830              	.LASF40:
 16831 147d 5F5F746D 		.ascii	"__tm_wday\000"
 16831      5F776461 
 16831      7900
 16832              	.LASF634:
 16833 1487 6F74675F 		.ascii	"otg_fifo_read_to_buffer\000"
 16833      6669666F 
 16833      5F726561 
 16833      645F746F 
 16833      5F627566 
 16834              	.LASF601:
 16835 149f 7573625F 		.ascii	"usb_lld_pump\000"
 16835      6C6C645F 
 16835      70756D70 
 16835      00
 16836              	.LASF220:
 16837 14ac 41484233 		.ascii	"AHB3RSTR\000"
 16837      52535452 
 16837      00
 16838              	.LASF145:
 16839 14b5 74687265 		.ascii	"thread_t\000"
 16839      61645F74 
 16839      00
 16840              	.LASF2:
 16841 14be 6C6F6E67 		.ascii	"long double\000"
 16841      20646F75 
 16841      626C6500 
 16842              	.LASF398:
 16843 14ca 46415354 		.ascii	"FAST_DUTY_CYCLE_16_9\000"
 16843      5F445554 
 16843      595F4359 
 16843      434C455F 
 16843      31365F39 
 16844              	.LASF41:
 16845 14df 5F5F746D 		.ascii	"__tm_yday\000"
 16845      5F796461 
 16845      7900
 16846              	.LASF475:
 16847 14e9 75645F73 		.ascii	"ud_string\000"
 16847      7472696E 
 16847      6700
 16848              	.LASF165:
 16849 14f3 705F7265 		.ascii	"p_realprio\000"
 16849      616C7072 
 16849      696F00
ARM GAS  C:\Users\stoma\AppData\Local\Temp\ccLygOki.s 			page 314


 16850              	.LASF571:
 16851 14fe 72786275 		.ascii	"rxbuf\000"
 16851      6600
 16852              	.LASF461:
 16853 1504 5553425F 		.ascii	"USB_EP0_WAITING_TX0\000"
 16853      4550305F 
 16853      57414954 
 16853      494E475F 
 16853      54583000 
 16854              	.LASF249:
 16855 1518 706F7274 		.ascii	"port_intctx\000"
 16855      5F696E74 
 16855      63747800 
 16856              	.LASF443:
 16857 1524 6F746770 		.ascii	"otgparams\000"
 16857      6172616D 
 16857      7300
 16858              	.LASF98:
 16859 152e 5F736565 		.ascii	"_seed\000"
 16859      6400
 16860              	.LASF61:
 16861 1534 5F736565 		.ascii	"_seek\000"
 16861      6B00
 16862              	.LASF186:
 16863 153a 76745F64 		.ascii	"vt_delta\000"
 16863      656C7461 
 16863      00
 16864              	.LASF403:
 16865 1543 49324343 		.ascii	"I2CConfig\000"
 16865      6F6E6669 
 16865      6700
 16866              	.LASF18:
 16867 154d 5F66706F 		.ascii	"_fpos_t\000"
 16867      735F7400 
 16868              	.LASF21:
 16869 1555 5F5F7763 		.ascii	"__wchb\000"
 16869      686200
 16870              	.LASF222:
 16871 155c 41504231 		.ascii	"APB1RSTR\000"
 16871      52535452 
 16871      00
 16872              	.LASF183:
 16873 1565 63685F76 		.ascii	"ch_virtual_timer\000"
 16873      69727475 
 16873      616C5F74 
 16873      696D6572 
 16873      00
 16874              	.LASF229:
 16875 1576 41504231 		.ascii	"APB1ENR\000"
 16875      454E5200 
 16876              	.LASF280:
 16877 157e 735F636E 		.ascii	"s_cnt\000"
 16877      7400
 16878              	.LASF109:
 16879 1584 5F6D6274 		.ascii	"_mbtowc_state\000"
 16879      6F77635F 
 16879      73746174 
ARM GAS  C:\Users\stoma\AppData\Local\Temp\ccLygOki.s 			page 315


 16879      6500
 16880              	.LASF203:
 16881 1592 6B65726E 		.ascii	"kernel_stats\000"
 16881      656C5F73 
 16881      74617473 
 16881      00
 16882              	.LASF333:
 16883 159f 73656C66 		.ascii	"selfindex\000"
 16883      696E6465 
 16883      7800
 16884              	.LASF606:
 16885 15a9 7573625F 		.ascii	"usb_lld_start_in\000"
 16885      6C6C645F 
 16885      73746172 
 16885      745F696E 
 16885      00
 16886              	.LASF641:
 16887 15ba 73697A65 		.ascii	"size\000"
 16887      00
 16888              	.LASF552:
 16889 15bf 72657376 		.ascii	"resvdD00\000"
 16889      64443030 
 16889      00
 16890              	.LASF15:
 16891 15c8 6C6F6E67 		.ascii	"long long unsigned int\000"
 16891      206C6F6E 
 16891      6720756E 
 16891      7369676E 
 16891      65642069 
 16892              	.LASF519:
 16893 15df 48505458 		.ascii	"HPTXFSIZ\000"
 16893      4653495A 
 16893      00
 16894              	.LASF614:
 16895 15e8 7573625F 		.ascii	"usb_lld_disable_endpoints\000"
 16895      6C6C645F 
 16895      64697361 
 16895      626C655F 
 16895      656E6470 
 16896              	.LASF548:
 16897 1602 72657376 		.ascii	"resvd83C\000"
 16897      64383343 
 16897      00
 16898              	.LASF345:
 16899 160b 50414461 		.ascii	"PAData\000"
 16899      746100
 16900              	.LASF152:
 16901 1612 705F6F6C 		.ascii	"p_older\000"
 16901      64657200 
 16902              	.LASF395:
 16903 161a 6932636F 		.ascii	"i2copmode_t\000"
 16903      706D6F64 
 16903      655F7400 
 16904              	.LASF662:
 16905 1626 63685468 		.ascii	"chThdStartI\000"
 16905      64537461 
 16905      72744900 
ARM GAS  C:\Users\stoma\AppData\Local\Temp\ccLygOki.s 			page 316


 16906              	.LASF128:
 16907 1632 75696E74 		.ascii	"uint16_t\000"
 16907      31365F74 
 16907      00
 16908              	.LASF484:
 16909 163b 4843494E 		.ascii	"HCINT\000"
 16909      5400
 16910              	.LASF654:
 16911 1641 6379636C 		.ascii	"cycles\000"
 16911      657300
 16912              	.LASF45:
 16913 1648 5F64736F 		.ascii	"_dso_handle\000"
 16913      5F68616E 
 16913      646C6500 
 16914              	.LASF139:
 16915 1654 6D73675F 		.ascii	"msg_t\000"
 16915      7400
 16916              	.LASF534:
 16917 165a 4443544C 		.ascii	"DCTL\000"
 16917      00
 16918              	.LASF172:
 16919 165f 63685F74 		.ascii	"ch_threads_queue\000"
 16919      68726561 
 16919      64735F71 
 16919      75657565 
 16919      00
 16920              	.LASF587:
 16921 1670 55534245 		.ascii	"USBEndpointConfig\000"
 16921      6E64706F 
 16921      696E7443 
 16921      6F6E6669 
 16921      6700
 16922              	.LASF97:
 16923 1682 5F72616E 		.ascii	"_rand48\000"
 16923      64343800 
 16924              	.LASF141:
 16925 168a 6576656E 		.ascii	"eventflags_t\000"
 16925      74666C61 
 16925      67735F74 
 16925      00
 16926              	.LASF485:
 16927 1697 4843494E 		.ascii	"HCINTMSK\000"
 16927      544D534B 
 16927      00
 16928              	.LASF300:
 16929 16a0 63665F6F 		.ascii	"cf_off_flags\000"
 16929      66665F66 
 16929      6C616773 
 16929      00
 16930              	.LASF371:
 16931 16ad 43434552 		.ascii	"CCER\000"
 16931      00
 16932              	.LASF74:
 16933 16b2 5F737464 		.ascii	"_stdout\000"
 16933      6F757400 
 16934              	.LASF672:
 16935 16ba 76616C75 		.ascii	"value\000"
ARM GAS  C:\Users\stoma\AppData\Local\Temp\ccLygOki.s 			page 317


 16935      6500
 16936              	.LASF573:
 16937 16c0 72787175 		.ascii	"rxqueued\000"
 16937      65756564 
 16937      00
 16938              	.LASF137:
 16939 16c9 74736C69 		.ascii	"tslices_t\000"
 16939      6365735F 
 16939      7400
 16940              	.LASF358:
 16941 16d3 4750545F 		.ascii	"GPT_READY\000"
 16941      52454144 
 16941      5900
 16942              	.LASF359:
 16943 16dd 4750545F 		.ascii	"GPT_CONTINUOUS\000"
 16943      434F4E54 
 16943      494E554F 
 16943      555300
 16944              	.LASF610:
 16945 16ec 7573625F 		.ascii	"usb_lld_prepare_receive\000"
 16945      6C6C645F 
 16945      70726570 
 16945      6172655F 
 16945      72656365 
 16946              	.LASF65:
 16947 1704 5F626C6B 		.ascii	"_blksize\000"
 16947      73697A65 
 16947      00
 16948              	.LASF52:
 16949 170d 5F626173 		.ascii	"_base\000"
 16949      6500
 16950              	.LASF564:
 16951 1713 71756575 		.ascii	"queue\000"
 16951      6500
 16952              	.LASF673:
 16953 1719 5F737461 		.ascii	"_stats_start_measure_crit_thd\000"
 16953      74735F73 
 16953      74617274 
 16953      5F6D6561 
 16953      73757265 
 16954              	.LASF334:
 16955 1737 76656374 		.ascii	"vector\000"
 16955      6F7200
 16956              	.LASF102:
 16957 173e 5F737472 		.ascii	"_strtok_last\000"
 16957      746F6B5F 
 16957      6C617374 
 16957      00
 16958              	.LASF215:
 16959 174b 4932435F 		.ascii	"I2C_TypeDef\000"
 16959      54797065 
 16959      44656600 
 16960              	.LASF572:
 16961 1757 72787175 		.ascii	"rxqueue\000"
 16961      65756500 
 16962              	.LASF115:
 16963 175f 5F6D6272 		.ascii	"_mbrtowc_state\000"
ARM GAS  C:\Users\stoma\AppData\Local\Temp\ccLygOki.s 			page 318


 16963      746F7763 
 16963      5F737461 
 16963      746500
 16964              	.LASF396:
 16965 176e 5354445F 		.ascii	"STD_DUTY_CYCLE\000"
 16965      44555459 
 16965      5F435943 
 16965      4C4500
 16966              	.LASF202:
 16967 177d 6D61696E 		.ascii	"mainthread\000"
 16967      74687265 
 16967      616400
 16968              	.LASF540:
 16969 1788 4441494E 		.ascii	"DAINTMSK\000"
 16969      544D534B 
 16969      00
 16970              	.LASF25:
 16971 1791 5F666C6F 		.ascii	"_flock_t\000"
 16971      636B5F74 
 16971      00
 16972              	.LASF685:
 16973 179a 63685468 		.ascii	"chThdCreateI\000"
 16973      64437265 
 16973      61746549 
 16973      00
 16974              	.LASF93:
 16975 17a7 5F5F4649 		.ascii	"__FILE\000"
 16975      4C4500
 16976              	.LASF234:
 16977 17ae 41484233 		.ascii	"AHB3LPENR\000"
 16977      4C50454E 
 16977      5200
 16978              	.LASF543:
 16979 17b8 44564255 		.ascii	"DVBUSDIS\000"
 16979      53444953 
 16979      00
 16980              	.LASF498:
 16981 17c1 73746D33 		.ascii	"stm32_otg_in_ep_t\000"
 16981      325F6F74 
 16981      675F696E 
 16981      5F65705F 
 16981      7400
 16982              	.LASF373:
 16983 17d3 444D4152 		.ascii	"DMAR\000"
 16983      00
 16984              	.LASF558:
 16985 17d8 6F74675F 		.ascii	"otg_ram_size\000"
 16985      72616D5F 
 16985      73697A65 
 16985      00
 16986              	.LASF261:
 16987 17e5 62657374 		.ascii	"best\000"
 16987      00
 16988              	.LASF24:
 16989 17ea 5F6D6273 		.ascii	"_mbstate_t\000"
 16989      74617465 
 16989      5F7400
ARM GAS  C:\Users\stoma\AppData\Local\Temp\ccLygOki.s 			page 319


 16990              	.LASF599:
 16991 17f5 6F746770 		.ascii	"otgp\000"
 16991      00
 16992              	.LASF175:
 16993 17fa 725F7175 		.ascii	"r_queue\000"
 16993      65756500 
 16994              	.LASF466:
 16995 1802 75736265 		.ascii	"usbep0state_t\000"
 16995      70307374 
 16995      6174655F 
 16995      7400
 16996              	.LASF107:
 16997 1810 5F723438 		.ascii	"_r48\000"
 16997      00
 16998              	.LASF19:
 16999 1815 77696E74 		.ascii	"wint_t\000"
 16999      5F7400
 17000              	.LASF418:
 17001 181c 53657269 		.ascii	"SerialDriver\000"
 17001      616C4472 
 17001      69766572 
 17001      00
 17002              	.LASF469:
 17003 1829 5553425F 		.ascii	"USB_EVENT_CONFIGURED\000"
 17003      4556454E 
 17003      545F434F 
 17003      4E464947 
 17003      55524544 
 17004              	.LASF555:
 17005 183e 4649464F 		.ascii	"FIFO\000"
 17005      00
 17006              	.LASF28:
 17007 1843 5F6E6578 		.ascii	"_next\000"
 17007      7400
 17008              	.LASF593:
 17009 1849 55534244 		.ascii	"USBD1\000"
 17009      3100
 17010              	.LASF67:
 17011 184f 5F646174 		.ascii	"_data\000"
 17011      6100
 17012              	.LASF319:
 17013 1855 715F7761 		.ascii	"q_waiting\000"
 17013      6974696E 
 17013      6700
 17014              	.LASF200:
 17015 185f 726C6973 		.ascii	"rlist\000"
 17015      7400
 17016              	.LASF134:
 17017 1865 746D6F64 		.ascii	"tmode_t\000"
 17017      655F7400 
 17018              	.LASF211:
 17019 186d 4F415231 		.ascii	"OAR1\000"
 17019      00
 17020              	.LASF212:
 17021 1872 4F415232 		.ascii	"OAR2\000"
 17021      00
 17022              	.LASF417:
ARM GAS  C:\Users\stoma\AppData\Local\Temp\ccLygOki.s 			page 320


 17023 1877 73647374 		.ascii	"sdstate_t\000"
 17023      6174655F 
 17023      7400
 17024              	.LASF225:
 17025 1881 41484231 		.ascii	"AHB1ENR\000"
 17025      454E5200 
 17026              	.LASF529:
 17027 1889 72657376 		.ascii	"resvd41C\000"
 17027      64343143 
 17027      00
 17028              	.LASF481:
 17029 1892 75736267 		.ascii	"usbgetdescriptor_t\000"
 17029      65746465 
 17029      73637269 
 17029      70746F72 
 17029      5F7400
 17030              	.LASF447:
 17031 18a5 77615F70 		.ascii	"wa_pump\000"
 17031      756D7000 
 17032              	.LASF191:
 17033 18ad 76745F73 		.ascii	"vt_systime\000"
 17033      79737469 
 17033      6D6500
 17034              	.LASF416:
 17035 18b8 53445F52 		.ascii	"SD_READY\000"
 17035      45414459 
 17035      00
 17036              	.LASF227:
 17037 18c1 41484233 		.ascii	"AHB3ENR\000"
 17037      454E5200 
 17038              	.LASF655:
 17039 18c9 6F73616C 		.ascii	"osalOsRescheduleS\000"
 17039      4F735265 
 17039      73636865 
 17039      64756C65 
 17039      5300
 17040              	.LASF179:
 17041 18db 725F6F6C 		.ascii	"r_older\000"
 17041      64657200 
 17042              	.LASF260:
 17043 18e3 746D5F63 		.ascii	"tm_calibration_t\000"
 17043      616C6962 
 17043      72617469 
 17043      6F6E5F74 
 17043      00
 17044              	.LASF219:
 17045 18f4 41484232 		.ascii	"AHB2RSTR\000"
 17045      52535452 
 17045      00
 17046              	.LASF407:
 17047 18fd 74687265 		.ascii	"thread\000"
 17047      616400
 17048              	.LASF208:
 17049 1904 4D304152 		.ascii	"M0AR\000"
 17049      00
 17050              	.LASF661:
 17051 1909 6E616D65 		.ascii	"name\000"
ARM GAS  C:\Users\stoma\AppData\Local\Temp\ccLygOki.s 			page 321


 17051      00
 17052              	.LASF645:
 17053 190e 6F74675F 		.ascii	"otg_txfifo_flush\000"
 17053      74786669 
 17053      666F5F66 
 17053      6C757368 
 17053      00
 17054              	.LASF670:
 17055 191f 706F7274 		.ascii	"port_lock\000"
 17055      5F6C6F63 
 17055      6B00
 17056              	.LASF279:
 17057 1929 735F7175 		.ascii	"s_queue\000"
 17057      65756500 
 17058              	.LASF243:
 17059 1931 5243435F 		.ascii	"RCC_TypeDef\000"
 17059      54797065 
 17059      44656600 
 17060              	.LASF108:
 17061 193d 5F6D626C 		.ascii	"_mblen_state\000"
 17061      656E5F73 
 17061      74617465 
 17061      00
 17062              	.LASF545:
 17063 194a 72657376 		.ascii	"resvd830\000"
 17063      64383330 
 17063      00
 17064              	.LASF7:
 17065 1953 73686F72 		.ascii	"short int\000"
 17065      7420696E 
 17065      7400
 17066              	.LASF314:
 17067 195d 6576656E 		.ascii	"event_source\000"
 17067      745F736F 
 17067      75726365 
 17067      00
 17068              	.LASF557:
 17069 196a 72785F66 		.ascii	"rx_fifo_size\000"
 17069      69666F5F 
 17069      73697A65 
 17069      00
 17070              	.LASF131:
 17071 1977 75696E74 		.ascii	"uint64_t\000"
 17071      36345F74 
 17071      00
 17072              	.LASF568:
 17073 1980 6D6F6465 		.ascii	"mode\000"
 17073      00
 17074              	.LASF281:
 17075 1985 63685F6D 		.ascii	"ch_mutex\000"
 17075      75746578 
 17075      00
 17076              	.LASF679:
 17077 198e 63685363 		.ascii	"chSchRescheduleS\000"
 17077      68526573 
 17077      63686564 
 17077      756C6553 
ARM GAS  C:\Users\stoma\AppData\Local\Temp\ccLygOki.s 			page 322


 17077      00
 17078              	.LASF467:
 17079 199f 5553425F 		.ascii	"USB_EVENT_RESET\000"
 17079      4556454E 
 17079      545F5245 
 17079      53455400 
 17080              	.LASF487:
 17081 19af 72657376 		.ascii	"resvd14\000"
 17081      64313400 
 17082              	.LASF646:
 17083 19b7 6669666F 		.ascii	"fifo\000"
 17083      00
 17084              	.LASF420:
 17085 19bc 69717565 		.ascii	"iqueue\000"
 17085      756500
 17086              	.LASF496:
 17087 19c3 44545846 		.ascii	"DTXFSTS\000"
 17087      53545300 
 17088              	.LASF562:
 17089 19cb 74787175 		.ascii	"txqueue\000"
 17089      65756500 
 17090              	.LASF636:
 17091 19d3 6F74675F 		.ascii	"otg_do_pop\000"
 17091      646F5F70 
 17091      6F7000
 17092              	.LASF497:
 17093 19de 72657376 		.ascii	"resvd1C\000"
 17093      64314300 
 17094              	.LASF46:
 17095 19e6 5F666E74 		.ascii	"_fntypes\000"
 17095      79706573 
 17095      00
 17096              	.LASF176:
 17097 19ef 725F7072 		.ascii	"r_prio\000"
 17097      696F00
 17098              	.LASF394:
 17099 19f6 4F504D4F 		.ascii	"OPMODE_SMBUS_HOST\000"
 17099      44455F53 
 17099      4D425553 
 17099      5F484F53 
 17099      5400
 17100              	.LASF193:
 17101 1a08 63685F73 		.ascii	"ch_system_debug\000"
 17101      79737465 
 17101      6D5F6465 
 17101      62756700 
 17102              	.LASF613:
 17103 1a18 7573625F 		.ascii	"usb_lld_get_status_out\000"
 17103      6C6C645F 
 17103      6765745F 
 17103      73746174 
 17103      75735F6F 
 17104              	.LASF39:
 17105 1a2f 5F5F746D 		.ascii	"__tm_year\000"
 17105      5F796561 
 17105      7200
 17106              	.LASF620:
ARM GAS  C:\Users\stoma\AppData\Local\Temp\ccLygOki.s 			page 323


 17107 1a39 7573625F 		.ascii	"usb_lld_start\000"
 17107      6C6C645F 
 17107      73746172 
 17107      7400
 17108              	.LASF546:
 17109 1a47 44494550 		.ascii	"DIEPEMPMSK\000"
 17109      454D504D 
 17109      534B00
 17110              	.LASF296:
 17111 1a52 63665F6F 		.ascii	"cf_off_older\000"
 17111      66665F6F 
 17111      6C646572 
 17111      00
 17112              	.LASF489:
 17113 1a5f 72657376 		.ascii	"resvd1c\000"
 17113      64316300 
 17114              	.LASF317:
 17115 1a67 696F5F71 		.ascii	"io_queue_t\000"
 17115      75657565 
 17115      5F7400
 17116              	.LASF480:
 17117 1a72 75736272 		.ascii	"usbreqhandler_t\000"
 17117      65716861 
 17117      6E646C65 
 17117      725F7400 
 17118              	.LASF491:
 17119 1a82 44494550 		.ascii	"DIEPCTL\000"
 17119      43544C00 
 17120              	.LASF354:
 17121 1a8a 50414C43 		.ascii	"PALConfig\000"
 17121      6F6E6669 
 17121      6700
 17122              	.LASF477:
 17123 1a94 75736263 		.ascii	"usbcallback_t\000"
 17123      616C6C62 
 17123      61636B5F 
 17123      7400
 17124              	.LASF507:
 17125 1aa2 47525354 		.ascii	"GRSTCTL\000"
 17125      43544C00 
 17126              	.LASF565:
 17127 1aaa 74787175 		.ascii	"txqueued\000"
 17127      65756564 
 17127      00
 17128              	.LASF508:
 17129 1ab3 47494E54 		.ascii	"GINTSTS\000"
 17129      53545300 
 17130              	.LASF57:
 17131 1abb 5F6C6266 		.ascii	"_lbfsize\000"
 17131      73697A65 
 17131      00
 17132              	.LASF629:
 17133 1ac4 6F74675F 		.ascii	"otg_fifo_read_to_queue\000"
 17133      6669666F 
 17133      5F726561 
 17133      645F746F 
 17133      5F717565 
ARM GAS  C:\Users\stoma\AppData\Local\Temp\ccLygOki.s 			page 324


 17134              	.LASF201:
 17135 1adb 76746C69 		.ascii	"vtlist\000"
 17135      737400
 17136              	.LASF76:
 17137 1ae2 5F696E63 		.ascii	"_inc\000"
 17137      00
 17138              	.LASF49:
 17139 1ae7 5F696E64 		.ascii	"_ind\000"
 17139      00
 17140              	.LASF382:
 17141 1aec 47505444 		.ascii	"GPTD11\000"
 17141      313100
 17142              	.LASF493:
 17143 1af3 44494550 		.ascii	"DIEPINT\000"
 17143      494E5400 
 17144              	.LASF514:
 17145 1afb 484E5054 		.ascii	"HNPTXSTS\000"
 17145      58535453 
 17145      00
 17146              	.LASF677:
 17147 1b04 63685379 		.ascii	"chSysHalt\000"
 17147      7348616C 
 17147      7400
 17148              	.LASF51:
 17149 1b0e 5F5F7362 		.ascii	"__sbuf\000"
 17149      756600
 17150              	.LASF47:
 17151 1b15 5F69735F 		.ascii	"_is_cxa\000"
 17151      63786100 
 17152              	.LASF16:
 17153 1b1d 5F4C4F43 		.ascii	"_LOCK_T\000"
 17153      4B5F5400 
 17154              	.LASF306:
 17155 1b25 6D757465 		.ascii	"mutex_t\000"
 17155      785F7400 
 17156              	.LASF136:
 17157 1b2d 74726566 		.ascii	"trefs_t\000"
 17157      735F7400 
 17158              	.LASF120:
 17159 1b35 5F6E6578 		.ascii	"_nextf\000"
 17159      746600
 17160              	.LASF298:
 17161 1b3c 63665F6F 		.ascii	"cf_off_stklimit\000"
 17161      66665F73 
 17161      746B6C69 
 17161      6D697400 
 17162              	.LASF169:
 17163 1b4c 74687265 		.ascii	"threads_list_t\000"
 17163      6164735F 
 17163      6C697374 
 17163      5F7400
 17164              	.LASF391:
 17165 1b5b 69326366 		.ascii	"i2cflags_t\000"
 17165      6C616773 
 17165      5F7400
 17166              	.LASF591:
 17167 1b66 736F665F 		.ascii	"sof_cb\000"
ARM GAS  C:\Users\stoma\AppData\Local\Temp\ccLygOki.s 			page 325


 17167      636200
 17168              	.LASF440:
 17169 1b6d 73746174 		.ascii	"status\000"
 17169      757300
 17170              	.LASF554:
 17171 1b74 72657376 		.ascii	"resvdE04\000"
 17171      64453034 
 17171      00
 17172              	.LASF515:
 17173 1b7d 72657376 		.ascii	"resvd30\000"
 17173      64333000 
 17174              	.LASF199:
 17175 1b85 63685F73 		.ascii	"ch_system\000"
 17175      79737465 
 17175      6D00
 17176              	.LASF400:
 17177 1b8f 6F705F6D 		.ascii	"op_mode\000"
 17177      6F646500 
 17178              	.LASF516:
 17179 1b97 72657376 		.ascii	"resvd34\000"
 17179      64333400 
 17180              	.LASF79:
 17181 1b9f 5F6C6F63 		.ascii	"_locale\000"
 17181      616C6500 
 17182              	.LASF27:
 17183 1ba7 5F5F554C 		.ascii	"__ULong\000"
 17183      6F6E6700 
 17184              	.LASF372:
 17185 1baf 42445452 		.ascii	"BDTR\000"
 17185      00
 17186              	.LASF644:
 17187 1bb4 6F74675F 		.ascii	"otg_ram_reset\000"
 17187      72616D5F 
 17187      72657365 
 17187      7400
 17188              	.LASF130:
 17189 1bc2 75696E74 		.ascii	"uint32_t\000"
 17189      33325F74 
 17189      00
 17190              	.LASF448:
 17191 1bcb 75736265 		.ascii	"usbep_t\000"
 17191      705F7400 
 17192              	.LASF82:
 17193 1bd3 5F726573 		.ascii	"_result\000"
 17193      756C7400 
 17194              	.LASF328:
 17195 1bdb 696E7075 		.ascii	"input_queue_t\000"
 17195      745F7175 
 17195      6575655F 
 17195      7400
 17196              	.LASF625:
 17197 1be9 6F74675F 		.ascii	"otg_epout_handler\000"
 17197      65706F75 
 17197      745F6861 
 17197      6E646C65 
 17197      7200
 17198              	.LASF385:
ARM GAS  C:\Users\stoma\AppData\Local\Temp\ccLygOki.s 			page 326


 17199 1bfb 4932435F 		.ascii	"I2C_READY\000"
 17199      52454144 
 17199      5900
 17200              	.LASF689:
 17201 1c05 5F646267 		.ascii	"_dbg_check_lock_from_isr\000"
 17201      5F636865 
 17201      636B5F6C 
 17201      6F636B5F 
 17201      66726F6D 
 17202              	.LASF551:
 17203 1c1e 72657376 		.ascii	"resvd8C0\000"
 17203      64384330 
 17203      00
 17204              	.LASF350:
 17205 1c27 50464461 		.ascii	"PFData\000"
 17205      746100
 17206              	.LASF17:
 17207 1c2e 5F6F6666 		.ascii	"_off_t\000"
 17207      5F7400
 17208              	.LASF308:
 17209 1c35 6576656E 		.ascii	"event_listener\000"
 17209      745F6C69 
 17209      7374656E 
 17209      657200
 17210              	.LASF627:
 17211 1c44 6F74675F 		.ascii	"otg_epin_handler\000"
 17211      6570696E 
 17211      5F68616E 
 17211      646C6572 
 17211      00
 17212              	.LASF631:
 17213 1c55 6E746F67 		.ascii	"ntogo\000"
 17213      6F00
 17214              	.LASF271:
 17215 1c5b 7264796D 		.ascii	"rdymsg\000"
 17215      736700
 17216              	.LASF100:
 17217 1c62 5F616464 		.ascii	"_add\000"
 17217      00
 17218              	.LASF357:
 17219 1c67 4750545F 		.ascii	"GPT_STOP\000"
 17219      53544F50 
 17219      00
 17220              	.LASF9:
 17221 1c70 73686F72 		.ascii	"short unsigned int\000"
 17221      7420756E 
 17221      7369676E 
 17221      65642069 
 17221      6E7400
 17222              	.LASF36:
 17223 1c83 5F5F746D 		.ascii	"__tm_hour\000"
 17223      5F686F75 
 17223      7200
 17224              	.LASF535:
 17225 1c8d 44535453 		.ascii	"DSTS\000"
 17225      00
 17226              	.LASF589:
ARM GAS  C:\Users\stoma\AppData\Local\Temp\ccLygOki.s 			page 327


 17227 1c92 6765745F 		.ascii	"get_descriptor_cb\000"
 17227      64657363 
 17227      72697074 
 17227      6F725F63 
 17227      6200
 17228              	.LASF401:
 17229 1ca4 636C6F63 		.ascii	"clock_speed\000"
 17229      6B5F7370 
 17229      65656400 
 17230              	.LASF198:
 17231 1cb0 63685F73 		.ascii	"ch_system_t\000"
 17231      79737465 
 17231      6D5F7400 
 17232              	.LASF304:
 17233 1cbc 63686465 		.ascii	"chdebug_t\000"
 17233      6275675F 
 17233      7400
 17234              	.LASF470:
 17235 1cc6 5553425F 		.ascii	"USB_EVENT_SUSPEND\000"
 17235      4556454E 
 17235      545F5355 
 17235      5350454E 
 17235      4400
 17236              	.LASF431:
 17237 1cd8 7472616E 		.ascii	"transmitting\000"
 17237      736D6974 
 17237      74696E67 
 17237      00
 17238              	.LASF288:
 17239 1ce5 63685F73 		.ascii	"ch_size\000"
 17239      697A6500 
 17240              	.LASF116:
 17241 1ced 5F6D6273 		.ascii	"_mbsrtowcs_state\000"
 17241      72746F77 
 17241      63735F73 
 17241      74617465 
 17241      00
 17242              	.LASF329:
 17243 1cfe 6F757470 		.ascii	"output_queue_t\000"
 17243      75745F71 
 17243      75657565 
 17243      5F7400
 17244              	.LASF434:
 17245 1d0d 6F75745F 		.ascii	"out_params\000"
 17245      70617261 
 17245      6D7300
 17246              	.LASF154:
 17247 1d18 705F7374 		.ascii	"p_stklimit\000"
 17247      6B6C696D 
 17247      697400
 17248              	.LASF633:
 17249 1d23 6E773265 		.ascii	"nw2end\000"
 17249      6E6400
 17250              	.LASF455:
 17251 1d2a 45505F53 		.ascii	"EP_STATUS_DISABLED\000"
 17251      54415455 
 17251      535F4449 
ARM GAS  C:\Users\stoma\AppData\Local\Temp\ccLygOki.s 			page 328


 17251      5341424C 
 17251      454400
 17252              	.LASF10:
 17253 1d3d 5F5F696E 		.ascii	"__int32_t\000"
 17253      7433325F 
 17253      7400
 17254              	.LASF415:
 17255 1d47 53445F53 		.ascii	"SD_STOP\000"
 17255      544F5000 
 17256              	.LASF648:
 17257 1d4f 6F74675F 		.ascii	"otg_disable_ep\000"
 17257      64697361 
 17257      626C655F 
 17257      657000
 17258              	.LASF526:
 17259 1d5e 48505458 		.ascii	"HPTXSTS\000"
 17259      53545300 
 17260              	.LASF207:
 17261 1d66 4E445452 		.ascii	"NDTR\000"
 17261      00
 17262              	.LASF331:
 17263 1d6b 69666372 		.ascii	"ifcr\000"
 17263      00
 17264              	.LASF518:
 17265 1d70 72657376 		.ascii	"resvd58\000"
 17265      64353800 
 17266              	.LASF464:
 17267 1d78 5553425F 		.ascii	"USB_EP0_SENDING_STS\000"
 17267      4550305F 
 17267      53454E44 
 17267      494E475F 
 17267      53545300 
 17268              	.LASF531:
 17269 1d8c 72657376 		.ascii	"resvd444\000"
 17269      64343434 
 17269      00
 17270              	.LASF180:
 17271 1d95 725F6375 		.ascii	"r_current\000"
 17271      7272656E 
 17271      7400
 17272              	.LASF660:
 17273 1d9f 63685265 		.ascii	"chRegSetThreadName\000"
 17273      67536574 
 17273      54687265 
 17273      61644E61 
 17273      6D6500
 17274              	.LASF44:
 17275 1db2 5F666E61 		.ascii	"_fnargs\000"
 17275      72677300 
 17276              	.LASF523:
 17277 1dba 48464952 		.ascii	"HFIR\000"
 17277      00
 17278              	.LASF42:
 17279 1dbf 5F5F746D 		.ascii	"__tm_isdst\000"
 17279      5F697364 
 17279      737400
 17280              	.LASF250:
ARM GAS  C:\Users\stoma\AppData\Local\Temp\ccLygOki.s 			page 329


 17281 1dca 73655F74 		.ascii	"se_time\000"
 17281      696D6500 
 17282              	.LASF384:
 17283 1dd2 4932435F 		.ascii	"I2C_STOP\000"
 17283      53544F50 
 17283      00
 17284              	.LASF153:
 17285 1ddb 705F6E61 		.ascii	"p_name\000"
 17285      6D6500
 17286              	.LASF642:
 17287 1de2 6E657874 		.ascii	"next\000"
 17287      00
 17288              	.LASF284:
 17289 1de7 6D5F6E65 		.ascii	"m_next\000"
 17289      787400
 17290              	.LASF256:
 17291 1dee 74625F70 		.ascii	"tb_ptr\000"
 17291      747200
 17292              	.LASF444:
 17293 1df5 706D6E65 		.ascii	"pmnext\000"
 17293      787400
 17294              	.LASF640:
 17295 1dfc 6F74675F 		.ascii	"otg_ram_alloc\000"
 17295      72616D5F 
 17295      616C6C6F 
 17295      6300
 17296              	.LASF35:
 17297 1e0a 5F5F746D 		.ascii	"__tm_min\000"
 17297      5F6D696E 
 17297      00
 17298              	.LASF410:
 17299 1e13 7478646D 		.ascii	"txdmamode\000"
 17299      616D6F64 
 17299      6500
 17300              	.LASF506:
 17301 1e1d 47555342 		.ascii	"GUSBCFG\000"
 17301      43464700 
 17302              	.LASF113:
 17303 1e25 5F676574 		.ascii	"_getdate_err\000"
 17303      64617465 
 17303      5F657272 
 17303      00
 17304              	.LASF366:
 17305 1e32 67707463 		.ascii	"gptcallback_t\000"
 17305      616C6C62 
 17305      61636B5F 
 17305      7400
 17306              	.LASF463:
 17307 1e40 5553425F 		.ascii	"USB_EP0_RX\000"
 17307      4550305F 
 17307      525800
 17308              	.LASF521:
 17309 1e4b 72657376 		.ascii	"resvd140\000"
 17309      64313430 
 17309      00
 17310              	.LASF275:
 17311 1e54 77747365 		.ascii	"wtsemp\000"
ARM GAS  C:\Users\stoma\AppData\Local\Temp\ccLygOki.s 			page 330


 17311      6D7000
 17312              	.LASF263:
 17313 1e5b 6C617374 		.ascii	"last\000"
 17313      00
 17314              	.LASF162:
 17315 1e60 705F6D73 		.ascii	"p_msg\000"
 17315      6700
 17316              	.LASF310:
 17317 1e66 656C5F6C 		.ascii	"el_listener\000"
 17317      69737465 
 17317      6E657200 
 17318              	.LASF351:
 17319 1e72 50474461 		.ascii	"PGData\000"
 17319      746100
 17320              	.LASF649:
 17321 1e79 6F74675F 		.ascii	"otg_core_reset\000"
 17321      636F7265 
 17321      5F726573 
 17321      657400
 17322              	.LASF155:
 17323 1e88 705F7374 		.ascii	"p_state\000"
 17323      61746500 
 17324              		.ident	"GCC: (GNU Tools for Arm Embedded Processors 7-2017-q4-major) 7.2.1 20170904 (release) [ARM
ARM GAS  C:\Users\stoma\AppData\Local\Temp\ccLygOki.s 			page 331


DEFINED SYMBOLS
                            *ABS*:00000000 usb_lld.c
C:\Users\stoma\AppData\Local\Temp\ccLygOki.s:18     .text.otg_disable_ep.isra.0:00000000 $t
C:\Users\stoma\AppData\Local\Temp\ccLygOki.s:25     .text.otg_disable_ep.isra.0:00000000 otg_disable_ep.isra.0
C:\Users\stoma\AppData\Local\Temp\ccLygOki.s:116    .text.usb_lld_pump:00000000 $t
C:\Users\stoma\AppData\Local\Temp\ccLygOki.s:124    .text.usb_lld_pump:00000000 usb_lld_pump
C:\Users\stoma\AppData\Local\Temp\ccLygOki.s:697    .text.usb_lld_pump:00000218 $d
C:\Users\stoma\AppData\Local\Temp\ccLygOki.s:719    .text.usb_lld_pump:00000224 $t
C:\Users\stoma\AppData\Local\Temp\ccLygOki.s:1302   .text.usb_lld_pump:00000480 $d
C:\Users\stoma\AppData\Local\Temp\ccLygOki.s:1309   .text.usb_lld_init:00000000 $t
C:\Users\stoma\AppData\Local\Temp\ccLygOki.s:1317   .text.usb_lld_init:00000000 usb_lld_init
C:\Users\stoma\AppData\Local\Temp\ccLygOki.s:1383   .text.usb_lld_init:0000003c $d
C:\Users\stoma\AppData\Local\Temp\ccLygOki.s:1390   .text.usb_lld_start:00000000 $t
C:\Users\stoma\AppData\Local\Temp\ccLygOki.s:1398   .text.usb_lld_start:00000000 usb_lld_start
C:\Users\stoma\AppData\Local\Temp\ccLygOki.s:1611   .text.usb_lld_start:000000e0 $d
C:\Users\stoma\AppData\Local\Temp\ccLygOki.s:1621   .text.usb_lld_stop:00000000 $t
C:\Users\stoma\AppData\Local\Temp\ccLygOki.s:1629   .text.usb_lld_stop:00000000 usb_lld_stop
C:\Users\stoma\AppData\Local\Temp\ccLygOki.s:1690   .text.usb_lld_stop:0000003c $d
C:\Users\stoma\AppData\Local\Temp\ccLygOki.s:1696   .text.usb_lld_reset:00000000 $t
C:\Users\stoma\AppData\Local\Temp\ccLygOki.s:1704   .text.usb_lld_reset:00000000 usb_lld_reset
C:\Users\stoma\AppData\Local\Temp\ccLygOki.s:1880   .text.usb_lld_reset:000000c4 $d
C:\Users\stoma\AppData\Local\Temp\ccLygOki.s:1887   .text.usb_lld_set_address:00000000 $t
C:\Users\stoma\AppData\Local\Temp\ccLygOki.s:1895   .text.usb_lld_set_address:00000000 usb_lld_set_address
C:\Users\stoma\AppData\Local\Temp\ccLygOki.s:1918   .text.usb_lld_init_endpoint:00000000 $t
C:\Users\stoma\AppData\Local\Temp\ccLygOki.s:1926   .text.usb_lld_init_endpoint:00000000 usb_lld_init_endpoint
C:\Users\stoma\AppData\Local\Temp\ccLygOki.s:2184   .text.usb_lld_init_endpoint:0000016c $d
C:\Users\stoma\AppData\Local\Temp\ccLygOki.s:2196   .text.usb_lld_disable_endpoints:00000000 $t
C:\Users\stoma\AppData\Local\Temp\ccLygOki.s:2204   .text.usb_lld_disable_endpoints:00000000 usb_lld_disable_endpoints
C:\Users\stoma\AppData\Local\Temp\ccLygOki.s:2231   .text.usb_lld_get_status_out:00000000 $t
C:\Users\stoma\AppData\Local\Temp\ccLygOki.s:2239   .text.usb_lld_get_status_out:00000000 usb_lld_get_status_out
C:\Users\stoma\AppData\Local\Temp\ccLygOki.s:2271   .text.usb_lld_get_status_in:00000000 $t
C:\Users\stoma\AppData\Local\Temp\ccLygOki.s:2279   .text.usb_lld_get_status_in:00000000 usb_lld_get_status_in
C:\Users\stoma\AppData\Local\Temp\ccLygOki.s:2311   .text.usb_lld_read_setup:00000000 $t
C:\Users\stoma\AppData\Local\Temp\ccLygOki.s:2319   .text.usb_lld_read_setup:00000000 usb_lld_read_setup
C:\Users\stoma\AppData\Local\Temp\ccLygOki.s:2342   .text.usb_lld_prepare_receive:00000000 $t
C:\Users\stoma\AppData\Local\Temp\ccLygOki.s:2350   .text.usb_lld_prepare_receive:00000000 usb_lld_prepare_receive
C:\Users\stoma\AppData\Local\Temp\ccLygOki.s:2414   .text.usb_lld_prepare_receive:0000003c $d
C:\Users\stoma\AppData\Local\Temp\ccLygOki.s:2419   .text.otg_epout_handler.constprop.7:00000000 $t
C:\Users\stoma\AppData\Local\Temp\ccLygOki.s:2426   .text.otg_epout_handler.constprop.7:00000000 otg_epout_handler.constprop.7
C:\Users\stoma\AppData\Local\Temp\ccLygOki.s:2602   .text.otg_epout_handler.constprop.7:000000a8 $d
C:\Users\stoma\AppData\Local\Temp\ccLygOki.s:2607   .text.usb_lld_prepare_transmit:00000000 $t
C:\Users\stoma\AppData\Local\Temp\ccLygOki.s:2615   .text.usb_lld_prepare_transmit:00000000 usb_lld_prepare_transmit
C:\Users\stoma\AppData\Local\Temp\ccLygOki.s:2694   .text.otg_epin_handler.constprop.8:00000000 $t
C:\Users\stoma\AppData\Local\Temp\ccLygOki.s:2701   .text.otg_epin_handler.constprop.8:00000000 otg_epin_handler.constprop.8
C:\Users\stoma\AppData\Local\Temp\ccLygOki.s:2954   .text.otg_epin_handler.constprop.8:000000e8 $d
C:\Users\stoma\AppData\Local\Temp\ccLygOki.s:2968   .text.Vector14C:00000000 $t
C:\Users\stoma\AppData\Local\Temp\ccLygOki.s:2976   .text.Vector14C:00000000 Vector14C
C:\Users\stoma\AppData\Local\Temp\ccLygOki.s:3285   .text.Vector14C:0000010c $d
C:\Users\stoma\AppData\Local\Temp\ccLygOki.s:3293   .text.usb_lld_start_out:00000000 $t
C:\Users\stoma\AppData\Local\Temp\ccLygOki.s:3301   .text.usb_lld_start_out:00000000 usb_lld_start_out
C:\Users\stoma\AppData\Local\Temp\ccLygOki.s:3322   .text.usb_lld_start_in:00000000 $t
C:\Users\stoma\AppData\Local\Temp\ccLygOki.s:3330   .text.usb_lld_start_in:00000000 usb_lld_start_in
C:\Users\stoma\AppData\Local\Temp\ccLygOki.s:3369   .text.usb_lld_stall_out:00000000 $t
C:\Users\stoma\AppData\Local\Temp\ccLygOki.s:3377   .text.usb_lld_stall_out:00000000 usb_lld_stall_out
C:\Users\stoma\AppData\Local\Temp\ccLygOki.s:3398   .text.usb_lld_stall_in:00000000 $t
C:\Users\stoma\AppData\Local\Temp\ccLygOki.s:3406   .text.usb_lld_stall_in:00000000 usb_lld_stall_in
C:\Users\stoma\AppData\Local\Temp\ccLygOki.s:3427   .text.usb_lld_clear_out:00000000 $t
ARM GAS  C:\Users\stoma\AppData\Local\Temp\ccLygOki.s 			page 332


C:\Users\stoma\AppData\Local\Temp\ccLygOki.s:3435   .text.usb_lld_clear_out:00000000 usb_lld_clear_out
C:\Users\stoma\AppData\Local\Temp\ccLygOki.s:3456   .text.usb_lld_clear_in:00000000 $t
C:\Users\stoma\AppData\Local\Temp\ccLygOki.s:3464   .text.usb_lld_clear_in:00000000 usb_lld_clear_in
C:\Users\stoma\AppData\Local\Temp\ccLygOki.s:3490   .bss.USBD1:00000000 USBD1
C:\Users\stoma\AppData\Local\Temp\ccLygOki.s:3486   .bss.USBD1:00000000 $d
C:\Users\stoma\AppData\Local\Temp\ccLygOki.s:3493   .bss.ep0_state:00000000 $d
C:\Users\stoma\AppData\Local\Temp\ccLygOki.s:3496   .bss.ep0_state:00000000 ep0_state
C:\Users\stoma\AppData\Local\Temp\ccLygOki.s:3499   .bss.ep0setup_buffer:00000000 $d
C:\Users\stoma\AppData\Local\Temp\ccLygOki.s:3502   .bss.ep0setup_buffer:00000000 ep0setup_buffer
C:\Users\stoma\AppData\Local\Temp\ccLygOki.s:3505   .rodata.__func__.7554:00000000 $d
C:\Users\stoma\AppData\Local\Temp\ccLygOki.s:3509   .rodata.__func__.7554:00000000 __func__.7554
C:\Users\stoma\AppData\Local\Temp\ccLygOki.s:3512   .rodata.__func__.7721:00000000 $d
C:\Users\stoma\AppData\Local\Temp\ccLygOki.s:3516   .rodata.__func__.7721:00000000 __func__.7721
C:\Users\stoma\AppData\Local\Temp\ccLygOki.s:3519   .rodata.__func__.9336:00000000 $d
C:\Users\stoma\AppData\Local\Temp\ccLygOki.s:3523   .rodata.__func__.9336:00000000 __func__.9336
C:\Users\stoma\AppData\Local\Temp\ccLygOki.s:3526   .rodata.ep0config:00000000 $d
C:\Users\stoma\AppData\Local\Temp\ccLygOki.s:3530   .rodata.ep0config:00000000 ep0config
C:\Users\stoma\AppData\Local\Temp\ccLygOki.s:3543   .rodata.fsparams:00000000 $d
C:\Users\stoma\AppData\Local\Temp\ccLygOki.s:3547   .rodata.fsparams:00000000 fsparams
C:\Users\stoma\AppData\Local\Temp\ccLygOki.s:3552   .rodata.usb_lld_pump.str1.4:00000000 $d

UNDEFINED SYMBOLS
_stats_start_measure_crit_thd
_dbg_check_lock
chThdSuspendS
_dbg_check_unlock
_stats_stop_measure_crit_thd
chSysHalt
chThdDequeueAllI
chSchRescheduleS
ch
usbObjectInit
_thread_memfill
chSysPolledDelayX
nvicEnableVector
chThdCreateI
chSchReadyI
nvicDisableVector
_stats_start_measure_crit_isr
_dbg_check_lock_from_isr
_dbg_check_unlock_from_isr
_stats_stop_measure_crit_isr
chThdResumeI
_stats_increase_irq
_dbg_check_enter_isr
_dbg_check_leave_isr
_port_irq_epilogue
_usb_reset
_usb_ep0setup
_usb_ep0in
_usb_ep0out
